MPASM 5.84                          HARD.ASM   9-25-2025  12:53:08         PAGE  1


LOC  OBJECT CODE     LINE SOURCE TEXT
  VALUE

Warning[205]: Found directive in column 1. (List)
                      00001 List p=18f4520 
                      00002     #include<p18f4520.inc>
                      00001         LIST
                      00002 
                      00003 ;==========================================================================
                      00004 ; Build date : Mar 17 2019
                      00005 ;  MPASM PIC18F4520 processor include
                      00006 ; 
                      00007 ;  (c) Copyright 1999-2019 Microchip Technology, All rights reserved
                      00008 ;==========================================================================
                      00009 
                      01489         LIST
                      00003     CONFIG OSC = INTIO67
                      00004     CONFIG WDT = OFF
                      00005     org 0x00
                      00006 
000000 0103           00007     MOVLB 0x03
                      00008 
000002 0EC4           00009     MOVLW 0xC4
000004 6F00           00010     MOVWF 0x00, 1
                      00011 
000006 0EBB           00012     MOVLW 0xBB
000008 6F01           00013     MOVWF 0x01, 1
                      00014 
00000A 0EBB           00015     MOVLW 0xBB
00000C 6F02           00016     MOVWF 0x02, 1
                      00017 
00000E 0E00           00018     MOVLW 0x00
000010 6F03           00019     MOVWF 0x03, 1
                      00020 
000012 0E4C           00021     MOVLW 0x4C
000014 6F04           00022     MOVWF 0x04, 1
                      00023 
000016 0E8B           00024     MOVLW 0x8B
000018 6F05           00025     MOVWF 0x05, 1
                      00026 
00001A 0EBB           00027     MOVLW 0xBB
00001C 6F06           00028     MOVWF 0x06, 1 
                      00029 
00001E 0E00           00030     MOVLW 0x00
000020 6F07           00031     MOVWF 0x07, 1
                      00032 
000022 EE03 F000      00033     LFSR 0, 0x300 ; slow ptr
000026 EE13 F001      00034     LFSR 1, 0x301 ; fast ptr
00002A EE23 F020      00035     LFSR 2, 0x320 ; res ptr (unsorted)
                      00036 
00002E 6B09           00037     CLRF 0x09, 1 ; pair_cnt
                      00038 
Warning[207]: Found label after column 1. (loopo)
000030                00039     loopo: ; move slow
Warning[207]: Found label after column 1. (loop)
000030                00040         loop: ; move fast
MPASM 5.84                          HARD.ASM   9-25-2025  12:53:08         PAGE  2


LOC  OBJECT CODE     LINE SOURCE TEXT
  VALUE

                      00041 
000030 44E7           00042             RLNCF INDF1, W
000032 46E8           00043             RLNCF WREG
000034 46E8           00044             RLNCF WREG
000036 46E8           00045             RLNCF WREG
                      00046             
                      00047             
                      00048             
000038 62EF           00049             CPFSEQ INDF0
00003A EF?? F???      00050             GOTO ELSE_BLOCK
                      00051             
00003E 0E10           00052             MOVLW 0x10
000040 26E9           00053             ADDWF FSR0L
000042 26E1           00054             ADDWF FSR1L
                      00055             
000044 CFEF F30A      00056             MOVFF INDF0, 0x30A
000048 CFE7 F30B      00057             MOVFF INDF1, 0x30B
                      00058             
00004C 0E10           00059             MOVLW 0x10
00004E 5EE9           00060             SUBWF FSR0L
000050 5EE1           00061             SUBWF FSR1L
                      00062             
000052 510A           00063             MOVF 0x0A, W, 1
000054 E1??           00064             BNZ ELSE_BLOCK
                      00065             
000056 510B           00066             MOVF 0x0B, W, 1
000058 E1??           00067             BNZ ELSE_BLOCK
                      00068 
Warning[207]: Found label after column 1. (IF_BLOCK)
00005A                00069             IF_BLOCK: ; is reverse(0x2B 0xB2) and not paired
00005A 2B09           00070                 INCF    0x09, f, 1 ; pair_cnt++
                      00071                 
00005C 0E10           00072                 MOVLW 0x10
00005E 26E9           00073                 ADDWF FSR0L
000060 26E1           00074                 ADDWF FSR1L
                      00075                 
000062 2AEF           00076                 INCF INDF0
000064 2AE7           00077                 INCF INDF1
                      00078                 
000066 0E10           00079                 MOVLW 0x10
000068 5EE9           00080                 SUBWF FSR0L
00006A 5EE1           00081                 SUBWF FSR1L
                      00082         
00006C 50E7           00083                 MOVF INDF1, W
00006E 64EF           00084                 CPFSGT INDF0
000070 EF?? F???      00085                 GOTO ELSE_BLOCK_1 
                      00086 
Warning[207]: Found label after column 1. (IF_BLOCK_1)
000074                00087                 IF_BLOCK_1: ; if slow > fast
000074 CFE7 FFDE      00088                     MOVFF INDF1, POSTINC2 ; put fast in res array
000078 EF?? F???      00089                     GOTO END_IF_1
                      00090 
Warning[207]: Found label after column 1. (ELSE_BLOCK_1)
MPASM 5.84                          HARD.ASM   9-25-2025  12:53:08         PAGE  3


LOC  OBJECT CODE     LINE SOURCE TEXT
  VALUE

00007C                00091                 ELSE_BLOCK_1: ; else (slow >= fast)
00007C CFEF FFDE      00092                     MOVFF INDF0, POSTINC2 ; put slow in res array
                      00093 
Warning[207]: Found label after column 1. (END_IF_1)
000080                00094                 END_IF_1:
                      00095         
000080 EF?? F???      00096                 GOTO break_loop
                      00097 
Warning[207]: Found label after column 1. (ELSE_BLOCK)
000084                00098             ELSE_BLOCK: ; not reverse
000084 2AE1           00099                 INCF FSR1L ; fix: how to ++ a 12 bit register
                      00100                 
000086 0E07           00101                 MOVLW 0x07
000088 64E1           00102                 CPFSGT FSR1L
00008A EF?? F???      00103                 GOTO loop
Warning[207]: Found label after column 1. (break_loop)
00008E                00104             break_loop:
                      00105     
                      00106             ; slow++
00008E 2AE9           00107             INCF FSR0L ; fix: how to ++ a 12 bit register
000090 CFE9 FFE1      00108             MOVFF FSR0L, FSR1L ; can specify by 12bits but cant move 12bits (MOVFF FSR0, FSR1 is wrong)
000094 2AE1           00109             INCF FSR1L ; fix: how to ++ a 12 bit register
                      00110             
000096 0E07           00111         MOVLW 0x07
000098 64E9           00112         CPFSGT FSR0L
00009A EF?? F???      00113         GOTO loopo
                      00114         
00009E 0E04           00115         MOVLW 0x04
0000A0 6309           00116         CPFSEQ 0x09, 1
0000A2 EF?? F???      00117         GOTO ELSE_BLOCK_2 
                      00118 
Warning[207]: Found label after column 1. (IF_BLOCK_2)
0000A6                00119         IF_BLOCK_2: ; if pair_cnt == 4
                      00120             ;sort res
0000A6 EE23 F023      00121             LFSR 2, 0x323 ; j
                      00122 
Warning[207]: Found label after column 1. (loop1)
0000AA                00123             loop1:
0000AA EE03 F020      00124                 LFSR 0, 0x320 ; i 
0000AE EE13 F021      00125                 LFSR 1, 0x321 ; i + 1
                      00126 
Warning[207]: Found label after column 1. (loop2)
0000B2                00127                 loop2:
0000B2 50E7           00128                     MOVF INDF1, W 
0000B4 64EF           00129                     CPFSGT INDF0
0000B6 EF?? F???      00130                     GOTO ELSE_BLOCK_3
                      00131 
Warning[207]: Found label after column 1. (IF_BLOCK_3)
0000BA                00132                     IF_BLOCK_3: ; if [i] > [i + 1]
0000BA 50EF           00133                         MOVF INDF0, W ; swap
0000BC CFE7 FFEF      00134                         MOVFF INDF1, INDF0
0000C0 6EE7           00135                         MOVWF INDF1
0000C2 EF?? F???      00136                         GOTO END_IF_3
MPASM 5.84                          HARD.ASM   9-25-2025  12:53:08         PAGE  4


LOC  OBJECT CODE     LINE SOURCE TEXT
  VALUE

                      00137 
Warning[207]: Found label after column 1. (ELSE_BLOCK_3)
0000C6                00138                     ELSE_BLOCK_3: 
                      00139 
Warning[207]: Found label after column 1. (END_IF_3)
0000C6                00140                     END_IF_3:
                      00141 
0000C6 2AE9           00142                     INCF FSR0L ; fix: how to ++ a 12 bit register
0000C8 2AE1           00143                     INCF FSR1L ; fix: how to ++ a 12 bit register
                      00144 
0000CA 50D9           00145                     MOVF FSR2L, W
0000CC 64E1           00146                     CPFSGT FSR1L
0000CE EF?? F???      00147                     GOTO loop2
                      00148 
0000D2 06D9           00149                     DECF   FSR2L, F       ; ?? -- 
                      00150 
                      00151 
                      00152 
0000D4 0E20           00153                 MOVLW 0x20
0000D6 60D9           00154                 CPFSLT FSR2L
0000D8 EF?? F???      00155                 GOTO loop1
                      00156 
                      00157 
                      00158             ;PUT LOW TO HIGH
                      00159 
0000DC 4520           00160             RLNCF 0x20, W, 1
0000DE 46E8           00161             RLNCF WREG
0000E0 46E8           00162             RLNCF WREG
0000E2 46E8           00163             RLNCF WREG
0000E4 6F27           00164             MOVWF 0x27, 1
                      00165 
0000E6 4521           00166             RLNCF 0x21, W, 1
0000E8 46E8           00167             RLNCF WREG
0000EA 46E8           00168             RLNCF WREG
0000EC 46E8           00169             RLNCF WREG
0000EE 6F26           00170             MOVWF 0x26, 1
                      00171 
0000F0 4522           00172             RLNCF 0x22, W, 1
0000F2 46E8           00173             RLNCF WREG
0000F4 46E8           00174             RLNCF WREG
0000F6 46E8           00175             RLNCF WREG
0000F8 6F25           00176             MOVWF 0x25, 1
                      00177 
0000FA 4523           00178             RLNCF 0x23, W, 1
0000FC 46E8           00179             RLNCF WREG
0000FE 46E8           00180             RLNCF WREG
000100 46E8           00181             RLNCF WREG
000102 6F24           00182             MOVWF 0x24, 1
                      00183 
000104 EF?? F???      00184             GOTO END_IF_2
                      00185 
Warning[207]: Found label after column 1. (ELSE_BLOCK_2)
000108                00186         ELSE_BLOCK_2:
MPASM 5.84                          HARD.ASM   9-25-2025  12:53:08         PAGE  5


LOC  OBJECT CODE     LINE SOURCE TEXT
  VALUE

000108 0EFF           00187                 MOVLW 0xFF
00010A 6F20           00188                 MOVWF 0x20, 1
00010C 0EFF           00189                 MOVLW 0xFF
00010E 6F21           00190                 MOVWF 0x21, 1
000110 0EFF           00191                 MOVLW 0xFF
000112 6F22           00192                 MOVWF 0x22, 1
000114 0EFF           00193                 MOVLW 0xFF
000116 6F23           00194                 MOVWF 0x23, 1
000118 0EFF           00195                 MOVLW 0xFF
00011A 6F24           00196                 MOVWF 0x24, 1
00011C 0EFF           00197                 MOVLW 0xFF
00011E 6F25           00198                 MOVWF 0x25, 1
000120 0EFF           00199                 MOVLW 0xFF
000122 6F26           00200                 MOVWF 0x26, 1
000124 0EFF           00201                 MOVLW 0xFF
000126 6F27           00202                 MOVWF 0x27, 1
Warning[207]: Found label after column 1. (END_IF_2)
000128                00203         END_IF_2:
                      00204         
                      00205     
                      00206     
                      00207     
                      00208     
                      00209     
                      00210     end
MPASM 5.84                          HARD.ASM   9-25-2025  12:53:08         PAGE  6


SYMBOL TABLE
  LABEL                             VALUE 

A                                 00000000
ABDEN                             00000000
ABDOVF                            00000007
ACCESS                            00000000
ACKDT                             00000005
ACKEN                             00000004
ACKSTAT                           00000006
ACQT0                             00000003
ACQT1                             00000004
ACQT2                             00000005
ADCON0                            00000FC2
ADCON1                            00000FC1
ADCON2                            00000FC0
ADCS0                             00000000
ADCS1                             00000001
ADCS2                             00000002
ADDEN                             00000003
ADEN                              00000003
ADFM                              00000007
ADIE                              00000006
ADIF                              00000006
ADIP                              00000006
ADMSK1                            00000001
ADMSK2                            00000002
ADMSK3                            00000003
ADMSK4                            00000004
ADMSK5                            00000005
ADON                              00000000
ADRES                             00000FC3
ADRESH                            00000FC4
ADRESL                            00000FC3
AN0                               00000000
AN1                               00000001
AN10                              00000001
AN11                              00000004
AN12                              00000000
AN2                               00000002
AN3                               00000003
AN4                               00000005
AN5                               00000000
AN6                               00000001
AN7                               00000002
AN8                               00000002
AN9                               00000003
BANKED                            00000001
BAUDCON                           00000FB8
BAUDCTL                           00000FB8
BCLIE                             00000003
BCLIF                             00000003
BCLIP                             00000003
BF                                00000000
BGST                              00000005
BOR                               00000000
MPASM 5.84                          HARD.ASM   9-25-2025  12:53:08         PAGE  7


SYMBOL TABLE
  LABEL                             VALUE 

BRG16                             00000003
BRGH                              00000002
BSR                               00000FE0
C                                 00000000
C1INV                             00000004
C1OUT_CMCON                       00000006
C1OUT_PORTA                       00000004
C2INV                             00000005
C2OUT_CMCON                       00000007
C2OUT_PORTA                       00000005
CCP1                              00000002
CCP1CON                           00000FBD
CCP1IE                            00000002
CCP1IF                            00000002
CCP1IP                            00000002
CCP1M0                            00000000
CCP1M1                            00000001
CCP1M2                            00000002
CCP1M3                            00000003
CCP1X                             00000005
CCP1Y                             00000004
CCP2CON                           00000FBA
CCP2IE                            00000000
CCP2IF                            00000000
CCP2IP                            00000000
CCP2M0                            00000000
CCP2M1                            00000001
CCP2M2                            00000002
CCP2M3                            00000003
CCP2X                             00000005
CCP2Y                             00000004
CCP2_PORTB                        00000003
CCP2_PORTC                        00000001
CCPR1                             00000FBE
CCPR1H                            00000FBF
CCPR1L                            00000FBE
CCPR2                             00000FBB
CCPR2H                            00000FBC
CCPR2L                            00000FBB
CFGS                              00000006
CHS0                              00000002
CHS1                              00000003
CHS2                              00000004
CHS3                              00000005
CIS                               00000003
CK                                00000006
CKE                               00000006
CKP                               00000004
CLKI                              00000007
CLKO                              00000006
CM0                               00000000
CM1                               00000001
CM2                               00000002
MPASM 5.84                          HARD.ASM   9-25-2025  12:53:08         PAGE  8


SYMBOL TABLE
  LABEL                             VALUE 

CMCON                             00000FB4
CMIE                              00000006
CMIF                              00000006
CMIP                              00000006
CREN                              00000004
CS                                00000002
CSRC                              00000007
CVR0                              00000000
CVR1                              00000001
CVR2                              00000002
CVR3                              00000003
CVRCON                            00000FB5
CVREF                             00000002
CVREN                             00000007
CVROE                             00000006
CVRR                              00000005
CVRSS                             00000004
D                                 00000005
DC                                00000001
DC1B0                             00000004
DC1B1                             00000005
DC2B0                             00000004
DC2B1                             00000005
DDRA                              TRISA
DDRB                              TRISB
DDRC                              TRISC
DDRD                              TRISD
DDRE                              TRISE
DONE                              00000001
D_A                               00000005
D_NOT_A                           00000005
ECCP1AS                           00000FB6
ECCP1DEL                          00000FB7
ECCPAS                            00000FB6
ECCPAS0                           00000004
ECCPAS1                           00000005
ECCPAS2                           00000006
ECCPASE                           00000007
EEADR                             00000FA9
EECON1                            00000FA6
EECON2                            00000FA7
EEDATA                            00000FA8
EEIE                              00000004
EEIF                              00000004
EEIP                              00000004
EEPGD                             00000007
ELSE_BLOCK                        00000084
ELSE_BLOCK_1                      0000007C
ELSE_BLOCK_2                      00000108
ELSE_BLOCK_3                      000000C6
END_IF_1                          00000080
END_IF_2                          00000128
END_IF_3                          000000C6
MPASM 5.84                          HARD.ASM   9-25-2025  12:53:08         PAGE  9


SYMBOL TABLE
  LABEL                             VALUE 

FAST                              00000001
FERR                              00000002
FLT0                              00000000
FLTS                              00000002
FREE                              00000004
FSR0                              00000000
FSR0H                             00000FEA
FSR0L                             00000FE9
FSR1                              00000001
FSR1H                             00000FE2
FSR1L                             00000FE1
FSR2                              00000002
FSR2H                             00000FDA
FSR2L                             00000FD9
GCEN                              00000007
GIE                               00000007
GIEH                              00000007
GIEL                              00000006
GIE_GIEH                          00000007
GO                                00000001
GO_DONE                           00000001
GO_NOT_DONE                       00000001
HLVDCON                           00000FD2
HLVDEN                            00000004
HLVDIE                            00000002
HLVDIF                            00000002
HLVDIN                            00000005
HLVDIP                            00000002
HLVDL0                            00000000
HLVDL1                            00000001
HLVDL2                            00000002
HLVDL3                            00000003
IBF                               00000007
IBOV                              00000005
IDLEN                             00000007
IF_BLOCK                          0000005A
IF_BLOCK_1                        00000074
IF_BLOCK_2                        000000A6
IF_BLOCK_3                        000000BA
INDF0                             00000FEF
INDF1                             00000FE7
INDF2                             00000FDF
INT0                              00000000
INT0E                             00000004
INT0F                             00000001
INT0IE                            00000004
INT0IF                            00000001
INT1                              00000001
INT1E                             00000003
INT1F                             00000000
INT1IE                            00000003
INT1IF                            00000000
INT1IP                            00000006
MPASM 5.84                          HARD.ASM   9-25-2025  12:53:08         PAGE 10


SYMBOL TABLE
  LABEL                             VALUE 

INT1P                             00000006
INT2                              00000002
INT2E                             00000004
INT2F                             00000001
INT2IE                            00000004
INT2IF                            00000001
INT2IP                            00000007
INT2P                             00000007
INTCON                            00000FF2
INTCON2                           00000FF1
INTCON3                           00000FF0
INTEDG0                           00000006
INTEDG1                           00000005
INTEDG2                           00000004
INTSRC                            00000007
IOFS                              00000002
IPEN                              00000007
IPR1                              00000F9F
IPR2                              00000FA2
IRCF0                             00000004
IRCF1                             00000005
IRCF2                             00000006
IRVST                             00000005
IVRST                             00000005
KBI0                              00000004
KBI1                              00000005
KBI2                              00000006
KBI3                              00000007
LATA                              00000F89
LATA0                             00000000
LATA1                             00000001
LATA2                             00000002
LATA3                             00000003
LATA4                             00000004
LATA5                             00000005
LATA6                             00000006
LATA7                             00000007
LATB                              00000F8A
LATB0                             00000000
LATB1                             00000001
LATB2                             00000002
LATB3                             00000003
LATB4                             00000004
LATB5                             00000005
LATB6                             00000006
LATB7                             00000007
LATC                              00000F8B
LATC0                             00000000
LATC1                             00000001
LATC2                             00000002
LATC3                             00000003
LATC4                             00000004
LATC5                             00000005
MPASM 5.84                          HARD.ASM   9-25-2025  12:53:08         PAGE 11


SYMBOL TABLE
  LABEL                             VALUE 

LATC6                             00000006
LATC7                             00000007
LATD                              00000F8C
LATD0                             00000000
LATD1                             00000001
LATD2                             00000002
LATD3                             00000003
LATD4                             00000004
LATD5                             00000005
LATD6                             00000006
LATD7                             00000007
LATE                              00000F8D
LATE0                             00000000
LATE1                             00000001
LATE2                             00000002
LVDCON                            00000FD2
LVDEN                             00000004
LVDIE                             00000002
LVDIF                             00000002
LVDIN                             00000005
LVDIP                             00000002
LVDL0                             00000000
LVDL1                             00000001
LVDL2                             00000002
LVDL3                             00000003
LVV0                              00000000
LVV1                              00000001
LVV2                              00000002
LVV3                              00000003
MCLR                              00000003
N                                 00000004
NOT_A                             00000005
NOT_ADDRESS                       00000005
NOT_BOR                           00000000
NOT_CS                            00000002
NOT_DONE                          00000001
NOT_MCLR                          00000003
NOT_PD                            00000002
NOT_POR                           00000001
NOT_RBPU                          00000007
NOT_RD                            00000000
NOT_RI                            00000004
NOT_SS                            00000005
NOT_T1SYNC                        00000002
NOT_T3SYNC                        00000002
NOT_TO                            00000003
NOT_W                             00000002
NOT_WR                            00000001
NOT_WRITE                         00000002
OBF                               00000006
OERR                              00000001
OSC1                              00000007
OSC2                              00000006
MPASM 5.84                          HARD.ASM   9-25-2025  12:53:08         PAGE 12


SYMBOL TABLE
  LABEL                             VALUE 

OSCCON                            00000FD3
OSCFIE                            00000007
OSCFIF                            00000007
OSCFIP                            00000007
OSCTUNE                           00000F9B
OSTS                              00000003
OV                                00000003
P                                 00000004
P1A                               00000002
P1B                               00000005
P1C                               00000006
P1D                               00000007
P1M0                              00000006
P1M1                              00000007
PC                                00000FF9
PCFG0                             00000000
PCFG1                             00000001
PCFG2                             00000002
PCFG3                             00000003
PCL                               00000FF9
PCLATH                            00000FFA
PCLATU                            00000FFB
PD                                00000002
PDC0                              00000000
PDC1                              00000001
PDC2                              00000002
PDC3                              00000003
PDC4                              00000004
PDC5                              00000005
PDC6                              00000006
PEIE                              00000006
PEIE_GIEL                         00000006
PEN                               00000002
PGC                               00000006
PGD                               00000007
PGM                               00000005
PIE1                              00000F9D
PIE2                              00000FA0
PIR1                              00000F9E
PIR2                              00000FA1
PLLEN                             00000006
PLUSW0                            00000FEB
PLUSW1                            00000FE3
PLUSW2                            00000FDB
POR                               00000001
PORTA                             00000F80
PORTB                             00000F81
PORTC                             00000F82
PORTD                             00000F83
PORTE                             00000F84
POSTDEC0                          00000FED
POSTDEC1                          00000FE5
POSTDEC2                          00000FDD
MPASM 5.84                          HARD.ASM   9-25-2025  12:53:08         PAGE 13


SYMBOL TABLE
  LABEL                             VALUE 

POSTINC0                          00000FEE
POSTINC1                          00000FE6
POSTINC2                          00000FDE
PR2                               00000FCB
PREINC0                           00000FEC
PREINC1                           00000FE4
PREINC2                           00000FDC
PROD                              00000FF3
PRODH                             00000FF4
PRODL                             00000FF3
PRSEN                             00000007
PSA                               00000003
PSP0                              00000000
PSP1                              00000001
PSP2                              00000002
PSP3                              00000003
PSP4                              00000004
PSP5                              00000005
PSP6                              00000006
PSP7                              00000007
PSPIE                             00000007
PSPIF                             00000007
PSPIP                             00000007
PSPMODE                           00000004
PSSAC0                            00000002
PSSAC1                            00000003
PSSBD0                            00000000
PSSBD1                            00000001
PWM1CON                           00000FB7
R                                 00000002
RA0                               00000000
RA1                               00000001
RA2                               00000002
RA3                               00000003
RA4                               00000004
RA5                               00000005
RA6                               00000006
RA7                               00000007
RB0                               00000000
RB1                               00000001
RB2                               00000002
RB3                               00000003
RB4                               00000004
RB5                               00000005
RB6                               00000006
RB7                               00000007
RBIE                              00000003
RBIF                              00000000
RBIP                              00000000
RBPU                              00000007
RC0                               00000000
RC1                               00000001
RC2                               00000002
MPASM 5.84                          HARD.ASM   9-25-2025  12:53:08         PAGE 14


SYMBOL TABLE
  LABEL                             VALUE 

RC3                               00000003
RC4                               00000004
RC5                               00000005
RC6                               00000006
RC7                               00000007
RCEN                              00000003
RCIDL                             00000006
RCIE                              00000005
RCIF                              00000005
RCIP                              00000005
RCMT                              00000006
RCON                              00000FD0
RCREG                             00000FAE
RCSTA                             00000FAB
RD                                00000000
RD0                               00000000
RD1                               00000001
RD16                              00000007
RD2                               00000002
RD3                               00000003
RD4                               00000004
RD5                               00000005
RD6                               00000006
RD7                               00000007
RE0                               00000000
RE1                               00000001
RE2                               00000002
RE3                               00000003
RI                                00000004
RSEN                              00000001
RX                                00000007
RX9                               00000006
RX9D                              00000000
RXDTP                             00000005
R_NOT_W                           00000002
R_W                               00000002
S                                 00000003
SBOREN                            00000006
SCK                               00000003
SCKP                              00000004
SCL                               00000003
SCS0                              00000000
SCS1                              00000001
SDA                               00000004
SDI                               00000004
SDO                               00000005
SEN                               00000000
SENDB                             00000003
SMP                               00000007
SP0                               00000000
SP1                               00000001
SP2                               00000002
SP3                               00000003
MPASM 5.84                          HARD.ASM   9-25-2025  12:53:08         PAGE 15


SYMBOL TABLE
  LABEL                             VALUE 

SP4                               00000004
SPBRG                             00000FAF
SPBRGH                            00000FB0
SPEN                              00000007
SREN                              00000005
SS                                00000005
SSPADD                            00000FC8
SSPBUF                            00000FC9
SSPCON1                           00000FC6
SSPCON2                           00000FC5
SSPEN                             00000005
SSPIE                             00000003
SSPIF                             00000003
SSPIP                             00000003
SSPM0                             00000000
SSPM1                             00000001
SSPM2                             00000002
SSPM3                             00000003
SSPOV                             00000006
SSPSTAT                           00000FC7
STATUS                            00000FD8
STKFUL                            00000007
STKOVF                            00000007
STKPTR                            00000FFC
STKUNF                            00000006
SWDTE                             00000000
SWDTEN                            00000000
SYNC                              00000004
T016BIT                           00000006
T08BIT                            00000006
T0CKI                             00000004
T0CON                             00000FD5
T0CS                              00000005
T0IE                              00000005
T0IF                              00000002
T0PS0                             00000000
T0PS1                             00000001
T0PS2                             00000002
T0PS3                             00000003
T0SE                              00000004
T13CKI                            00000000
T1CKI                             00000000
T1CKPS0                           00000004
T1CKPS1                           00000005
T1CON                             00000FCD
T1OSCEN                           00000003
T1OSI                             00000001
T1OSO                             00000000
T1RUN                             00000006
T1SYNC                            00000002
T2CKPS0                           00000000
T2CKPS1                           00000001
T2CON                             00000FCA
MPASM 5.84                          HARD.ASM   9-25-2025  12:53:08         PAGE 16


SYMBOL TABLE
  LABEL                             VALUE 

T2OUTPS0                          00000003
T2OUTPS1                          00000004
T2OUTPS2                          00000005
T2OUTPS3                          00000006
T3CCP1                            00000003
T3CCP2                            00000006
T3CKPS0                           00000004
T3CKPS1                           00000005
T3CON                             00000FB1
T3SYNC                            00000002
TABLAT                            00000FF5
TBLPTR                            00000FF6
TBLPTRH                           00000FF7
TBLPTRL                           00000FF6
TBLPTRU                           00000FF8
TMR0                              00000FD6
TMR0H                             00000FD7
TMR0IE                            00000005
TMR0IF                            00000002
TMR0IP                            00000002
TMR0L                             00000FD6
TMR0ON                            00000007
TMR1                              00000FCE
TMR1CS                            00000001
TMR1H                             00000FCF
TMR1IE                            00000000
TMR1IF                            00000000
TMR1IP                            00000000
TMR1L                             00000FCE
TMR1ON                            00000000
TMR2                              00000FCC
TMR2IE                            00000001
TMR2IF                            00000001
TMR2IP                            00000001
TMR2ON                            00000002
TMR3                              00000FB2
TMR3CS                            00000001
TMR3H                             00000FB3
TMR3IE                            00000001
TMR3IF                            00000001
TMR3IP                            00000001
TMR3L                             00000FB2
TMR3ON                            00000000
TO                                00000003
TOS                               00000FFD
TOSH                              00000FFE
TOSL                              00000FFD
TOSU                              00000FFF
TOUTPS0                           00000003
TOUTPS1                           00000004
TOUTPS2                           00000005
TOUTPS3                           00000006
TRISA                             00000F92
MPASM 5.84                          HARD.ASM   9-25-2025  12:53:08         PAGE 17


SYMBOL TABLE
  LABEL                             VALUE 

TRISA0                            00000000
TRISA1                            00000001
TRISA2                            00000002
TRISA3                            00000003
TRISA4                            00000004
TRISA5                            00000005
TRISA6                            00000006
TRISA7                            00000007
TRISB                             00000F93
TRISB0                            00000000
TRISB1                            00000001
TRISB2                            00000002
TRISB3                            00000003
TRISB4                            00000004
TRISB5                            00000005
TRISB6                            00000006
TRISB7                            00000007
TRISC                             00000F94
TRISC0                            00000000
TRISC1                            00000001
TRISC2                            00000002
TRISC3                            00000003
TRISC4                            00000004
TRISC5                            00000005
TRISC6                            00000006
TRISC7                            00000007
TRISD                             00000F95
TRISD0                            00000000
TRISD1                            00000001
TRISD2                            00000002
TRISD3                            00000003
TRISD4                            00000004
TRISD5                            00000005
TRISD6                            00000006
TRISD7                            00000007
TRISE                             00000F96
TRISE0                            00000000
TRISE1                            00000001
TRISE2                            00000002
TRMT                              00000001
TUN0                              00000000
TUN1                              00000001
TUN2                              00000002
TUN3                              00000003
TUN4                              00000004
TX                                00000006
TX9                               00000006
TX9D                              00000000
TXCKP                             00000004
TXEN                              00000005
TXIE                              00000004
TXIF                              00000004
TXIP                              00000004
MPASM 5.84                          HARD.ASM   9-25-2025  12:53:08         PAGE 18


SYMBOL TABLE
  LABEL                             VALUE 

TXREG                             00000FAD
TXSTA                             00000FAC
UA                                00000001
VCFG0                             00000004
VCFG1                             00000005
VDIRMAG                           00000007
VPP                               00000003
VREFN                             00000002
VREFP                             00000003
W                                 00000000
WCOL                              00000007
WDTCON                            00000FD1
WR                                00000001
WREG                              00000FE8
WREN                              00000002
WRERR                             00000003
WUE                               00000001
Z                                 00000002
_BOREN_NOSLP_2L                   000000FD
_BOREN_OFF_2L                     000000F9
_BOREN_ON_2L                      000000FB
_BOREN_SBORDIS_2L                 000000FF
_BORV_0_2L                        000000E7
_BORV_1_2L                        000000EF
_BORV_2_2L                        000000F7
_BORV_3_2L                        000000FF
_CCP2MX_PORTBE_3H                 000000FE
_CCP2MX_PORTC_3H                  000000FF
_CONFIG1H                         00300001
_CONFIG2H                         00300003
_CONFIG2L                         00300002
_CONFIG3H                         00300005
_CONFIG4L                         00300006
_CONFIG5H                         00300009
_CONFIG5L                         00300008
_CONFIG6H                         0030000B
_CONFIG6L                         0030000A
_CONFIG7H                         0030000D
_CONFIG7L                         0030000C
_CP0_OFF_5L                       000000FF
_CP0_ON_5L                        000000FE
_CP1_OFF_5L                       000000FF
_CP1_ON_5L                        000000FD
_CP2_OFF_5L                       000000FF
_CP2_ON_5L                        000000FB
_CP3_OFF_5L                       000000FF
_CP3_ON_5L                        000000F7
_CPB_OFF_5H                       000000FF
_CPB_ON_5H                        000000BF
_CPD_OFF_5H                       000000FF
_CPD_ON_5H                        0000007F
_DEBUG_OFF_4L                     000000FF
_DEBUG_ON_4L                      0000007F
MPASM 5.84                          HARD.ASM   9-25-2025  12:53:08         PAGE 19


SYMBOL TABLE
  LABEL                             VALUE 

_DEVID1                           003FFFFE
_DEVID2                           003FFFFF
_EBTR0_OFF_7L                     000000FF
_EBTR0_ON_7L                      000000FE
_EBTR1_OFF_7L                     000000FF
_EBTR1_ON_7L                      000000FD
_EBTR2_OFF_7L                     000000FF
_EBTR2_ON_7L                      000000FB
_EBTR3_OFF_7L                     000000FF
_EBTR3_ON_7L                      000000F7
_EBTRB_OFF_7H                     000000FF
_EBTRB_ON_7H                      000000BF
_FCMEN_OFF_1H                     000000BF
_FCMEN_ON_1H                      000000FF
_IDLOC0                           00200000
_IDLOC1                           00200001
_IDLOC2                           00200002
_IDLOC3                           00200003
_IDLOC4                           00200004
_IDLOC5                           00200005
_IDLOC6                           00200006
_IDLOC7                           00200007
_IESO_OFF_1H                      0000007F
_IESO_ON_1H                       000000FF
_LPT1OSC_OFF_3H                   000000FB
_LPT1OSC_ON_3H                    000000FF
_LVP_OFF_4L                       000000FB
_LVP_ON_4L                        000000FF
_MCLRE_OFF_3H                     0000007F
_MCLRE_ON_3H                      000000FF
_OSC_ECIO6_1H                     000000F5
_OSC_EC_1H                        000000F4
_OSC_HSPLL_1H                     000000F6
_OSC_HS_1H                        000000F2
_OSC_INTIO67_1H                   000000F8
_OSC_INTIO7_1H                    000000F9
_OSC_LP_1H                        000000F0
_OSC_RCIO6_1H                     000000F7
_OSC_RC_1H                        000000F3
_OSC_XT_1H                        000000F1
_PBADEN_OFF_3H                    000000FD
_PBADEN_ON_3H                     000000FF
_PWRT_OFF_2L                      000000FF
_PWRT_ON_2L                       000000FE
_STVREN_OFF_4L                    000000FE
_STVREN_ON_4L                     000000FF
_WDTPS_1024_2H                    000000F5
_WDTPS_128_2H                     000000EF
_WDTPS_16384_2H                   000000FD
_WDTPS_16_2H                      000000E9
_WDTPS_1_2H                       000000E1
_WDTPS_2048_2H                    000000F7
_WDTPS_256_2H                     000000F1
MPASM 5.84                          HARD.ASM   9-25-2025  12:53:08         PAGE 20


SYMBOL TABLE
  LABEL                             VALUE 

_WDTPS_2_2H                       000000E3
_WDTPS_32768_2H                   000000FF
_WDTPS_32_2H                      000000EB
_WDTPS_4096_2H                    000000F9
_WDTPS_4_2H                       000000E5
_WDTPS_512_2H                     000000F3
_WDTPS_64_2H                      000000ED
_WDTPS_8192_2H                    000000FB
_WDTPS_8_2H                       000000E7
_WDT_OFF_2H                       000000FE
_WDT_ON_2H                        000000FF
_WRT0_OFF_6L                      000000FF
_WRT0_ON_6L                       000000FE
_WRT1_OFF_6L                      000000FF
_WRT1_ON_6L                       000000FD
_WRT2_OFF_6L                      000000FF
_WRT2_ON_6L                       000000FB
_WRT3_OFF_6L                      000000FF
_WRT3_ON_6L                       000000F7
_WRTB_OFF_6H                      000000FF
_WRTB_ON_6H                       000000BF
_WRTC_OFF_6H                      000000FF
_WRTC_ON_6H                       000000DF
_WRTD_OFF_6H                      000000FF
_WRTD_ON_6H                       0000007F
_XINST_OFF_4L                     000000BF
_XINST_ON_4L                      000000FF
__18F4520                         00000001
__DEBUG                           
__MPLAB_DEBUGGER_SIMULATOR        1
break_loop                        0000008E
loop                              00000030
loop1                             000000AA
loop2                             000000B2
loopo                             00000030

Errors   :     0
Warnings :    17 reported,     0 suppressed
Messages :     0 reported,     0 suppressed

