

Microchip MPLAB XC8 Assembler V3.00 build 20241204225717 
                                                                                               Sun Dec 14 16:24:15 2025

Microchip MPLAB XC8 C Compiler v3.00 (Free license) build 20241204225717 Og1 
     1                           	processor	18F4520
     2                           	fnconf	rparam,??,?,0
     3                           	pagewidth 120
     4                           	opt	flic
     5                           	psect	smallconst,global,reloc=2,class=SMALLCONST,space=0,delta=1,noexec
     6                           	psect	cinit,global,reloc=2,class=CODE,space=0,delta=1
     7                           	psect	bssCOMRAM,global,class=COMRAM,space=1,delta=1,lowdata,noexec
     8                           	psect	bssBANK0,global,class=BANK0,space=1,delta=1,lowdata,noexec
     9                           	psect	bssBANK1,global,class=BANK1,space=1,delta=1,lowdata,noexec
    10                           	psect	cstackCOMRAM,global,class=COMRAM,space=1,delta=1,lowdata,noexec
    11                           	psect	text0,global,reloc=2,class=CODE,space=0,delta=1
    12                           	psect	text1,global,reloc=2,class=CODE,space=0,delta=1,group=3
    13                           	psect	text2,global,reloc=2,class=CODE,space=0,delta=1,group=1
    14                           	psect	text3,global,reloc=2,class=CODE,space=0,delta=1,group=1
    15                           	psect	text4,global,reloc=2,class=CODE,space=0,delta=1,group=1
    16                           	psect	text5,global,reloc=2,class=CODE,space=0,delta=1,group=1
    17                           	psect	text6,global,reloc=2,class=CODE,space=0,delta=1,group=2
    18                           	psect	text7,global,reloc=2,class=CODE,space=0,delta=1,group=2
    19                           	psect	text8,global,reloc=2,class=CODE,space=0,delta=1,group=1
    20                           	psect	text9,global,reloc=2,class=CODE,space=0,delta=1,group=1
    21                           	psect	text10,global,reloc=2,class=CODE,space=0,delta=1,group=1
    22                           	psect	text11,global,reloc=2,class=CODE,space=0,delta=1,group=3
    23                           	psect	text12,global,reloc=2,class=CODE,space=0,delta=1,group=3
    24                           	psect	text13,global,reloc=2,class=CODE,space=0,delta=1
    25                           	psect	text14,global,reloc=2,class=CODE,space=0,delta=1,group=3
    26                           	psect	text15,global,reloc=2,class=CODE,space=0,delta=1,group=2
    27                           	psect	text16,global,reloc=2,class=CODE,space=0,delta=1,group=2
    28                           	psect	text17,global,reloc=2,class=CODE,space=0,delta=1
    29                           	psect	text18,global,reloc=2,class=CODE,space=0,delta=1
    30                           	psect	text19,global,reloc=2,class=CODE,space=0,delta=1
    31                           	psect	text20,global,reloc=2,class=CODE,space=0,delta=1
    32                           	psect	text21,global,reloc=2,class=CODE,space=0,delta=1
    33                           	psect	text22,global,reloc=2,class=CODE,space=0,delta=1
    34                           	psect	text23,global,reloc=2,class=CODE,space=0,delta=1
    35                           	psect	text24,global,reloc=2,class=CODE,space=0,delta=1
    36                           	psect	text25,global,reloc=2,class=CODE,space=0,delta=1
    37                           	psect	text26,global,reloc=2,class=CODE,space=0,delta=1
    38                           	psect	text27,global,reloc=2,class=CODE,space=0,delta=1
    39                           	psect	intcodelo,global,reloc=2,class=CODE,space=0,delta=1
    40                           	psect	text29,global,reloc=2,class=CODE,space=0,delta=1
    41                           	psect	intcode,global,reloc=2,class=CODE,space=0,delta=1
    42                           	psect	intcode_body,global,reloc=2,class=CODE,space=0,delta=1
    43                           	psect	text31,global,reloc=2,class=CODE,space=0,delta=1
    44                           	psect	text32,global,reloc=2,class=CODE,space=0,delta=1
    45                           	psect	intsave_regs,global,class=BIGRAM,space=1,delta=1,noexec
    46                           	psect	rparam,global,class=COMRAM,space=1,delta=1,noexec
    47                           	psect	temp,global,ovrld,common,class=COMRAM,space=1,delta=1,lowdata
    48                           	psect	idloc,global,abs,ovrld,class=IDLOC,space=5,delta=1,noexec
    49                           	psect	config,global,abs,ovrld,class=CONFIG,space=4,delta=1,noexec
    50   000000                     
    51                           ; Generated 05/12/2024 GMT
    52                           ; 
    53                           ; Copyright © 2024, Microchip Technology Inc. and its subsidiaries ("Microchip")
    54                           ; All rights reserved.
    55                           ; 
    56                           ; This software is developed by Microchip Technology Inc. and its subsidiaries ("Microch
      +                          ip").
    57                           ; 
    58                           ; Redistribution and use in source and binary forms, with or without modification, are
    59                           ; permitted provided that the following conditions are met:
    60                           ; 
    61                           ;     1. Redistributions of source code must retain the above copyright notice, this lis
      +                          t of
    62                           ;        conditions and the following disclaimer.
    63                           ; 
    64                           ;     2. Redistributions in binary form must reproduce the above copyright notice, this 
      +                          list
    65                           ;        of conditions and the following disclaimer in the documentation and/or other
    66                           ;        materials provided with the distribution. Publication is not required when
    67                           ;        this file is used in an embedded application.
    68                           ; 
    69                           ;     3. Microchip's name may not be used to endorse or promote products derived from th
      +                          is
    70                           ;        software without specific prior written permission.
    71                           ; 
    72                           ; THIS SOFTWARE IS PROVIDED BY MICROCHIP "AS IS" AND ANY EXPRESS OR IMPLIED WARRANTIES,
    73                           ; INCLUDING, BUT NOT LIMITED TO, THE IMPLIED WARRANTIES OF MERCHANTABILITY AND FITNESS F
      +                          OR
    74                           ; PURPOSE ARE DISCLAIMED.  IN NO EVENT SHALL MICROCHIP BE LIABLE FOR ANY DIRECT, INDIREC
      +                          T,
    75                           ; INCIDENTAL, SPECIAL, EXEMPLARY, OR CONSEQUENTIAL DAMAGES (INCLUDING BUT NOT LIMITED TO
    76                           ; PROCUREMENT OF SUBSTITUTE GOODS OR SERVICES; LOSS OF USE, DATA OR PROFITS; OR BUSINESS
    77                           ; INTERRUPTION) HOWSOEVER CAUSED AND ON ANY THEORY OF LIABILITY, WHETHER IN CONTRACT, ST
      +                          RICT
    78                           ; LIABILITY, OR TORT (INCLUDING NEGLIGENCE OR OTHERWISE) ARISING IN ANY WAY OUT OF THE U
      +                          SE OF
    79                           ; THIS SOFTWARE, EVEN IF ADVISED OF THE POSSIBILITY OF SUCH DAMAGE.
    80                           ; 
    81                           ; 
    82                           ; Code-generator required, PIC18F4520 Definitions
    83                           ; 
    84                           ; SFR Addresses
    85   000FE0                     bsr             equ	4064
    86   000FE9                     fsr0            equ	4073
    87   000FEA                     fsr0h           equ	4074
    88   000FE9                     fsr0l           equ	4073
    89   000FE1                     fsr1            equ	4065
    90   000FE2                     fsr1h           equ	4066
    91   000FE1                     fsr1l           equ	4065
    92   000FD9                     fsr2            equ	4057
    93   000FDA                     fsr2h           equ	4058
    94   000FD9                     fsr2l           equ	4057
    95   000FEF                     indf0           equ	4079
    96   000FE7                     indf1           equ	4071
    97   000FDF                     indf2           equ	4063
    98   000FF2                     intcon          equ	4082
    99   000000                     nvmcon          equ	0
   100   000FF9                     pcl             equ	4089
   101   000FFA                     pclath          equ	4090
   102   000FFB                     pclatu          equ	4091
   103   000FEB                     plusw0          equ	4075
   104   000FE3                     plusw1          equ	4067
   105   000FDB                     plusw2          equ	4059
   106   000FED                     postdec0        equ	4077
   107   000FE5                     postdec1        equ	4069
   108   000FDD                     postdec2        equ	4061
   109   000FEE                     postinc0        equ	4078
   110   000FE6                     postinc1        equ	4070
   111   000FDE                     postinc2        equ	4062
   112   000FEC                     preinc0         equ	4076
   113   000FE4                     preinc1         equ	4068
   114   000FDC                     preinc2         equ	4060
   115   000FF3                     prod            equ	4083
   116   000FF4                     prodh           equ	4084
   117   000FF3                     prodl           equ	4083
   118   000FD8                     status          equ	4056
   119   000FF5                     tablat          equ	4085
   120   000FF6                     tblptr          equ	4086
   121   000FF7                     tblptrh         equ	4087
   122   000FF6                     tblptrl         equ	4086
   123   000FF8                     tblptru         equ	4088
   124   000FFD                     tosl            equ	4093
   125   000FE8                     wreg            equ	4072
   126   000F80                     PORTA           equ	3968	;# 
   127   000F81                     PORTB           equ	3969	;# 
   128   000F82                     PORTC           equ	3970	;# 
   129   000F83                     PORTD           equ	3971	;# 
   130   000F84                     PORTE           equ	3972	;# 
   131   000F89                     LATA            equ	3977	;# 
   132   000F8A                     LATB            equ	3978	;# 
   133   000F8B                     LATC            equ	3979	;# 
   134   000F8C                     LATD            equ	3980	;# 
   135   000F8D                     LATE            equ	3981	;# 
   136   000F92                     TRISA           equ	3986	;# 
   137   000F92                     DDRA            equ	3986	;# 
   138   000F93                     TRISB           equ	3987	;# 
   139   000F93                     DDRB            equ	3987	;# 
   140   000F94                     TRISC           equ	3988	;# 
   141   000F94                     DDRC            equ	3988	;# 
   142   000F95                     TRISD           equ	3989	;# 
   143   000F95                     DDRD            equ	3989	;# 
   144   000F96                     TRISE           equ	3990	;# 
   145   000F96                     DDRE            equ	3990	;# 
   146   000F9B                     OSCTUNE         equ	3995	;# 
   147   000F9D                     PIE1            equ	3997	;# 
   148   000F9E                     PIR1            equ	3998	;# 
   149   000F9F                     IPR1            equ	3999	;# 
   150   000FA0                     PIE2            equ	4000	;# 
   151   000FA1                     PIR2            equ	4001	;# 
   152   000FA2                     IPR2            equ	4002	;# 
   153   000FA6                     EECON1          equ	4006	;# 
   154   000FA7                     EECON2          equ	4007	;# 
   155   000FA8                     EEDATA          equ	4008	;# 
   156   000FA9                     EEADR           equ	4009	;# 
   157   000FAB                     RCSTA           equ	4011	;# 
   158   000FAB                     RCSTA1          equ	4011	;# 
   159   000FAC                     TXSTA           equ	4012	;# 
   160   000FAC                     TXSTA1          equ	4012	;# 
   161   000FAD                     TXREG           equ	4013	;# 
   162   000FAD                     TXREG1          equ	4013	;# 
   163   000FAE                     RCREG           equ	4014	;# 
   164   000FAE                     RCREG1          equ	4014	;# 
   165   000FAF                     SPBRG           equ	4015	;# 
   166   000FAF                     SPBRG1          equ	4015	;# 
   167   000FB0                     SPBRGH          equ	4016	;# 
   168   000FB1                     T3CON           equ	4017	;# 
   169   000FB2                     TMR3            equ	4018	;# 
   170   000FB2                     TMR3L           equ	4018	;# 
   171   000FB3                     TMR3H           equ	4019	;# 
   172   000FB4                     CMCON           equ	4020	;# 
   173   000FB5                     CVRCON          equ	4021	;# 
   174   000FB6                     ECCP1AS         equ	4022	;# 
   175   000FB6                     ECCPAS          equ	4022	;# 
   176   000FB7                     PWM1CON         equ	4023	;# 
   177   000FB7                     ECCP1DEL        equ	4023	;# 
   178   000FB8                     BAUDCON         equ	4024	;# 
   179   000FB8                     BAUDCTL         equ	4024	;# 
   180   000FBA                     CCP2CON         equ	4026	;# 
   181   000FBB                     CCPR2           equ	4027	;# 
   182   000FBB                     CCPR2L          equ	4027	;# 
   183   000FBC                     CCPR2H          equ	4028	;# 
   184   000FBD                     CCP1CON         equ	4029	;# 
   185   000FBE                     CCPR1           equ	4030	;# 
   186   000FBE                     CCPR1L          equ	4030	;# 
   187   000FBF                     CCPR1H          equ	4031	;# 
   188   000FC0                     ADCON2          equ	4032	;# 
   189   000FC1                     ADCON1          equ	4033	;# 
   190   000FC2                     ADCON0          equ	4034	;# 
   191   000FC3                     ADRES           equ	4035	;# 
   192   000FC3                     ADRESL          equ	4035	;# 
   193   000FC4                     ADRESH          equ	4036	;# 
   194   000FC5                     SSPCON2         equ	4037	;# 
   195   000FC6                     SSPCON1         equ	4038	;# 
   196   000FC7                     SSPSTAT         equ	4039	;# 
   197   000FC8                     SSPADD          equ	4040	;# 
   198   000FC9                     SSPBUF          equ	4041	;# 
   199   000FCA                     T2CON           equ	4042	;# 
   200   000FCB                     PR2             equ	4043	;# 
   201   000FCB                     MEMCON          equ	4043	;# 
   202   000FCC                     TMR2            equ	4044	;# 
   203   000FCD                     T1CON           equ	4045	;# 
   204   000FCE                     TMR1            equ	4046	;# 
   205   000FCE                     TMR1L           equ	4046	;# 
   206   000FCF                     TMR1H           equ	4047	;# 
   207   000FD0                     RCON            equ	4048	;# 
   208   000FD1                     WDTCON          equ	4049	;# 
   209   000FD2                     HLVDCON         equ	4050	;# 
   210   000FD2                     LVDCON          equ	4050	;# 
   211   000FD3                     OSCCON          equ	4051	;# 
   212   000FD5                     T0CON           equ	4053	;# 
   213   000FD6                     TMR0            equ	4054	;# 
   214   000FD6                     TMR0L           equ	4054	;# 
   215   000FD7                     TMR0H           equ	4055	;# 
   216   000FD8                     STATUS          equ	4056	;# 
   217   000FD9                     FSR2            equ	4057	;# 
   218   000FD9                     FSR2L           equ	4057	;# 
   219   000FDA                     FSR2H           equ	4058	;# 
   220   000FDB                     PLUSW2          equ	4059	;# 
   221   000FDC                     PREINC2         equ	4060	;# 
   222   000FDD                     POSTDEC2        equ	4061	;# 
   223   000FDE                     POSTINC2        equ	4062	;# 
   224   000FDF                     INDF2           equ	4063	;# 
   225   000FE0                     BSR             equ	4064	;# 
   226   000FE1                     FSR1            equ	4065	;# 
   227   000FE1                     FSR1L           equ	4065	;# 
   228   000FE2                     FSR1H           equ	4066	;# 
   229   000FE3                     PLUSW1          equ	4067	;# 
   230   000FE4                     PREINC1         equ	4068	;# 
   231   000FE5                     POSTDEC1        equ	4069	;# 
   232   000FE6                     POSTINC1        equ	4070	;# 
   233   000FE7                     INDF1           equ	4071	;# 
   234   000FE8                     WREG            equ	4072	;# 
   235   000FE9                     FSR0            equ	4073	;# 
   236   000FE9                     FSR0L           equ	4073	;# 
   237   000FEA                     FSR0H           equ	4074	;# 
   238   000FEB                     PLUSW0          equ	4075	;# 
   239   000FEC                     PREINC0         equ	4076	;# 
   240   000FED                     POSTDEC0        equ	4077	;# 
   241   000FEE                     POSTINC0        equ	4078	;# 
   242   000FEF                     INDF0           equ	4079	;# 
   243   000FF0                     INTCON3         equ	4080	;# 
   244   000FF1                     INTCON2         equ	4081	;# 
   245   000FF2                     INTCON          equ	4082	;# 
   246   000FF3                     PROD            equ	4083	;# 
   247   000FF3                     PRODL           equ	4083	;# 
   248   000FF4                     PRODH           equ	4084	;# 
   249   000FF5                     TABLAT          equ	4085	;# 
   250   000FF6                     TBLPTR          equ	4086	;# 
   251   000FF6                     TBLPTRL         equ	4086	;# 
   252   000FF7                     TBLPTRH         equ	4087	;# 
   253   000FF8                     TBLPTRU         equ	4088	;# 
   254   000FF9                     PCLAT           equ	4089	;# 
   255   000FF9                     PC              equ	4089	;# 
   256   000FF9                     PCL             equ	4089	;# 
   257   000FFA                     PCLATH          equ	4090	;# 
   258   000FFB                     PCLATU          equ	4091	;# 
   259   000FFC                     STKPTR          equ	4092	;# 
   260   000FFD                     TOS             equ	4093	;# 
   261   000FFD                     TOSL            equ	4093	;# 
   262   000FFE                     TOSH            equ	4094	;# 
   263   000FFF                     TOSU            equ	4095	;# 
   264   007D5C                     _CREN           set	32092
   265   007CF5                     _RCIF           set	31989
   266   000F81                     _PORTBbits      set	3969
   267   000F94                     _TRISCbits      set	3988
   268   000F93                     _TRISB          set	3987
   269   000F92                     _TRISAbits      set	3986
   270   000FC3                     _ADRESL         set	4035
   271   000FC4                     _ADRESH         set	4036
   272   000FC9                     _SSPBUF         set	4041
   273   000FC5                     _SSPCON2bits    set	4037
   274   000FC5                     _SSPCON2        set	4037
   275   000FAE                     _RCREG          set	4014
   276   000FAD                     _TXREG          set	4013
   277   000FD0                     _RCONbits       set	4048
   278   000FD3                     _OSCCONbits     set	4051
   279   000FC8                     _SSPADD         set	4040
   280   000FC6                     _SSPCON1bits    set	4038
   281   000FC7                     _SSPSTATbits    set	4039
   282   000FAB                     _RCSTAbits      set	4011
   283   000FAF                     _SPBRG          set	4015
   284   000FB8                     _BAUDCONbits    set	4024
   285   000FAC                     _TXSTAbits      set	4012
   286   000F9D                     _PIE1bits       set	3997
   287   000F9F                     _IPR1bits       set	3999
   288   000F9E                     _PIR1bits       set	3998
   289   000FC0                     _ADCON2bits     set	4032
   290   000FC1                     _ADCON1bits     set	4033
   291   000FC2                     _ADCON0bits     set	4034
   292   000FF2                     _INTCONbits     set	4082
   293                           
   294                           	psect	smallconst
   295   000600                     __psmallconst:
   296                           	callstack 0
   297   000600  00                 	db	0
   298   000601                     STR_11:
   299   000601  57                 	db	87	;'W'
   300   000602  72                 	db	114	;'r'
   301   000603  6F                 	db	111	;'o'
   302   000604  6E                 	db	110	;'n'
   303   000605  67                 	db	103	;'g'
   304   000606  20                 	db	32
   305   000607  49                 	db	73	;'I'
   306   000608  44                 	db	68	;'D'
   307   000609  20                 	db	32
   308   00060A  6F                 	db	111	;'o'
   309   00060B  72                 	db	114	;'r'
   310   00060C  20                 	db	32
   311   00060D  42                 	db	66	;'B'
   312   00060E  75                 	db	117	;'u'
   313   00060F  73                 	db	115	;'s'
   314   000610  20                 	db	32
   315   000611  45                 	db	69	;'E'
   316   000612  72                 	db	114	;'r'
   317   000613  72                 	db	114	;'r'
   318   000614  6F                 	db	111	;'o'
   319   000615  72                 	db	114	;'r'
   320   000616  2E                 	db	46
   321   000617  0A                 	db	10
   322   000618  00                 	db	0
   323   000619                     STR_10:
   324   000619  4D                 	db	77	;'M'
   325   00061A  41                 	db	65	;'A'
   326   00061B  58                 	db	88	;'X'
   327   00061C  33                 	db	51	;'3'
   328   00061D  30                 	db	48	;'0'
   329   00061E  31                 	db	49	;'1'
   330   00061F  30                 	db	48	;'0'
   331   000620  32                 	db	50	;'2'
   332   000621  20                 	db	32
   333   000622  69                 	db	105	;'i'
   334   000623  73                 	db	115	;'s'
   335   000624  20                 	db	32
   336   000625  4F                 	db	79	;'O'
   337   000626  4E                 	db	78	;'N'
   338   000627  4C                 	db	76	;'L'
   339   000628  49                 	db	73	;'I'
   340   000629  4E                 	db	78	;'N'
   341   00062A  45                 	db	69	;'E'
   342   00062B  21                 	db	33
   343   00062C  20                 	db	32
   344   00062D  0A                 	db	10
   345   00062E  00                 	db	0
   346   00062F                     STR_2:
   347   00062F  43                 	db	67	;'C'
   348   000630  68                 	db	104	;'h'
   349   000631  65                 	db	101	;'e'
   350   000632  63                 	db	99	;'c'
   351   000633  6B                 	db	107	;'k'
   352   000634  20                 	db	32
   353   000635  53                 	db	83	;'S'
   354   000636  65                 	db	101	;'e'
   355   000637  6E                 	db	110	;'n'
   356   000638  73                 	db	115	;'s'
   357   000639  6F                 	db	111	;'o'
   358   00063A  72                 	db	114	;'r'
   359   00063B  20                 	db	32
   360   00063C  49                 	db	73	;'I'
   361   00063D  44                 	db	68	;'D'
   362   00063E  2E                 	db	46
   363   00063F  2E                 	db	46
   364   000640  2E                 	db	46
   365   000641  0A                 	db	10
   366   000642  00                 	db	0
   367   000643                     STR_9:
   368   000643  50                 	db	80	;'P'
   369   000644  61                 	db	97	;'a'
   370   000645  72                 	db	114	;'r'
   371   000646  74                 	db	116	;'t'
   372   000647  20                 	db	32
   373   000648  49                 	db	73	;'I'
   374   000649  44                 	db	68	;'D'
   375   00064A  3A                 	db	58	;':'
   376   00064B  20                 	db	32
   377   00064C  30                 	db	48	;'0'
   378   00064D  78                 	db	120	;'x'
   379   00064E  25                 	db	37
   380   00064F  30                 	db	48	;'0'
   381   000650  32                 	db	50	;'2'
   382   000651  58                 	db	88	;'X'
   383   000652  0A                 	db	10
   384   000653  00                 	db	0
   385   000654                     STR_12:
   386   000654  25                 	db	37
   387   000655  30                 	db	48	;'0'
   388   000656  35                 	db	53	;'5'
   389   000657  6C                 	db	108	;'l'
   390   000658  75                 	db	117	;'u'
   391   000659  2C                 	db	44
   392   00065A  25                 	db	37
   393   00065B  30                 	db	48	;'0'
   394   00065C  33                 	db	51	;'3'
   395   00065D  64                 	db	100	;'d'
   396   00065E  0A                 	db	10
   397   00065F  00                 	db	0
   398   000660  1B                 	db	27
   399   000661  5B                 	db	91	;'['
   400   000662  32                 	db	50	;'2'
   401   000663  4A                 	db	74	;'J'
   402   000664  1B                 	db	27
   403   000665  5B                 	db	91	;'['
   404   000666  48                 	db	72	;'H'
   405   000667  00                 	db	0
   406   000668                     STR_3:
   407   000668  79                 	db	121	;'y'
   408   000669  65                 	db	101	;'e'
   409   00066A  61                 	db	97	;'a'
   410   00066B  68                 	db	104	;'h'
   411   00066C  0A                 	db	10
   412   00066D  00                 	db	0
   413   000668                     STR_4           equ	STR_3
   414   000668                     STR_5           equ	STR_3
   415   000668                     STR_6           equ	STR_3
   416   000668                     STR_7           equ	STR_3
   417   000668                     STR_8           equ	STR_3
   418   00066E  00                 	db	0	; dummy byte at the end
   419   000600                     __smallconst    set	__psmallconst
   420   000600                     __mediumconst   set	__psmallconst
   421   000002                     __activetblptr  equ	2
   422                           
   423                           ; #config settings
   424                           
   425                           	psect	cinit
   426   001774                     __pcinit:
   427                           	callstack 0
   428   001774                     start_initialization:
   429                           	callstack 0
   430   001774                     __initialization:
   431                           	callstack 0
   432                           
   433                           ; Clear objects allocated to BANK1 (100 bytes)
   434   001774  EE01  F000         	lfsr	0,__pbssBANK1
   435   001778  0E64               	movlw	100
   436   00177A                     clear_0:
   437   00177A  6AEE               	clrf	postinc0,c
   438   00177C  06E8               	decf	wreg,f,c
   439   00177E  E1FD               	bnz	clear_0
   440                           
   441                           ; Clear objects allocated to BANK0 (32 bytes)
   442   001780  EE00  F080         	lfsr	0,__pbssBANK0
   443   001784  0E20               	movlw	32
   444   001786                     clear_1:
   445   001786  6AEE               	clrf	postinc0,c
   446   001788  06E8               	decf	wreg,f,c
   447   00178A  E1FD               	bnz	clear_1
   448                           
   449                           ; Clear objects allocated to COMRAM (12 bytes)
   450   00178C  EE00  F062         	lfsr	0,__pbssCOMRAM
   451   001790  0E0C               	movlw	12
   452   001792                     clear_2:
   453   001792  6AEE               	clrf	postinc0,c
   454   001794  06E8               	decf	wreg,f,c
   455   001796  E1FD               	bnz	clear_2
   456   001798                     end_of_initialization:
   457                           	callstack 0
   458   001798                     __end_of__initialization:
   459                           	callstack 0
   460   001798  906E               	bcf	int$flags,0,c	;clear compiler interrupt flag (level 1)
   461   00179A  926E               	bcf	int$flags,1,c	;clear compiler interrupt flag (level 2)
   462   00179C  0E00               	movlw	low (__Lmediumconst shr (0+16))
   463   00179E  6EF8               	movwf	tblptru,c
   464   0017A0  0100               	movlb	0
   465   0017A2  EF38  F003         	goto	_main	;jump to C main() function
   466                           
   467                           	psect	bssCOMRAM
   468   000062                     __pbssCOMRAM:
   469                           	callstack 0
   470   000062                     _width:
   471                           	callstack 0
   472   000062                     	ds	2
   473   000064                     _prec:
   474                           	callstack 0
   475   000064                     	ds	2
   476   000066                     _mode:
   477                           	callstack 0
   478   000066                     	ds	2
   479   000068                     _alcohol:
   480                           	callstack 0
   481   000068                     	ds	2
   482   00006A                     _buffer_size:
   483                           	callstack 0
   484   00006A                     	ds	2
   485   00006C                     _flags:
   486                           	callstack 0
   487   00006C                     	ds	1
   488   00006D                     _btn_interr:
   489                           	callstack 0
   490   00006D                     	ds	1
   491                           
   492                           	psect	bssBANK0
   493   000080                     __pbssBANK0:
   494                           	callstack 0
   495   000080                     _dbuf:
   496                           	callstack 0
   497   000080                     	ds	32
   498                           
   499                           	psect	bssBANK1
   500   000100                     __pbssBANK1:
   501                           	callstack 0
   502   000100                     _buffer:
   503                           	callstack 0
   504   000100                     	ds	100
   505                           
   506                           	psect	cstackCOMRAM
   507   000001                     __pcstackCOMRAM:
   508                           	callstack 0
   509   000001                     ??_MyusartRead:
   510                           
   511                           ; 1 bytes @ 0x0
   512   000001                     	ds	1
   513   000002                     MyusartRead@data:
   514                           	callstack 0
   515                           
   516                           ; 1 bytes @ 0x1
   517   000002                     	ds	1
   518   000003                     ??_H_ISR:
   519                           
   520                           ; 1 bytes @ 0x2
   521   000003                     	ds	3
   522   000006                     variable_register_changed@value:
   523                           	callstack 0
   524                           
   525                           ; 2 bytes @ 0x5
   526   000006                     	ds	2
   527   000008                     ??_Lo_ISR:
   528                           
   529                           ; 1 bytes @ 0x7
   530   000008                     	ds	5
   531   00000D                     Lo_ISR@value:
   532                           	callstack 0
   533                           
   534                           ; 2 bytes @ 0xC
   535   00000D                     	ds	2
   536   00000F                     ?_read_prec_or_width:
   537                           	callstack 0
   538   00000F                     ?___lldiv:
   539                           	callstack 0
   540   00000F                     ?___aldiv:
   541                           	callstack 0
   542   00000F                     ?___almod:
   543                           	callstack 0
   544   00000F                     ?___llmod:
   545                           	callstack 0
   546   00000F                     putch@data:
   547                           	callstack 0
   548   00000F                     read_prec_or_width@fmt:
   549                           	callstack 0
   550   00000F                     ___lldiv@dividend:
   551                           	callstack 0
   552   00000F                     ___aldiv@dividend:
   553                           	callstack 0
   554   00000F                     ___almod@dividend:
   555                           	callstack 0
   556   00000F                     ___llmod@dividend:
   557                           	callstack 0
   558   00000F                     ??_i2c_is_idle:
   559                           
   560                           ; 1 bytes @ 0xE
   561   00000F                     	ds	1
   562   000010                     i2c_write@i2c_data:
   563                           	callstack 0
   564   000010                     i2c_read@ack:
   565                           	callstack 0
   566   000010                     read_prec_or_width@ap:
   567                           	callstack 0
   568   000010                     fputc@c:
   569                           	callstack 0
   570   000010                     
   571                           ; 1 bytes @ 0xF
   572   000010                     	ds	1
   573   000011                     i2c_read@recieve:
   574                           	callstack 0
   575   000011                     ??_read_prec_or_width:
   576                           
   577                           ; 1 bytes @ 0x10
   578   000011                     	ds	1
   579   000012                     fputc@fp:
   580                           	callstack 0
   581                           
   582                           ; 2 bytes @ 0x11
   583   000012                     	ds	1
   584   000013                     read_prec_or_width@c:
   585                           	callstack 0
   586   000013                     ___lldiv@divisor:
   587                           	callstack 0
   588   000013                     ___aldiv@divisor:
   589                           	callstack 0
   590   000013                     ___almod@divisor:
   591                           	callstack 0
   592   000013                     ___llmod@divisor:
   593                           	callstack 0
   594                           
   595                           ; 4 bytes @ 0x12
   596   000013                     	ds	1
   597   000014                     read_prec_or_width@n:
   598                           	callstack 0
   599   000014                     ??_fputc:
   600                           
   601                           ; 1 bytes @ 0x13
   602   000014                     	ds	3
   603   000017                     ___aldiv@counter:
   604                           	callstack 0
   605   000017                     ___almod@counter:
   606                           	callstack 0
   607   000017                     ___llmod@counter:
   608                           	callstack 0
   609   000017                     ___lldiv@quotient:
   610                           	callstack 0
   611   000017                     
   612                           ; 1 bytes @ 0x16
   613   000017                     	ds	1
   614   000018                     ___aldiv@sign:
   615                           	callstack 0
   616   000018                     ___almod@sign:
   617                           	callstack 0
   618                           
   619                           ; 1 bytes @ 0x17
   620   000018                     	ds	1
   621   000019                     ?_abs:
   622                           	callstack 0
   623   000019                     fputs@s:
   624                           	callstack 0
   625   000019                     abs@a:
   626                           	callstack 0
   627   000019                     ___aldiv@quotient:
   628                           	callstack 0
   629                           
   630                           ; 4 bytes @ 0x18
   631   000019                     	ds	1
   632   00001A                     fputs@fp:
   633                           	callstack 0
   634                           
   635                           ; 2 bytes @ 0x19
   636   00001A                     	ds	1
   637   00001B                     ___lldiv@counter:
   638                           	callstack 0
   639   00001B                     ??_abs:
   640                           
   641                           ; 1 bytes @ 0x1A
   642   00001B                     	ds	1
   643   00001C                     fputs@c:
   644                           	callstack 0
   645   00001C                     
   646                           ; 1 bytes @ 0x1B
   647   00001C                     	ds	1
   648   00001D                     fputs@i:
   649                           	callstack 0
   650                           
   651                           ; 2 bytes @ 0x1C
   652   00001D                     	ds	2
   653   00001F                     pad@fp:
   654                           	callstack 0
   655                           
   656                           ; 2 bytes @ 0x1E
   657   00001F                     	ds	2
   658   000021                     pad@buf:
   659                           	callstack 0
   660                           
   661                           ; 1 bytes @ 0x20
   662   000021                     	ds	1
   663   000022                     pad@p:
   664                           	callstack 0
   665                           
   666                           ; 2 bytes @ 0x21
   667   000022                     	ds	2
   668   000024                     ??_pad:
   669                           
   670                           ; 1 bytes @ 0x23
   671   000024                     	ds	1
   672   000025                     pad@i:
   673                           	callstack 0
   674                           
   675                           ; 2 bytes @ 0x24
   676   000025                     	ds	2
   677   000027                     dtoa@fp:
   678                           	callstack 0
   679   000027                     utoa@fp:
   680                           	callstack 0
   681   000027                     xtoa@fp:
   682                           	callstack 0
   683                           
   684                           ; 2 bytes @ 0x26
   685   000027                     	ds	2
   686   000029                     dtoa@d:
   687                           	callstack 0
   688   000029                     utoa@d:
   689                           	callstack 0
   690   000029                     xtoa@d:
   691                           	callstack 0
   692                           
   693                           ; 4 bytes @ 0x28
   694   000029                     	ds	4
   695   00002D                     utoa@p:
   696                           	callstack 0
   697   00002D                     _dtoa$1680:
   698                           	callstack 0
   699   00002D                     ??_xtoa:
   700                           
   701                           ; 1 bytes @ 0x2C
   702   00002D                     	ds	1
   703   00002E                     utoa@w:
   704                           	callstack 0
   705                           
   706                           ; 2 bytes @ 0x2D
   707   00002E                     	ds	1
   708   00002F                     dtoa@p:
   709                           	callstack 0
   710                           
   711                           ; 1 bytes @ 0x2E
   712   00002F                     	ds	1
   713   000030                     dtoa@w:
   714                           	callstack 0
   715   000030                     utoa@i:
   716                           	callstack 0
   717                           
   718                           ; 2 bytes @ 0x2F
   719   000030                     	ds	1
   720   000031                     xtoa@p:
   721                           	callstack 0
   722                           
   723                           ; 1 bytes @ 0x30
   724   000031                     	ds	1
   725   000032                     dtoa@s:
   726                           	callstack 0
   727   000032                     xtoa@w:
   728                           	callstack 0
   729                           
   730                           ; 2 bytes @ 0x31
   731   000032                     	ds	1
   732   000033                     dtoa@i:
   733                           	callstack 0
   734                           
   735                           ; 2 bytes @ 0x32
   736   000033                     	ds	1
   737   000034                     xtoa@c:
   738                           	callstack 0
   739                           
   740                           ; 1 bytes @ 0x33
   741   000034                     	ds	1
   742   000035                     xtoa@i:
   743                           	callstack 0
   744                           
   745                           ; 2 bytes @ 0x34
   746   000035                     	ds	2
   747   000037                     vfpfcnvrt@fp:
   748                           	callstack 0
   749                           
   750                           ; 2 bytes @ 0x36
   751   000037                     	ds	2
   752   000039                     vfpfcnvrt@fmt:
   753                           	callstack 0
   754                           
   755                           ; 1 bytes @ 0x38
   756   000039                     	ds	1
   757   00003A                     vfpfcnvrt@ap:
   758                           	callstack 0
   759                           
   760                           ; 1 bytes @ 0x39
   761   00003A                     	ds	1
   762   00003B                     ??_vfpfcnvrt:
   763                           
   764                           ; 1 bytes @ 0x3A
   765   00003B                     	ds	2
   766   00003D                     vfpfcnvrt@done:
   767                           	callstack 0
   768                           
   769                           ; 1 bytes @ 0x3C
   770   00003D                     	ds	1
   771   00003E                     vfpfcnvrt@convarg:
   772                           	callstack 0
   773                           
   774                           ; 4 bytes @ 0x3D
   775   00003E                     	ds	4
   776   000042                     vfpfcnvrt@c:
   777                           	callstack 0
   778                           
   779                           ; 1 bytes @ 0x41
   780   000042                     	ds	1
   781   000043                     vfpfcnvrt@cp:
   782                           	callstack 0
   783                           
   784                           ; 1 bytes @ 0x42
   785   000043                     	ds	1
   786   000044                     ?_vfprintf:
   787                           	callstack 0
   788   000044                     vfprintf@fp:
   789                           	callstack 0
   790                           
   791                           ; 2 bytes @ 0x43
   792   000044                     	ds	2
   793   000046                     vfprintf@fmt:
   794                           	callstack 0
   795                           
   796                           ; 1 bytes @ 0x45
   797   000046                     	ds	1
   798   000047                     vfprintf@ap:
   799                           	callstack 0
   800                           
   801                           ; 1 bytes @ 0x46
   802   000047                     	ds	1
   803   000048                     vfprintf@cfmt:
   804                           	callstack 0
   805   000048                     
   806                           ; 1 bytes @ 0x47
   807   000048                     	ds	1
   808   000049                     ?_printf:
   809                           	callstack 0
   810   000049                     printf@fmt:
   811                           	callstack 0
   812                           
   813                           ; 1 bytes @ 0x48
   814   000049                     	ds	7
   815   000050                     printf@ap:
   816                           	callstack 0
   817   000050                     
   818                           ; 1 bytes @ 0x4F
   819   000050                     	ds	1
   820   000051                     ??_main:
   821                           
   822                           ; 1 bytes @ 0x50
   823   000051                     	ds	5
   824   000056                     main@red:
   825                           	callstack 0
   826                           
   827                           ; 4 bytes @ 0x55
   828   000056                     	ds	4
   829   00005A                     main@wr:
   830                           	callstack 0
   831                           
   832                           ; 1 bytes @ 0x59
   833   00005A                     	ds	1
   834   00005B                     main@rd:
   835                           	callstack 0
   836                           
   837                           ; 1 bytes @ 0x5A
   838   00005B                     	ds	1
   839   00005C                     main@samples:
   840                           	callstack 0
   841                           
   842                           ; 1 bytes @ 0x5B
   843   00005C                     	ds	1
   844   00005D                     main@ir:
   845                           	callstack 0
   846                           
   847                           ; 4 bytes @ 0x5C
   848   00005D                     	ds	4
   849   000061                     main@part_id:
   850                           	callstack 0
   851                           
   852                           ; 1 bytes @ 0x60
   853   000061                     	ds	1
   854                           
   855 ;;
   856 ;;Main: autosize = 0, tempsize = 5, incstack = 0, save=0
   857 ;;
   858 ;; *************** function _main *****************
   859 ;; Defined at:
   860 ;;		line 368 in file "addadc.c"
   861 ;; Parameters:    Size  Location     Type
   862 ;;		None
   863 ;; Auto vars:     Size  Location     Type
   864 ;;  ir              4   92[COMRAM] unsigned long 
   865 ;;  red             4   85[COMRAM] unsigned long 
   866 ;;  samples         1   91[COMRAM] unsigned char 
   867 ;;  rd              1   90[COMRAM] unsigned char 
   868 ;;  wr              1   89[COMRAM] unsigned char 
   869 ;;  str           100    0        unsigned char [100]
   870 ;;  sample_data     6    0        unsigned char [6]
   871 ;;  ir_val          4    0        unsigned long 
   872 ;;  red_val         4    0        unsigned long 
   873 ;;  part_id         1   96[COMRAM] unsigned char 
   874 ;; Return value:  Size  Location     Type
   875 ;;                  1    wreg      void 
   876 ;; Registers used:
   877 ;;		wreg, fsr1l, fsr1h, fsr2l, fsr2h, status,2, status,0, tblptrl, tblptrh, tblptru, prodl, prodh, cstack
   878 ;; Tracked objects:
   879 ;;		On entry : 0/0
   880 ;;		On exit  : 0/0
   881 ;;		Unchanged: 0/0
   882 ;; Data sizes:     COMRAM   BANK0   BANK1   BANK2   BANK3   BANK4   BANK5
   883 ;;      Params:         0       0       0       0       0       0       0
   884 ;;      Locals:        12       0       0       0       0       0       0
   885 ;;      Temps:          5       0       0       0       0       0       0
   886 ;;      Totals:        17       0       0       0       0       0       0
   887 ;;Total ram usage:       17 bytes
   888 ;; Hardware stack levels required when called: 12
   889 ;; This function calls:
   890 ;;		_Initialize
   891 ;;		_i2c_read
   892 ;;		_i2c_rep_start
   893 ;;		_i2c_start
   894 ;;		_i2c_stop
   895 ;;		_i2c_write
   896 ;;		_printf
   897 ;; This function is called by:
   898 ;;		Startup code after reset
   899 ;; This function uses a non-reentrant model
   900 ;;
   901                           
   902                           	psect	text0
   903   000670                     __ptext0:
   904                           	callstack 0
   905   000670                     _main:
   906                           	callstack 19
   907   000670                     
   908                           ;addadc.c: 369:         Initialize();
   909   000670  ECFB  F00B         	call	_Initialize	;wreg free
   910   000674                     
   911                           ;addadc.c: 380:         char str[100];;addadc.c: 390:         printf("Check Sensor ID...
      +                          \n");
   912   000674  0E2F               	movlw	low STR_2
   913   000676  6E49               	movwf	printf@fmt^0,c
   914   000678  EC58  F00C         	call	_printf	;wreg free
   915   00067C                     
   916                           ;addadc.c: 392:         uint8_t part_id;;addadc.c: 395:         i2c_start();
   917   00067C  EC7A  F00C         	call	_i2c_start	;wreg free
   918                           
   919                           ;addadc.c: 396:         printf("yeah\n");
   920   000680  0E68               	movlw	low STR_3
   921   000682  6E49               	movwf	printf@fmt^0,c
   922   000684  EC58  F00C         	call	_printf	;wreg free
   923   000688                     
   924                           ;addadc.c: 397:         i2c_write((0xAE));
   925   000688  0EAE               	movlw	174
   926   00068A  ECD3  F00B         	call	_i2c_write
   927   00068E                     
   928                           ;addadc.c: 398:         printf("yeah\n");
   929   00068E  0E68               	movlw	low STR_3
   930   000690  6E49               	movwf	printf@fmt^0,c
   931   000692  EC58  F00C         	call	_printf	;wreg free
   932                           
   933                           ;addadc.c: 399:         i2c_write(0xFF);
   934   000696  0EFF               	movlw	255
   935   000698  ECD3  F00B         	call	_i2c_write
   936   00069C                     
   937                           ;addadc.c: 400:         printf("yeah\n");
   938   00069C  0E68               	movlw	low STR_3
   939   00069E  6E49               	movwf	printf@fmt^0,c
   940   0006A0  EC58  F00C         	call	_printf	;wreg free
   941   0006A4                     
   942                           ;addadc.c: 402:         i2c_rep_start();
   943   0006A4  EC7E  F00C         	call	_i2c_rep_start	;wreg free
   944                           
   945                           ;addadc.c: 403:         printf("yeah\n");
   946   0006A8  0E68               	movlw	low STR_3
   947   0006AA  6E49               	movwf	printf@fmt^0,c
   948   0006AC  EC58  F00C         	call	_printf	;wreg free
   949   0006B0                     
   950                           ;addadc.c: 404:         i2c_write((0xAF));
   951   0006B0  0EAF               	movlw	175
   952   0006B2  ECD3  F00B         	call	_i2c_write
   953   0006B6                     
   954                           ;addadc.c: 405:         printf("yeah\n");
   955   0006B6  0E68               	movlw	low STR_3
   956   0006B8  6E49               	movwf	printf@fmt^0,c
   957   0006BA  EC58  F00C         	call	_printf	;wreg free
   958                           
   959                           ;addadc.c: 406:         part_id = i2c_read(0);
   960   0006BE  0E00               	movlw	0
   961   0006C0  ECE7  F00B         	call	_i2c_read
   962   0006C4  6E61               	movwf	main@part_id^0,c
   963   0006C6                     
   964                           ;addadc.c: 407:         printf("yeah\n");
   965   0006C6  0E68               	movlw	low STR_3
   966   0006C8  6E49               	movwf	printf@fmt^0,c
   967   0006CA  EC58  F00C         	call	_printf	;wreg free
   968   0006CE                     
   969                           ;addadc.c: 408:         i2c_stop();
   970   0006CE  EC76  F00C         	call	_i2c_stop	;wreg free
   971                           
   972                           ;addadc.c: 410:         printf("Part ID: 0x%02X\n", part_id);
   973   0006D2  0E43               	movlw	low STR_9
   974   0006D4  6E49               	movwf	printf@fmt^0,c
   975   0006D6  C061  F04A         	movff	main@part_id,?_printf+1
   976   0006DA  6A4B               	clrf	(?_printf+2)^0,c
   977   0006DC  EC58  F00C         	call	_printf	;wreg free
   978   0006E0                     
   979                           ;addadc.c: 412:         if(part_id == 0x15) {
   980   0006E0  0E15               	movlw	21
   981   0006E2  1861               	xorwf	main@part_id^0,w,c
   982   0006E4  A4D8               	btfss	status,2,c
   983   0006E6  EF77  F003         	goto	u1641
   984   0006EA  EF79  F003         	goto	u1640
   985   0006EE                     u1641:
   986   0006EE  EF7F  F003         	goto	l2331
   987   0006F2                     u1640:
   988   0006F2                     
   989                           ;addadc.c: 413:             printf("MAX30102 is ONLINE! \n");
   990   0006F2  0E19               	movlw	low STR_10
   991   0006F4  6E49               	movwf	printf@fmt^0,c
   992   0006F6  EC58  F00C         	call	_printf	;wreg free
   993                           
   994                           ;addadc.c: 414:         } else {
   995   0006FA  EF83  F003         	goto	l2333
   996   0006FE                     l2331:
   997                           
   998                           ;addadc.c: 415:             printf("Wrong ID or Bus Error.\n");
   999   0006FE  0E01               	movlw	low STR_11
  1000   000700  6E49               	movwf	printf@fmt^0,c
  1001   000702  EC58  F00C         	call	_printf	;wreg free
  1002   000706                     l2333:
  1003                           
  1004                           ;addadc.c: 418:         _delay((unsigned long)((1000)*(8000000/4000.0)));
  1005   000706  0E0B               	movlw	11
  1006   000708  6E52               	movwf	(??_main+1)^0,c
  1007   00070A  0E26               	movlw	38
  1008   00070C  6E51               	movwf	??_main^0,c
  1009   00070E  0E5E               	movlw	94
  1010   000710                     u1687:
  1011   000710  2EE8               	decfsz	wreg,f,c
  1012   000712  D7FE               	bra	u1687
  1013   000714  2E51               	decfsz	??_main^0,f,c
  1014   000716  D7FC               	bra	u1687
  1015   000718  2E52               	decfsz	(??_main+1)^0,f,c
  1016   00071A  D7FA               	bra	u1687
  1017   00071C                     
  1018                           ;addadc.c: 421:         i2c_start();
  1019   00071C  EC7A  F00C         	call	_i2c_start	;wreg free
  1020   000720                     
  1021                           ;addadc.c: 422:         i2c_write((0xAE));
  1022   000720  0EAE               	movlw	174
  1023   000722  ECD3  F00B         	call	_i2c_write
  1024   000726                     
  1025                           ;addadc.c: 423:         i2c_write(0x09);
  1026   000726  0E09               	movlw	9
  1027   000728  ECD3  F00B         	call	_i2c_write
  1028   00072C                     
  1029                           ;addadc.c: 424:         i2c_write(0x40);
  1030   00072C  0E40               	movlw	64
  1031   00072E  ECD3  F00B         	call	_i2c_write
  1032   000732                     
  1033                           ;addadc.c: 425:         i2c_stop();
  1034   000732  EC76  F00C         	call	_i2c_stop	;wreg free
  1035   000736                     
  1036                           ;addadc.c: 426:         _delay((unsigned long)((10)*(8000000/4000.0)));
  1037   000736  0E1A               	movlw	26
  1038   000738  6E51               	movwf	??_main^0,c
  1039   00073A  0EF8               	movlw	248
  1040   00073C                     u1697:
  1041   00073C  2EE8               	decfsz	wreg,f,c
  1042   00073E  D7FE               	bra	u1697
  1043   000740  2E51               	decfsz	??_main^0,f,c
  1044   000742  D7FC               	bra	u1697
  1045   000744  D000               	nop2	
  1046   000746                     
  1047                           ;addadc.c: 428:         i2c_start();
  1048   000746  EC7A  F00C         	call	_i2c_start	;wreg free
  1049   00074A                     
  1050                           ;addadc.c: 429:         i2c_write((0xAE));
  1051   00074A  0EAE               	movlw	174
  1052   00074C  ECD3  F00B         	call	_i2c_write
  1053   000750                     
  1054                           ;addadc.c: 430:         i2c_write(0x04);
  1055   000750  0E04               	movlw	4
  1056   000752  ECD3  F00B         	call	_i2c_write
  1057   000756                     
  1058                           ;addadc.c: 431:         i2c_write(0x00);
  1059   000756  0E00               	movlw	0
  1060   000758  ECD3  F00B         	call	_i2c_write
  1061   00075C                     
  1062                           ;addadc.c: 432:         i2c_write(0x00);
  1063   00075C  0E00               	movlw	0
  1064   00075E  ECD3  F00B         	call	_i2c_write
  1065   000762                     
  1066                           ;addadc.c: 433:         i2c_write(0x00);
  1067   000762  0E00               	movlw	0
  1068   000764  ECD3  F00B         	call	_i2c_write
  1069   000768                     
  1070                           ;addadc.c: 434:         i2c_stop();
  1071   000768  EC76  F00C         	call	_i2c_stop	;wreg free
  1072   00076C                     
  1073                           ;addadc.c: 437:         i2c_start();
  1074   00076C  EC7A  F00C         	call	_i2c_start	;wreg free
  1075   000770                     
  1076                           ;addadc.c: 438:         i2c_write((0xAE));
  1077   000770  0EAE               	movlw	174
  1078   000772  ECD3  F00B         	call	_i2c_write
  1079   000776                     
  1080                           ;addadc.c: 439:         i2c_write(0x08);
  1081   000776  0E08               	movlw	8
  1082   000778  ECD3  F00B         	call	_i2c_write
  1083   00077C                     
  1084                           ;addadc.c: 440:         i2c_write(0b00010000);
  1085   00077C  0E10               	movlw	16
  1086   00077E  ECD3  F00B         	call	_i2c_write
  1087   000782                     
  1088                           ;addadc.c: 441:         i2c_stop();
  1089   000782  EC76  F00C         	call	_i2c_stop	;wreg free
  1090   000786                     
  1091                           ;addadc.c: 447:         i2c_start();
  1092   000786  EC7A  F00C         	call	_i2c_start	;wreg free
  1093   00078A                     
  1094                           ;addadc.c: 448:         i2c_write((0xAE));
  1095   00078A  0EAE               	movlw	174
  1096   00078C  ECD3  F00B         	call	_i2c_write
  1097   000790                     
  1098                           ;addadc.c: 449:         i2c_write(0x0A);
  1099   000790  0E0A               	movlw	10
  1100   000792  ECD3  F00B         	call	_i2c_write
  1101   000796                     
  1102                           ;addadc.c: 450:         i2c_write(0b01000111);
  1103   000796  0E47               	movlw	71
  1104   000798  ECD3  F00B         	call	_i2c_write
  1105   00079C                     
  1106                           ;addadc.c: 451:         i2c_stop();
  1107   00079C  EC76  F00C         	call	_i2c_stop	;wreg free
  1108   0007A0                     
  1109                           ;addadc.c: 454:         i2c_start();
  1110   0007A0  EC7A  F00C         	call	_i2c_start	;wreg free
  1111   0007A4                     
  1112                           ;addadc.c: 455:         i2c_write((0xAE));
  1113   0007A4  0EAE               	movlw	174
  1114   0007A6  ECD3  F00B         	call	_i2c_write
  1115   0007AA                     
  1116                           ;addadc.c: 456:         i2c_write(0x0C);
  1117   0007AA  0E0C               	movlw	12
  1118   0007AC  ECD3  F00B         	call	_i2c_write
  1119   0007B0                     
  1120                           ;addadc.c: 457:         i2c_write(0x24);
  1121   0007B0  0E24               	movlw	36
  1122   0007B2  ECD3  F00B         	call	_i2c_write
  1123   0007B6                     
  1124                           ;addadc.c: 458:         i2c_stop();
  1125   0007B6  EC76  F00C         	call	_i2c_stop	;wreg free
  1126   0007BA                     
  1127                           ;addadc.c: 461:         i2c_start();
  1128   0007BA  EC7A  F00C         	call	_i2c_start	;wreg free
  1129   0007BE                     
  1130                           ;addadc.c: 462:         i2c_write((0xAE));
  1131   0007BE  0EAE               	movlw	174
  1132   0007C0  ECD3  F00B         	call	_i2c_write
  1133   0007C4                     
  1134                           ;addadc.c: 463:         i2c_write(0x0D);
  1135   0007C4  0E0D               	movlw	13
  1136   0007C6  ECD3  F00B         	call	_i2c_write
  1137   0007CA                     
  1138                           ;addadc.c: 464:         i2c_write(0x24);
  1139   0007CA  0E24               	movlw	36
  1140   0007CC  ECD3  F00B         	call	_i2c_write
  1141   0007D0                     
  1142                           ;addadc.c: 465:         i2c_stop();
  1143   0007D0  EC76  F00C         	call	_i2c_stop	;wreg free
  1144   0007D4                     
  1145                           ;addadc.c: 468:         i2c_start();
  1146   0007D4  EC7A  F00C         	call	_i2c_start	;wreg free
  1147   0007D8                     
  1148                           ;addadc.c: 469:         i2c_write((0xAE));
  1149   0007D8  0EAE               	movlw	174
  1150   0007DA  ECD3  F00B         	call	_i2c_write
  1151   0007DE                     
  1152                           ;addadc.c: 470:         i2c_write(0x09);
  1153   0007DE  0E09               	movlw	9
  1154   0007E0  ECD3  F00B         	call	_i2c_write
  1155   0007E4                     
  1156                           ;addadc.c: 471:         i2c_write(0x03);
  1157   0007E4  0E03               	movlw	3
  1158   0007E6  ECD3  F00B         	call	_i2c_write
  1159   0007EA                     
  1160                           ;addadc.c: 472:         i2c_stop();
  1161   0007EA  EC76  F00C         	call	_i2c_stop	;wreg free
  1162   0007EE                     l2411:
  1163                           
  1164                           ;addadc.c: 485:         uint8_t wr, rd;;addadc.c: 486:         uint8_t samples;;addadc.c
      +                          : 489:         i2c_start();
  1165   0007EE  EC7A  F00C         	call	_i2c_start	;wreg free
  1166   0007F2                     
  1167                           ;addadc.c: 490:         i2c_write((0xAE));
  1168   0007F2  0EAE               	movlw	174
  1169   0007F4  ECD3  F00B         	call	_i2c_write
  1170   0007F8                     
  1171                           ;addadc.c: 491:         i2c_write(0x04);
  1172   0007F8  0E04               	movlw	4
  1173   0007FA  ECD3  F00B         	call	_i2c_write
  1174   0007FE                     
  1175                           ;addadc.c: 492:         i2c_rep_start();
  1176   0007FE  EC7E  F00C         	call	_i2c_rep_start	;wreg free
  1177   000802                     
  1178                           ;addadc.c: 493:         i2c_write((0xAF));
  1179   000802  0EAF               	movlw	175
  1180   000804  ECD3  F00B         	call	_i2c_write
  1181   000808                     
  1182                           ;addadc.c: 494:         wr = i2c_read(0);
  1183   000808  0E00               	movlw	0
  1184   00080A  ECE7  F00B         	call	_i2c_read
  1185   00080E  6E5A               	movwf	main@wr^0,c
  1186   000810                     
  1187                           ;addadc.c: 495:         i2c_stop();
  1188   000810  EC76  F00C         	call	_i2c_stop	;wreg free
  1189   000814                     
  1190                           ;addadc.c: 498:         i2c_start();
  1191   000814  EC7A  F00C         	call	_i2c_start	;wreg free
  1192   000818                     
  1193                           ;addadc.c: 499:         i2c_write((0xAE));
  1194   000818  0EAE               	movlw	174
  1195   00081A  ECD3  F00B         	call	_i2c_write
  1196   00081E                     
  1197                           ;addadc.c: 500:         i2c_write(0x06);
  1198   00081E  0E06               	movlw	6
  1199   000820  ECD3  F00B         	call	_i2c_write
  1200   000824                     
  1201                           ;addadc.c: 501:         i2c_rep_start();
  1202   000824  EC7E  F00C         	call	_i2c_rep_start	;wreg free
  1203   000828                     
  1204                           ;addadc.c: 502:         i2c_write((0xAF));
  1205   000828  0EAF               	movlw	175
  1206   00082A  ECD3  F00B         	call	_i2c_write
  1207   00082E                     
  1208                           ;addadc.c: 503:         rd = i2c_read(0);
  1209   00082E  0E00               	movlw	0
  1210   000830  ECE7  F00B         	call	_i2c_read
  1211   000834  6E5B               	movwf	main@rd^0,c
  1212   000836                     
  1213                           ;addadc.c: 504:         i2c_stop();
  1214   000836  EC76  F00C         	call	_i2c_stop	;wreg free
  1215   00083A                     
  1216                           ;addadc.c: 506:         samples = (wr - rd) & 0x1F;
  1217   00083A  505B               	movf	main@rd^0,w,c
  1218   00083C  5C5A               	subwf	main@wr^0,w,c
  1219   00083E  0B1F               	andlw	31
  1220   000840  6E5C               	movwf	main@samples^0,c
  1221                           
  1222                           ;addadc.c: 509:         while(samples > 0)
  1223   000842  EFBD  F004         	goto	l2451
  1224   000846                     l2441:
  1225                           
  1226                           ;addadc.c: 510:         {;addadc.c: 511:             uint32_t red, ir;;addadc.c: 513:   
      +                                    i2c_start();
  1227   000846  EC7A  F00C         	call	_i2c_start	;wreg free
  1228                           
  1229                           ;addadc.c: 514:             i2c_write((0xAE));
  1230   00084A  0EAE               	movlw	174
  1231   00084C  ECD3  F00B         	call	_i2c_write
  1232                           
  1233                           ;addadc.c: 515:             i2c_write(0x07);
  1234   000850  0E07               	movlw	7
  1235   000852  ECD3  F00B         	call	_i2c_write
  1236                           
  1237                           ;addadc.c: 516:             i2c_rep_start();
  1238   000856  EC7E  F00C         	call	_i2c_rep_start	;wreg free
  1239                           
  1240                           ;addadc.c: 517:             i2c_write((0xAF));
  1241   00085A  0EAF               	movlw	175
  1242   00085C  ECD3  F00B         	call	_i2c_write
  1243                           
  1244                           ;addadc.c: 519:             red = ((uint32_t)i2c_read(1)) << 16;
  1245   000860  0E01               	movlw	1
  1246   000862  ECE7  F00B         	call	_i2c_read
  1247   000866  6E51               	movwf	??_main^0,c
  1248   000868  C051  F052         	movff	??_main,??_main+1
  1249   00086C  6A53               	clrf	(??_main+2)^0,c
  1250   00086E  6A54               	clrf	(??_main+3)^0,c
  1251   000870  6A55               	clrf	(??_main+4)^0,c
  1252   000872  C053  F055         	movff	??_main+2,??_main+4
  1253   000876  C052  F054         	movff	??_main+1,??_main+3
  1254   00087A  6A53               	clrf	(??_main+2)^0,c
  1255   00087C  6A52               	clrf	(??_main+1)^0,c
  1256   00087E  C052  F056         	movff	??_main+1,main@red
  1257   000882  C053  F057         	movff	??_main+2,main@red+1
  1258   000886  C054  F058         	movff	??_main+3,main@red+2
  1259   00088A  C055  F059         	movff	??_main+4,main@red+3
  1260                           
  1261                           ;addadc.c: 520:             red |= ((uint32_t)i2c_read(1)) << 8;
  1262   00088E  0E01               	movlw	1
  1263   000890  ECE7  F00B         	call	_i2c_read
  1264   000894  6E51               	movwf	??_main^0,c
  1265   000896  C051  F052         	movff	??_main,??_main+1
  1266   00089A  6A53               	clrf	(??_main+2)^0,c
  1267   00089C  6A54               	clrf	(??_main+3)^0,c
  1268   00089E  6A55               	clrf	(??_main+4)^0,c
  1269   0008A0  C054  F055         	movff	??_main+3,??_main+4
  1270   0008A4  C053  F054         	movff	??_main+2,??_main+3
  1271   0008A8  C052  F053         	movff	??_main+1,??_main+2
  1272   0008AC  6A52               	clrf	(??_main+1)^0,c
  1273   0008AE  5052               	movf	(??_main+1)^0,w,c
  1274   0008B0  1256               	iorwf	main@red^0,f,c
  1275   0008B2  5053               	movf	(??_main+2)^0,w,c
  1276   0008B4  1257               	iorwf	(main@red+1)^0,f,c
  1277   0008B6  5054               	movf	(??_main+3)^0,w,c
  1278   0008B8  1258               	iorwf	(main@red+2)^0,f,c
  1279   0008BA  5055               	movf	(??_main+4)^0,w,c
  1280   0008BC  1259               	iorwf	(main@red+3)^0,f,c
  1281                           
  1282                           ;addadc.c: 521:             red |= i2c_read(1);
  1283   0008BE  0E01               	movlw	1
  1284   0008C0  ECE7  F00B         	call	_i2c_read
  1285   0008C4  6E51               	movwf	??_main^0,c
  1286   0008C6  5051               	movf	??_main^0,w,c
  1287   0008C8  1256               	iorwf	main@red^0,f,c
  1288                           
  1289                           ;addadc.c: 523:             ir = ((uint32_t)i2c_read(1)) << 16;
  1290   0008CA  0E01               	movlw	1
  1291   0008CC  ECE7  F00B         	call	_i2c_read
  1292   0008D0  6E51               	movwf	??_main^0,c
  1293   0008D2  C051  F052         	movff	??_main,??_main+1
  1294   0008D6  6A53               	clrf	(??_main+2)^0,c
  1295   0008D8  6A54               	clrf	(??_main+3)^0,c
  1296   0008DA  6A55               	clrf	(??_main+4)^0,c
  1297   0008DC  C053  F055         	movff	??_main+2,??_main+4
  1298   0008E0  C052  F054         	movff	??_main+1,??_main+3
  1299   0008E4  6A53               	clrf	(??_main+2)^0,c
  1300   0008E6  6A52               	clrf	(??_main+1)^0,c
  1301   0008E8  C052  F05D         	movff	??_main+1,main@ir
  1302   0008EC  C053  F05E         	movff	??_main+2,main@ir+1
  1303   0008F0  C054  F05F         	movff	??_main+3,main@ir+2
  1304   0008F4  C055  F060         	movff	??_main+4,main@ir+3
  1305                           
  1306                           ;addadc.c: 524:             ir |= ((uint32_t)i2c_read(1)) << 8;
  1307   0008F8  0E01               	movlw	1
  1308   0008FA  ECE7  F00B         	call	_i2c_read
  1309   0008FE  6E51               	movwf	??_main^0,c
  1310   000900  C051  F052         	movff	??_main,??_main+1
  1311   000904  6A53               	clrf	(??_main+2)^0,c
  1312   000906  6A54               	clrf	(??_main+3)^0,c
  1313   000908  6A55               	clrf	(??_main+4)^0,c
  1314   00090A  C054  F055         	movff	??_main+3,??_main+4
  1315   00090E  C053  F054         	movff	??_main+2,??_main+3
  1316   000912  C052  F053         	movff	??_main+1,??_main+2
  1317   000916  6A52               	clrf	(??_main+1)^0,c
  1318   000918  5052               	movf	(??_main+1)^0,w,c
  1319   00091A  125D               	iorwf	main@ir^0,f,c
  1320   00091C  5053               	movf	(??_main+2)^0,w,c
  1321   00091E  125E               	iorwf	(main@ir+1)^0,f,c
  1322   000920  5054               	movf	(??_main+3)^0,w,c
  1323   000922  125F               	iorwf	(main@ir+2)^0,f,c
  1324   000924  5055               	movf	(??_main+4)^0,w,c
  1325   000926  1260               	iorwf	(main@ir+3)^0,f,c
  1326                           
  1327                           ;addadc.c: 525:             ir |= i2c_read(0);
  1328   000928  0E00               	movlw	0
  1329   00092A  ECE7  F00B         	call	_i2c_read
  1330   00092E  6E51               	movwf	??_main^0,c
  1331   000930  5051               	movf	??_main^0,w,c
  1332   000932  125D               	iorwf	main@ir^0,f,c
  1333                           
  1334                           ;addadc.c: 527:             i2c_stop();
  1335   000934  EC76  F00C         	call	_i2c_stop	;wreg free
  1336   000938                     
  1337                           ;addadc.c: 529:             red &= 0x3FFFF;
  1338   000938  0EFF               	movlw	255
  1339   00093A  1656               	andwf	main@red^0,f,c
  1340   00093C  0EFF               	movlw	255
  1341   00093E  1657               	andwf	(main@red+1)^0,f,c
  1342   000940  0E03               	movlw	3
  1343   000942  1658               	andwf	(main@red+2)^0,f,c
  1344   000944  0E00               	movlw	0
  1345   000946  1659               	andwf	(main@red+3)^0,f,c
  1346   000948                     
  1347                           ;addadc.c: 530:             ir &= 0x3FFFF;
  1348   000948  0EFF               	movlw	255
  1349   00094A  165D               	andwf	main@ir^0,f,c
  1350   00094C  0EFF               	movlw	255
  1351   00094E  165E               	andwf	(main@ir+1)^0,f,c
  1352   000950  0E03               	movlw	3
  1353   000952  165F               	andwf	(main@ir+2)^0,f,c
  1354   000954  0E00               	movlw	0
  1355   000956  1660               	andwf	(main@ir+3)^0,f,c
  1356   000958                     
  1357                           ;addadc.c: 532:             printf("%05lu,%03d\n", ir, alcohol);
  1358   000958  0E54               	movlw	low STR_12
  1359   00095A  6E49               	movwf	printf@fmt^0,c
  1360   00095C  C05D  F04A         	movff	main@ir,?_printf+1
  1361   000960  C05E  F04B         	movff	main@ir+1,?_printf+2
  1362   000964  C05F  F04C         	movff	main@ir+2,?_printf+3
  1363   000968  C060  F04D         	movff	main@ir+3,?_printf+4
  1364   00096C  C068  F04E         	movff	_alcohol,?_printf+5
  1365   000970  C069  F04F         	movff	_alcohol+1,?_printf+6
  1366   000974  EC58  F00C         	call	_printf	;wreg free
  1367   000978                     
  1368                           ;addadc.c: 534:             samples--;
  1369   000978  065C               	decf	main@samples^0,f,c
  1370   00097A                     l2451:
  1371                           
  1372                           ;addadc.c: 509:         while(samples > 0)
  1373   00097A  505C               	movf	main@samples^0,w,c
  1374   00097C  A4D8               	btfss	status,2,c
  1375   00097E  EFC3  F004         	goto	u1651
  1376   000982  EFC5  F004         	goto	u1650
  1377   000986                     u1651:
  1378   000986  EF23  F004         	goto	l2441
  1379   00098A                     u1650:
  1380   00098A                     
  1381                           ;addadc.c: 536:         if(mode == 1){
  1382   00098A  0466               	decf	_mode^0,w,c
  1383   00098C  1067               	iorwf	(_mode+1)^0,w,c
  1384   00098E  A4D8               	btfss	status,2,c
  1385   000990  EFCC  F004         	goto	u1661
  1386   000994  EFCE  F004         	goto	u1660
  1387   000998                     u1661:
  1388   000998  EFF7  F003         	goto	l2411
  1389   00099C                     u1660:
  1390   00099C                     
  1391                           ;addadc.c: 537:             if (ADCON0bits.GO == 0) ADCON0bits.GO = 1;
  1392   00099C  B2C2               	btfsc	194,1,c	;volatile
  1393   00099E  EFD3  F004         	goto	u1671
  1394   0009A2  EFD5  F004         	goto	u1670
  1395   0009A6                     u1671:
  1396   0009A6  EFF7  F003         	goto	l2411
  1397   0009AA                     u1670:
  1398   0009AA  82C2               	bsf	194,1,c	;volatile
  1399   0009AC  EFF7  F003         	goto	l2411
  1400   0009B0  EF39  F000         	goto	start
  1401   0009B4                     __end_of_main:
  1402                           	callstack 0
  1403                           
  1404 ;; *************** function _printf *****************
  1405 ;; Defined at:
  1406 ;;		line 5 in file "C:\Program Files\Microchip\xc8\v3.00\pic\sources\c99\common\printf.c"
  1407 ;; Parameters:    Size  Location     Type
  1408 ;;  fmt             1   72[COMRAM] PTR const unsigned char 
  1409 ;;		 -> STR_12(12), STR_11(24), STR_10(22), STR_9(17), 
  1410 ;;		 -> STR_8(6), STR_7(6), STR_6(6), STR_5(6), 
  1411 ;;		 -> STR_4(6), STR_3(6), STR_2(20), STR_1(8), 
  1412 ;; Auto vars:     Size  Location     Type
  1413 ;;  ret             2    0        int 
  1414 ;;  ap              1   79[COMRAM] PTR void [1]
  1415 ;;		 -> ?_printf(2), 
  1416 ;; Return value:  Size  Location     Type
  1417 ;;                  2   72[COMRAM] int 
  1418 ;; Registers used:
  1419 ;;		wreg, fsr1l, fsr1h, fsr2l, fsr2h, status,2, status,0, tblptrl, tblptrh, tblptru, prodl, prodh, cstack
  1420 ;; Tracked objects:
  1421 ;;		On entry : 0/0
  1422 ;;		On exit  : 0/0
  1423 ;;		Unchanged: 0/0
  1424 ;; Data sizes:     COMRAM   BANK0   BANK1   BANK2   BANK3   BANK4   BANK5
  1425 ;;      Params:         7       0       0       0       0       0       0
  1426 ;;      Locals:         1       0       0       0       0       0       0
  1427 ;;      Temps:          0       0       0       0       0       0       0
  1428 ;;      Totals:         8       0       0       0       0       0       0
  1429 ;;Total ram usage:        8 bytes
  1430 ;; Hardware stack levels used: 1
  1431 ;; Hardware stack levels required when called: 11
  1432 ;; This function calls:
  1433 ;;		_vfprintf
  1434 ;; This function is called by:
  1435 ;;		_main
  1436 ;;		_clear_terminal
  1437 ;; This function uses a non-reentrant model
  1438 ;;
  1439                           
  1440                           	psect	text1
  1441   0018B0                     __ptext1:
  1442                           	callstack 0
  1443   0018B0                     _printf:
  1444                           	callstack 19
  1445   0018B0  0E4A               	movlw	low (?_printf+1)
  1446   0018B2  6E50               	movwf	printf@ap^0,c
  1447   0018B4  0E00               	movlw	0
  1448   0018B6  6E44               	movwf	vfprintf@fp^0,c
  1449   0018B8  0E00               	movlw	0
  1450   0018BA  6E45               	movwf	(vfprintf@fp+1)^0,c
  1451   0018BC  C049  F046         	movff	printf@fmt,vfprintf@fmt
  1452   0018C0  0E50               	movlw	low printf@ap
  1453   0018C2  6E47               	movwf	vfprintf@ap^0,c
  1454   0018C4  EC5F  F00B         	call	_vfprintf	;wreg free
  1455   0018C8  0012               	return		;funcret
  1456   0018CA                     __end_of_printf:
  1457                           	callstack 0
  1458                           
  1459 ;; *************** function _vfprintf *****************
  1460 ;; Defined at:
  1461 ;;		line 1817 in file "C:\Program Files\Microchip\xc8\v3.00\pic\sources\c99\common\doprnt.c"
  1462 ;; Parameters:    Size  Location     Type
  1463 ;;  fp              2   67[COMRAM] PTR struct _IO_FILE
  1464 ;;		 -> NULL(0), 
  1465 ;;  fmt             1   69[COMRAM] PTR const unsigned char 
  1466 ;;		 -> STR_12(12), STR_11(24), STR_10(22), STR_9(17), 
  1467 ;;		 -> STR_8(6), STR_7(6), STR_6(6), STR_5(6), 
  1468 ;;		 -> STR_4(6), STR_3(6), STR_2(20), STR_1(8), 
  1469 ;;  ap              1   70[COMRAM] PTR PTR void 
  1470 ;;		 -> printf@ap(1), 
  1471 ;; Auto vars:     Size  Location     Type
  1472 ;;  cfmt            1   71[COMRAM] PTR unsigned char 
  1473 ;;		 -> STR_12(12), STR_11(24), STR_10(22), STR_9(17), 
  1474 ;;		 -> STR_8(6), STR_7(6), STR_6(6), STR_5(6), 
  1475 ;;		 -> STR_4(6), STR_3(6), STR_2(20), STR_1(8), 
  1476 ;; Return value:  Size  Location     Type
  1477 ;;                  2   67[COMRAM] int 
  1478 ;; Registers used:
  1479 ;;		wreg, fsr1l, fsr1h, fsr2l, fsr2h, status,2, status,0, tblptrl, tblptrh, tblptru, prodl, prodh, cstack
  1480 ;; Tracked objects:
  1481 ;;		On entry : 0/0
  1482 ;;		On exit  : 0/0
  1483 ;;		Unchanged: 0/0
  1484 ;; Data sizes:     COMRAM   BANK0   BANK1   BANK2   BANK3   BANK4   BANK5
  1485 ;;      Params:         4       0       0       0       0       0       0
  1486 ;;      Locals:         1       0       0       0       0       0       0
  1487 ;;      Temps:          0       0       0       0       0       0       0
  1488 ;;      Totals:         5       0       0       0       0       0       0
  1489 ;;Total ram usage:        5 bytes
  1490 ;; Hardware stack levels used: 1
  1491 ;; Hardware stack levels required when called: 10
  1492 ;; This function calls:
  1493 ;;		_vfpfcnvrt
  1494 ;; This function is called by:
  1495 ;;		_printf
  1496 ;; This function uses a non-reentrant model
  1497 ;;
  1498                           
  1499                           	psect	text2
  1500   0016BE                     __ptext2:
  1501                           	callstack 0
  1502   0016BE                     _vfprintf:
  1503                           	callstack 19
  1504   0016BE                     
  1505                           ;C:\Program Files\Microchip\xc8\v3.00\pic\sources\c99\common\doprnt.c: 1817: int vfprint
      +                          f(FILE *fp, const char *fmt, va_list ap);C:\Program Files\Microchip\xc8\v3.00\pic\source
      +                          s\c99\common\doprnt.c: 1818: {;C:\Program Files\Microchip\xc8\v3.00\pic\sources\c99\comm
      +                          on\doprnt.c: 1820:     char *cfmt;;C:\Program Files\Microchip\xc8\v3.00\pic\sources\c99\
      +                          common\doprnt.c: 1822:     cfmt = (char *)fmt;
  1506   0016BE  C046  F048         	movff	vfprintf@fmt,vfprintf@cfmt
  1507                           
  1508                           ;C:\Program Files\Microchip\xc8\v3.00\pic\sources\c99\common\doprnt.c: 1826:     while (
      +                          *cfmt) {
  1509   0016C2  EF6D  F00B         	goto	l2203
  1510   0016C6                     l2201:
  1511                           
  1512                           ;C:\Program Files\Microchip\xc8\v3.00\pic\sources\c99\common\doprnt.c: 1830:    vfpfcnvr
      +                          t(fp, &cfmt, ap);
  1513   0016C6  C044  F037         	movff	vfprintf@fp,vfpfcnvrt@fp
  1514   0016CA  C045  F038         	movff	vfprintf@fp+1,vfpfcnvrt@fp+1
  1515   0016CE  0E48               	movlw	low vfprintf@cfmt
  1516   0016D0  6E39               	movwf	vfpfcnvrt@fmt^0,c
  1517   0016D2  C047  F03A         	movff	vfprintf@ap,vfpfcnvrt@ap
  1518   0016D6  ECDA  F004         	call	_vfpfcnvrt	;wreg free
  1519   0016DA                     l2203:
  1520                           
  1521                           ;C:\Program Files\Microchip\xc8\v3.00\pic\sources\c99\common\doprnt.c: 1826:     while (
      +                          *cfmt) {
  1522   0016DA  C048  FFF6         	movff	vfprintf@cfmt,tblptrl
  1523   0016DE                     	if	1	;There is more than 1 active tblptr byte
  1524   0016DE  0E06               	movlw	high __smallconst
  1525   0016E0  6EF7               	movwf	tblptrh,c
  1526   0016E2                     	endif
  1527   0016E2                     	if	0	;tblptru may be non-zero
  1528   0016E2                     	endif
  1529   0016E2                     	if	0	;tblptru may be non-zero
  1530   0016E2                     	endif
  1531   0016E2  0008               	tblrd		*
  1532   0016E4  50F5               	movf	tablat,w,c
  1533   0016E6  0900               	iorlw	0
  1534   0016E8  A4D8               	btfss	status,2,c
  1535   0016EA  EF79  F00B         	goto	u1531
  1536   0016EE  EF7B  F00B         	goto	u1530
  1537   0016F2                     u1531:
  1538   0016F2  EF63  F00B         	goto	l2201
  1539   0016F6                     u1530:
  1540   0016F6                     
  1541                           ;C:\Program Files\Microchip\xc8\v3.00\pic\sources\c99\common\doprnt.c: 1835:  return 0;
  1542   0016F6  0E00               	movlw	0
  1543   0016F8  6E45               	movwf	(?_vfprintf+1)^0,c
  1544   0016FA  0E00               	movlw	0
  1545   0016FC  6E44               	movwf	?_vfprintf^0,c
  1546   0016FE  0012               	return		;funcret
  1547   001700                     __end_of_vfprintf:
  1548                           	callstack 0
  1549                           
  1550 ;; *************** function _vfpfcnvrt *****************
  1551 ;; Defined at:
  1552 ;;		line 1177 in file "C:\Program Files\Microchip\xc8\v3.00\pic\sources\c99\common\doprnt.c"
  1553 ;; Parameters:    Size  Location     Type
  1554 ;;  fp              2   54[COMRAM] PTR struct _IO_FILE
  1555 ;;		 -> NULL(0), 
  1556 ;;  fmt             1   56[COMRAM] PTR PTR unsigned char 
  1557 ;;		 -> vfprintf@cfmt(1), 
  1558 ;;  ap              1   57[COMRAM] PTR PTR void 
  1559 ;;		 -> printf@ap(1), 
  1560 ;; Auto vars:     Size  Location     Type
  1561 ;;  convarg         4   61[COMRAM] struct .
  1562 ;;  cp              1   66[COMRAM] PTR unsigned char 
  1563 ;;		 -> STR_12(12), STR_11(24), STR_10(22), STR_9(17), 
  1564 ;;		 -> STR_8(6), STR_7(6), STR_6(6), STR_5(6), 
  1565 ;;		 -> STR_4(6), STR_3(6), STR_2(20), STR_1(8), 
  1566 ;;  c               1   65[COMRAM] unsigned char 
  1567 ;;  done            1   60[COMRAM] _Bool 
  1568 ;; Return value:  Size  Location     Type
  1569 ;;                  1    wreg      void 
  1570 ;; Registers used:
  1571 ;;		wreg, fsr1l, fsr1h, fsr2l, fsr2h, status,2, status,0, tblptrl, tblptrh, tblptru, prodl, prodh, cstack
  1572 ;; Tracked objects:
  1573 ;;		On entry : 0/0
  1574 ;;		On exit  : 0/0
  1575 ;;		Unchanged: 0/0
  1576 ;; Data sizes:     COMRAM   BANK0   BANK1   BANK2   BANK3   BANK4   BANK5
  1577 ;;      Params:         4       0       0       0       0       0       0
  1578 ;;      Locals:         7       0       0       0       0       0       0
  1579 ;;      Temps:          2       0       0       0       0       0       0
  1580 ;;      Totals:        13       0       0       0       0       0       0
  1581 ;;Total ram usage:       13 bytes
  1582 ;; Hardware stack levels used: 1
  1583 ;; Hardware stack levels required when called: 9
  1584 ;; This function calls:
  1585 ;;		_dtoa
  1586 ;;		_fputc
  1587 ;;		_read_prec_or_width
  1588 ;;		_utoa
  1589 ;;		_xtoa
  1590 ;; This function is called by:
  1591 ;;		_vfprintf
  1592 ;; This function uses a non-reentrant model
  1593 ;;
  1594                           
  1595                           	psect	text3
  1596   0009B4                     __ptext3:
  1597                           	callstack 0
  1598   0009B4                     _vfpfcnvrt:
  1599                           	callstack 19
  1600   0009B4                     
  1601                           ;C:\Program Files\Microchip\xc8\v3.00\pic\sources\c99\common\doprnt.c: 1177: vfpfcnvrt(F
      +                          ILE *fp, char *fmt[], va_list ap);C:\Program Files\Microchip\xc8\v3.00\pic\sources\c99\c
      +                          ommon\doprnt.c: 1178: {;C:\Program Files\Microchip\xc8\v3.00\pic\sources\c99\common\dopr
      +                          nt.c: 1179:     char c, *cp;;C:\Program Files\Microchip\xc8\v3.00\pic\sources\c99\common
      +                          \doprnt.c: 1180:     _Bool done;;C:\Program Files\Microchip\xc8\v3.00\pic\sources\c99\co
      +                          mmon\doprnt.c: 1188:  } convarg;;C:\Program Files\Microchip\xc8\v3.00\pic\sources\c99\co
      +                          mmon\doprnt.c: 1201:     if ((*fmt)[0] == '%') {
  1602   0009B4  5039               	movf	vfpfcnvrt@fmt^0,w,c
  1603   0009B6  6ED9               	movwf	fsr2l,c
  1604   0009B8  6ADA               	clrf	fsr2h,c
  1605   0009BA  CFDF FFF6          	movff	indf2,tblptrl
  1606   0009BE                     	if	1	;There is more than 1 active tblptr byte
  1607   0009BE  0E06               	movlw	high __smallconst
  1608   0009C0  6EF7               	movwf	tblptrh,c
  1609   0009C2                     	endif
  1610   0009C2                     	if	0	;tblptru may be non-zero
  1611   0009C2                     	endif
  1612   0009C2                     	if	0	;tblptru may be non-zero
  1613   0009C2                     	endif
  1614   0009C2  0008               	tblrd		*
  1615   0009C4  50F5               	movf	tablat,w,c
  1616   0009C6  0A25               	xorlw	37
  1617   0009C8  A4D8               	btfss	status,2,c
  1618   0009CA  EFE9  F004         	goto	u1461
  1619   0009CE  EFEB  F004         	goto	u1460
  1620   0009D2                     u1461:
  1621   0009D2  EF50  F006         	goto	l2193
  1622   0009D6                     u1460:
  1623   0009D6                     
  1624                           ;C:\Program Files\Microchip\xc8\v3.00\pic\sources\c99\common\doprnt.c: 1202:         ++*
      +                          fmt;
  1625   0009D6  5039               	movf	vfpfcnvrt@fmt^0,w,c
  1626   0009D8  6ED9               	movwf	fsr2l,c
  1627   0009DA  6ADA               	clrf	fsr2h,c
  1628   0009DC  2ADF               	incf	indf2,f,c
  1629   0009DE                     
  1630                           ;C:\Program Files\Microchip\xc8\v3.00\pic\sources\c99\common\doprnt.c: 1204:         fla
      +                          gs = width = 0;
  1631   0009DE  0E00               	movlw	0
  1632   0009E0  6E63               	movwf	(_width+1)^0,c
  1633   0009E2  0E00               	movlw	0
  1634   0009E4  6E62               	movwf	_width^0,c
  1635   0009E6  C062  F06C         	movff	_width,_flags
  1636   0009EA                     
  1637                           ;C:\Program Files\Microchip\xc8\v3.00\pic\sources\c99\common\doprnt.c: 1205:         pre
      +                          c = -1;
  1638   0009EA  6864               	setf	_prec^0,c
  1639   0009EC  6865               	setf	(_prec+1)^0,c
  1640   0009EE                     
  1641                           ;C:\Program Files\Microchip\xc8\v3.00\pic\sources\c99\common\doprnt.c: 1209:         don
      +                          e = 0;
  1642   0009EE  6A3D               	clrf	vfpfcnvrt@done^0,c
  1643                           
  1644                           ;C:\Program Files\Microchip\xc8\v3.00\pic\sources\c99\common\doprnt.c: 1210:         whi
      +                          le (!done) {
  1645   0009F0  EF14  F005         	goto	l2125
  1646   0009F4                     l2115:
  1647                           
  1648                           ;C:\Program Files\Microchip\xc8\v3.00\pic\sources\c99\common\doprnt.c: 1220:            
      +                                   flags |= (1 << 1);
  1649   0009F4  826C               	bsf	_flags^0,1,c
  1650   0009F6                     
  1651                           ;C:\Program Files\Microchip\xc8\v3.00\pic\sources\c99\common\doprnt.c: 1221:            
      +                                   ++*fmt;
  1652   0009F6  5039               	movf	vfpfcnvrt@fmt^0,w,c
  1653   0009F8  6ED9               	movwf	fsr2l,c
  1654   0009FA  6ADA               	clrf	fsr2h,c
  1655   0009FC  2ADF               	incf	indf2,f,c
  1656                           
  1657                           ;C:\Program Files\Microchip\xc8\v3.00\pic\sources\c99\common\doprnt.c: 1222:            
      +                                   break;
  1658   0009FE  EF14  F005         	goto	l2125
  1659   000A02                     l2119:
  1660                           
  1661                           ;C:\Program Files\Microchip\xc8\v3.00\pic\sources\c99\common\doprnt.c: 1243:            
      +                                   done = 1;
  1662   000A02  0E01               	movlw	1
  1663   000A04  6E3D               	movwf	vfpfcnvrt@done^0,c
  1664                           
  1665                           ;C:\Program Files\Microchip\xc8\v3.00\pic\sources\c99\common\doprnt.c: 1244:            
      +                                   break;
  1666   000A06  EF14  F005         	goto	l2125
  1667   000A0A                     l2123:
  1668   000A0A  5039               	movf	vfpfcnvrt@fmt^0,w,c
  1669   000A0C  6ED9               	movwf	fsr2l,c
  1670   000A0E  6ADA               	clrf	fsr2h,c
  1671   000A10  CFDF FFF6          	movff	indf2,tblptrl
  1672   000A14                     	if	1	;There is more than 1 active tblptr byte
  1673   000A14  0E06               	movlw	high __smallconst
  1674   000A16  6EF7               	movwf	tblptrh,c
  1675   000A18                     	endif
  1676   000A18                     	if	0	;tblptru may be non-zero
  1677   000A18                     	endif
  1678   000A18                     	if	0	;tblptru may be non-zero
  1679   000A18                     	endif
  1680   000A18  0008               	tblrd		*
  1681   000A1A  50F5               	movf	tablat,w,c
  1682                           
  1683                           ; Switch size 1, requested type "simple"
  1684                           ; Number of cases is 1, Range of values is 48 to 48
  1685                           ; switch strategies available:
  1686                           ; Name         Instructions Cycles
  1687                           ; simple_byte            4     3 (average)
  1688                           ;	Chosen strategy is simple_byte
  1689   000A1C  0A30               	xorlw	48	; case 48
  1690   000A1E  B4D8               	btfsc	status,2,c
  1691   000A20  EFFA  F004         	goto	l2115
  1692   000A24  EF01  F005         	goto	l2119
  1693   000A28                     l2125:
  1694                           
  1695                           ;C:\Program Files\Microchip\xc8\v3.00\pic\sources\c99\common\doprnt.c: 1210:         whi
      +                          le (!done) {
  1696   000A28  503D               	movf	vfpfcnvrt@done^0,w,c
  1697   000A2A  B4D8               	btfsc	status,2,c
  1698   000A2C  EF1A  F005         	goto	u1471
  1699   000A30  EF1C  F005         	goto	u1470
  1700   000A34                     u1471:
  1701   000A34  EF05  F005         	goto	l2123
  1702   000A38                     u1470:
  1703   000A38                     
  1704                           ;C:\Program Files\Microchip\xc8\v3.00\pic\sources\c99\common\doprnt.c: 1256:   width = r
      +                          ead_prec_or_width(fmt, ap);
  1705   000A38  C039  F00F         	movff	vfpfcnvrt@fmt,read_prec_or_width@fmt
  1706   000A3C  C03A  F010         	movff	vfpfcnvrt@ap,read_prec_or_width@ap
  1707   000A40  ECEF  F009         	call	_read_prec_or_width	;wreg free
  1708   000A44  C00F  F062         	movff	?_read_prec_or_width,_width
  1709   000A48  C010  F063         	movff	?_read_prec_or_width+1,_width+1
  1710   000A4C                     
  1711                           ;C:\Program Files\Microchip\xc8\v3.00\pic\sources\c99\common\doprnt.c: 1257:   if (width
      +                           < 0) {
  1712   000A4C  BE63               	btfsc	(_width+1)^0,7,c
  1713   000A4E  EF2D  F005         	goto	u1480
  1714   000A52  EF2B  F005         	goto	u1481
  1715   000A56                     u1481:
  1716   000A56  EF32  F005         	goto	l2133
  1717   000A5A                     u1480:
  1718   000A5A                     
  1719                           ;C:\Program Files\Microchip\xc8\v3.00\pic\sources\c99\common\doprnt.c: 1258:    flags |=
      +                           (1 << 0);
  1720   000A5A  806C               	bsf	_flags^0,0,c
  1721                           
  1722                           ;C:\Program Files\Microchip\xc8\v3.00\pic\sources\c99\common\doprnt.c: 1259:    width = 
      +                          -width;
  1723   000A5C  6C62               	negf	_width^0,c
  1724   000A5E  1E63               	comf	(_width+1)^0,f,c
  1725   000A60  B0D8               	btfsc	status,0,c
  1726   000A62  2A63               	incf	(_width+1)^0,f,c
  1727   000A64                     l2133:
  1728                           
  1729                           ;C:\Program Files\Microchip\xc8\v3.00\pic\sources\c99\common\doprnt.c: 1291:   cp = *fmt
      +                          ;
  1730   000A64  5039               	movf	vfpfcnvrt@fmt^0,w,c
  1731   000A66  6ED9               	movwf	fsr2l,c
  1732   000A68  6ADA               	clrf	fsr2h,c
  1733   000A6A  50DF               	movf	indf2,w,c
  1734   000A6C  6E43               	movwf	vfpfcnvrt@cp^0,c
  1735   000A6E                     
  1736                           ;C:\Program Files\Microchip\xc8\v3.00\pic\sources\c99\common\doprnt.c: 1293:   c = *cp;
  1737   000A6E  C043  FFF6         	movff	vfpfcnvrt@cp,tblptrl
  1738   000A72                     	if	1	;There is more than 1 active tblptr byte
  1739   000A72  0E06               	movlw	high __smallconst
  1740   000A74  6EF7               	movwf	tblptrh,c
  1741   000A76                     	endif
  1742   000A76                     	if	0	;tblptru may be non-zero
  1743   000A76                     	endif
  1744   000A76                     	if	0	;tblptru may be non-zero
  1745   000A76                     	endif
  1746   000A76  0008               	tblrd		*
  1747   000A78  CFF5 F042          	movff	tablat,vfpfcnvrt@c
  1748                           
  1749                           ;C:\Program Files\Microchip\xc8\v3.00\pic\sources\c99\common\doprnt.c: 1294:   switch(c)
      +                           {
  1750   000A7C  EF4A  F005         	goto	l2143
  1751   000A80                     l2137:
  1752                           
  1753                           ;C:\Program Files\Microchip\xc8\v3.00\pic\sources\c99\common\doprnt.c: 1309:     cp++;
  1754   000A80  2A43               	incf	vfpfcnvrt@cp^0,f,c
  1755                           
  1756                           ;C:\Program Files\Microchip\xc8\v3.00\pic\sources\c99\common\doprnt.c: 1316:     break;
  1757   000A82  EF61  F005         	goto	l2145
  1758   000A86                     l973:
  1759   000A86                     l2139:
  1760                           
  1761                           ;C:\Program Files\Microchip\xc8\v3.00\pic\sources\c99\common\doprnt.c: 1350:     c = 'i'
      +                          ;
  1762   000A86  0E69               	movlw	105
  1763   000A88  6E42               	movwf	vfpfcnvrt@c^0,c
  1764                           
  1765                           ;C:\Program Files\Microchip\xc8\v3.00\pic\sources\c99\common\doprnt.c: 1351:     break;
  1766   000A8A  EF61  F005         	goto	l2145
  1767   000A8E                     l975:
  1768                           
  1769                           ;C:\Program Files\Microchip\xc8\v3.00\pic\sources\c99\common\doprnt.c: 1353:     c = 0;
  1770   000A8E  6A42               	clrf	vfpfcnvrt@c^0,c
  1771                           
  1772                           ;C:\Program Files\Microchip\xc8\v3.00\pic\sources\c99\common\doprnt.c: 1354:     break;
  1773   000A90  EF61  F005         	goto	l2145
  1774   000A94                     l2143:
  1775   000A94  5042               	movf	vfpfcnvrt@c^0,w,c
  1776                           
  1777                           ; Switch size 1, requested type "simple"
  1778                           ; Number of cases is 5, Range of values is 88 to 117
  1779                           ; switch strategies available:
  1780                           ; Name         Instructions Cycles
  1781                           ; simple_byte           16     9 (average)
  1782                           ;	Chosen strategy is simple_byte
  1783   000A96  0A58               	xorlw	88	; case 88
  1784   000A98  B4D8               	btfsc	status,2,c
  1785   000A9A  EF43  F005         	goto	l2139
  1786   000A9E  0A3C               	xorlw	60	; case 100
  1787   000AA0  B4D8               	btfsc	status,2,c
  1788   000AA2  EF43  F005         	goto	l2139
  1789   000AA6  0A0D               	xorlw	13	; case 105
  1790   000AA8  B4D8               	btfsc	status,2,c
  1791   000AAA  EF43  F005         	goto	l2139
  1792   000AAE  0A05               	xorlw	5	; case 108
  1793   000AB0  B4D8               	btfsc	status,2,c
  1794   000AB2  EF40  F005         	goto	l2137
  1795   000AB6  0A19               	xorlw	25	; case 117
  1796   000AB8  B4D8               	btfsc	status,2,c
  1797   000ABA  EF43  F005         	goto	l973
  1798   000ABE  EF47  F005         	goto	l975
  1799   000AC2                     l2145:
  1800                           
  1801                           ;C:\Program Files\Microchip\xc8\v3.00\pic\sources\c99\common\doprnt.c: 1361:   if (*cp =
      +                          = 'd' || *cp == 'i') {
  1802   000AC2  C043  FFF6         	movff	vfpfcnvrt@cp,tblptrl
  1803   000AC6                     	if	1	;There is more than 1 active tblptr byte
  1804   000AC6  0E06               	movlw	high __smallconst
  1805   000AC8  6EF7               	movwf	tblptrh,c
  1806   000ACA                     	endif
  1807   000ACA                     	if	0	;tblptru may be non-zero
  1808   000ACA                     	endif
  1809   000ACA                     	if	0	;tblptru may be non-zero
  1810   000ACA                     	endif
  1811   000ACA  0008               	tblrd		*
  1812   000ACC  50F5               	movf	tablat,w,c
  1813   000ACE  0A64               	xorlw	100
  1814   000AD0  B4D8               	btfsc	status,2,c
  1815   000AD2  EF6D  F005         	goto	u1491
  1816   000AD6  EF6F  F005         	goto	u1490
  1817   000ADA                     u1491:
  1818   000ADA  EFA4  F005         	goto	l2155
  1819   000ADE                     u1490:
  1820   000ADE  C043  FFF6         	movff	vfpfcnvrt@cp,tblptrl
  1821   000AE2                     	if	1	;There is more than 1 active tblptr byte
  1822   000AE2  0E06               	movlw	high __smallconst
  1823   000AE4  6EF7               	movwf	tblptrh,c
  1824   000AE6                     	endif
  1825   000AE6                     	if	0	;tblptru may be non-zero
  1826   000AE6                     	endif
  1827   000AE6                     	if	0	;tblptru may be non-zero
  1828   000AE6                     	endif
  1829   000AE6  0008               	tblrd		*
  1830   000AE8  50F5               	movf	tablat,w,c
  1831   000AEA  0A69               	xorlw	105
  1832   000AEC  A4D8               	btfss	status,2,c
  1833   000AEE  EF7B  F005         	goto	u1501
  1834   000AF2  EF7D  F005         	goto	u1500
  1835   000AF6                     u1501:
  1836   000AF6  EFC4  F005         	goto	l2163
  1837   000AFA                     u1500:
  1838   000AFA  EFA4  F005         	goto	l2155
  1839   000AFE                     l2149:
  1840                           
  1841                           ;C:\Program Files\Microchip\xc8\v3.00\pic\sources\c99\common\doprnt.c: 1365:      convar
      +                          g.sint = (vfpf_sint_t)(int)(*(int *)__va_arg(*(int **)ap, (int)0));
  1842   000AFE  503A               	movf	vfpfcnvrt@ap^0,w,c
  1843   000B00  6ED9               	movwf	fsr2l,c
  1844   000B02  6ADA               	clrf	fsr2h,c
  1845   000B04  50DF               	movf	indf2,w,c
  1846   000B06  2ADF               	incf	indf2,f,c
  1847   000B08  2ADF               	incf	indf2,f,c
  1848   000B0A  6ED9               	movwf	fsr2l,c
  1849   000B0C  6ADA               	clrf	fsr2h,c
  1850   000B0E  CFDE F03E          	movff	postinc2,vfpfcnvrt@convarg
  1851   000B12  CFDD F03F          	movff	postdec2,vfpfcnvrt@convarg+1
  1852   000B16  0E00               	movlw	0
  1853   000B18  BE3F               	btfsc	(vfpfcnvrt@convarg+1)^0,7,c
  1854   000B1A  0EFF               	movlw	-1
  1855   000B1C  6E40               	movwf	(vfpfcnvrt@convarg+2)^0,c
  1856   000B1E  6E41               	movwf	(vfpfcnvrt@convarg+3)^0,c
  1857                           
  1858                           ;C:\Program Files\Microchip\xc8\v3.00\pic\sources\c99\common\doprnt.c: 1366:      break;
  1859   000B20  EFAF  F005         	goto	l2157
  1860   000B24                     l2151:
  1861                           
  1862                           ;C:\Program Files\Microchip\xc8\v3.00\pic\sources\c99\common\doprnt.c: 1379:      convar
      +                          g.sint = (vfpf_sint_t)(*(long *)__va_arg(*(long **)ap, (long)0));
  1863   000B24  503A               	movf	vfpfcnvrt@ap^0,w,c
  1864   000B26  6ED9               	movwf	fsr2l,c
  1865   000B28  6ADA               	clrf	fsr2h,c
  1866   000B2A  0E04               	movlw	4
  1867   000B2C  26DF               	addwf	indf2,f,c
  1868   000B2E  5CDF               	subwf	indf2,w,c
  1869   000B30  6ED9               	movwf	fsr2l,c
  1870   000B32  6ADA               	clrf	fsr2h,c
  1871   000B34  CFDE F03E          	movff	postinc2,vfpfcnvrt@convarg
  1872   000B38  CFDE F03F          	movff	postinc2,vfpfcnvrt@convarg+1
  1873   000B3C  CFDE F040          	movff	postinc2,vfpfcnvrt@convarg+2
  1874   000B40  CFDE F041          	movff	postinc2,vfpfcnvrt@convarg+3
  1875                           
  1876                           ;C:\Program Files\Microchip\xc8\v3.00\pic\sources\c99\common\doprnt.c: 1380:      break;
  1877   000B44  EFAF  F005         	goto	l2157
  1878   000B48                     l2155:
  1879   000B48  5042               	movf	vfpfcnvrt@c^0,w,c
  1880                           
  1881                           ; Switch size 1, requested type "simple"
  1882                           ; Number of cases is 2, Range of values is 105 to 108
  1883                           ; switch strategies available:
  1884                           ; Name         Instructions Cycles
  1885                           ; simple_byte            7     4 (average)
  1886                           ;	Chosen strategy is simple_byte
  1887   000B4A  0A69               	xorlw	105	; case 105
  1888   000B4C  B4D8               	btfsc	status,2,c
  1889   000B4E  EF7F  F005         	goto	l2149
  1890   000B52  0A05               	xorlw	5	; case 108
  1891   000B54  B4D8               	btfsc	status,2,c
  1892   000B56  EF92  F005         	goto	l2151
  1893   000B5A  EFAF  F005         	goto	l2157
  1894   000B5E                     l2157:
  1895                           
  1896                           ;C:\Program Files\Microchip\xc8\v3.00\pic\sources\c99\common\doprnt.c: 1406:    *fmt = c
      +                          p+1;
  1897   000B5E  5039               	movf	vfpfcnvrt@fmt^0,w,c
  1898   000B60  6ED9               	movwf	fsr2l,c
  1899   000B62  6ADA               	clrf	fsr2h,c
  1900   000B64  2843               	incf	vfpfcnvrt@cp^0,w,c
  1901   000B66  6EDF               	movwf	indf2,c
  1902   000B68                     
  1903                           ;C:\Program Files\Microchip\xc8\v3.00\pic\sources\c99\common\doprnt.c: 1432:    return (
      +                          void) dtoa(fp, convarg.sint);;	Return value of _vfpfcnvrt is never used
  1904   000B68  C037  F027         	movff	vfpfcnvrt@fp,dtoa@fp
  1905   000B6C  C038  F028         	movff	vfpfcnvrt@fp+1,dtoa@fp+1
  1906   000B70  C03E  F029         	movff	vfpfcnvrt@convarg,dtoa@d
  1907   000B74  C03F  F02A         	movff	vfpfcnvrt@convarg+1,dtoa@d+1
  1908   000B78  C040  F02B         	movff	vfpfcnvrt@convarg+2,dtoa@d+2
  1909   000B7C  C041  F02C         	movff	vfpfcnvrt@convarg+3,dtoa@d+3
  1910   000B80  EC64  F006         	call	_dtoa	;wreg free
  1911   000B84  EF63  F006         	goto	l983
  1912   000B88                     l2163:
  1913   000B88  C043  FFF6         	movff	vfpfcnvrt@cp,tblptrl
  1914   000B8C                     	if	1	;There is more than 1 active tblptr byte
  1915   000B8C  0E06               	movlw	high __smallconst
  1916   000B8E  6EF7               	movwf	tblptrh,c
  1917   000B90                     	endif
  1918   000B90                     	if	0	;tblptru may be non-zero
  1919   000B90                     	endif
  1920   000B90                     	if	0	;tblptru may be non-zero
  1921   000B90                     	endif
  1922   000B90  0008               	tblrd		*
  1923   000B92  50F5               	movf	tablat,w,c
  1924   000B94  0A58               	xorlw	88
  1925   000B96  B4D8               	btfsc	status,2,c
  1926   000B98  EFD0  F005         	goto	u1511
  1927   000B9C  EFD2  F005         	goto	u1510
  1928   000BA0                     u1511:
  1929   000BA0  EF08  F006         	goto	l2173
  1930   000BA4                     u1510:
  1931   000BA4  C043  FFF6         	movff	vfpfcnvrt@cp,tblptrl
  1932   000BA8                     	if	1	;There is more than 1 active tblptr byte
  1933   000BA8  0E06               	movlw	high __smallconst
  1934   000BAA  6EF7               	movwf	tblptrh,c
  1935   000BAC                     	endif
  1936   000BAC                     	if	0	;tblptru may be non-zero
  1937   000BAC                     	endif
  1938   000BAC                     	if	0	;tblptru may be non-zero
  1939   000BAC                     	endif
  1940   000BAC  0008               	tblrd		*
  1941   000BAE  50F5               	movf	tablat,w,c
  1942   000BB0  0A75               	xorlw	117
  1943   000BB2  A4D8               	btfss	status,2,c
  1944   000BB4  EFDE  F005         	goto	u1521
  1945   000BB8  EFE0  F005         	goto	u1520
  1946   000BBC                     u1521:
  1947   000BBC  EF4A  F006         	goto	l2189
  1948   000BC0                     u1520:
  1949   000BC0  EF08  F006         	goto	l2173
  1950   000BC4                     l2167:
  1951                           
  1952                           ;C:\Program Files\Microchip\xc8\v3.00\pic\sources\c99\common\doprnt.c: 1456:      convar
      +                          g.uint = (vfpf_uint_t)(unsigned int)(*(unsigned int *)__va_arg(*(unsigned int **)ap, (un
      +                          signed int)0));
  1953   000BC4  503A               	movf	vfpfcnvrt@ap^0,w,c
  1954   000BC6  6ED9               	movwf	fsr2l,c
  1955   000BC8  6ADA               	clrf	fsr2h,c
  1956   000BCA  50DF               	movf	indf2,w,c
  1957   000BCC  2ADF               	incf	indf2,f,c
  1958   000BCE  2ADF               	incf	indf2,f,c
  1959   000BD0  6ED9               	movwf	fsr2l,c
  1960   000BD2  6ADA               	clrf	fsr2h,c
  1961   000BD4  CFDE F03B          	movff	postinc2,??_vfpfcnvrt
  1962   000BD8  CFDD F03C          	movff	postdec2,??_vfpfcnvrt+1
  1963   000BDC  C03B  F03E         	movff	??_vfpfcnvrt,vfpfcnvrt@convarg
  1964   000BE0  C03C  F03F         	movff	??_vfpfcnvrt+1,vfpfcnvrt@convarg+1
  1965   000BE4  6A40               	clrf	(vfpfcnvrt@convarg+2)^0,c
  1966   000BE6  6A41               	clrf	(vfpfcnvrt@convarg+3)^0,c
  1967                           
  1968                           ;C:\Program Files\Microchip\xc8\v3.00\pic\sources\c99\common\doprnt.c: 1457:      break;
  1969   000BE8  EF13  F006         	goto	l2175
  1970   000BEC                     l2169:
  1971                           
  1972                           ;C:\Program Files\Microchip\xc8\v3.00\pic\sources\c99\common\doprnt.c: 1470:      convar
      +                          g.uint = (vfpf_uint_t)(*(unsigned long *)__va_arg(*(unsigned long **)ap, (unsigned long)
      +                          0));
  1973   000BEC  503A               	movf	vfpfcnvrt@ap^0,w,c
  1974   000BEE  6ED9               	movwf	fsr2l,c
  1975   000BF0  6ADA               	clrf	fsr2h,c
  1976   000BF2  0E04               	movlw	4
  1977   000BF4  26DF               	addwf	indf2,f,c
  1978   000BF6  5CDF               	subwf	indf2,w,c
  1979   000BF8  6ED9               	movwf	fsr2l,c
  1980   000BFA  6ADA               	clrf	fsr2h,c
  1981   000BFC  CFDE F03E          	movff	postinc2,vfpfcnvrt@convarg
  1982   000C00  CFDE F03F          	movff	postinc2,vfpfcnvrt@convarg+1
  1983   000C04  CFDE F040          	movff	postinc2,vfpfcnvrt@convarg+2
  1984   000C08  CFDE F041          	movff	postinc2,vfpfcnvrt@convarg+3
  1985                           
  1986                           ;C:\Program Files\Microchip\xc8\v3.00\pic\sources\c99\common\doprnt.c: 1471:      break;
  1987   000C0C  EF13  F006         	goto	l2175
  1988   000C10                     l2173:
  1989   000C10  5042               	movf	vfpfcnvrt@c^0,w,c
  1990                           
  1991                           ; Switch size 1, requested type "simple"
  1992                           ; Number of cases is 2, Range of values is 105 to 108
  1993                           ; switch strategies available:
  1994                           ; Name         Instructions Cycles
  1995                           ; simple_byte            7     4 (average)
  1996                           ;	Chosen strategy is simple_byte
  1997   000C12  0A69               	xorlw	105	; case 105
  1998   000C14  B4D8               	btfsc	status,2,c
  1999   000C16  EFE2  F005         	goto	l2167
  2000   000C1A  0A05               	xorlw	5	; case 108
  2001   000C1C  B4D8               	btfsc	status,2,c
  2002   000C1E  EFF6  F005         	goto	l2169
  2003   000C22  EF13  F006         	goto	l2175
  2004   000C26                     l2175:
  2005                           
  2006                           ;C:\Program Files\Microchip\xc8\v3.00\pic\sources\c99\common\doprnt.c: 1497:    *fmt = c
      +                          p+1;
  2007   000C26  5039               	movf	vfpfcnvrt@fmt^0,w,c
  2008   000C28  6ED9               	movwf	fsr2l,c
  2009   000C2A  6ADA               	clrf	fsr2h,c
  2010   000C2C  2843               	incf	vfpfcnvrt@cp^0,w,c
  2011   000C2E  6EDF               	movwf	indf2,c
  2012                           
  2013                           ;C:\Program Files\Microchip\xc8\v3.00\pic\sources\c99\common\doprnt.c: 1498:    switch (
      +                          *cp) {
  2014   000C30  EF3A  F006         	goto	l2187
  2015   000C34                     l2177:
  2016                           
  2017                           ;C:\Program Files\Microchip\xc8\v3.00\pic\sources\c99\common\doprnt.c: 1542:      return
      +                           (void) utoa(fp, convarg.uint);;	Return value of _vfpfcnvrt is never used
  2018   000C34  C037  F027         	movff	vfpfcnvrt@fp,utoa@fp
  2019   000C38  C038  F028         	movff	vfpfcnvrt@fp+1,utoa@fp+1
  2020   000C3C  C03E  F029         	movff	vfpfcnvrt@convarg,utoa@d
  2021   000C40  C03F  F02A         	movff	vfpfcnvrt@convarg+1,utoa@d+1
  2022   000C44  C040  F02B         	movff	vfpfcnvrt@convarg+2,utoa@d+2
  2023   000C48  C041  F02C         	movff	vfpfcnvrt@convarg+3,utoa@d+3
  2024   000C4C  ECB8  F007         	call	_utoa	;wreg free
  2025   000C50  EF63  F006         	goto	l983
  2026   000C54                     l2181:
  2027                           
  2028                           ;C:\Program Files\Microchip\xc8\v3.00\pic\sources\c99\common\doprnt.c: 1586:      return
      +                           (void) xtoa(fp,convarg.uint);;	Return value of _vfpfcnvrt is never used
  2029   000C54  C037  F027         	movff	vfpfcnvrt@fp,xtoa@fp
  2030   000C58  C038  F028         	movff	vfpfcnvrt@fp+1,xtoa@fp+1
  2031   000C5C  C03E  F029         	movff	vfpfcnvrt@convarg,xtoa@d
  2032   000C60  C03F  F02A         	movff	vfpfcnvrt@convarg+1,xtoa@d+1
  2033   000C64  C040  F02B         	movff	vfpfcnvrt@convarg+2,xtoa@d+2
  2034   000C68  C041  F02C         	movff	vfpfcnvrt@convarg+3,xtoa@d+3
  2035   000C6C  EC2E  F007         	call	_xtoa	;wreg free
  2036   000C70  EF63  F006         	goto	l983
  2037   000C74                     l2187:
  2038   000C74  C043  FFF6         	movff	vfpfcnvrt@cp,tblptrl
  2039   000C78                     	if	1	;There is more than 1 active tblptr byte
  2040   000C78  0E06               	movlw	high __smallconst
  2041   000C7A  6EF7               	movwf	tblptrh,c
  2042   000C7C                     	endif
  2043   000C7C                     	if	0	;tblptru may be non-zero
  2044   000C7C                     	endif
  2045   000C7C                     	if	0	;tblptru may be non-zero
  2046   000C7C                     	endif
  2047   000C7C  0008               	tblrd		*
  2048   000C7E  50F5               	movf	tablat,w,c
  2049                           
  2050                           ; Switch size 1, requested type "simple"
  2051                           ; Number of cases is 2, Range of values is 88 to 117
  2052                           ; switch strategies available:
  2053                           ; Name         Instructions Cycles
  2054                           ; simple_byte            7     4 (average)
  2055                           ;	Chosen strategy is simple_byte
  2056   000C80  0A58               	xorlw	88	; case 88
  2057   000C82  B4D8               	btfsc	status,2,c
  2058   000C84  EF2A  F006         	goto	l2181
  2059   000C88  0A2D               	xorlw	45	; case 117
  2060   000C8A  B4D8               	btfsc	status,2,c
  2061   000C8C  EF1A  F006         	goto	l2177
  2062   000C90  EF4A  F006         	goto	l2189
  2063   000C94                     l2189:
  2064                           
  2065                           ;C:\Program Files\Microchip\xc8\v3.00\pic\sources\c99\common\doprnt.c: 1806:         ++*
      +                          fmt;
  2066   000C94  5039               	movf	vfpfcnvrt@fmt^0,w,c
  2067   000C96  6ED9               	movwf	fsr2l,c
  2068   000C98  6ADA               	clrf	fsr2h,c
  2069   000C9A  2ADF               	incf	indf2,f,c
  2070   000C9C  EF63  F006         	goto	l983
  2071   000CA0                     l2193:
  2072                           
  2073                           ;C:\Program Files\Microchip\xc8\v3.00\pic\sources\c99\common\doprnt.c: 1811:     fputc((
      +                          int)(*fmt)[0], fp);
  2074   000CA0  5039               	movf	vfpfcnvrt@fmt^0,w,c
  2075   000CA2  6ED9               	movwf	fsr2l,c
  2076   000CA4  6ADA               	clrf	fsr2h,c
  2077   000CA6  CFDF FFF6          	movff	indf2,tblptrl
  2078   000CAA                     	if	1	;There is more than 1 active tblptr byte
  2079   000CAA  0E06               	movlw	high __smallconst
  2080   000CAC  6EF7               	movwf	tblptrh,c
  2081   000CAE                     	endif
  2082   000CAE                     	if	0	;tblptru may be non-zero
  2083   000CAE                     	endif
  2084   000CAE                     	if	0	;tblptru may be non-zero
  2085   000CAE                     	endif
  2086   000CAE  0008               	tblrd		*
  2087   000CB0  50F5               	movf	tablat,w,c
  2088   000CB2  6E10               	movwf	fputc@c^0,c
  2089   000CB4  6A11               	clrf	(fputc@c+1)^0,c
  2090   000CB6  C037  F012         	movff	vfpfcnvrt@fp,fputc@fp
  2091   000CBA  C038  F013         	movff	vfpfcnvrt@fp+1,fputc@fp+1
  2092   000CBE  EC38  F009         	call	_fputc	;wreg free
  2093   000CC2  EF4A  F006         	goto	l2189
  2094   000CC6                     l983:
  2095   000CC6  0012               	return		;funcret
  2096   000CC8                     __end_of_vfpfcnvrt:
  2097                           	callstack 0
  2098                           
  2099 ;; *************** function _xtoa *****************
  2100 ;; Defined at:
  2101 ;;		line 1055 in file "C:\Program Files\Microchip\xc8\v3.00\pic\sources\c99\common\doprnt.c"
  2102 ;; Parameters:    Size  Location     Type
  2103 ;;  fp              2   38[COMRAM] PTR struct _IO_FILE
  2104 ;;		 -> NULL(0), 
  2105 ;;  d               4   40[COMRAM] unsigned long 
  2106 ;; Auto vars:     Size  Location     Type
  2107 ;;  i               2   52[COMRAM] int 
  2108 ;;  w               2   49[COMRAM] int 
  2109 ;;  c               1   51[COMRAM] unsigned char 
  2110 ;;  p               1   48[COMRAM] _Bool 
  2111 ;; Return value:  Size  Location     Type
  2112 ;;                  1    wreg      void 
  2113 ;; Registers used:
  2114 ;;		wreg, fsr1l, fsr1h, fsr2l, fsr2h, status,2, status,0, cstack
  2115 ;; Tracked objects:
  2116 ;;		On entry : 0/0
  2117 ;;		On exit  : 0/0
  2118 ;;		Unchanged: 0/0
  2119 ;; Data sizes:     COMRAM   BANK0   BANK1   BANK2   BANK3   BANK4   BANK5
  2120 ;;      Params:         6       0       0       0       0       0       0
  2121 ;;      Locals:         6       0       0       0       0       0       0
  2122 ;;      Temps:          4       0       0       0       0       0       0
  2123 ;;      Totals:        16       0       0       0       0       0       0
  2124 ;;Total ram usage:       16 bytes
  2125 ;; Hardware stack levels used: 1
  2126 ;; Hardware stack levels required when called: 8
  2127 ;; This function calls:
  2128 ;;		_pad
  2129 ;; This function is called by:
  2130 ;;		_vfpfcnvrt
  2131 ;; This function uses a non-reentrant model
  2132 ;;
  2133                           
  2134                           	psect	text4
  2135   000E5C                     __ptext4:
  2136                           	callstack 0
  2137   000E5C                     _xtoa:
  2138                           	callstack 19
  2139   000E5C                     
  2140                           ;C:\Program Files\Microchip\xc8\v3.00\pic\sources\c99\common\doprnt.c: 1055: static void
      +                           xtoa(FILE *fp, vfpf_uint_t d);C:\Program Files\Microchip\xc8\v3.00\pic\sources\c99\comm
      +                          on\doprnt.c: 1058: {;C:\Program Files\Microchip\xc8\v3.00\pic\sources\c99\common\doprnt.
      +                          c: 1059:  char c;;C:\Program Files\Microchip\xc8\v3.00\pic\sources\c99\common\doprnt.c: 
      +                          1063:     int i, w;;C:\Program Files\Microchip\xc8\v3.00\pic\sources\c99\common\doprnt.c
      +                          : 1067:  _Bool p = 1;
  2141   000E5C  0E01               	movlw	1
  2142   000E5E  6E31               	movwf	xtoa@p^0,c
  2143   000E60                     
  2144                           ;C:\Program Files\Microchip\xc8\v3.00\pic\sources\c99\common\doprnt.c: 1082:     w = wid
      +                          th;
  2145   000E60  C062  F032         	movff	_width,xtoa@w
  2146   000E64  C063  F033         	movff	_width+1,xtoa@w+1
  2147                           
  2148                           ;C:\Program Files\Microchip\xc8\v3.00\pic\sources\c99\common\doprnt.c: 1095:     i = siz
      +                          eof(dbuf) - 1;
  2149   000E68  0E00               	movlw	0
  2150   000E6A  6E36               	movwf	(xtoa@i+1)^0,c
  2151   000E6C  0E1F               	movlw	31
  2152   000E6E  6E35               	movwf	xtoa@i^0,c
  2153   000E70                     
  2154                           ;C:\Program Files\Microchip\xc8\v3.00\pic\sources\c99\common\doprnt.c: 1096:     dbuf[i]
      +                           = '\0';
  2155   000E70  0100               	movlb	0	; () banked
  2156   000E72  6B9F               	clrf	(_dbuf+31)& (0+255),b
  2157                           
  2158                           ;C:\Program Files\Microchip\xc8\v3.00\pic\sources\c99\common\doprnt.c: 1097:     while (
      +                          !(i < 2) && (d != 0
  2159   000E74  EF75  F007         	goto	l2077
  2160   000E78                     l2059:
  2161                           
  2162                           ;C:\Program Files\Microchip\xc8\v3.00\pic\sources\c99\common\doprnt.c: 1106:     )) {;C:
      +                          \Program Files\Microchip\xc8\v3.00\pic\sources\c99\common\doprnt.c: 1107:         --i;
  2163   000E78  0635               	decf	xtoa@i^0,f,c
  2164   000E7A  A0D8               	btfss	status,0,c
  2165   000E7C  0636               	decf	(xtoa@i+1)^0,f,c
  2166   000E7E                     
  2167                           ;C:\Program Files\Microchip\xc8\v3.00\pic\sources\c99\common\doprnt.c: 1108:         c =
      +                           d & 0x0f;
  2168   000E7E  5029               	movf	xtoa@d^0,w,c
  2169   000E80  0B0F               	andlw	15
  2170   000E82  6E34               	movwf	xtoa@c^0,c
  2171   000E84                     
  2172                           ;C:\Program Files\Microchip\xc8\v3.00\pic\sources\c99\common\doprnt.c: 1109:   if (c < 1
      +                          0) {
  2173   000E84  0E0A               	movlw	10
  2174   000E86  6034               	cpfslt	xtoa@c^0,c
  2175   000E88  EF48  F007         	goto	u1371
  2176   000E8C  EF4A  F007         	goto	u1370
  2177   000E90                     u1371:
  2178   000E90  EF4E  F007         	goto	l2067
  2179   000E94                     u1370:
  2180   000E94                     
  2181                           ;C:\Program Files\Microchip\xc8\v3.00\pic\sources\c99\common\doprnt.c: 1110:    c += '0'
      +                          ;
  2182   000E94  0E30               	movlw	48
  2183   000E96  2634               	addwf	xtoa@c^0,f,c
  2184                           
  2185                           ;C:\Program Files\Microchip\xc8\v3.00\pic\sources\c99\common\doprnt.c: 1111:   }
  2186   000E98  EF50  F007         	goto	l2069
  2187   000E9C                     l2067:
  2188                           
  2189                           ;C:\Program Files\Microchip\xc8\v3.00\pic\sources\c99\common\doprnt.c: 1118:    c += 'A'
      +                           - 10;
  2190   000E9C  0E37               	movlw	55
  2191   000E9E  2634               	addwf	xtoa@c^0,f,c
  2192   000EA0                     l2069:
  2193                           
  2194                           ;C:\Program Files\Microchip\xc8\v3.00\pic\sources\c99\common\doprnt.c: 1121:   dbuf[i] =
      +                           c;
  2195   000EA0  5035               	movf	xtoa@i^0,w,c
  2196   000EA2  0F80               	addlw	low _dbuf
  2197   000EA4  6ED9               	movwf	fsr2l,c
  2198   000EA6  6ADA               	clrf	fsr2h,c
  2199   000EA8  C034  FFDF         	movff	xtoa@c,indf2
  2200   000EAC                     
  2201                           ;C:\Program Files\Microchip\xc8\v3.00\pic\sources\c99\common\doprnt.c: 1125:   p = 0;
  2202   000EAC  6A31               	clrf	xtoa@p^0,c
  2203   000EAE                     
  2204                           ;C:\Program Files\Microchip\xc8\v3.00\pic\sources\c99\common\doprnt.c: 1127:         --w
      +                          ;
  2205   000EAE  0632               	decf	xtoa@w^0,f,c
  2206   000EB0  A0D8               	btfss	status,0,c
  2207   000EB2  0633               	decf	(xtoa@w+1)^0,f,c
  2208   000EB4                     
  2209                           ;C:\Program Files\Microchip\xc8\v3.00\pic\sources\c99\common\doprnt.c: 1128:         d =
      +                           d >> 4;
  2210   000EB4  C029  F02D         	movff	xtoa@d,??_xtoa
  2211   000EB8  C02A  F02E         	movff	xtoa@d+1,??_xtoa+1
  2212   000EBC  C02B  F02F         	movff	xtoa@d+2,??_xtoa+2
  2213   000EC0  C02C  F030         	movff	xtoa@d+3,??_xtoa+3
  2214   000EC4  0E05               	movlw	5
  2215   000EC6  EF6A  F007         	goto	u1380
  2216   000ECA                     u1385:
  2217   000ECA  90D8               	bcf	status,0,c
  2218   000ECC  3230               	rrcf	(??_xtoa+3)^0,f,c
  2219   000ECE  322F               	rrcf	(??_xtoa+2)^0,f,c
  2220   000ED0  322E               	rrcf	(??_xtoa+1)^0,f,c
  2221   000ED2  322D               	rrcf	??_xtoa^0,f,c
  2222   000ED4                     u1380:
  2223   000ED4  2EE8               	decfsz	wreg,f,c
  2224   000ED6  EF65  F007         	goto	u1385
  2225   000EDA  C02D  F029         	movff	??_xtoa,xtoa@d
  2226   000EDE  C02E  F02A         	movff	??_xtoa+1,xtoa@d+1
  2227   000EE2  C02F  F02B         	movff	??_xtoa+2,xtoa@d+2
  2228   000EE6  C030  F02C         	movff	??_xtoa+3,xtoa@d+3
  2229   000EEA                     l2077:
  2230                           
  2231                           ;C:\Program Files\Microchip\xc8\v3.00\pic\sources\c99\common\doprnt.c: 1097:     while (
      +                          !(i < 2) && (d != 0
  2232   000EEA  BE36               	btfsc	(xtoa@i+1)^0,7,c
  2233   000EEC  EF81  F007         	goto	u1391
  2234   000EF0  5036               	movf	(xtoa@i+1)^0,w,c
  2235   000EF2  E109               	bnz	u1390
  2236   000EF4  0E02               	movlw	2
  2237   000EF6  5C35               	subwf	xtoa@i^0,w,c
  2238   000EF8  A0D8               	btfss	status,0,c
  2239   000EFA  EF81  F007         	goto	u1391
  2240   000EFE  EF83  F007         	goto	u1390
  2241   000F02                     u1391:
  2242   000F02  EFAA  F007         	goto	l2087
  2243   000F06                     u1390:
  2244   000F06  5029               	movf	xtoa@d^0,w,c
  2245   000F08  102A               	iorwf	(xtoa@d+1)^0,w,c
  2246   000F0A  102B               	iorwf	(xtoa@d+2)^0,w,c
  2247   000F0C  102C               	iorwf	(xtoa@d+3)^0,w,c
  2248   000F0E  A4D8               	btfss	status,2,c
  2249   000F10  EF8C  F007         	goto	u1401
  2250   000F14  EF8E  F007         	goto	u1400
  2251   000F18                     u1401:
  2252   000F18  EF3C  F007         	goto	l2059
  2253   000F1C                     u1400:
  2254   000F1C  5031               	movf	xtoa@p^0,w,c
  2255   000F1E  A4D8               	btfss	status,2,c
  2256   000F20  EF94  F007         	goto	u1411
  2257   000F24  EF96  F007         	goto	u1410
  2258   000F28                     u1411:
  2259   000F28  EF3C  F007         	goto	l2059
  2260   000F2C                     u1410:
  2261   000F2C  BE33               	btfsc	(xtoa@w+1)^0,7,c
  2262   000F2E  EFA1  F007         	goto	u1421
  2263   000F32  5033               	movf	(xtoa@w+1)^0,w,c
  2264   000F34  E108               	bnz	u1420
  2265   000F36  0432               	decf	xtoa@w^0,w,c
  2266   000F38  A0D8               	btfss	status,0,c
  2267   000F3A  EFA1  F007         	goto	u1421
  2268   000F3E  EFA3  F007         	goto	u1420
  2269   000F42                     u1421:
  2270   000F42  EFAA  F007         	goto	l2087
  2271   000F46                     u1420:
  2272   000F46  B26C               	btfsc	_flags^0,1,c
  2273   000F48  EFA8  F007         	goto	u1431
  2274   000F4C  EFAA  F007         	goto	u1430
  2275   000F50                     u1431:
  2276   000F50  EF3C  F007         	goto	l2059
  2277   000F54                     u1430:
  2278   000F54                     l2087:
  2279                           
  2280                           ;C:\Program Files\Microchip\xc8\v3.00\pic\sources\c99\common\doprnt.c: 1152:     return 
      +                          (void) pad(fp, &dbuf[i], w);
  2281   000F54  C027  F01F         	movff	xtoa@fp,pad@fp
  2282   000F58  C028  F020         	movff	xtoa@fp+1,pad@fp+1
  2283   000F5C  5035               	movf	xtoa@i^0,w,c
  2284   000F5E  0F80               	addlw	low _dbuf
  2285   000F60  6E21               	movwf	pad@buf^0,c
  2286   000F62  C032  F022         	movff	xtoa@w,pad@p
  2287   000F66  C033  F023         	movff	xtoa@w+1,pad@p+1
  2288   000F6A  EC41  F00A         	call	_pad	;wreg free
  2289   000F6E  0012               	return		;funcret
  2290   000F70                     __end_of_xtoa:
  2291                           	callstack 0
  2292                           
  2293 ;; *************** function _utoa *****************
  2294 ;; Defined at:
  2295 ;;		line 1001 in file "C:\Program Files\Microchip\xc8\v3.00\pic\sources\c99\common\doprnt.c"
  2296 ;; Parameters:    Size  Location     Type
  2297 ;;  fp              2   38[COMRAM] PTR struct _IO_FILE
  2298 ;;		 -> NULL(0), 
  2299 ;;  d               4   40[COMRAM] unsigned long 
  2300 ;; Auto vars:     Size  Location     Type
  2301 ;;  i               2   47[COMRAM] int 
  2302 ;;  w               2   45[COMRAM] int 
  2303 ;;  p               1   44[COMRAM] _Bool 
  2304 ;; Return value:  Size  Location     Type
  2305 ;;                  1    wreg      void 
  2306 ;; Registers used:
  2307 ;;		wreg, fsr1l, fsr1h, fsr2l, fsr2h, status,2, status,0, cstack
  2308 ;; Tracked objects:
  2309 ;;		On entry : 0/0
  2310 ;;		On exit  : 0/0
  2311 ;;		Unchanged: 0/0
  2312 ;; Data sizes:     COMRAM   BANK0   BANK1   BANK2   BANK3   BANK4   BANK5
  2313 ;;      Params:         6       0       0       0       0       0       0
  2314 ;;      Locals:         5       0       0       0       0       0       0
  2315 ;;      Temps:          0       0       0       0       0       0       0
  2316 ;;      Totals:        11       0       0       0       0       0       0
  2317 ;;Total ram usage:       11 bytes
  2318 ;; Hardware stack levels used: 1
  2319 ;; Hardware stack levels required when called: 8
  2320 ;; This function calls:
  2321 ;;		___lldiv
  2322 ;;		___llmod
  2323 ;;		_pad
  2324 ;; This function is called by:
  2325 ;;		_vfpfcnvrt
  2326 ;; This function uses a non-reentrant model
  2327 ;;
  2328                           
  2329                           	psect	text5
  2330   000F70                     __ptext5:
  2331                           	callstack 0
  2332   000F70                     _utoa:
  2333                           	callstack 19
  2334   000F70                     
  2335                           ;C:\Program Files\Microchip\xc8\v3.00\pic\sources\c99\common\doprnt.c: 1001: static void
      +                           utoa(FILE *fp, vfpf_uint_t d);C:\Program Files\Microchip\xc8\v3.00\pic\sources\c99\comm
      +                          on\doprnt.c: 1002: {;C:\Program Files\Microchip\xc8\v3.00\pic\sources\c99\common\doprnt.
      +                          c: 1003:     int i, w;;C:\Program Files\Microchip\xc8\v3.00\pic\sources\c99\common\doprn
      +                          t.c: 1007:  _Bool p = 1;
  2336   000F70  0E01               	movlw	1
  2337   000F72  6E2D               	movwf	utoa@p^0,c
  2338   000F74                     
  2339                           ;C:\Program Files\Microchip\xc8\v3.00\pic\sources\c99\common\doprnt.c: 1019:     w = wid
      +                          th;
  2340   000F74  C062  F02E         	movff	_width,utoa@w
  2341   000F78  C063  F02F         	movff	_width+1,utoa@w+1
  2342                           
  2343                           ;C:\Program Files\Microchip\xc8\v3.00\pic\sources\c99\common\doprnt.c: 1022:     i = siz
      +                          eof(dbuf) - 1;
  2344   000F7C  0E00               	movlw	0
  2345   000F7E  6E31               	movwf	(utoa@i+1)^0,c
  2346   000F80  0E1F               	movlw	31
  2347   000F82  6E30               	movwf	utoa@i^0,c
  2348   000F84                     
  2349                           ;C:\Program Files\Microchip\xc8\v3.00\pic\sources\c99\common\doprnt.c: 1023:     dbuf[i]
      +                           = '\0';
  2350   000F84  0100               	movlb	0	; () banked
  2351   000F86  6B9F               	clrf	(_dbuf+31)& (0+255),b
  2352                           
  2353                           ;C:\Program Files\Microchip\xc8\v3.00\pic\sources\c99\common\doprnt.c: 1024:     while (
      +                          i && (d != 0
  2354   000F88  EF00  F008         	goto	l2039
  2355   000F8C                     l2029:
  2356                           
  2357                           ;C:\Program Files\Microchip\xc8\v3.00\pic\sources\c99\common\doprnt.c: 1033:     )) {;C:
      +                          \Program Files\Microchip\xc8\v3.00\pic\sources\c99\common\doprnt.c: 1034:         --i;
  2358   000F8C  0630               	decf	utoa@i^0,f,c
  2359   000F8E  A0D8               	btfss	status,0,c
  2360   000F90  0631               	decf	(utoa@i+1)^0,f,c
  2361   000F92                     
  2362                           ;C:\Program Files\Microchip\xc8\v3.00\pic\sources\c99\common\doprnt.c: 1035:         dbu
      +                          f[i] = '0' + (d % 10);
  2363   000F92  5030               	movf	utoa@i^0,w,c
  2364   000F94  0F80               	addlw	low _dbuf
  2365   000F96  6ED9               	movwf	fsr2l,c
  2366   000F98  6ADA               	clrf	fsr2h,c
  2367   000F9A  C029  F00F         	movff	utoa@d,___llmod@dividend
  2368   000F9E  C02A  F010         	movff	utoa@d+1,___llmod@dividend+1
  2369   000FA2  C02B  F011         	movff	utoa@d+2,___llmod@dividend+2
  2370   000FA6  C02C  F012         	movff	utoa@d+3,___llmod@dividend+3
  2371   000FAA  0E0A               	movlw	10
  2372   000FAC  6E13               	movwf	___llmod@divisor^0,c
  2373   000FAE  0E00               	movlw	0
  2374   000FB0  6E14               	movwf	(___llmod@divisor+1)^0,c
  2375   000FB2  0E00               	movlw	0
  2376   000FB4  6E15               	movwf	(___llmod@divisor+2)^0,c
  2377   000FB6  0E00               	movlw	0
  2378   000FB8  6E16               	movwf	(___llmod@divisor+3)^0,c
  2379   000FBA  EC8C  F00A         	call	___llmod	;wreg free
  2380   000FBE  500F               	movf	?___llmod^0,w,c
  2381   000FC0  0F30               	addlw	48
  2382   000FC2  6EDF               	movwf	indf2,c
  2383   000FC4                     
  2384                           ;C:\Program Files\Microchip\xc8\v3.00\pic\sources\c99\common\doprnt.c: 1039:   p = 0;
  2385   000FC4  6A2D               	clrf	utoa@p^0,c
  2386   000FC6                     
  2387                           ;C:\Program Files\Microchip\xc8\v3.00\pic\sources\c99\common\doprnt.c: 1041:         --w
      +                          ;
  2388   000FC6  062E               	decf	utoa@w^0,f,c
  2389   000FC8  A0D8               	btfss	status,0,c
  2390   000FCA  062F               	decf	(utoa@w+1)^0,f,c
  2391   000FCC                     
  2392                           ;C:\Program Files\Microchip\xc8\v3.00\pic\sources\c99\common\doprnt.c: 1042:         d =
      +                           d / 10;
  2393   000FCC  C029  F00F         	movff	utoa@d,___lldiv@dividend
  2394   000FD0  C02A  F010         	movff	utoa@d+1,___lldiv@dividend+1
  2395   000FD4  C02B  F011         	movff	utoa@d+2,___lldiv@dividend+2
  2396   000FD8  C02C  F012         	movff	utoa@d+3,___lldiv@dividend+3
  2397   000FDC  0E0A               	movlw	10
  2398   000FDE  6E13               	movwf	___lldiv@divisor^0,c
  2399   000FE0  0E00               	movlw	0
  2400   000FE2  6E14               	movwf	(___lldiv@divisor+1)^0,c
  2401   000FE4  0E00               	movlw	0
  2402   000FE6  6E15               	movwf	(___lldiv@divisor+2)^0,c
  2403   000FE8  0E00               	movlw	0
  2404   000FEA  6E16               	movwf	(___lldiv@divisor+3)^0,c
  2405   000FEC  EC9D  F009         	call	___lldiv	;wreg free
  2406   000FF0  C00F  F029         	movff	?___lldiv,utoa@d
  2407   000FF4  C010  F02A         	movff	?___lldiv+1,utoa@d+1
  2408   000FF8  C011  F02B         	movff	?___lldiv+2,utoa@d+2
  2409   000FFC  C012  F02C         	movff	?___lldiv+3,utoa@d+3
  2410   001000                     l2039:
  2411                           
  2412                           ;C:\Program Files\Microchip\xc8\v3.00\pic\sources\c99\common\doprnt.c: 1024:     while (
      +                          i && (d != 0
  2413   001000  5030               	movf	utoa@i^0,w,c
  2414   001002  1031               	iorwf	(utoa@i+1)^0,w,c
  2415   001004  B4D8               	btfsc	status,2,c
  2416   001006  EF07  F008         	goto	u1321
  2417   00100A  EF09  F008         	goto	u1320
  2418   00100E                     u1321:
  2419   00100E  EF30  F008         	goto	l2049
  2420   001012                     u1320:
  2421   001012  5029               	movf	utoa@d^0,w,c
  2422   001014  102A               	iorwf	(utoa@d+1)^0,w,c
  2423   001016  102B               	iorwf	(utoa@d+2)^0,w,c
  2424   001018  102C               	iorwf	(utoa@d+3)^0,w,c
  2425   00101A  A4D8               	btfss	status,2,c
  2426   00101C  EF12  F008         	goto	u1331
  2427   001020  EF14  F008         	goto	u1330
  2428   001024                     u1331:
  2429   001024  EFC6  F007         	goto	l2029
  2430   001028                     u1330:
  2431   001028  502D               	movf	utoa@p^0,w,c
  2432   00102A  A4D8               	btfss	status,2,c
  2433   00102C  EF1A  F008         	goto	u1341
  2434   001030  EF1C  F008         	goto	u1340
  2435   001034                     u1341:
  2436   001034  EFC6  F007         	goto	l2029
  2437   001038                     u1340:
  2438   001038  BE2F               	btfsc	(utoa@w+1)^0,7,c
  2439   00103A  EF27  F008         	goto	u1351
  2440   00103E  502F               	movf	(utoa@w+1)^0,w,c
  2441   001040  E108               	bnz	u1350
  2442   001042  042E               	decf	utoa@w^0,w,c
  2443   001044  A0D8               	btfss	status,0,c
  2444   001046  EF27  F008         	goto	u1351
  2445   00104A  EF29  F008         	goto	u1350
  2446   00104E                     u1351:
  2447   00104E  EF30  F008         	goto	l2049
  2448   001052                     u1350:
  2449   001052  B26C               	btfsc	_flags^0,1,c
  2450   001054  EF2E  F008         	goto	u1361
  2451   001058  EF30  F008         	goto	u1360
  2452   00105C                     u1361:
  2453   00105C  EFC6  F007         	goto	l2029
  2454   001060                     u1360:
  2455   001060                     l2049:
  2456                           
  2457                           ;C:\Program Files\Microchip\xc8\v3.00\pic\sources\c99\common\doprnt.c: 1046:     return 
      +                          (void) pad(fp, &dbuf[i], w);
  2458   001060  C027  F01F         	movff	utoa@fp,pad@fp
  2459   001064  C028  F020         	movff	utoa@fp+1,pad@fp+1
  2460   001068  5030               	movf	utoa@i^0,w,c
  2461   00106A  0F80               	addlw	low _dbuf
  2462   00106C  6E21               	movwf	pad@buf^0,c
  2463   00106E  C02E  F022         	movff	utoa@w,pad@p
  2464   001072  C02F  F023         	movff	utoa@w+1,pad@p+1
  2465   001076  EC41  F00A         	call	_pad	;wreg free
  2466   00107A  0012               	return		;funcret
  2467   00107C                     __end_of_utoa:
  2468                           	callstack 0
  2469                           
  2470 ;; *************** function ___llmod *****************
  2471 ;; Defined at:
  2472 ;;		line 7 in file "C:\Program Files\Microchip\xc8\v3.00\pic\sources\c99\common\llmod.c"
  2473 ;; Parameters:    Size  Location     Type
  2474 ;;  dividend        4   14[COMRAM] unsigned long 
  2475 ;;  divisor         4   18[COMRAM] unsigned long 
  2476 ;; Auto vars:     Size  Location     Type
  2477 ;;  counter         1   22[COMRAM] unsigned char 
  2478 ;; Return value:  Size  Location     Type
  2479 ;;                  4   14[COMRAM] unsigned long 
  2480 ;; Registers used:
  2481 ;;		wreg, status,2, status,0
  2482 ;; Tracked objects:
  2483 ;;		On entry : 0/0
  2484 ;;		On exit  : 0/0
  2485 ;;		Unchanged: 0/0
  2486 ;; Data sizes:     COMRAM   BANK0   BANK1   BANK2   BANK3   BANK4   BANK5
  2487 ;;      Params:         8       0       0       0       0       0       0
  2488 ;;      Locals:         1       0       0       0       0       0       0
  2489 ;;      Temps:          0       0       0       0       0       0       0
  2490 ;;      Totals:         9       0       0       0       0       0       0
  2491 ;;Total ram usage:        9 bytes
  2492 ;; Hardware stack levels used: 1
  2493 ;; Hardware stack levels required when called: 4
  2494 ;; This function calls:
  2495 ;;		Nothing
  2496 ;; This function is called by:
  2497 ;;		_utoa
  2498 ;; This function uses a non-reentrant model
  2499 ;;
  2500                           
  2501                           	psect	text6
  2502   001518                     __ptext6:
  2503                           	callstack 0
  2504   001518                     ___llmod:
  2505                           	callstack 22
  2506   001518  5013               	movf	___llmod@divisor^0,w,c
  2507   00151A  1014               	iorwf	(___llmod@divisor+1)^0,w,c
  2508   00151C  1015               	iorwf	(___llmod@divisor+2)^0,w,c
  2509   00151E  1016               	iorwf	(___llmod@divisor+3)^0,w,c
  2510   001520  B4D8               	btfsc	status,2,c
  2511   001522  EF95  F00A         	goto	u1141
  2512   001526  EF97  F00A         	goto	u1140
  2513   00152A                     u1141:
  2514   00152A  EFC7  F00A         	goto	l627
  2515   00152E                     u1140:
  2516   00152E  0E01               	movlw	1
  2517   001530  6E17               	movwf	___llmod@counter^0,c
  2518   001532  EFA1  F00A         	goto	l1943
  2519   001536                     l1941:
  2520   001536  90D8               	bcf	status,0,c
  2521   001538  3613               	rlcf	___llmod@divisor^0,f,c
  2522   00153A  3614               	rlcf	(___llmod@divisor+1)^0,f,c
  2523   00153C  3615               	rlcf	(___llmod@divisor+2)^0,f,c
  2524   00153E  3616               	rlcf	(___llmod@divisor+3)^0,f,c
  2525   001540  2A17               	incf	___llmod@counter^0,f,c
  2526   001542                     l1943:
  2527   001542  AE16               	btfss	(___llmod@divisor+3)^0,7,c
  2528   001544  EFA6  F00A         	goto	u1151
  2529   001548  EFA8  F00A         	goto	u1150
  2530   00154C                     u1151:
  2531   00154C  EF9B  F00A         	goto	l1941
  2532   001550                     u1150:
  2533   001550                     l1945:
  2534   001550  5013               	movf	___llmod@divisor^0,w,c
  2535   001552  5C0F               	subwf	___llmod@dividend^0,w,c
  2536   001554  5014               	movf	(___llmod@divisor+1)^0,w,c
  2537   001556  5810               	subwfb	(___llmod@dividend+1)^0,w,c
  2538   001558  5015               	movf	(___llmod@divisor+2)^0,w,c
  2539   00155A  5811               	subwfb	(___llmod@dividend+2)^0,w,c
  2540   00155C  5016               	movf	(___llmod@divisor+3)^0,w,c
  2541   00155E  5812               	subwfb	(___llmod@dividend+3)^0,w,c
  2542   001560  A0D8               	btfss	status,0,c
  2543   001562  EFB5  F00A         	goto	u1161
  2544   001566  EFB7  F00A         	goto	u1160
  2545   00156A                     u1161:
  2546   00156A  EFBF  F00A         	goto	l1949
  2547   00156E                     u1160:
  2548   00156E  5013               	movf	___llmod@divisor^0,w,c
  2549   001570  5E0F               	subwf	___llmod@dividend^0,f,c
  2550   001572  5014               	movf	(___llmod@divisor+1)^0,w,c
  2551   001574  5A10               	subwfb	(___llmod@dividend+1)^0,f,c
  2552   001576  5015               	movf	(___llmod@divisor+2)^0,w,c
  2553   001578  5A11               	subwfb	(___llmod@dividend+2)^0,f,c
  2554   00157A  5016               	movf	(___llmod@divisor+3)^0,w,c
  2555   00157C  5A12               	subwfb	(___llmod@dividend+3)^0,f,c
  2556   00157E                     l1949:
  2557   00157E  90D8               	bcf	status,0,c
  2558   001580  3216               	rrcf	(___llmod@divisor+3)^0,f,c
  2559   001582  3215               	rrcf	(___llmod@divisor+2)^0,f,c
  2560   001584  3214               	rrcf	(___llmod@divisor+1)^0,f,c
  2561   001586  3213               	rrcf	___llmod@divisor^0,f,c
  2562   001588  2E17               	decfsz	___llmod@counter^0,f,c
  2563   00158A  EFA8  F00A         	goto	l1945
  2564   00158E                     l627:
  2565   00158E  C00F  F00F         	movff	___llmod@dividend,?___llmod
  2566   001592  C010  F010         	movff	___llmod@dividend+1,?___llmod+1
  2567   001596  C011  F011         	movff	___llmod@dividend+2,?___llmod+2
  2568   00159A  C012  F012         	movff	___llmod@dividend+3,?___llmod+3
  2569   00159E  0012               	return		;funcret
  2570   0015A0                     __end_of___llmod:
  2571                           	callstack 0
  2572                           
  2573 ;; *************** function ___lldiv *****************
  2574 ;; Defined at:
  2575 ;;		line 7 in file "C:\Program Files\Microchip\xc8\v3.00\pic\sources\c99\common\__lldiv.c"
  2576 ;; Parameters:    Size  Location     Type
  2577 ;;  dividend        4   14[COMRAM] unsigned long 
  2578 ;;  divisor         4   18[COMRAM] unsigned long 
  2579 ;; Auto vars:     Size  Location     Type
  2580 ;;  quotient        4   22[COMRAM] unsigned long 
  2581 ;;  counter         1   26[COMRAM] unsigned char 
  2582 ;; Return value:  Size  Location     Type
  2583 ;;                  4   14[COMRAM] unsigned long 
  2584 ;; Registers used:
  2585 ;;		wreg, status,2, status,0
  2586 ;; Tracked objects:
  2587 ;;		On entry : 0/0
  2588 ;;		On exit  : 0/0
  2589 ;;		Unchanged: 0/0
  2590 ;; Data sizes:     COMRAM   BANK0   BANK1   BANK2   BANK3   BANK4   BANK5
  2591 ;;      Params:         8       0       0       0       0       0       0
  2592 ;;      Locals:         5       0       0       0       0       0       0
  2593 ;;      Temps:          0       0       0       0       0       0       0
  2594 ;;      Totals:        13       0       0       0       0       0       0
  2595 ;;Total ram usage:       13 bytes
  2596 ;; Hardware stack levels used: 1
  2597 ;; Hardware stack levels required when called: 4
  2598 ;; This function calls:
  2599 ;;		Nothing
  2600 ;; This function is called by:
  2601 ;;		_utoa
  2602 ;; This function uses a non-reentrant model
  2603 ;;
  2604                           
  2605                           	psect	text7
  2606   00133A                     __ptext7:
  2607                           	callstack 0
  2608   00133A                     ___lldiv:
  2609                           	callstack 22
  2610   00133A  0E00               	movlw	0
  2611   00133C  6E17               	movwf	___lldiv@quotient^0,c
  2612   00133E  0E00               	movlw	0
  2613   001340  6E18               	movwf	(___lldiv@quotient+1)^0,c
  2614   001342  0E00               	movlw	0
  2615   001344  6E19               	movwf	(___lldiv@quotient+2)^0,c
  2616   001346  0E00               	movlw	0
  2617   001348  6E1A               	movwf	(___lldiv@quotient+3)^0,c
  2618   00134A  5013               	movf	___lldiv@divisor^0,w,c
  2619   00134C  1014               	iorwf	(___lldiv@divisor+1)^0,w,c
  2620   00134E  1015               	iorwf	(___lldiv@divisor+2)^0,w,c
  2621   001350  1016               	iorwf	(___lldiv@divisor+3)^0,w,c
  2622   001352  B4D8               	btfsc	status,2,c
  2623   001354  EFAE  F009         	goto	u991
  2624   001358  EFB0  F009         	goto	u990
  2625   00135C                     u991:
  2626   00135C  EFE6  F009         	goto	l234
  2627   001360                     u990:
  2628   001360  0E01               	movlw	1
  2629   001362  6E1B               	movwf	___lldiv@counter^0,c
  2630   001364  EFBA  F009         	goto	l1843
  2631   001368                     l1841:
  2632   001368  90D8               	bcf	status,0,c
  2633   00136A  3613               	rlcf	___lldiv@divisor^0,f,c
  2634   00136C  3614               	rlcf	(___lldiv@divisor+1)^0,f,c
  2635   00136E  3615               	rlcf	(___lldiv@divisor+2)^0,f,c
  2636   001370  3616               	rlcf	(___lldiv@divisor+3)^0,f,c
  2637   001372  2A1B               	incf	___lldiv@counter^0,f,c
  2638   001374                     l1843:
  2639   001374  AE16               	btfss	(___lldiv@divisor+3)^0,7,c
  2640   001376  EFBF  F009         	goto	u1001
  2641   00137A  EFC1  F009         	goto	u1000
  2642   00137E                     u1001:
  2643   00137E  EFB4  F009         	goto	l1841
  2644   001382                     u1000:
  2645   001382                     l1845:
  2646   001382  90D8               	bcf	status,0,c
  2647   001384  3617               	rlcf	___lldiv@quotient^0,f,c
  2648   001386  3618               	rlcf	(___lldiv@quotient+1)^0,f,c
  2649   001388  3619               	rlcf	(___lldiv@quotient+2)^0,f,c
  2650   00138A  361A               	rlcf	(___lldiv@quotient+3)^0,f,c
  2651   00138C  5013               	movf	___lldiv@divisor^0,w,c
  2652   00138E  5C0F               	subwf	___lldiv@dividend^0,w,c
  2653   001390  5014               	movf	(___lldiv@divisor+1)^0,w,c
  2654   001392  5810               	subwfb	(___lldiv@dividend+1)^0,w,c
  2655   001394  5015               	movf	(___lldiv@divisor+2)^0,w,c
  2656   001396  5811               	subwfb	(___lldiv@dividend+2)^0,w,c
  2657   001398  5016               	movf	(___lldiv@divisor+3)^0,w,c
  2658   00139A  5812               	subwfb	(___lldiv@dividend+3)^0,w,c
  2659   00139C  A0D8               	btfss	status,0,c
  2660   00139E  EFD3  F009         	goto	u1011
  2661   0013A2  EFD5  F009         	goto	u1010
  2662   0013A6                     u1011:
  2663   0013A6  EFDE  F009         	goto	l1853
  2664   0013AA                     u1010:
  2665   0013AA  5013               	movf	___lldiv@divisor^0,w,c
  2666   0013AC  5E0F               	subwf	___lldiv@dividend^0,f,c
  2667   0013AE  5014               	movf	(___lldiv@divisor+1)^0,w,c
  2668   0013B0  5A10               	subwfb	(___lldiv@dividend+1)^0,f,c
  2669   0013B2  5015               	movf	(___lldiv@divisor+2)^0,w,c
  2670   0013B4  5A11               	subwfb	(___lldiv@dividend+2)^0,f,c
  2671   0013B6  5016               	movf	(___lldiv@divisor+3)^0,w,c
  2672   0013B8  5A12               	subwfb	(___lldiv@dividend+3)^0,f,c
  2673   0013BA  8017               	bsf	___lldiv@quotient^0,0,c
  2674   0013BC                     l1853:
  2675   0013BC  90D8               	bcf	status,0,c
  2676   0013BE  3216               	rrcf	(___lldiv@divisor+3)^0,f,c
  2677   0013C0  3215               	rrcf	(___lldiv@divisor+2)^0,f,c
  2678   0013C2  3214               	rrcf	(___lldiv@divisor+1)^0,f,c
  2679   0013C4  3213               	rrcf	___lldiv@divisor^0,f,c
  2680   0013C6  2E1B               	decfsz	___lldiv@counter^0,f,c
  2681   0013C8  EFC1  F009         	goto	l1845
  2682   0013CC                     l234:
  2683   0013CC  C017  F00F         	movff	___lldiv@quotient,?___lldiv
  2684   0013D0  C018  F010         	movff	___lldiv@quotient+1,?___lldiv+1
  2685   0013D4  C019  F011         	movff	___lldiv@quotient+2,?___lldiv+2
  2686   0013D8  C01A  F012         	movff	___lldiv@quotient+3,?___lldiv+3
  2687   0013DC  0012               	return		;funcret
  2688   0013DE                     __end_of___lldiv:
  2689                           	callstack 0
  2690                           
  2691 ;; *************** function _read_prec_or_width *****************
  2692 ;; Defined at:
  2693 ;;		line 1158 in file "C:\Program Files\Microchip\xc8\v3.00\pic\sources\c99\common\doprnt.c"
  2694 ;; Parameters:    Size  Location     Type
  2695 ;;  fmt             1   14[COMRAM] PTR PTR const unsigned c
  2696 ;;		 -> vfprintf@cfmt(1), 
  2697 ;;  ap              1   15[COMRAM] PTR PTR void [1]
  2698 ;;		 -> printf@ap(1), 
  2699 ;; Auto vars:     Size  Location     Type
  2700 ;;  c               1   18[COMRAM] unsigned char 
  2701 ;;  n               2   19[COMRAM] int 
  2702 ;; Return value:  Size  Location     Type
  2703 ;;                  2   14[COMRAM] int 
  2704 ;; Registers used:
  2705 ;;		wreg, fsr2l, fsr2h, status,2, status,0, tblptrl, tblptrh, tblptru, prodl, prodh
  2706 ;; Tracked objects:
  2707 ;;		On entry : 0/0
  2708 ;;		On exit  : 0/0
  2709 ;;		Unchanged: 0/0
  2710 ;; Data sizes:     COMRAM   BANK0   BANK1   BANK2   BANK3   BANK4   BANK5
  2711 ;;      Params:         2       0       0       0       0       0       0
  2712 ;;      Locals:         3       0       0       0       0       0       0
  2713 ;;      Temps:          2       0       0       0       0       0       0
  2714 ;;      Totals:         7       0       0       0       0       0       0
  2715 ;;Total ram usage:        7 bytes
  2716 ;; Hardware stack levels used: 1
  2717 ;; Hardware stack levels required when called: 4
  2718 ;; This function calls:
  2719 ;;		Nothing
  2720 ;; This function is called by:
  2721 ;;		_vfpfcnvrt
  2722 ;; This function uses a non-reentrant model
  2723 ;;
  2724                           
  2725                           	psect	text8
  2726   0013DE                     __ptext8:
  2727                           	callstack 0
  2728   0013DE                     _read_prec_or_width:
  2729                           	callstack 23
  2730   0013DE                     
  2731                           ;C:\Program Files\Microchip\xc8\v3.00\pic\sources\c99\common\doprnt.c: 1159:     int n =
      +                           0;
  2732   0013DE  0E00               	movlw	0
  2733   0013E0  6E15               	movwf	(read_prec_or_width@n+1)^0,c
  2734   0013E2  0E00               	movlw	0
  2735   0013E4  6E14               	movwf	read_prec_or_width@n^0,c
  2736   0013E6                     
  2737                           ;C:\Program Files\Microchip\xc8\v3.00\pic\sources\c99\common\doprnt.c: 1160:     if ((*f
      +                          mt)[0] == '*') {
  2738   0013E6  500F               	movf	read_prec_or_width@fmt^0,w,c
  2739   0013E8  6ED9               	movwf	fsr2l,c
  2740   0013EA  6ADA               	clrf	fsr2h,c
  2741   0013EC  CFDF FFF6          	movff	indf2,tblptrl
  2742   0013F0                     	if	1	;There is more than 1 active tblptr byte
  2743   0013F0  0E06               	movlw	high __smallconst
  2744   0013F2  6EF7               	movwf	tblptrh,c
  2745   0013F4                     	endif
  2746   0013F4                     	if	0	;tblptru may be non-zero
  2747   0013F4                     	endif
  2748   0013F4                     	if	0	;tblptru may be non-zero
  2749   0013F4                     	endif
  2750   0013F4  0008               	tblrd		*
  2751   0013F6  50F5               	movf	tablat,w,c
  2752   0013F8  0A2A               	xorlw	42
  2753   0013FA  A4D8               	btfss	status,2,c
  2754   0013FC  EF02  F00A         	goto	u1441
  2755   001400  EF04  F00A         	goto	u1440
  2756   001404                     u1441:
  2757   001404  EF29  F00A         	goto	l2103
  2758   001408                     u1440:
  2759   001408                     
  2760                           ;C:\Program Files\Microchip\xc8\v3.00\pic\sources\c99\common\doprnt.c: 1161:         ++*
      +                          fmt;
  2761   001408  500F               	movf	read_prec_or_width@fmt^0,w,c
  2762   00140A  6ED9               	movwf	fsr2l,c
  2763   00140C  6ADA               	clrf	fsr2h,c
  2764   00140E  2ADF               	incf	indf2,f,c
  2765   001410                     
  2766                           ;C:\Program Files\Microchip\xc8\v3.00\pic\sources\c99\common\doprnt.c: 1162:         n =
      +                           (*(int *)__va_arg(*(int **)*ap, (int)0));
  2767   001410  5010               	movf	read_prec_or_width@ap^0,w,c
  2768   001412  6ED9               	movwf	fsr2l,c
  2769   001414  6ADA               	clrf	fsr2h,c
  2770   001416  0E02               	movlw	2
  2771   001418  26DF               	addwf	indf2,f,c
  2772   00141A  5CDF               	subwf	indf2,w,c
  2773   00141C  6ED9               	movwf	fsr2l,c
  2774   00141E  6ADA               	clrf	fsr2h,c
  2775   001420  CFDE F014          	movff	postinc2,read_prec_or_width@n
  2776   001424  CFDE F015          	movff	postinc2,read_prec_or_width@n+1
  2777                           
  2778                           ;C:\Program Files\Microchip\xc8\v3.00\pic\sources\c99\common\doprnt.c: 1163:     } else 
      +                          {
  2779   001428  EF3C  F00A         	goto	l952
  2780   00142C                     l2099:
  2781                           
  2782                           ;C:\Program Files\Microchip\xc8\v3.00\pic\sources\c99\common\doprnt.c: 1166:            
      +                           n = n * 10 + c;
  2783   00142C  0E0A               	movlw	10
  2784   00142E  0214               	mulwf	read_prec_or_width@n^0,c
  2785   001430  CFF3 F011          	movff	prodl,??_read_prec_or_width
  2786   001434  CFF4 F012          	movff	prodh,??_read_prec_or_width+1
  2787   001438  0215               	mulwf	(read_prec_or_width@n+1)^0,c
  2788   00143A  50F3               	movf	prodl,w,c
  2789   00143C  2612               	addwf	(??_read_prec_or_width+1)^0,f,c
  2790   00143E  5013               	movf	read_prec_or_width@c^0,w,c
  2791   001440  2411               	addwf	??_read_prec_or_width^0,w,c
  2792   001442  6E14               	movwf	read_prec_or_width@n^0,c
  2793   001444  0E00               	movlw	0
  2794   001446  2012               	addwfc	(??_read_prec_or_width+1)^0,w,c
  2795   001448  6E15               	movwf	(read_prec_or_width@n+1)^0,c
  2796   00144A                     
  2797                           ;C:\Program Files\Microchip\xc8\v3.00\pic\sources\c99\common\doprnt.c: 1167:            
      +                           ++*fmt;
  2798   00144A  500F               	movf	read_prec_or_width@fmt^0,w,c
  2799   00144C  6ED9               	movwf	fsr2l,c
  2800   00144E  6ADA               	clrf	fsr2h,c
  2801   001450  2ADF               	incf	indf2,f,c
  2802   001452                     l2103:
  2803                           
  2804                           ;C:\Program Files\Microchip\xc8\v3.00\pic\sources\c99\common\doprnt.c: 1165:         whi
      +                          le ((c = ((unsigned)(*fmt)[0]) - '0') < 10) {
  2805   001452  500F               	movf	read_prec_or_width@fmt^0,w,c
  2806   001454  6ED9               	movwf	fsr2l,c
  2807   001456  6ADA               	clrf	fsr2h,c
  2808   001458  CFDF FFF6          	movff	indf2,tblptrl
  2809   00145C                     	if	1	;There is more than 1 active tblptr byte
  2810   00145C  0E06               	movlw	high __smallconst
  2811   00145E  6EF7               	movwf	tblptrh,c
  2812   001460                     	endif
  2813   001460                     	if	0	;tblptru may be non-zero
  2814   001460                     	endif
  2815   001460                     	if	0	;tblptru may be non-zero
  2816   001460                     	endif
  2817   001460  0008               	tblrd		*
  2818   001462  50F5               	movf	tablat,w,c
  2819   001464  0FD0               	addlw	208
  2820   001466  6E13               	movwf	read_prec_or_width@c^0,c
  2821   001468  0E09               	movlw	9
  2822   00146A  6413               	cpfsgt	read_prec_or_width@c^0,c
  2823   00146C  EF3A  F00A         	goto	u1451
  2824   001470  EF3C  F00A         	goto	u1450
  2825   001474                     u1451:
  2826   001474  EF16  F00A         	goto	l2099
  2827   001478                     u1450:
  2828   001478                     l952:
  2829                           
  2830                           ;C:\Program Files\Microchip\xc8\v3.00\pic\sources\c99\common\doprnt.c: 1170:     return 
      +                          n;
  2831   001478  C014  F00F         	movff	read_prec_or_width@n,?_read_prec_or_width
  2832   00147C  C015  F010         	movff	read_prec_or_width@n+1,?_read_prec_or_width+1
  2833   001480  0012               	return		;funcret
  2834   001482                     __end_of_read_prec_or_width:
  2835                           	callstack 0
  2836                           
  2837 ;; *************** function _dtoa *****************
  2838 ;; Defined at:
  2839 ;;		line 513 in file "C:\Program Files\Microchip\xc8\v3.00\pic\sources\c99\common\doprnt.c"
  2840 ;; Parameters:    Size  Location     Type
  2841 ;;  fp              2   38[COMRAM] PTR struct _IO_FILE
  2842 ;;		 -> NULL(0), 
  2843 ;;  d               4   40[COMRAM] long 
  2844 ;; Auto vars:     Size  Location     Type
  2845 ;;  i               2   50[COMRAM] int 
  2846 ;;  w               2   47[COMRAM] int 
  2847 ;;  s               1   49[COMRAM] unsigned char 
  2848 ;;  p               1   46[COMRAM] _Bool 
  2849 ;; Return value:  Size  Location     Type
  2850 ;;                  1    wreg      void 
  2851 ;; Registers used:
  2852 ;;		wreg, fsr1l, fsr1h, fsr2l, fsr2h, status,2, status,0, cstack
  2853 ;; Tracked objects:
  2854 ;;		On entry : 0/0
  2855 ;;		On exit  : 0/0
  2856 ;;		Unchanged: 0/0
  2857 ;; Data sizes:     COMRAM   BANK0   BANK1   BANK2   BANK3   BANK4   BANK5
  2858 ;;      Params:         6       0       0       0       0       0       0
  2859 ;;      Locals:         8       0       0       0       0       0       0
  2860 ;;      Temps:          0       0       0       0       0       0       0
  2861 ;;      Totals:        14       0       0       0       0       0       0
  2862 ;;Total ram usage:       14 bytes
  2863 ;; Hardware stack levels used: 1
  2864 ;; Hardware stack levels required when called: 8
  2865 ;; This function calls:
  2866 ;;		___aldiv
  2867 ;;		___almod
  2868 ;;		_abs
  2869 ;;		_pad
  2870 ;; This function is called by:
  2871 ;;		_vfpfcnvrt
  2872 ;; This function uses a non-reentrant model
  2873 ;;
  2874                           
  2875                           	psect	text9
  2876   000CC8                     __ptext9:
  2877                           	callstack 0
  2878   000CC8                     _dtoa:
  2879                           	callstack 19
  2880   000CC8                     
  2881                           ;C:\Program Files\Microchip\xc8\v3.00\pic\sources\c99\common\doprnt.c: 513: static void 
      +                          dtoa(FILE *fp, vfpf_sint_t d);C:\Program Files\Microchip\xc8\v3.00\pic\sources\c99\commo
      +                          n\doprnt.c: 514: {;C:\Program Files\Microchip\xc8\v3.00\pic\sources\c99\common\doprnt.c:
      +                           515:  char s;;C:\Program Files\Microchip\xc8\v3.00\pic\sources\c99\common\doprnt.c: 516
      +                          :     int i, w;;C:\Program Files\Microchip\xc8\v3.00\pic\sources\c99\common\doprnt.c: 52
      +                          0:  _Bool p = 1;
  2882   000CC8  0E01               	movlw	1
  2883   000CCA  6E2F               	movwf	dtoa@p^0,c
  2884   000CCC                     
  2885                           ;C:\Program Files\Microchip\xc8\v3.00\pic\sources\c99\common\doprnt.c: 524:     s = d < 
      +                          0 ? 1 : 0;
  2886   000CCC  BE2C               	btfsc	(dtoa@d+3)^0,7,c
  2887   000CCE  EF6B  F006         	goto	u1221
  2888   000CD2  EF6E  F006         	goto	u1220
  2889   000CD6                     u1221:
  2890   000CD6  0E01               	movlw	1
  2891   000CD8  EF6F  F006         	goto	u1230
  2892   000CDC                     u1220:
  2893   000CDC  0E00               	movlw	0
  2894   000CDE                     u1230:
  2895   000CDE  6E32               	movwf	dtoa@s^0,c
  2896   000CE0                     
  2897                           ;C:\Program Files\Microchip\xc8\v3.00\pic\sources\c99\common\doprnt.c: 535:     w = widt
      +                          h;
  2898   000CE0  C062  F030         	movff	_width,dtoa@w
  2899   000CE4  C063  F031         	movff	_width+1,dtoa@w+1
  2900   000CE8                     
  2901                           ;C:\Program Files\Microchip\xc8\v3.00\pic\sources\c99\common\doprnt.c: 536:     if (s
  2902   000CE8  5032               	movf	dtoa@s^0,w,c
  2903   000CEA  B4D8               	btfsc	status,2,c
  2904   000CEC  EF7A  F006         	goto	u1241
  2905   000CF0  EF7C  F006         	goto	u1240
  2906   000CF4                     u1241:
  2907   000CF4  EF93  F006         	goto	l913
  2908   000CF8                     u1240:
  2909   000CF8                     
  2910                           ;C:\Program Files\Microchip\xc8\v3.00\pic\sources\c99\common\doprnt.c: 540:     ) {;C:\P
      +                          rogram Files\Microchip\xc8\v3.00\pic\sources\c99\common\doprnt.c: 541:         --w;
  2911   000CF8  0630               	decf	dtoa@w^0,f,c
  2912   000CFA  A0D8               	btfss	status,0,c
  2913   000CFC  0631               	decf	(dtoa@w+1)^0,f,c
  2914   000CFE                     
  2915                           ;C:\Program Files\Microchip\xc8\v3.00\pic\sources\c99\common\doprnt.c: 542:   s = s ? '-
      +                          ' : '+';
  2916   000CFE  5032               	movf	dtoa@s^0,w,c
  2917   000D00  A4D8               	btfss	status,2,c
  2918   000D02  EF85  F006         	goto	u1251
  2919   000D06  EF87  F006         	goto	u1250
  2920   000D0A                     u1251:
  2921   000D0A  EF8D  F006         	goto	l1987
  2922   000D0E                     u1250:
  2923   000D0E  0E00               	movlw	0
  2924   000D10  6E2E               	movwf	(_dtoa$1680+1)^0,c
  2925   000D12  0E2B               	movlw	43
  2926   000D14  6E2D               	movwf	_dtoa$1680^0,c
  2927   000D16  EF91  F006         	goto	l1989
  2928   000D1A                     l1987:
  2929   000D1A  0E00               	movlw	0
  2930   000D1C  6E2E               	movwf	(_dtoa$1680+1)^0,c
  2931   000D1E  0E2D               	movlw	45
  2932   000D20  6E2D               	movwf	_dtoa$1680^0,c
  2933   000D22                     l1989:
  2934   000D22  C02D  F032         	movff	_dtoa$1680,dtoa@s
  2935   000D26                     l913:
  2936                           
  2937                           ;C:\Program Files\Microchip\xc8\v3.00\pic\sources\c99\common\doprnt.c: 552:     i = size
      +                          of(dbuf) - 1;
  2938   000D26  0E00               	movlw	0
  2939   000D28  6E34               	movwf	(dtoa@i+1)^0,c
  2940   000D2A  0E1F               	movlw	31
  2941   000D2C  6E33               	movwf	dtoa@i^0,c
  2942   000D2E                     
  2943                           ;C:\Program Files\Microchip\xc8\v3.00\pic\sources\c99\common\doprnt.c: 553:     dbuf[i] 
      +                          = '\0';
  2944   000D2E  0100               	movlb	0	; () banked
  2945   000D30  6B9F               	clrf	(_dbuf+31)& (0+255),b
  2946                           
  2947                           ;C:\Program Files\Microchip\xc8\v3.00\pic\sources\c99\common\doprnt.c: 554:     while (!
      +                          (i < 1) && (d != 0
  2948   000D32  EFDB  F006         	goto	l2003
  2949   000D36                     l1993:
  2950                           
  2951                           ;C:\Program Files\Microchip\xc8\v3.00\pic\sources\c99\common\doprnt.c: 563:     )) {;C:\
      +                          Program Files\Microchip\xc8\v3.00\pic\sources\c99\common\doprnt.c: 564:         --i;
  2952   000D36  0633               	decf	dtoa@i^0,f,c
  2953   000D38  A0D8               	btfss	status,0,c
  2954   000D3A  0634               	decf	(dtoa@i+1)^0,f,c
  2955   000D3C                     
  2956                           ;C:\Program Files\Microchip\xc8\v3.00\pic\sources\c99\common\doprnt.c: 565:         dbuf
      +                          [i] = (char)((int)'0' + abs(d % 10));
  2957   000D3C  5033               	movf	dtoa@i^0,w,c
  2958   000D3E  0F80               	addlw	low _dbuf
  2959   000D40  6ED9               	movwf	fsr2l,c
  2960   000D42  6ADA               	clrf	fsr2h,c
  2961   000D44  C029  F00F         	movff	dtoa@d,___almod@dividend
  2962   000D48  C02A  F010         	movff	dtoa@d+1,___almod@dividend+1
  2963   000D4C  C02B  F011         	movff	dtoa@d+2,___almod@dividend+2
  2964   000D50  C02C  F012         	movff	dtoa@d+3,___almod@dividend+3
  2965   000D54  0E0A               	movlw	10
  2966   000D56  6E13               	movwf	___almod@divisor^0,c
  2967   000D58  0E00               	movlw	0
  2968   000D5A  6E14               	movwf	(___almod@divisor+1)^0,c
  2969   000D5C  0E00               	movlw	0
  2970   000D5E  6E15               	movwf	(___almod@divisor+2)^0,c
  2971   000D60  0E00               	movlw	0
  2972   000D62  6E16               	movwf	(___almod@divisor+3)^0,c
  2973   000D64  ECC3  F008         	call	___almod	;wreg free
  2974   000D68  C00F  F019         	movff	?___almod,abs@a
  2975   000D6C  C010  F01A         	movff	?___almod+1,abs@a+1
  2976   000D70  ECA0  F00B         	call	_abs	;wreg free
  2977   000D74  5019               	movf	?_abs^0,w,c
  2978   000D76  0F30               	addlw	48
  2979   000D78  6EDF               	movwf	indf2,c
  2980   000D7A                     
  2981                           ;C:\Program Files\Microchip\xc8\v3.00\pic\sources\c99\common\doprnt.c: 569:   p = 0;
  2982   000D7A  6A2F               	clrf	dtoa@p^0,c
  2983   000D7C                     
  2984                           ;C:\Program Files\Microchip\xc8\v3.00\pic\sources\c99\common\doprnt.c: 571:         --w;
  2985   000D7C  0630               	decf	dtoa@w^0,f,c
  2986   000D7E  A0D8               	btfss	status,0,c
  2987   000D80  0631               	decf	(dtoa@w+1)^0,f,c
  2988   000D82                     
  2989                           ;C:\Program Files\Microchip\xc8\v3.00\pic\sources\c99\common\doprnt.c: 572:         d = 
      +                          d / 10;
  2990   000D82  C029  F00F         	movff	dtoa@d,___aldiv@dividend
  2991   000D86  C02A  F010         	movff	dtoa@d+1,___aldiv@dividend+1
  2992   000D8A  C02B  F011         	movff	dtoa@d+2,___aldiv@dividend+2
  2993   000D8E  C02C  F012         	movff	dtoa@d+3,___aldiv@dividend+3
  2994   000D92  0E0A               	movlw	10
  2995   000D94  6E13               	movwf	___aldiv@divisor^0,c
  2996   000D96  0E00               	movlw	0
  2997   000D98  6E14               	movwf	(___aldiv@divisor+1)^0,c
  2998   000D9A  0E00               	movlw	0
  2999   000D9C  6E15               	movwf	(___aldiv@divisor+2)^0,c
  3000   000D9E  0E00               	movlw	0
  3001   000DA0  6E16               	movwf	(___aldiv@divisor+3)^0,c
  3002   000DA2  EC3E  F008         	call	___aldiv	;wreg free
  3003   000DA6  C00F  F029         	movff	?___aldiv,dtoa@d
  3004   000DAA  C010  F02A         	movff	?___aldiv+1,dtoa@d+1
  3005   000DAE  C011  F02B         	movff	?___aldiv+2,dtoa@d+2
  3006   000DB2  C012  F02C         	movff	?___aldiv+3,dtoa@d+3
  3007   000DB6                     l2003:
  3008                           
  3009                           ;C:\Program Files\Microchip\xc8\v3.00\pic\sources\c99\common\doprnt.c: 554:     while (!
      +                          (i < 1) && (d != 0
  3010   000DB6  BE34               	btfsc	(dtoa@i+1)^0,7,c
  3011   000DB8  EFE6  F006         	goto	u1261
  3012   000DBC  5034               	movf	(dtoa@i+1)^0,w,c
  3013   000DBE  E108               	bnz	u1260
  3014   000DC0  0433               	decf	dtoa@i^0,w,c
  3015   000DC2  A0D8               	btfss	status,0,c
  3016   000DC4  EFE6  F006         	goto	u1261
  3017   000DC8  EFE8  F006         	goto	u1260
  3018   000DCC                     u1261:
  3019   000DCC  EF0F  F007         	goto	l2013
  3020   000DD0                     u1260:
  3021   000DD0  5029               	movf	dtoa@d^0,w,c
  3022   000DD2  102A               	iorwf	(dtoa@d+1)^0,w,c
  3023   000DD4  102B               	iorwf	(dtoa@d+2)^0,w,c
  3024   000DD6  102C               	iorwf	(dtoa@d+3)^0,w,c
  3025   000DD8  A4D8               	btfss	status,2,c
  3026   000DDA  EFF1  F006         	goto	u1271
  3027   000DDE  EFF3  F006         	goto	u1270
  3028   000DE2                     u1271:
  3029   000DE2  EF9B  F006         	goto	l1993
  3030   000DE6                     u1270:
  3031   000DE6  502F               	movf	dtoa@p^0,w,c
  3032   000DE8  A4D8               	btfss	status,2,c
  3033   000DEA  EFF9  F006         	goto	u1281
  3034   000DEE  EFFB  F006         	goto	u1280
  3035   000DF2                     u1281:
  3036   000DF2  EF9B  F006         	goto	l1993
  3037   000DF6                     u1280:
  3038   000DF6  BE31               	btfsc	(dtoa@w+1)^0,7,c
  3039   000DF8  EF06  F007         	goto	u1291
  3040   000DFC  5031               	movf	(dtoa@w+1)^0,w,c
  3041   000DFE  E108               	bnz	u1290
  3042   000E00  0430               	decf	dtoa@w^0,w,c
  3043   000E02  A0D8               	btfss	status,0,c
  3044   000E04  EF06  F007         	goto	u1291
  3045   000E08  EF08  F007         	goto	u1290
  3046   000E0C                     u1291:
  3047   000E0C  EF0F  F007         	goto	l2013
  3048   000E10                     u1290:
  3049   000E10  B26C               	btfsc	_flags^0,1,c
  3050   000E12  EF0D  F007         	goto	u1301
  3051   000E16  EF0F  F007         	goto	u1300
  3052   000E1A                     u1301:
  3053   000E1A  EF9B  F006         	goto	l1993
  3054   000E1E                     u1300:
  3055   000E1E                     l2013:
  3056                           
  3057                           ;C:\Program Files\Microchip\xc8\v3.00\pic\sources\c99\common\doprnt.c: 576:     if (s !=
      +                           0) {
  3058   000E1E  5032               	movf	dtoa@s^0,w,c
  3059   000E20  B4D8               	btfsc	status,2,c
  3060   000E22  EF15  F007         	goto	u1311
  3061   000E26  EF17  F007         	goto	u1310
  3062   000E2A                     u1311:
  3063   000E2A  EF20  F007         	goto	l2019
  3064   000E2E                     u1310:
  3065   000E2E                     
  3066                           ;C:\Program Files\Microchip\xc8\v3.00\pic\sources\c99\common\doprnt.c: 577:         --i;
  3067   000E2E  0633               	decf	dtoa@i^0,f,c
  3068   000E30  A0D8               	btfss	status,0,c
  3069   000E32  0634               	decf	(dtoa@i+1)^0,f,c
  3070   000E34                     
  3071                           ;C:\Program Files\Microchip\xc8\v3.00\pic\sources\c99\common\doprnt.c: 578:         dbuf
      +                          [i] = s;
  3072   000E34  5033               	movf	dtoa@i^0,w,c
  3073   000E36  0F80               	addlw	low _dbuf
  3074   000E38  6ED9               	movwf	fsr2l,c
  3075   000E3A  6ADA               	clrf	fsr2h,c
  3076   000E3C  C032  FFDF         	movff	dtoa@s,indf2
  3077   000E40                     l2019:
  3078                           
  3079                           ;C:\Program Files\Microchip\xc8\v3.00\pic\sources\c99\common\doprnt.c: 582:     return (
      +                          void) pad(fp, &dbuf[i], w);
  3080   000E40  C027  F01F         	movff	dtoa@fp,pad@fp
  3081   000E44  C028  F020         	movff	dtoa@fp+1,pad@fp+1
  3082   000E48  5033               	movf	dtoa@i^0,w,c
  3083   000E4A  0F80               	addlw	low _dbuf
  3084   000E4C  6E21               	movwf	pad@buf^0,c
  3085   000E4E  C030  F022         	movff	dtoa@w,pad@p
  3086   000E52  C031  F023         	movff	dtoa@w+1,pad@p+1
  3087   000E56  EC41  F00A         	call	_pad	;wreg free
  3088   000E5A  0012               	return		;funcret
  3089   000E5C                     __end_of_dtoa:
  3090                           	callstack 0
  3091                           
  3092 ;; *************** function _pad *****************
  3093 ;; Defined at:
  3094 ;;		line 193 in file "C:\Program Files\Microchip\xc8\v3.00\pic\sources\c99\common\doprnt.c"
  3095 ;; Parameters:    Size  Location     Type
  3096 ;;  fp              2   30[COMRAM] PTR struct _IO_FILE
  3097 ;;		 -> NULL(0), 
  3098 ;;  buf             1   32[COMRAM] PTR unsigned char 
  3099 ;;		 -> dbuf(32), 
  3100 ;;  p               2   33[COMRAM] int 
  3101 ;; Auto vars:     Size  Location     Type
  3102 ;;  i               2   36[COMRAM] int 
  3103 ;; Return value:  Size  Location     Type
  3104 ;;                  1    wreg      void 
  3105 ;; Registers used:
  3106 ;;		wreg, fsr1l, fsr1h, fsr2l, fsr2h, status,2, status,0, cstack
  3107 ;; Tracked objects:
  3108 ;;		On entry : 0/0
  3109 ;;		On exit  : 0/0
  3110 ;;		Unchanged: 0/0
  3111 ;; Data sizes:     COMRAM   BANK0   BANK1   BANK2   BANK3   BANK4   BANK5
  3112 ;;      Params:         5       0       0       0       0       0       0
  3113 ;;      Locals:         2       0       0       0       0       0       0
  3114 ;;      Temps:          1       0       0       0       0       0       0
  3115 ;;      Totals:         8       0       0       0       0       0       0
  3116 ;;Total ram usage:        8 bytes
  3117 ;; Hardware stack levels used: 1
  3118 ;; Hardware stack levels required when called: 7
  3119 ;; This function calls:
  3120 ;;		_fputc
  3121 ;;		_fputs
  3122 ;; This function is called by:
  3123 ;;		_dtoa
  3124 ;;		_utoa
  3125 ;;		_xtoa
  3126 ;; This function uses a non-reentrant model
  3127 ;;
  3128                           
  3129                           	psect	text10
  3130   001482                     __ptext10:
  3131                           	callstack 0
  3132   001482                     _pad:
  3133                           	callstack 19
  3134   001482                     
  3135                           ;C:\Program Files\Microchip\xc8\v3.00\pic\sources\c99\common\doprnt.c: 193: static void 
      +                          pad(FILE *fp, char *buf, int p);C:\Program Files\Microchip\xc8\v3.00\pic\sources\c99\com
      +                          mon\doprnt.c: 194: {;C:\Program Files\Microchip\xc8\v3.00\pic\sources\c99\common\doprnt.
      +                          c: 195:     int i;;C:\Program Files\Microchip\xc8\v3.00\pic\sources\c99\common\doprnt.c:
      +                           199:     if (flags & (1 << 0)) {
  3136   001482  A06C               	btfss	_flags^0,0,c
  3137   001484  EF46  F00A         	goto	u1171
  3138   001488  EF48  F00A         	goto	u1170
  3139   00148C                     u1171:
  3140   00148C  EF50  F00A         	goto	l1957
  3141   001490                     u1170:
  3142   001490                     
  3143                           ;C:\Program Files\Microchip\xc8\v3.00\pic\sources\c99\common\doprnt.c: 200:         fput
      +                          s((const char *)buf, fp);
  3144   001490  C021  F019         	movff	pad@buf,fputs@s
  3145   001494  C01F  F01A         	movff	pad@fp,fputs@fp
  3146   001498  C020  F01B         	movff	pad@fp+1,fputs@fp+1
  3147   00149C  EC80  F00B         	call	_fputs	;wreg free
  3148   0014A0                     l1957:
  3149                           
  3150                           ;C:\Program Files\Microchip\xc8\v3.00\pic\sources\c99\common\doprnt.c: 205:  if (p < 0) 
      +                          {
  3151   0014A0  BE23               	btfsc	(pad@p+1)^0,7,c
  3152   0014A2  EF57  F00A         	goto	u1180
  3153   0014A6  EF55  F00A         	goto	u1181
  3154   0014AA                     u1181:
  3155   0014AA  EF5B  F00A         	goto	l905
  3156   0014AE                     u1180:
  3157   0014AE                     
  3158                           ;C:\Program Files\Microchip\xc8\v3.00\pic\sources\c99\common\doprnt.c: 206:   p = 0;
  3159   0014AE  0E00               	movlw	0
  3160   0014B0  6E23               	movwf	(pad@p+1)^0,c
  3161   0014B2  0E00               	movlw	0
  3162   0014B4  6E22               	movwf	pad@p^0,c
  3163   0014B6                     l905:
  3164                           
  3165                           ;C:\Program Files\Microchip\xc8\v3.00\pic\sources\c99\common\doprnt.c: 208:     i = 0;
  3166   0014B6  0E00               	movlw	0
  3167   0014B8  6E26               	movwf	(pad@i+1)^0,c
  3168   0014BA  0E00               	movlw	0
  3169   0014BC  6E25               	movwf	pad@i^0,c
  3170                           
  3171                           ;C:\Program Files\Microchip\xc8\v3.00\pic\sources\c99\common\doprnt.c: 209:     while (i
      +                           < p) {
  3172   0014BE  EF6D  F00A         	goto	l1965
  3173   0014C2                     l1961:
  3174                           
  3175                           ;C:\Program Files\Microchip\xc8\v3.00\pic\sources\c99\common\doprnt.c: 210:         fput
      +                          c(' ', fp);
  3176   0014C2  0E00               	movlw	0
  3177   0014C4  6E11               	movwf	(fputc@c+1)^0,c
  3178   0014C6  0E20               	movlw	32
  3179   0014C8  6E10               	movwf	fputc@c^0,c
  3180   0014CA  C01F  F012         	movff	pad@fp,fputc@fp
  3181   0014CE  C020  F013         	movff	pad@fp+1,fputc@fp+1
  3182   0014D2  EC38  F009         	call	_fputc	;wreg free
  3183   0014D6                     
  3184                           ;C:\Program Files\Microchip\xc8\v3.00\pic\sources\c99\common\doprnt.c: 211:         ++i;
  3185   0014D6  4A25               	infsnz	pad@i^0,f,c
  3186   0014D8  2A26               	incf	(pad@i+1)^0,f,c
  3187   0014DA                     l1965:
  3188                           
  3189                           ;C:\Program Files\Microchip\xc8\v3.00\pic\sources\c99\common\doprnt.c: 209:     while (i
      +                           < p) {
  3190   0014DA  5022               	movf	pad@p^0,w,c
  3191   0014DC  5C25               	subwf	pad@i^0,w,c
  3192   0014DE  5026               	movf	(pad@i+1)^0,w,c
  3193   0014E0  0A80               	xorlw	128
  3194   0014E2  6E24               	movwf	??_pad^0,c
  3195   0014E4  5023               	movf	(pad@p+1)^0,w,c
  3196   0014E6  0A80               	xorlw	128
  3197   0014E8  5824               	subwfb	??_pad^0,w,c
  3198   0014EA  A0D8               	btfss	status,0,c
  3199   0014EC  EF7A  F00A         	goto	u1191
  3200   0014F0  EF7C  F00A         	goto	u1190
  3201   0014F4                     u1191:
  3202   0014F4  EF61  F00A         	goto	l1961
  3203   0014F8                     u1190:
  3204   0014F8                     
  3205                           ;C:\Program Files\Microchip\xc8\v3.00\pic\sources\c99\common\doprnt.c: 216:     if (!(fl
      +                          ags & (1 << 0))) {
  3206   0014F8  B06C               	btfsc	_flags^0,0,c
  3207   0014FA  EF81  F00A         	goto	u1201
  3208   0014FE  EF83  F00A         	goto	u1200
  3209   001502                     u1201:
  3210   001502  EF8B  F00A         	goto	l910
  3211   001506                     u1200:
  3212   001506                     
  3213                           ;C:\Program Files\Microchip\xc8\v3.00\pic\sources\c99\common\doprnt.c: 218:         fput
      +                          s((const char *)buf, fp);
  3214   001506  C021  F019         	movff	pad@buf,fputs@s
  3215   00150A  C01F  F01A         	movff	pad@fp,fputs@fp
  3216   00150E  C020  F01B         	movff	pad@fp+1,fputs@fp+1
  3217   001512  EC80  F00B         	call	_fputs	;wreg free
  3218   001516                     l910:
  3219   001516  0012               	return		;funcret
  3220   001518                     __end_of_pad:
  3221                           	callstack 0
  3222                           
  3223 ;; *************** function _fputs *****************
  3224 ;; Defined at:
  3225 ;;		line 8 in file "C:\Program Files\Microchip\xc8\v3.00\pic\sources\c99\common\nf_fputs.c"
  3226 ;; Parameters:    Size  Location     Type
  3227 ;;  s               1   24[COMRAM] PTR const unsigned char 
  3228 ;;		 -> dbuf(32), 
  3229 ;;  fp              2   25[COMRAM] PTR struct _IO_FILE
  3230 ;;		 -> NULL(0), 
  3231 ;; Auto vars:     Size  Location     Type
  3232 ;;  i               2   28[COMRAM] int 
  3233 ;;  c               1   27[COMRAM] unsigned char 
  3234 ;; Return value:  Size  Location     Type
  3235 ;;                  2   24[COMRAM] int 
  3236 ;; Registers used:
  3237 ;;		wreg, fsr1l, fsr1h, fsr2l, fsr2h, status,2, status,0, cstack
  3238 ;; Tracked objects:
  3239 ;;		On entry : 0/0
  3240 ;;		On exit  : 0/0
  3241 ;;		Unchanged: 0/0
  3242 ;; Data sizes:     COMRAM   BANK0   BANK1   BANK2   BANK3   BANK4   BANK5
  3243 ;;      Params:         3       0       0       0       0       0       0
  3244 ;;      Locals:         3       0       0       0       0       0       0
  3245 ;;      Temps:          0       0       0       0       0       0       0
  3246 ;;      Totals:         6       0       0       0       0       0       0
  3247 ;;Total ram usage:        6 bytes
  3248 ;; Hardware stack levels used: 1
  3249 ;; Hardware stack levels required when called: 6
  3250 ;; This function calls:
  3251 ;;		_fputc
  3252 ;; This function is called by:
  3253 ;;		_pad
  3254 ;; This function uses a non-reentrant model
  3255 ;;
  3256                           
  3257                           	psect	text11
  3258   001700                     __ptext11:
  3259                           	callstack 0
  3260   001700                     _fputs:
  3261                           	callstack 19
  3262   001700  0E00               	movlw	0
  3263   001702  6E1E               	movwf	(fputs@i+1)^0,c
  3264   001704  0E00               	movlw	0
  3265   001706  6E1D               	movwf	fputs@i^0,c
  3266   001708  EF91  F00B         	goto	l1833
  3267   00170C                     l1829:
  3268   00170C  C01C  F010         	movff	fputs@c,fputc@c
  3269   001710  6A11               	clrf	(fputc@c+1)^0,c
  3270   001712  C01A  F012         	movff	fputs@fp,fputc@fp
  3271   001716  C01B  F013         	movff	fputs@fp+1,fputc@fp+1
  3272   00171A  EC38  F009         	call	_fputc	;wreg free
  3273   00171E  4A1D               	infsnz	fputs@i^0,f,c
  3274   001720  2A1E               	incf	(fputs@i+1)^0,f,c
  3275   001722                     l1833:
  3276   001722  5019               	movf	fputs@s^0,w,c
  3277   001724  241D               	addwf	fputs@i^0,w,c
  3278   001726  6ED9               	movwf	fsr2l,c
  3279   001728  6ADA               	clrf	fsr2h,c
  3280   00172A  50DF               	movf	indf2,w,c
  3281   00172C  6E1C               	movwf	fputs@c^0,c
  3282   00172E  501C               	movf	fputs@c^0,w,c
  3283   001730  A4D8               	btfss	status,2,c
  3284   001732  EF9D  F00B         	goto	u981
  3285   001736  EF9F  F00B         	goto	u980
  3286   00173A                     u981:
  3287   00173A  EF86  F00B         	goto	l1829
  3288   00173E                     u980:
  3289   00173E  0012               	return		;funcret
  3290   001740                     __end_of_fputs:
  3291                           	callstack 0
  3292                           
  3293 ;; *************** function _fputc *****************
  3294 ;; Defined at:
  3295 ;;		line 8 in file "C:\Program Files\Microchip\xc8\v3.00\pic\sources\c99\common\nf_fputc.c"
  3296 ;; Parameters:    Size  Location     Type
  3297 ;;  c               2   15[COMRAM] int 
  3298 ;;  fp              2   17[COMRAM] PTR struct _IO_FILE
  3299 ;;		 -> NULL(0), 
  3300 ;; Auto vars:     Size  Location     Type
  3301 ;;		None
  3302 ;; Return value:  Size  Location     Type
  3303 ;;                  2   15[COMRAM] int 
  3304 ;; Registers used:
  3305 ;;		wreg, fsr1l, fsr1h, fsr2l, fsr2h, status,2, status,0, cstack
  3306 ;; Tracked objects:
  3307 ;;		On entry : 0/0
  3308 ;;		On exit  : 0/0
  3309 ;;		Unchanged: 0/0
  3310 ;; Data sizes:     COMRAM   BANK0   BANK1   BANK2   BANK3   BANK4   BANK5
  3311 ;;      Params:         4       0       0       0       0       0       0
  3312 ;;      Locals:         0       0       0       0       0       0       0
  3313 ;;      Temps:          5       0       0       0       0       0       0
  3314 ;;      Totals:         9       0       0       0       0       0       0
  3315 ;;Total ram usage:        9 bytes
  3316 ;; Hardware stack levels used: 1
  3317 ;; Hardware stack levels required when called: 5
  3318 ;; This function calls:
  3319 ;;		_putch
  3320 ;; This function is called by:
  3321 ;;		_pad
  3322 ;;		_vfpfcnvrt
  3323 ;;		_fputs
  3324 ;; This function uses a non-reentrant model
  3325 ;;
  3326                           
  3327                           	psect	text12
  3328   001270                     __ptext12:
  3329                           	callstack 0
  3330   001270                     _fputc:
  3331                           	callstack 19
  3332   001270  5012               	movf	fputc@fp^0,w,c
  3333   001272  1013               	iorwf	(fputc@fp+1)^0,w,c
  3334   001274  B4D8               	btfsc	status,2,c
  3335   001276  EF3F  F009         	goto	u941
  3336   00127A  EF41  F009         	goto	u940
  3337   00127E                     u941:
  3338   00127E  EF4A  F009         	goto	l1817
  3339   001282                     u940:
  3340   001282  5012               	movf	fputc@fp^0,w,c
  3341   001284  1013               	iorwf	(fputc@fp+1)^0,w,c
  3342   001286  A4D8               	btfss	status,2,c
  3343   001288  EF48  F009         	goto	u951
  3344   00128C  EF4A  F009         	goto	u950
  3345   001290                     u951:
  3346   001290  EF4F  F009         	goto	l1819
  3347   001294                     u950:
  3348   001294                     l1817:
  3349   001294  5010               	movf	fputc@c^0,w,c
  3350   001296  EC0A  F00B         	call	_putch
  3351   00129A  EF9C  F009         	goto	l1019
  3352   00129E                     l1819:
  3353   00129E  EE20 F009          	lfsr	2,9
  3354   0012A2  5012               	movf	fputc@fp^0,w,c
  3355   0012A4  26D9               	addwf	fsr2l,f,c
  3356   0012A6  5013               	movf	(fputc@fp+1)^0,w,c
  3357   0012A8  22DA               	addwfc	fsr2h,f,c
  3358   0012AA  50DE               	movf	postinc2,w,c
  3359   0012AC  10DE               	iorwf	postinc2,w,c
  3360   0012AE  B4D8               	btfsc	status,2,c
  3361   0012B0  EF5C  F009         	goto	u961
  3362   0012B4  EF5E  F009         	goto	u960
  3363   0012B8                     u961:
  3364   0012B8  EF79  F009         	goto	l1823
  3365   0012BC                     u960:
  3366   0012BC  EE20 F009          	lfsr	2,9
  3367   0012C0  5012               	movf	fputc@fp^0,w,c
  3368   0012C2  26D9               	addwf	fsr2l,f,c
  3369   0012C4  5013               	movf	(fputc@fp+1)^0,w,c
  3370   0012C6  22DA               	addwfc	fsr2h,f,c
  3371   0012C8  EE10 F002          	lfsr	1,2
  3372   0012CC  5012               	movf	fputc@fp^0,w,c
  3373   0012CE  26E1               	addwf	fsr1l,f,c
  3374   0012D0  5013               	movf	(fputc@fp+1)^0,w,c
  3375   0012D2  22E2               	addwfc	fsr1h,f,c
  3376   0012D4  50DE               	movf	postinc2,w,c
  3377   0012D6  5CE6               	subwf	postinc1,w,c
  3378   0012D8  50E6               	movf	postinc1,w,c
  3379   0012DA  0A80               	xorlw	128
  3380   0012DC  6E18               	movwf	(??_fputc+4)^0,c
  3381   0012DE  50DE               	movf	postinc2,w,c
  3382   0012E0  0A80               	xorlw	128
  3383   0012E2  5818               	subwfb	(??_fputc+4)^0,w,c
  3384   0012E4  B0D8               	btfsc	status,0,c
  3385   0012E6  EF77  F009         	goto	u971
  3386   0012EA  EF79  F009         	goto	u970
  3387   0012EE                     u971:
  3388   0012EE  EF9C  F009         	goto	l1019
  3389   0012F2                     u970:
  3390   0012F2                     l1823:
  3391   0012F2  EE20 F002          	lfsr	2,2
  3392   0012F6  5012               	movf	fputc@fp^0,w,c
  3393   0012F8  26D9               	addwf	fsr2l,f,c
  3394   0012FA  5013               	movf	(fputc@fp+1)^0,w,c
  3395   0012FC  22DA               	addwfc	fsr2h,f,c
  3396   0012FE  CFDE F014          	movff	postinc2,??_fputc
  3397   001302  CFDD F015          	movff	postdec2,??_fputc+1
  3398   001306  C012  FFD9         	movff	fputc@fp,fsr2l
  3399   00130A  C013  FFDA         	movff	fputc@fp+1,fsr2h
  3400   00130E  CFDE F016          	movff	postinc2,??_fputc+2
  3401   001312  CFDD F017          	movff	postdec2,??_fputc+3
  3402   001316  5014               	movf	??_fputc^0,w,c
  3403   001318  2416               	addwf	(??_fputc+2)^0,w,c
  3404   00131A  6ED9               	movwf	fsr2l,c
  3405   00131C  5015               	movf	(??_fputc+1)^0,w,c
  3406   00131E  2017               	addwfc	(??_fputc+3)^0,w,c
  3407   001320  6EDA               	movwf	fsr2h,c
  3408   001322  C010  FFDF         	movff	fputc@c,indf2
  3409   001326  EE20 F002          	lfsr	2,2
  3410   00132A  5012               	movf	fputc@fp^0,w,c
  3411   00132C  26D9               	addwf	fsr2l,f,c
  3412   00132E  5013               	movf	(fputc@fp+1)^0,w,c
  3413   001330  22DA               	addwfc	fsr2h,f,c
  3414   001332  2ADE               	incf	postinc2,f,c
  3415   001334  0E00               	movlw	0
  3416   001336  22DD               	addwfc	postdec2,f,c
  3417   001338                     l1019:
  3418   001338  0012               	return		;funcret
  3419   00133A                     __end_of_fputc:
  3420                           	callstack 0
  3421                           
  3422 ;; *************** function _putch *****************
  3423 ;; Defined at:
  3424 ;;		line 197 in file "addadc.c"
  3425 ;; Parameters:    Size  Location     Type
  3426 ;;  data            1    wreg     unsigned char 
  3427 ;; Auto vars:     Size  Location     Type
  3428 ;;  data            1   14[COMRAM] unsigned char 
  3429 ;; Return value:  Size  Location     Type
  3430 ;;                  1    wreg      void 
  3431 ;; Registers used:
  3432 ;;		wreg, status,2, status,0
  3433 ;; Tracked objects:
  3434 ;;		On entry : 0/0
  3435 ;;		On exit  : 0/0
  3436 ;;		Unchanged: 0/0
  3437 ;; Data sizes:     COMRAM   BANK0   BANK1   BANK2   BANK3   BANK4   BANK5
  3438 ;;      Params:         0       0       0       0       0       0       0
  3439 ;;      Locals:         1       0       0       0       0       0       0
  3440 ;;      Temps:          0       0       0       0       0       0       0
  3441 ;;      Totals:         1       0       0       0       0       0       0
  3442 ;;Total ram usage:        1 bytes
  3443 ;; Hardware stack levels used: 1
  3444 ;; Hardware stack levels required when called: 4
  3445 ;; This function calls:
  3446 ;;		Nothing
  3447 ;; This function is called by:
  3448 ;;		_fputc
  3449 ;; This function uses a non-reentrant model
  3450 ;;
  3451                           
  3452                           	psect	text13
  3453   001614                     __ptext13:
  3454                           	callstack 0
  3455   001614                     _putch:
  3456                           	callstack 19
  3457                           
  3458                           ;incstack = 0
  3459                           ;putch@data stored from wreg
  3460   001614  6E0F               	movwf	putch@data^0,c
  3461   001616                     
  3462                           ;addadc.c: 198:         if (data == '\n' || data == '\r') {
  3463   001616  0E0A               	movlw	10
  3464   001618  180F               	xorwf	putch@data^0,w,c
  3465   00161A  B4D8               	btfsc	status,2,c
  3466   00161C  EF12  F00B         	goto	u891
  3467   001620  EF14  F00B         	goto	u890
  3468   001624                     u891:
  3469   001624  EF1D  F00B         	goto	l101
  3470   001628                     u890:
  3471   001628  0E0D               	movlw	13
  3472   00162A  180F               	xorwf	putch@data^0,w,c
  3473   00162C  A4D8               	btfss	status,2,c
  3474   00162E  EF1B  F00B         	goto	u901
  3475   001632  EF1D  F00B         	goto	u900
  3476   001636                     u901:
  3477   001636  EF31  F00B         	goto	l108
  3478   00163A                     u900:
  3479   00163A                     l101:
  3480   00163A  A2AC               	btfss	172,1,c	;volatile
  3481   00163C  EF22  F00B         	goto	u911
  3482   001640  EF24  F00B         	goto	u910
  3483   001644                     u911:
  3484   001644  EF1D  F00B         	goto	l101
  3485   001648                     u910:
  3486   001648                     
  3487                           ;addadc.c: 200:             TXREG = '\r';
  3488   001648  0E0D               	movlw	13
  3489   00164A  6EAD               	movwf	173,c	;volatile
  3490   00164C                     l104:
  3491   00164C  A2AC               	btfss	172,1,c	;volatile
  3492   00164E  EF2B  F00B         	goto	u921
  3493   001652  EF2D  F00B         	goto	u920
  3494   001656                     u921:
  3495   001656  EF26  F00B         	goto	l104
  3496   00165A                     u920:
  3497   00165A                     
  3498                           ;addadc.c: 202:             TXREG = '\n';
  3499   00165A  0E0A               	movlw	10
  3500   00165C  6EAD               	movwf	173,c	;volatile
  3501                           
  3502                           ;addadc.c: 203:         } else {
  3503   00165E  EF3A  F00B         	goto	l111
  3504   001662                     l108:
  3505   001662  A2AC               	btfss	172,1,c	;volatile
  3506   001664  EF36  F00B         	goto	u931
  3507   001668  EF38  F00B         	goto	u930
  3508   00166C                     u931:
  3509   00166C  EF31  F00B         	goto	l108
  3510   001670                     u930:
  3511   001670                     
  3512                           ;addadc.c: 205:             TXREG = data;
  3513   001670  C00F  FFAD         	movff	putch@data,4013	;volatile
  3514   001674                     l111:
  3515   001674  0012               	return		;funcret
  3516   001676                     __end_of_putch:
  3517                           	callstack 0
  3518                           
  3519 ;; *************** function _abs *****************
  3520 ;; Defined at:
  3521 ;;		line 1 in file "C:\Program Files\Microchip\xc8\v3.00\pic\sources\c99\common\abs.c"
  3522 ;; Parameters:    Size  Location     Type
  3523 ;;  a               2   24[COMRAM] int 
  3524 ;; Auto vars:     Size  Location     Type
  3525 ;;		None
  3526 ;; Return value:  Size  Location     Type
  3527 ;;                  2   24[COMRAM] int 
  3528 ;; Registers used:
  3529 ;;		wreg, status,2, status,0
  3530 ;; Tracked objects:
  3531 ;;		On entry : 0/0
  3532 ;;		On exit  : 0/0
  3533 ;;		Unchanged: 0/0
  3534 ;; Data sizes:     COMRAM   BANK0   BANK1   BANK2   BANK3   BANK4   BANK5
  3535 ;;      Params:         2       0       0       0       0       0       0
  3536 ;;      Locals:         0       0       0       0       0       0       0
  3537 ;;      Temps:          2       0       0       0       0       0       0
  3538 ;;      Totals:         4       0       0       0       0       0       0
  3539 ;;Total ram usage:        4 bytes
  3540 ;; Hardware stack levels used: 1
  3541 ;; Hardware stack levels required when called: 4
  3542 ;; This function calls:
  3543 ;;		Nothing
  3544 ;; This function is called by:
  3545 ;;		_dtoa
  3546 ;; This function uses a non-reentrant model
  3547 ;;
  3548                           
  3549                           	psect	text14
  3550   001740                     __ptext14:
  3551                           	callstack 0
  3552   001740                     _abs:
  3553                           	callstack 22
  3554   001740  BE1A               	btfsc	(abs@a+1)^0,7,c
  3555   001742  EFA5  F00B         	goto	u1211
  3556   001746  EFA7  F00B         	goto	u1210
  3557   00174A                     u1211:
  3558   00174A  EFAD  F00B         	goto	l1004
  3559   00174E                     u1210:
  3560   00174E  C019  F019         	movff	abs@a,?_abs
  3561   001752  C01A  F01A         	movff	abs@a+1,?_abs+1
  3562   001756  EFB9  F00B         	goto	l1007
  3563   00175A                     l1004:
  3564   00175A  C019  F01B         	movff	abs@a,??_abs
  3565   00175E  C01A  F01C         	movff	abs@a+1,??_abs+1
  3566   001762  1E1B               	comf	??_abs^0,f,c
  3567   001764  1E1C               	comf	(??_abs+1)^0,f,c
  3568   001766  4A1B               	infsnz	??_abs^0,f,c
  3569   001768  2A1C               	incf	(??_abs+1)^0,f,c
  3570   00176A  C01B  F019         	movff	??_abs,?_abs
  3571   00176E  C01C  F01A         	movff	??_abs+1,?_abs+1
  3572   001772                     l1007:
  3573   001772  0012               	return		;funcret
  3574   001774                     __end_of_abs:
  3575                           	callstack 0
  3576                           
  3577 ;; *************** function ___almod *****************
  3578 ;; Defined at:
  3579 ;;		line 7 in file "C:\Program Files\Microchip\xc8\v3.00\pic\sources\c99\common\almod.c"
  3580 ;; Parameters:    Size  Location     Type
  3581 ;;  dividend        4   14[COMRAM] long 
  3582 ;;  divisor         4   18[COMRAM] long 
  3583 ;; Auto vars:     Size  Location     Type
  3584 ;;  sign            1   23[COMRAM] unsigned char 
  3585 ;;  counter         1   22[COMRAM] unsigned char 
  3586 ;; Return value:  Size  Location     Type
  3587 ;;                  4   14[COMRAM] long 
  3588 ;; Registers used:
  3589 ;;		wreg, status,2, status,0
  3590 ;; Tracked objects:
  3591 ;;		On entry : 0/0
  3592 ;;		On exit  : 0/0
  3593 ;;		Unchanged: 0/0
  3594 ;; Data sizes:     COMRAM   BANK0   BANK1   BANK2   BANK3   BANK4   BANK5
  3595 ;;      Params:         8       0       0       0       0       0       0
  3596 ;;      Locals:         2       0       0       0       0       0       0
  3597 ;;      Temps:          0       0       0       0       0       0       0
  3598 ;;      Totals:        10       0       0       0       0       0       0
  3599 ;;Total ram usage:       10 bytes
  3600 ;; Hardware stack levels used: 1
  3601 ;; Hardware stack levels required when called: 4
  3602 ;; This function calls:
  3603 ;;		Nothing
  3604 ;; This function is called by:
  3605 ;;		_dtoa
  3606 ;; This function uses a non-reentrant model
  3607 ;;
  3608                           
  3609                           	psect	text15
  3610   001186                     __ptext15:
  3611                           	callstack 0
  3612   001186                     ___almod:
  3613                           	callstack 22
  3614   001186  6A18               	clrf	___almod@sign^0,c
  3615   001188  BE12               	btfsc	(___almod@dividend+3)^0,7,c
  3616   00118A  EFCB  F008         	goto	u1080
  3617   00118E  EFC9  F008         	goto	u1081
  3618   001192                     u1081:
  3619   001192  EFD5  F008         	goto	l1909
  3620   001196                     u1080:
  3621   001196  1E12               	comf	(___almod@dividend+3)^0,f,c
  3622   001198  1E11               	comf	(___almod@dividend+2)^0,f,c
  3623   00119A  1E10               	comf	(___almod@dividend+1)^0,f,c
  3624   00119C  6C0F               	negf	___almod@dividend^0,c
  3625   00119E  0E00               	movlw	0
  3626   0011A0  2210               	addwfc	(___almod@dividend+1)^0,f,c
  3627   0011A2  2211               	addwfc	(___almod@dividend+2)^0,f,c
  3628   0011A4  2212               	addwfc	(___almod@dividend+3)^0,f,c
  3629   0011A6  0E01               	movlw	1
  3630   0011A8  6E18               	movwf	___almod@sign^0,c
  3631   0011AA                     l1909:
  3632   0011AA  BE16               	btfsc	(___almod@divisor+3)^0,7,c
  3633   0011AC  EFDC  F008         	goto	u1090
  3634   0011B0  EFDA  F008         	goto	u1091
  3635   0011B4                     u1091:
  3636   0011B4  EFE4  F008         	goto	l1913
  3637   0011B8                     u1090:
  3638   0011B8  1E16               	comf	(___almod@divisor+3)^0,f,c
  3639   0011BA  1E15               	comf	(___almod@divisor+2)^0,f,c
  3640   0011BC  1E14               	comf	(___almod@divisor+1)^0,f,c
  3641   0011BE  6C13               	negf	___almod@divisor^0,c
  3642   0011C0  0E00               	movlw	0
  3643   0011C2  2214               	addwfc	(___almod@divisor+1)^0,f,c
  3644   0011C4  2215               	addwfc	(___almod@divisor+2)^0,f,c
  3645   0011C6  2216               	addwfc	(___almod@divisor+3)^0,f,c
  3646   0011C8                     l1913:
  3647   0011C8  5013               	movf	___almod@divisor^0,w,c
  3648   0011CA  1014               	iorwf	(___almod@divisor+1)^0,w,c
  3649   0011CC  1015               	iorwf	(___almod@divisor+2)^0,w,c
  3650   0011CE  1016               	iorwf	(___almod@divisor+3)^0,w,c
  3651   0011D0  B4D8               	btfsc	status,2,c
  3652   0011D2  EFED  F008         	goto	u1101
  3653   0011D6  EFEF  F008         	goto	u1100
  3654   0011DA                     u1101:
  3655   0011DA  EF1F  F009         	goto	l1929
  3656   0011DE                     u1100:
  3657   0011DE  0E01               	movlw	1
  3658   0011E0  6E17               	movwf	___almod@counter^0,c
  3659   0011E2  EFF9  F008         	goto	l1919
  3660   0011E6                     l1917:
  3661   0011E6  90D8               	bcf	status,0,c
  3662   0011E8  3613               	rlcf	___almod@divisor^0,f,c
  3663   0011EA  3614               	rlcf	(___almod@divisor+1)^0,f,c
  3664   0011EC  3615               	rlcf	(___almod@divisor+2)^0,f,c
  3665   0011EE  3616               	rlcf	(___almod@divisor+3)^0,f,c
  3666   0011F0  2A17               	incf	___almod@counter^0,f,c
  3667   0011F2                     l1919:
  3668   0011F2  AE16               	btfss	(___almod@divisor+3)^0,7,c
  3669   0011F4  EFFE  F008         	goto	u1111
  3670   0011F8  EF00  F009         	goto	u1110
  3671   0011FC                     u1111:
  3672   0011FC  EFF3  F008         	goto	l1917
  3673   001200                     u1110:
  3674   001200                     l1921:
  3675   001200  5013               	movf	___almod@divisor^0,w,c
  3676   001202  5C0F               	subwf	___almod@dividend^0,w,c
  3677   001204  5014               	movf	(___almod@divisor+1)^0,w,c
  3678   001206  5810               	subwfb	(___almod@dividend+1)^0,w,c
  3679   001208  5015               	movf	(___almod@divisor+2)^0,w,c
  3680   00120A  5811               	subwfb	(___almod@dividend+2)^0,w,c
  3681   00120C  5016               	movf	(___almod@divisor+3)^0,w,c
  3682   00120E  5812               	subwfb	(___almod@dividend+3)^0,w,c
  3683   001210  A0D8               	btfss	status,0,c
  3684   001212  EF0D  F009         	goto	u1121
  3685   001216  EF0F  F009         	goto	u1120
  3686   00121A                     u1121:
  3687   00121A  EF17  F009         	goto	l1925
  3688   00121E                     u1120:
  3689   00121E  5013               	movf	___almod@divisor^0,w,c
  3690   001220  5E0F               	subwf	___almod@dividend^0,f,c
  3691   001222  5014               	movf	(___almod@divisor+1)^0,w,c
  3692   001224  5A10               	subwfb	(___almod@dividend+1)^0,f,c
  3693   001226  5015               	movf	(___almod@divisor+2)^0,w,c
  3694   001228  5A11               	subwfb	(___almod@dividend+2)^0,f,c
  3695   00122A  5016               	movf	(___almod@divisor+3)^0,w,c
  3696   00122C  5A12               	subwfb	(___almod@dividend+3)^0,f,c
  3697   00122E                     l1925:
  3698   00122E  90D8               	bcf	status,0,c
  3699   001230  3216               	rrcf	(___almod@divisor+3)^0,f,c
  3700   001232  3215               	rrcf	(___almod@divisor+2)^0,f,c
  3701   001234  3214               	rrcf	(___almod@divisor+1)^0,f,c
  3702   001236  3213               	rrcf	___almod@divisor^0,f,c
  3703   001238  2E17               	decfsz	___almod@counter^0,f,c
  3704   00123A  EF00  F009         	goto	l1921
  3705   00123E                     l1929:
  3706   00123E  5018               	movf	___almod@sign^0,w,c
  3707   001240  B4D8               	btfsc	status,2,c
  3708   001242  EF25  F009         	goto	u1131
  3709   001246  EF27  F009         	goto	u1130
  3710   00124A                     u1131:
  3711   00124A  EF2F  F009         	goto	l1933
  3712   00124E                     u1130:
  3713   00124E  1E12               	comf	(___almod@dividend+3)^0,f,c
  3714   001250  1E11               	comf	(___almod@dividend+2)^0,f,c
  3715   001252  1E10               	comf	(___almod@dividend+1)^0,f,c
  3716   001254  6C0F               	negf	___almod@dividend^0,c
  3717   001256  0E00               	movlw	0
  3718   001258  2210               	addwfc	(___almod@dividend+1)^0,f,c
  3719   00125A  2211               	addwfc	(___almod@dividend+2)^0,f,c
  3720   00125C  2212               	addwfc	(___almod@dividend+3)^0,f,c
  3721   00125E                     l1933:
  3722   00125E  C00F  F00F         	movff	___almod@dividend,?___almod
  3723   001262  C010  F010         	movff	___almod@dividend+1,?___almod+1
  3724   001266  C011  F011         	movff	___almod@dividend+2,?___almod+2
  3725   00126A  C012  F012         	movff	___almod@dividend+3,?___almod+3
  3726   00126E  0012               	return		;funcret
  3727   001270                     __end_of___almod:
  3728                           	callstack 0
  3729                           
  3730 ;; *************** function ___aldiv *****************
  3731 ;; Defined at:
  3732 ;;		line 7 in file "C:\Program Files\Microchip\xc8\v3.00\pic\sources\c99\common\aldiv.c"
  3733 ;; Parameters:    Size  Location     Type
  3734 ;;  dividend        4   14[COMRAM] long 
  3735 ;;  divisor         4   18[COMRAM] long 
  3736 ;; Auto vars:     Size  Location     Type
  3737 ;;  quotient        4   24[COMRAM] long 
  3738 ;;  sign            1   23[COMRAM] unsigned char 
  3739 ;;  counter         1   22[COMRAM] unsigned char 
  3740 ;; Return value:  Size  Location     Type
  3741 ;;                  4   14[COMRAM] long 
  3742 ;; Registers used:
  3743 ;;		wreg, status,2, status,0
  3744 ;; Tracked objects:
  3745 ;;		On entry : 0/0
  3746 ;;		On exit  : 0/0
  3747 ;;		Unchanged: 0/0
  3748 ;; Data sizes:     COMRAM   BANK0   BANK1   BANK2   BANK3   BANK4   BANK5
  3749 ;;      Params:         8       0       0       0       0       0       0
  3750 ;;      Locals:         6       0       0       0       0       0       0
  3751 ;;      Temps:          0       0       0       0       0       0       0
  3752 ;;      Totals:        14       0       0       0       0       0       0
  3753 ;;Total ram usage:       14 bytes
  3754 ;; Hardware stack levels used: 1
  3755 ;; Hardware stack levels required when called: 4
  3756 ;; This function calls:
  3757 ;;		Nothing
  3758 ;; This function is called by:
  3759 ;;		_dtoa
  3760 ;; This function uses a non-reentrant model
  3761 ;;
  3762                           
  3763                           	psect	text16
  3764   00107C                     __ptext16:
  3765                           	callstack 0
  3766   00107C                     ___aldiv:
  3767                           	callstack 22
  3768   00107C  6A18               	clrf	___aldiv@sign^0,c
  3769   00107E  BE16               	btfsc	(___aldiv@divisor+3)^0,7,c
  3770   001080  EF46  F008         	goto	u1020
  3771   001084  EF44  F008         	goto	u1021
  3772   001088                     u1021:
  3773   001088  EF50  F008         	goto	l1865
  3774   00108C                     u1020:
  3775   00108C  1E16               	comf	(___aldiv@divisor+3)^0,f,c
  3776   00108E  1E15               	comf	(___aldiv@divisor+2)^0,f,c
  3777   001090  1E14               	comf	(___aldiv@divisor+1)^0,f,c
  3778   001092  6C13               	negf	___aldiv@divisor^0,c
  3779   001094  0E00               	movlw	0
  3780   001096  2214               	addwfc	(___aldiv@divisor+1)^0,f,c
  3781   001098  2215               	addwfc	(___aldiv@divisor+2)^0,f,c
  3782   00109A  2216               	addwfc	(___aldiv@divisor+3)^0,f,c
  3783   00109C  0E01               	movlw	1
  3784   00109E  6E18               	movwf	___aldiv@sign^0,c
  3785   0010A0                     l1865:
  3786   0010A0  BE12               	btfsc	(___aldiv@dividend+3)^0,7,c
  3787   0010A2  EF57  F008         	goto	u1030
  3788   0010A6  EF55  F008         	goto	u1031
  3789   0010AA                     u1031:
  3790   0010AA  EF61  F008         	goto	l1871
  3791   0010AE                     u1030:
  3792   0010AE  1E12               	comf	(___aldiv@dividend+3)^0,f,c
  3793   0010B0  1E11               	comf	(___aldiv@dividend+2)^0,f,c
  3794   0010B2  1E10               	comf	(___aldiv@dividend+1)^0,f,c
  3795   0010B4  6C0F               	negf	___aldiv@dividend^0,c
  3796   0010B6  0E00               	movlw	0
  3797   0010B8  2210               	addwfc	(___aldiv@dividend+1)^0,f,c
  3798   0010BA  2211               	addwfc	(___aldiv@dividend+2)^0,f,c
  3799   0010BC  2212               	addwfc	(___aldiv@dividend+3)^0,f,c
  3800   0010BE  0E01               	movlw	1
  3801   0010C0  1A18               	xorwf	___aldiv@sign^0,f,c
  3802   0010C2                     l1871:
  3803   0010C2  0E00               	movlw	0
  3804   0010C4  6E19               	movwf	___aldiv@quotient^0,c
  3805   0010C6  0E00               	movlw	0
  3806   0010C8  6E1A               	movwf	(___aldiv@quotient+1)^0,c
  3807   0010CA  0E00               	movlw	0
  3808   0010CC  6E1B               	movwf	(___aldiv@quotient+2)^0,c
  3809   0010CE  0E00               	movlw	0
  3810   0010D0  6E1C               	movwf	(___aldiv@quotient+3)^0,c
  3811   0010D2  5013               	movf	___aldiv@divisor^0,w,c
  3812   0010D4  1014               	iorwf	(___aldiv@divisor+1)^0,w,c
  3813   0010D6  1015               	iorwf	(___aldiv@divisor+2)^0,w,c
  3814   0010D8  1016               	iorwf	(___aldiv@divisor+3)^0,w,c
  3815   0010DA  B4D8               	btfsc	status,2,c
  3816   0010DC  EF72  F008         	goto	u1041
  3817   0010E0  EF74  F008         	goto	u1040
  3818   0010E4                     u1041:
  3819   0010E4  EFAA  F008         	goto	l1893
  3820   0010E8                     u1040:
  3821   0010E8  0E01               	movlw	1
  3822   0010EA  6E17               	movwf	___aldiv@counter^0,c
  3823   0010EC  EF7E  F008         	goto	l1879
  3824   0010F0                     l1877:
  3825   0010F0  90D8               	bcf	status,0,c
  3826   0010F2  3613               	rlcf	___aldiv@divisor^0,f,c
  3827   0010F4  3614               	rlcf	(___aldiv@divisor+1)^0,f,c
  3828   0010F6  3615               	rlcf	(___aldiv@divisor+2)^0,f,c
  3829   0010F8  3616               	rlcf	(___aldiv@divisor+3)^0,f,c
  3830   0010FA  2A17               	incf	___aldiv@counter^0,f,c
  3831   0010FC                     l1879:
  3832   0010FC  AE16               	btfss	(___aldiv@divisor+3)^0,7,c
  3833   0010FE  EF83  F008         	goto	u1051
  3834   001102  EF85  F008         	goto	u1050
  3835   001106                     u1051:
  3836   001106  EF78  F008         	goto	l1877
  3837   00110A                     u1050:
  3838   00110A                     l1881:
  3839   00110A  90D8               	bcf	status,0,c
  3840   00110C  3619               	rlcf	___aldiv@quotient^0,f,c
  3841   00110E  361A               	rlcf	(___aldiv@quotient+1)^0,f,c
  3842   001110  361B               	rlcf	(___aldiv@quotient+2)^0,f,c
  3843   001112  361C               	rlcf	(___aldiv@quotient+3)^0,f,c
  3844   001114  5013               	movf	___aldiv@divisor^0,w,c
  3845   001116  5C0F               	subwf	___aldiv@dividend^0,w,c
  3846   001118  5014               	movf	(___aldiv@divisor+1)^0,w,c
  3847   00111A  5810               	subwfb	(___aldiv@dividend+1)^0,w,c
  3848   00111C  5015               	movf	(___aldiv@divisor+2)^0,w,c
  3849   00111E  5811               	subwfb	(___aldiv@dividend+2)^0,w,c
  3850   001120  5016               	movf	(___aldiv@divisor+3)^0,w,c
  3851   001122  5812               	subwfb	(___aldiv@dividend+3)^0,w,c
  3852   001124  A0D8               	btfss	status,0,c
  3853   001126  EF97  F008         	goto	u1061
  3854   00112A  EF99  F008         	goto	u1060
  3855   00112E                     u1061:
  3856   00112E  EFA2  F008         	goto	l1889
  3857   001132                     u1060:
  3858   001132  5013               	movf	___aldiv@divisor^0,w,c
  3859   001134  5E0F               	subwf	___aldiv@dividend^0,f,c
  3860   001136  5014               	movf	(___aldiv@divisor+1)^0,w,c
  3861   001138  5A10               	subwfb	(___aldiv@dividend+1)^0,f,c
  3862   00113A  5015               	movf	(___aldiv@divisor+2)^0,w,c
  3863   00113C  5A11               	subwfb	(___aldiv@dividend+2)^0,f,c
  3864   00113E  5016               	movf	(___aldiv@divisor+3)^0,w,c
  3865   001140  5A12               	subwfb	(___aldiv@dividend+3)^0,f,c
  3866   001142  8019               	bsf	___aldiv@quotient^0,0,c
  3867   001144                     l1889:
  3868   001144  90D8               	bcf	status,0,c
  3869   001146  3216               	rrcf	(___aldiv@divisor+3)^0,f,c
  3870   001148  3215               	rrcf	(___aldiv@divisor+2)^0,f,c
  3871   00114A  3214               	rrcf	(___aldiv@divisor+1)^0,f,c
  3872   00114C  3213               	rrcf	___aldiv@divisor^0,f,c
  3873   00114E  2E17               	decfsz	___aldiv@counter^0,f,c
  3874   001150  EF85  F008         	goto	l1881
  3875   001154                     l1893:
  3876   001154  5018               	movf	___aldiv@sign^0,w,c
  3877   001156  B4D8               	btfsc	status,2,c
  3878   001158  EFB0  F008         	goto	u1071
  3879   00115C  EFB2  F008         	goto	u1070
  3880   001160                     u1071:
  3881   001160  EFBA  F008         	goto	l1897
  3882   001164                     u1070:
  3883   001164  1E1C               	comf	(___aldiv@quotient+3)^0,f,c
  3884   001166  1E1B               	comf	(___aldiv@quotient+2)^0,f,c
  3885   001168  1E1A               	comf	(___aldiv@quotient+1)^0,f,c
  3886   00116A  6C19               	negf	___aldiv@quotient^0,c
  3887   00116C  0E00               	movlw	0
  3888   00116E  221A               	addwfc	(___aldiv@quotient+1)^0,f,c
  3889   001170  221B               	addwfc	(___aldiv@quotient+2)^0,f,c
  3890   001172  221C               	addwfc	(___aldiv@quotient+3)^0,f,c
  3891   001174                     l1897:
  3892   001174  C019  F00F         	movff	___aldiv@quotient,?___aldiv
  3893   001178  C01A  F010         	movff	___aldiv@quotient+1,?___aldiv+1
  3894   00117C  C01B  F011         	movff	___aldiv@quotient+2,?___aldiv+2
  3895   001180  C01C  F012         	movff	___aldiv@quotient+3,?___aldiv+3
  3896   001184  0012               	return		;funcret
  3897   001186                     __end_of___aldiv:
  3898                           	callstack 0
  3899                           
  3900 ;; *************** function _i2c_write *****************
  3901 ;; Defined at:
  3902 ;;		line 259 in file "addadc.c"
  3903 ;; Parameters:    Size  Location     Type
  3904 ;;  i2c_data        1    wreg     unsigned char 
  3905 ;; Auto vars:     Size  Location     Type
  3906 ;;  i2c_data        1   15[COMRAM] unsigned char 
  3907 ;; Return value:  Size  Location     Type
  3908 ;;                  1    wreg      void 
  3909 ;; Registers used:
  3910 ;;		wreg, status,2, status,0, cstack
  3911 ;; Tracked objects:
  3912 ;;		On entry : 0/0
  3913 ;;		On exit  : 0/0
  3914 ;;		Unchanged: 0/0
  3915 ;; Data sizes:     COMRAM   BANK0   BANK1   BANK2   BANK3   BANK4   BANK5
  3916 ;;      Params:         0       0       0       0       0       0       0
  3917 ;;      Locals:         1       0       0       0       0       0       0
  3918 ;;      Temps:          0       0       0       0       0       0       0
  3919 ;;      Totals:         1       0       0       0       0       0       0
  3920 ;;Total ram usage:        1 bytes
  3921 ;; Hardware stack levels used: 1
  3922 ;; Hardware stack levels required when called: 5
  3923 ;; This function calls:
  3924 ;;		_i2c_is_idle
  3925 ;; This function is called by:
  3926 ;;		_main
  3927 ;; This function uses a non-reentrant model
  3928 ;;
  3929                           
  3930                           	psect	text17
  3931   0017A6                     __ptext17:
  3932                           	callstack 0
  3933   0017A6                     _i2c_write:
  3934                           	callstack 25
  3935                           
  3936                           ;incstack = 0
  3937                           ;i2c_write@i2c_data stored from wreg
  3938   0017A6  6E10               	movwf	i2c_write@i2c_data^0,c
  3939   0017A8                     
  3940                           ;addadc.c: 260:     i2c_is_idle();
  3941   0017A8  EC0F  F00C         	call	_i2c_is_idle	;wreg free
  3942   0017AC                     
  3943                           ;addadc.c: 261:     SSPBUF = i2c_data;
  3944   0017AC  C010  FFC9         	movff	i2c_write@i2c_data,4041	;volatile
  3945   0017B0                     l146:
  3946   0017B0  B0C7               	btfsc	199,0,c	;volatile
  3947   0017B2  EFDD  F00B         	goto	u711
  3948   0017B6  EFDF  F00B         	goto	u710
  3949   0017BA                     u711:
  3950   0017BA  EFD8  F00B         	goto	l146
  3951   0017BE                     u710:
  3952   0017BE                     l149:
  3953   0017BE  BCC5               	btfsc	197,6,c	;volatile
  3954   0017C0  EFE4  F00B         	goto	u721
  3955   0017C4  EFE6  F00B         	goto	u720
  3956   0017C8                     u721:
  3957   0017C8  EFDF  F00B         	goto	l149
  3958   0017CC                     u720:
  3959   0017CC  0012               	return		;funcret
  3960   0017CE                     __end_of_i2c_write:
  3961                           	callstack 0
  3962                           
  3963 ;; *************** function _i2c_stop *****************
  3964 ;; Defined at:
  3965 ;;		line 254 in file "addadc.c"
  3966 ;; Parameters:    Size  Location     Type
  3967 ;;		None
  3968 ;; Auto vars:     Size  Location     Type
  3969 ;;		None
  3970 ;; Return value:  Size  Location     Type
  3971 ;;                  1    wreg      void 
  3972 ;; Registers used:
  3973 ;;		wreg, status,2, status,0, cstack
  3974 ;; Tracked objects:
  3975 ;;		On entry : 0/0
  3976 ;;		On exit  : 0/0
  3977 ;;		Unchanged: 0/0
  3978 ;; Data sizes:     COMRAM   BANK0   BANK1   BANK2   BANK3   BANK4   BANK5
  3979 ;;      Params:         0       0       0       0       0       0       0
  3980 ;;      Locals:         0       0       0       0       0       0       0
  3981 ;;      Temps:          0       0       0       0       0       0       0
  3982 ;;      Totals:         0       0       0       0       0       0       0
  3983 ;;Total ram usage:        0 bytes
  3984 ;; Hardware stack levels used: 1
  3985 ;; Hardware stack levels required when called: 5
  3986 ;; This function calls:
  3987 ;;		_i2c_is_idle
  3988 ;; This function is called by:
  3989 ;;		_main
  3990 ;; This function uses a non-reentrant model
  3991 ;;
  3992                           
  3993                           	psect	text18
  3994   0018EC                     __ptext18:
  3995                           	callstack 0
  3996   0018EC                     _i2c_stop:
  3997                           	callstack 25
  3998   0018EC                     
  3999                           ;addadc.c: 255:     i2c_is_idle();
  4000   0018EC  EC0F  F00C         	call	_i2c_is_idle	;wreg free
  4001   0018F0                     
  4002                           ;addadc.c: 256:     SSPCON2bits.PEN = 1;
  4003   0018F0  84C5               	bsf	197,2,c	;volatile
  4004   0018F2  0012               	return		;funcret
  4005   0018F4                     __end_of_i2c_stop:
  4006                           	callstack 0
  4007                           
  4008 ;; *************** function _i2c_start *****************
  4009 ;; Defined at:
  4010 ;;		line 244 in file "addadc.c"
  4011 ;; Parameters:    Size  Location     Type
  4012 ;;		None
  4013 ;; Auto vars:     Size  Location     Type
  4014 ;;		None
  4015 ;; Return value:  Size  Location     Type
  4016 ;;                  1    wreg      void 
  4017 ;; Registers used:
  4018 ;;		wreg, status,2, status,0, cstack
  4019 ;; Tracked objects:
  4020 ;;		On entry : 0/0
  4021 ;;		On exit  : 0/0
  4022 ;;		Unchanged: 0/0
  4023 ;; Data sizes:     COMRAM   BANK0   BANK1   BANK2   BANK3   BANK4   BANK5
  4024 ;;      Params:         0       0       0       0       0       0       0
  4025 ;;      Locals:         0       0       0       0       0       0       0
  4026 ;;      Temps:          0       0       0       0       0       0       0
  4027 ;;      Totals:         0       0       0       0       0       0       0
  4028 ;;Total ram usage:        0 bytes
  4029 ;; Hardware stack levels used: 1
  4030 ;; Hardware stack levels required when called: 5
  4031 ;; This function calls:
  4032 ;;		_i2c_is_idle
  4033 ;; This function is called by:
  4034 ;;		_main
  4035 ;; This function uses a non-reentrant model
  4036 ;;
  4037                           
  4038                           	psect	text19
  4039   0018F4                     __ptext19:
  4040                           	callstack 0
  4041   0018F4                     _i2c_start:
  4042                           	callstack 25
  4043   0018F4                     
  4044                           ;addadc.c: 245:     i2c_is_idle();
  4045   0018F4  EC0F  F00C         	call	_i2c_is_idle	;wreg free
  4046   0018F8                     
  4047                           ;addadc.c: 246:     SSPCON2bits.SEN = 1;
  4048   0018F8  80C5               	bsf	197,0,c	;volatile
  4049   0018FA  0012               	return		;funcret
  4050   0018FC                     __end_of_i2c_start:
  4051                           	callstack 0
  4052                           
  4053 ;; *************** function _i2c_rep_start *****************
  4054 ;; Defined at:
  4055 ;;		line 249 in file "addadc.c"
  4056 ;; Parameters:    Size  Location     Type
  4057 ;;		None
  4058 ;; Auto vars:     Size  Location     Type
  4059 ;;		None
  4060 ;; Return value:  Size  Location     Type
  4061 ;;                  1    wreg      void 
  4062 ;; Registers used:
  4063 ;;		wreg, status,2, status,0, cstack
  4064 ;; Tracked objects:
  4065 ;;		On entry : 0/0
  4066 ;;		On exit  : 0/0
  4067 ;;		Unchanged: 0/0
  4068 ;; Data sizes:     COMRAM   BANK0   BANK1   BANK2   BANK3   BANK4   BANK5
  4069 ;;      Params:         0       0       0       0       0       0       0
  4070 ;;      Locals:         0       0       0       0       0       0       0
  4071 ;;      Temps:          0       0       0       0       0       0       0
  4072 ;;      Totals:         0       0       0       0       0       0       0
  4073 ;;Total ram usage:        0 bytes
  4074 ;; Hardware stack levels used: 1
  4075 ;; Hardware stack levels required when called: 5
  4076 ;; This function calls:
  4077 ;;		_i2c_is_idle
  4078 ;; This function is called by:
  4079 ;;		_main
  4080 ;; This function uses a non-reentrant model
  4081 ;;
  4082                           
  4083                           	psect	text20
  4084   0018FC                     __ptext20:
  4085                           	callstack 0
  4086   0018FC                     _i2c_rep_start:
  4087                           	callstack 25
  4088   0018FC                     
  4089                           ;addadc.c: 250:     i2c_is_idle();
  4090   0018FC  EC0F  F00C         	call	_i2c_is_idle	;wreg free
  4091   001900                     
  4092                           ;addadc.c: 251:     SSPCON2bits.RSEN = 1;
  4093   001900  82C5               	bsf	197,1,c	;volatile
  4094   001902  0012               	return		;funcret
  4095   001904                     __end_of_i2c_rep_start:
  4096                           	callstack 0
  4097                           
  4098 ;; *************** function _i2c_read *****************
  4099 ;; Defined at:
  4100 ;;		line 266 in file "addadc.c"
  4101 ;; Parameters:    Size  Location     Type
  4102 ;;  ack             1    wreg     unsigned char 
  4103 ;; Auto vars:     Size  Location     Type
  4104 ;;  ack             1   15[COMRAM] unsigned char 
  4105 ;;  recieve         1   16[COMRAM] unsigned char 
  4106 ;; Return value:  Size  Location     Type
  4107 ;;                  1    wreg      unsigned char 
  4108 ;; Registers used:
  4109 ;;		wreg, status,2, status,0, cstack
  4110 ;; Tracked objects:
  4111 ;;		On entry : 0/0
  4112 ;;		On exit  : 0/0
  4113 ;;		Unchanged: 0/0
  4114 ;; Data sizes:     COMRAM   BANK0   BANK1   BANK2   BANK3   BANK4   BANK5
  4115 ;;      Params:         0       0       0       0       0       0       0
  4116 ;;      Locals:         2       0       0       0       0       0       0
  4117 ;;      Temps:          0       0       0       0       0       0       0
  4118 ;;      Totals:         2       0       0       0       0       0       0
  4119 ;;Total ram usage:        2 bytes
  4120 ;; Hardware stack levels used: 1
  4121 ;; Hardware stack levels required when called: 5
  4122 ;; This function calls:
  4123 ;;		_i2c_is_idle
  4124 ;; This function is called by:
  4125 ;;		_main
  4126 ;; This function uses a non-reentrant model
  4127 ;;
  4128                           
  4129                           	psect	text21
  4130   0017CE                     __ptext21:
  4131                           	callstack 0
  4132   0017CE                     _i2c_read:
  4133                           	callstack 25
  4134                           
  4135                           ;incstack = 0
  4136                           ;i2c_read@ack stored from wreg
  4137   0017CE  6E10               	movwf	i2c_read@ack^0,c
  4138   0017D0                     
  4139                           ;addadc.c: 268:     i2c_is_idle();
  4140   0017D0  EC0F  F00C         	call	_i2c_is_idle	;wreg free
  4141   0017D4                     
  4142                           ;addadc.c: 269:     SSPCON2bits.RCEN = 1;
  4143   0017D4  86C5               	bsf	197,3,c	;volatile
  4144   0017D6                     l155:
  4145   0017D6  A0C7               	btfss	199,0,c	;volatile
  4146   0017D8  EFF0  F00B         	goto	u731
  4147   0017DC  EFF2  F00B         	goto	u730
  4148   0017E0                     u731:
  4149   0017E0  EFEB  F00B         	goto	l155
  4150   0017E4                     u730:
  4151   0017E4                     
  4152                           ;addadc.c: 271:     recieve = SSPBUF;
  4153   0017E4  CFC9 F011          	movff	4041,i2c_read@recieve	;volatile
  4154                           
  4155                           ;addadc.c: 272:     SSPCON2bits.ACKEN = ack;
  4156   0017E8  B010               	btfsc	i2c_read@ack^0,0,c
  4157   0017EA  D002               	bra	u745
  4158   0017EC  98C5               	bcf	197,4,c	;volatile
  4159   0017EE  D001               	bra	u746
  4160   0017F0                     u745:
  4161   0017F0  88C5               	bsf	197,4,c	;volatile
  4162   0017F2                     u746:
  4163   0017F2                     
  4164                           ;addadc.c: 273:     return recieve;
  4165   0017F2  5011               	movf	i2c_read@recieve^0,w,c
  4166   0017F4  0012               	return		;funcret
  4167   0017F6                     __end_of_i2c_read:
  4168                           	callstack 0
  4169                           
  4170 ;; *************** function _i2c_is_idle *****************
  4171 ;; Defined at:
  4172 ;;		line 239 in file "addadc.c"
  4173 ;; Parameters:    Size  Location     Type
  4174 ;;		None
  4175 ;; Auto vars:     Size  Location     Type
  4176 ;;		None
  4177 ;; Return value:  Size  Location     Type
  4178 ;;                  1    wreg      void 
  4179 ;; Registers used:
  4180 ;;		wreg, status,2, status,0
  4181 ;; Tracked objects:
  4182 ;;		On entry : 0/0
  4183 ;;		On exit  : 0/0
  4184 ;;		Unchanged: 0/0
  4185 ;; Data sizes:     COMRAM   BANK0   BANK1   BANK2   BANK3   BANK4   BANK5
  4186 ;;      Params:         0       0       0       0       0       0       0
  4187 ;;      Locals:         0       0       0       0       0       0       0
  4188 ;;      Temps:          1       0       0       0       0       0       0
  4189 ;;      Totals:         1       0       0       0       0       0       0
  4190 ;;Total ram usage:        1 bytes
  4191 ;; Hardware stack levels used: 1
  4192 ;; Hardware stack levels required when called: 4
  4193 ;; This function calls:
  4194 ;;		Nothing
  4195 ;; This function is called by:
  4196 ;;		_i2c_start
  4197 ;;		_i2c_rep_start
  4198 ;;		_i2c_stop
  4199 ;;		_i2c_write
  4200 ;;		_i2c_read
  4201 ;; This function uses a non-reentrant model
  4202 ;;
  4203                           
  4204                           	psect	text22
  4205   00181E                     __ptext22:
  4206                           	callstack 0
  4207   00181E                     _i2c_is_idle:
  4208                           	callstack 25
  4209   00181E                     l1481:
  4210   00181E  CFC5 F00F          	movff	4037,??_i2c_is_idle	;volatile
  4211   001822  0E1F               	movlw	31
  4212   001824  160F               	andwf	??_i2c_is_idle^0,f,c
  4213   001826  A4D8               	btfss	status,2,c
  4214   001828  EF18  F00C         	goto	u651
  4215   00182C  EF1A  F00C         	goto	u650
  4216   001830                     u651:
  4217   001830  EF0F  F00C         	goto	l1481
  4218   001834                     u650:
  4219   001834  B4C7               	btfsc	199,2,c	;volatile
  4220   001836  EF1F  F00C         	goto	u661
  4221   00183A  EF21  F00C         	goto	u660
  4222   00183E                     u661:
  4223   00183E  EF0F  F00C         	goto	l1481
  4224   001842                     u660:
  4225   001842  0012               	return		;funcret
  4226   001844                     __end_of_i2c_is_idle:
  4227                           	callstack 0
  4228                           
  4229 ;; *************** function _Initialize *****************
  4230 ;; Defined at:
  4231 ;;		line 176 in file "addadc.c"
  4232 ;; Parameters:    Size  Location     Type
  4233 ;;		None
  4234 ;; Auto vars:     Size  Location     Type
  4235 ;;		None
  4236 ;; Return value:  Size  Location     Type
  4237 ;;                  1    wreg      void 
  4238 ;; Registers used:
  4239 ;;		wreg, status,2, status,0, cstack
  4240 ;; Tracked objects:
  4241 ;;		On entry : 0/0
  4242 ;;		On exit  : 0/0
  4243 ;;		Unchanged: 0/0
  4244 ;; Data sizes:     COMRAM   BANK0   BANK1   BANK2   BANK3   BANK4   BANK5
  4245 ;;      Params:         0       0       0       0       0       0       0
  4246 ;;      Locals:         0       0       0       0       0       0       0
  4247 ;;      Temps:          0       0       0       0       0       0       0
  4248 ;;      Totals:         0       0       0       0       0       0       0
  4249 ;;Total ram usage:        0 bytes
  4250 ;; Hardware stack levels used: 1
  4251 ;; Hardware stack levels required when called: 5
  4252 ;; This function calls:
  4253 ;;		_ADC_Initialize
  4254 ;;		_Button_Initialize
  4255 ;;		_I2C_Initialize
  4256 ;;		_UART_Initialize
  4257 ;; This function is called by:
  4258 ;;		_main
  4259 ;; This function uses a non-reentrant model
  4260 ;;
  4261                           
  4262                           	psect	text23
  4263   0017F6                     __ptext23:
  4264                           	callstack 0
  4265   0017F6                     _Initialize:
  4266                           	callstack 25
  4267   0017F6                     
  4268                           ;addadc.c: 177:         OSCCONbits.IRCF = 0b111;
  4269   0017F6  0E70               	movlw	112
  4270   0017F8  12D3               	iorwf	211,f,c	;volatile
  4271                           
  4272                           ;addadc.c: 178:         ADCON1bits.PCFG = 0b1110;
  4273   0017FA  50C1               	movf	193,w,c	;volatile
  4274   0017FC  0BF0               	andlw	-16
  4275   0017FE  090E               	iorlw	14
  4276   001800  6EC1               	movwf	193,c	;volatile
  4277   001802                     
  4278                           ;addadc.c: 180:         ADC_Initialize();
  4279   001802  EC22  F00C         	call	_ADC_Initialize	;wreg free
  4280   001806                     
  4281                           ;addadc.c: 181:         Button_Initialize();
  4282   001806  EC82  F00C         	call	_Button_Initialize	;wreg free
  4283   00180A                     
  4284                           ;addadc.c: 182:         UART_Initialize();
  4285   00180A  EC47  F00C         	call	_UART_Initialize	;wreg free
  4286   00180E                     
  4287                           ;addadc.c: 183:         I2C_Initialize();
  4288   00180E  EC65  F00C         	call	_I2C_Initialize	;wreg free
  4289   001812                     
  4290                           ;addadc.c: 186:         INTCONbits.PEIE = 1;
  4291   001812  8CF2               	bsf	242,6,c	;volatile
  4292   001814                     
  4293                           ;addadc.c: 187:         RCONbits.IPEN = 1;
  4294   001814  8ED0               	bsf	208,7,c	;volatile
  4295   001816                     
  4296                           ;addadc.c: 188:         INTCONbits.GIEH = 1;
  4297   001816  8EF2               	bsf	242,7,c	;volatile
  4298   001818                     
  4299                           ;addadc.c: 189:         INTCONbits.GIEL = 1;
  4300   001818  8CF2               	bsf	242,6,c	;volatile
  4301   00181A                     
  4302                           ;addadc.c: 190:         INTCONbits.GIE = 1;
  4303   00181A  8EF2               	bsf	242,7,c	;volatile
  4304   00181C  0012               	return		;funcret
  4305   00181E                     __end_of_Initialize:
  4306                           	callstack 0
  4307                           
  4308 ;; *************** function _UART_Initialize *****************
  4309 ;; Defined at:
  4310 ;;		line 122 in file "addadc.c"
  4311 ;; Parameters:    Size  Location     Type
  4312 ;;		None
  4313 ;; Auto vars:     Size  Location     Type
  4314 ;;		None
  4315 ;; Return value:  Size  Location     Type
  4316 ;;                  1    wreg      void 
  4317 ;; Registers used:
  4318 ;;		wreg, status,2
  4319 ;; Tracked objects:
  4320 ;;		On entry : 0/0
  4321 ;;		On exit  : 0/0
  4322 ;;		Unchanged: 0/0
  4323 ;; Data sizes:     COMRAM   BANK0   BANK1   BANK2   BANK3   BANK4   BANK5
  4324 ;;      Params:         0       0       0       0       0       0       0
  4325 ;;      Locals:         0       0       0       0       0       0       0
  4326 ;;      Temps:          0       0       0       0       0       0       0
  4327 ;;      Totals:         0       0       0       0       0       0       0
  4328 ;;Total ram usage:        0 bytes
  4329 ;; Hardware stack levels used: 1
  4330 ;; Hardware stack levels required when called: 4
  4331 ;; This function calls:
  4332 ;;		Nothing
  4333 ;; This function is called by:
  4334 ;;		_Initialize
  4335 ;; This function uses a non-reentrant model
  4336 ;;
  4337                           
  4338                           	psect	text24
  4339   00188E                     __ptext24:
  4340                           	callstack 0
  4341   00188E                     _UART_Initialize:
  4342                           	callstack 25
  4343   00188E                     
  4344                           ;addadc.c: 133:         TRISCbits.TRISC6 = 1;
  4345   00188E  8C94               	bsf	148,6,c	;volatile
  4346                           
  4347                           ;addadc.c: 134:         TRISCbits.TRISC7 = 1;
  4348   001890  8E94               	bsf	148,7,c	;volatile
  4349                           
  4350                           ;addadc.c: 138:         TXSTAbits.SYNC = 0;
  4351   001892  98AC               	bcf	172,4,c	;volatile
  4352                           
  4353                           ;addadc.c: 139:         BAUDCONbits.BRG16 = 0;
  4354   001894  96B8               	bcf	184,3,c	;volatile
  4355                           
  4356                           ;addadc.c: 140:         TXSTAbits.BRGH = 1;
  4357   001896  84AC               	bsf	172,2,c	;volatile
  4358   001898                     
  4359                           ;addadc.c: 141:         SPBRG = 51;
  4360   001898  0E33               	movlw	51
  4361   00189A  6EAF               	movwf	175,c	;volatile
  4362   00189C                     
  4363                           ;addadc.c: 145:         RCSTAbits.SPEN = 1;
  4364   00189C  8EAB               	bsf	171,7,c	;volatile
  4365   00189E                     
  4366                           ;addadc.c: 146:         PIR1bits.TXIF = 0;
  4367   00189E  989E               	bcf	158,4,c	;volatile
  4368   0018A0                     
  4369                           ;addadc.c: 147:         PIR1bits.RCIF = 0;
  4370   0018A0  9A9E               	bcf	158,5,c	;volatile
  4371   0018A2                     
  4372                           ;addadc.c: 148:         TXSTAbits.TXEN = 1;
  4373   0018A2  8AAC               	bsf	172,5,c	;volatile
  4374   0018A4                     
  4375                           ;addadc.c: 149:         RCSTAbits.CREN = 1;
  4376   0018A4  88AB               	bsf	171,4,c	;volatile
  4377   0018A6                     
  4378                           ;addadc.c: 150:         PIE1bits.TXIE = 0;
  4379   0018A6  989D               	bcf	157,4,c	;volatile
  4380   0018A8                     
  4381                           ;addadc.c: 151:         IPR1bits.TXIP = 0;
  4382   0018A8  989F               	bcf	159,4,c	;volatile
  4383   0018AA                     
  4384                           ;addadc.c: 152:         PIE1bits.RCIE = 1;
  4385   0018AA  8A9D               	bsf	157,5,c	;volatile
  4386   0018AC                     
  4387                           ;addadc.c: 153:         IPR1bits.RCIP = 1;
  4388   0018AC  8A9F               	bsf	159,5,c	;volatile
  4389   0018AE  0012               	return		;funcret
  4390   0018B0                     __end_of_UART_Initialize:
  4391                           	callstack 0
  4392                           
  4393 ;; *************** function _I2C_Initialize *****************
  4394 ;; Defined at:
  4395 ;;		line 166 in file "addadc.c"
  4396 ;; Parameters:    Size  Location     Type
  4397 ;;		None
  4398 ;; Auto vars:     Size  Location     Type
  4399 ;;		None
  4400 ;; Return value:  Size  Location     Type
  4401 ;;                  1    wreg      void 
  4402 ;; Registers used:
  4403 ;;		wreg, status,2
  4404 ;; Tracked objects:
  4405 ;;		On entry : 0/0
  4406 ;;		On exit  : 0/0
  4407 ;;		Unchanged: 0/0
  4408 ;; Data sizes:     COMRAM   BANK0   BANK1   BANK2   BANK3   BANK4   BANK5
  4409 ;;      Params:         0       0       0       0       0       0       0
  4410 ;;      Locals:         0       0       0       0       0       0       0
  4411 ;;      Temps:          0       0       0       0       0       0       0
  4412 ;;      Totals:         0       0       0       0       0       0       0
  4413 ;;Total ram usage:        0 bytes
  4414 ;; Hardware stack levels used: 1
  4415 ;; Hardware stack levels required when called: 4
  4416 ;; This function calls:
  4417 ;;		Nothing
  4418 ;; This function is called by:
  4419 ;;		_Initialize
  4420 ;; This function uses a non-reentrant model
  4421 ;;
  4422                           
  4423                           	psect	text25
  4424   0018CA                     __ptext25:
  4425                           	callstack 0
  4426   0018CA                     _I2C_Initialize:
  4427                           	callstack 25
  4428   0018CA                     
  4429                           ;addadc.c: 167:         TRISCbits.RC3 = 1;
  4430   0018CA  8694               	bsf	148,3,c	;volatile
  4431                           
  4432                           ;addadc.c: 168:         TRISCbits.RC4 = 1;
  4433   0018CC  8894               	bsf	148,4,c	;volatile
  4434                           
  4435                           ;addadc.c: 169:         SSPSTATbits.SMP = 1;
  4436   0018CE  8EC7               	bsf	199,7,c	;volatile
  4437                           
  4438                           ;addadc.c: 170:         SSPSTATbits.CKE = 1;
  4439   0018D0  8CC7               	bsf	199,6,c	;volatile
  4440   0018D2                     
  4441                           ;addadc.c: 171:         SSPCON1bits.SSPM = 8;
  4442   0018D2  50C6               	movf	198,w,c	;volatile
  4443   0018D4  0BF0               	andlw	-16
  4444   0018D6  0908               	iorlw	8
  4445   0018D8  6EC6               	movwf	198,c	;volatile
  4446                           
  4447                           ;addadc.c: 172:         SSPADD = 19;
  4448   0018DA  0E13               	movlw	19
  4449   0018DC  6EC8               	movwf	200,c	;volatile
  4450   0018DE                     
  4451                           ;addadc.c: 173:         SSPCON1bits.SSPEN = 1;
  4452   0018DE  8AC6               	bsf	198,5,c	;volatile
  4453   0018E0  0012               	return		;funcret
  4454   0018E2                     __end_of_I2C_Initialize:
  4455                           	callstack 0
  4456                           
  4457 ;; *************** function _Button_Initialize *****************
  4458 ;; Defined at:
  4459 ;;		line 114 in file "addadc.c"
  4460 ;; Parameters:    Size  Location     Type
  4461 ;;		None
  4462 ;; Auto vars:     Size  Location     Type
  4463 ;;		None
  4464 ;; Return value:  Size  Location     Type
  4465 ;;                  1    wreg      void 
  4466 ;; Registers used:
  4467 ;;		status,2, status,0
  4468 ;; Tracked objects:
  4469 ;;		On entry : 0/0
  4470 ;;		On exit  : 0/0
  4471 ;;		Unchanged: 0/0
  4472 ;; Data sizes:     COMRAM   BANK0   BANK1   BANK2   BANK3   BANK4   BANK5
  4473 ;;      Params:         0       0       0       0       0       0       0
  4474 ;;      Locals:         0       0       0       0       0       0       0
  4475 ;;      Temps:          0       0       0       0       0       0       0
  4476 ;;      Totals:         0       0       0       0       0       0       0
  4477 ;;Total ram usage:        0 bytes
  4478 ;; Hardware stack levels used: 1
  4479 ;; Hardware stack levels required when called: 4
  4480 ;; This function calls:
  4481 ;;		Nothing
  4482 ;; This function is called by:
  4483 ;;		_Initialize
  4484 ;; This function uses a non-reentrant model
  4485 ;;
  4486                           
  4487                           	psect	text26
  4488   001904                     __ptext26:
  4489                           	callstack 0
  4490   001904                     _Button_Initialize:
  4491                           	callstack 25
  4492   001904                     
  4493                           ;addadc.c: 115:         INTCONbits.INT0IF = 0;
  4494   001904  92F2               	bcf	242,1,c	;volatile
  4495                           
  4496                           ;addadc.c: 116:         INTCONbits.INT0IE = 1;
  4497   001906  88F2               	bsf	242,4,c	;volatile
  4498   001908                     
  4499                           ;addadc.c: 118:         TRISB |= 0x01;
  4500   001908  8093               	bsf	147,0,c	;volatile
  4501   00190A  0012               	return		;funcret
  4502   00190C                     __end_of_Button_Initialize:
  4503                           	callstack 0
  4504                           
  4505 ;; *************** function _ADC_Initialize *****************
  4506 ;; Defined at:
  4507 ;;		line 98 in file "addadc.c"
  4508 ;; Parameters:    Size  Location     Type
  4509 ;;		None
  4510 ;; Auto vars:     Size  Location     Type
  4511 ;;		None
  4512 ;; Return value:  Size  Location     Type
  4513 ;;                  1    wreg      void 
  4514 ;; Registers used:
  4515 ;;		wreg, status,2
  4516 ;; Tracked objects:
  4517 ;;		On entry : 0/0
  4518 ;;		On exit  : 0/0
  4519 ;;		Unchanged: 0/0
  4520 ;; Data sizes:     COMRAM   BANK0   BANK1   BANK2   BANK3   BANK4   BANK5
  4521 ;;      Params:         0       0       0       0       0       0       0
  4522 ;;      Locals:         0       0       0       0       0       0       0
  4523 ;;      Temps:          0       0       0       0       0       0       0
  4524 ;;      Totals:         0       0       0       0       0       0       0
  4525 ;;Total ram usage:        0 bytes
  4526 ;; Hardware stack levels used: 1
  4527 ;; Hardware stack levels required when called: 4
  4528 ;; This function calls:
  4529 ;;		Nothing
  4530 ;; This function is called by:
  4531 ;;		_Initialize
  4532 ;; This function uses a non-reentrant model
  4533 ;;
  4534                           
  4535                           	psect	text27
  4536   001844                     __ptext27:
  4537                           	callstack 0
  4538   001844                     _ADC_Initialize:
  4539                           	callstack 25
  4540   001844                     
  4541                           ;addadc.c: 100:         TRISAbits.RA0 = 1;
  4542   001844  8092               	bsf	146,0,c	;volatile
  4543   001846                     
  4544                           ;addadc.c: 101:         ADCON0bits.CHS = 0b0000;
  4545   001846  0EC3               	movlw	-61
  4546   001848  16C2               	andwf	194,f,c	;volatile
  4547   00184A                     
  4548                           ;addadc.c: 102:         ADCON1bits.VCFG0 = 0;
  4549   00184A  98C1               	bcf	193,4,c	;volatile
  4550   00184C                     
  4551                           ;addadc.c: 103:         ADCON1bits.VCFG1 = 0;
  4552   00184C  9AC1               	bcf	193,5,c	;volatile
  4553                           
  4554                           ;addadc.c: 104:         ADCON2bits.ADCS = 0b101;
  4555   00184E  50C0               	movf	192,w,c	;volatile
  4556   001850  0BF8               	andlw	-8
  4557   001852  0905               	iorlw	5
  4558   001854  6EC0               	movwf	192,c	;volatile
  4559                           
  4560                           ;addadc.c: 105:         ADCON2bits.ACQT = 0b001;
  4561   001856  50C0               	movf	192,w,c	;volatile
  4562   001858  0BC7               	andlw	-57
  4563   00185A  0908               	iorlw	8
  4564   00185C  6EC0               	movwf	192,c	;volatile
  4565   00185E                     
  4566                           ;addadc.c: 106:         ADCON0bits.ADON = 1;
  4567   00185E  80C2               	bsf	194,0,c	;volatile
  4568   001860                     
  4569                           ;addadc.c: 107:         ADCON2bits.ADFM = 1;
  4570   001860  8EC0               	bsf	192,7,c	;volatile
  4571   001862                     
  4572                           ;addadc.c: 108:         PIR1bits.ADIF = 0;
  4573   001862  9C9E               	bcf	158,6,c	;volatile
  4574   001864                     
  4575                           ;addadc.c: 109:         IPR1bits.ADIP = 0;
  4576   001864  9C9F               	bcf	159,6,c	;volatile
  4577   001866                     
  4578                           ;addadc.c: 110:         PIE1bits.ADIE = 1;
  4579   001866  8C9D               	bsf	157,6,c	;volatile
  4580   001868  0012               	return		;funcret
  4581   00186A                     __end_of_ADC_Initialize:
  4582                           	callstack 0
  4583                           
  4584 ;; *************** function _Lo_ISR *****************
  4585 ;; Defined at:
  4586 ;;		line 314 in file "addadc.c"
  4587 ;; Parameters:    Size  Location     Type
  4588 ;;		None
  4589 ;; Auto vars:     Size  Location     Type
  4590 ;;  value           2   12[COMRAM] int 
  4591 ;; Return value:  Size  Location     Type
  4592 ;;                  1    wreg      void 
  4593 ;; Registers used:
  4594 ;;		wreg, status,2, status,0, cstack
  4595 ;; Tracked objects:
  4596 ;;		On entry : 0/0
  4597 ;;		On exit  : 0/0
  4598 ;;		Unchanged: 0/0
  4599 ;; Data sizes:     COMRAM   BANK0   BANK1   BANK2   BANK3   BANK4   BANK5
  4600 ;;      Params:         0       0       0       0       0       0       0
  4601 ;;      Locals:         2       0       0       0       0       0       0
  4602 ;;      Temps:          5       0       0       0       0       0       0
  4603 ;;      Totals:         7       0       0       0       0       0       0
  4604 ;;Total ram usage:        7 bytes
  4605 ;; Hardware stack levels used: 1
  4606 ;; Hardware stack levels required when called: 3
  4607 ;; This function calls:
  4608 ;;		_variable_register_changed
  4609 ;; This function is called by:
  4610 ;;		Interrupt level 1
  4611 ;; This function uses a non-reentrant model
  4612 ;;
  4613                           
  4614                           	psect	intcodelo
  4615   000018                     __pintcodelo:
  4616                           	callstack 0
  4617   000018                     _Lo_ISR:
  4618                           	callstack 19
  4619                           
  4620                           ;incstack = 0
  4621   000018  806E               	bsf	int$flags,0,c	;set compiler interrupt flag (level 1)
  4622   00001A  CFD8 F00A          	movff	status,??_Lo_ISR+2
  4623   00001E  CFE8 F00B          	movff	wreg,??_Lo_ISR+3
  4624   000022  CFE0 F00C          	movff	bsr,??_Lo_ISR+4
  4625   000026                     
  4626                           ;addadc.c: 315:         if (PIR1bits.ADIF) {
  4627   000026  AC9E               	btfss	158,6,c	;volatile
  4628   000028  EF18  F000         	goto	i1u163_21
  4629   00002C  EF1A  F000         	goto	i1u163_20
  4630   000030                     i1u163_21:
  4631   000030  EF31  F000         	goto	i1l180
  4632   000034                     i1u163_20:
  4633   000034                     
  4634                           ;addadc.c: 316:             int value = (ADRESH << 8) + ADRESL;
  4635   000034  50C4               	movf	196,w,c	;volatile
  4636   000036  6E09               	movwf	(??_Lo_ISR+1)^0,c
  4637   000038  6A08               	clrf	??_Lo_ISR^0,c
  4638   00003A  50C3               	movf	195,w,c	;volatile
  4639   00003C  2408               	addwf	??_Lo_ISR^0,w,c
  4640   00003E  6E0D               	movwf	Lo_ISR@value^0,c
  4641   000040  0E00               	movlw	0
  4642   000042  2009               	addwfc	(??_Lo_ISR+1)^0,w,c
  4643   000044  6E0E               	movwf	(Lo_ISR@value+1)^0,c
  4644   000046                     
  4645                           ;addadc.c: 317:             variable_register_changed(value);
  4646   000046  C00D  F006         	movff	Lo_ISR@value,variable_register_changed@value
  4647   00004A  C00E  F007         	movff	Lo_ISR@value+1,variable_register_changed@value+1
  4648   00004E  EC71  F00C         	call	_variable_register_changed	;wreg free
  4649   000052                     
  4650                           ;addadc.c: 318:             PIR1bits.ADIF = 0;
  4651   000052  9C9E               	bcf	158,6,c	;volatile
  4652   000054                     
  4653                           ;addadc.c: 319:             _delay((unsigned long)((5)*(8000000/4000.0)));
  4654   000054  0E0D               	movlw	13
  4655   000056  6E08               	movwf	??_Lo_ISR^0,c
  4656   000058  0EFC               	movlw	252
  4657   00005A                     i1u170_27:
  4658   00005A  2EE8               	decfsz	wreg,f,c
  4659   00005C  D7FE               	bra	i1u170_27
  4660   00005E  2E08               	decfsz	??_Lo_ISR^0,f,c
  4661   000060  D7FC               	bra	i1u170_27
  4662   000062                     i1l180:
  4663   000062  C00C  FFE0         	movff	??_Lo_ISR+4,bsr
  4664   000066  C00B  FFE8         	movff	??_Lo_ISR+3,wreg
  4665   00006A  C00A  FFD8         	movff	??_Lo_ISR+2,status
  4666   00006E  906E               	bcf	int$flags,0,c	;clear compiler interrupt flag (level 1)
  4667   000070  0010               	retfie	
  4668   000072                     __end_of_Lo_ISR:
  4669                           	callstack 0
  4670                           
  4671 ;; *************** function _variable_register_changed *****************
  4672 ;; Defined at:
  4673 ;;		line 338 in file "addadc.c"
  4674 ;; Parameters:    Size  Location     Type
  4675 ;;  value           2    5[COMRAM] int 
  4676 ;; Auto vars:     Size  Location     Type
  4677 ;;		None
  4678 ;; Return value:  Size  Location     Type
  4679 ;;                  1    wreg      void 
  4680 ;; Registers used:
  4681 ;;		None
  4682 ;; Tracked objects:
  4683 ;;		On entry : 0/0
  4684 ;;		On exit  : 0/0
  4685 ;;		Unchanged: 0/0
  4686 ;; Data sizes:     COMRAM   BANK0   BANK1   BANK2   BANK3   BANK4   BANK5
  4687 ;;      Params:         2       0       0       0       0       0       0
  4688 ;;      Locals:         0       0       0       0       0       0       0
  4689 ;;      Temps:          0       0       0       0       0       0       0
  4690 ;;      Totals:         2       0       0       0       0       0       0
  4691 ;;Total ram usage:        2 bytes
  4692 ;; Hardware stack levels used: 1
  4693 ;; Hardware stack levels required when called: 2
  4694 ;; This function calls:
  4695 ;;		Nothing
  4696 ;; This function is called by:
  4697 ;;		_Lo_ISR
  4698 ;; This function uses a non-reentrant model
  4699 ;;
  4700                           
  4701                           	psect	text29
  4702   0018E2                     __ptext29:
  4703                           	callstack 0
  4704   0018E2                     _variable_register_changed:
  4705                           	callstack 19
  4706   0018E2                     
  4707                           ;addadc.c: 347:         alcohol = value;
  4708   0018E2  C006  F068         	movff	variable_register_changed@value,_alcohol
  4709   0018E6  C007  F069         	movff	variable_register_changed@value+1,_alcohol+1
  4710   0018EA  0012               	return		;funcret
  4711   0018EC                     __end_of_variable_register_changed:
  4712                           	callstack 0
  4713                           
  4714 ;; *************** function _H_ISR *****************
  4715 ;; Defined at:
  4716 ;;		line 288 in file "addadc.c"
  4717 ;; Parameters:    Size  Location     Type
  4718 ;;		None
  4719 ;; Auto vars:     Size  Location     Type
  4720 ;;		None
  4721 ;; Return value:  Size  Location     Type
  4722 ;;                  1    wreg      void 
  4723 ;; Registers used:
  4724 ;;		wreg, fsr2l, fsr2h, status,2, status,0, cstack
  4725 ;; Tracked objects:
  4726 ;;		On entry : 0/0
  4727 ;;		On exit  : 0/0
  4728 ;;		Unchanged: 0/0
  4729 ;; Data sizes:     COMRAM   BANK0   BANK1   BANK2   BANK3   BANK4   BANK5
  4730 ;;      Params:         0       0       0       0       0       0       0
  4731 ;;      Locals:         0       0       0       0       0       0       0
  4732 ;;      Temps:          3       0       0       0       0       0       0
  4733 ;;      Totals:         3       0       0       0       0       0       0
  4734 ;;Total ram usage:        3 bytes
  4735 ;; Hardware stack levels used: 1
  4736 ;; Hardware stack levels required when called: 1
  4737 ;; This function calls:
  4738 ;;		_MyusartRead
  4739 ;;		_button_pressed
  4740 ;; This function is called by:
  4741 ;;		Interrupt level 2
  4742 ;; This function uses a non-reentrant model
  4743 ;;
  4744                           
  4745                           	psect	intcode
  4746   000008                     __pintcode:
  4747                           	callstack 0
  4748   000008                     _H_ISR:
  4749                           	callstack 19
  4750                           
  4751                           ;incstack = 0
  4752   000008  826E               	bsf	int$flags,1,c	;set compiler interrupt flag (level 2)
  4753   00000A  EDD0  F00A         	call	int_func,f	;refresh shadow registers
  4754                           
  4755                           	psect	intcode_body
  4756   0015A0                     __pintcode_body:
  4757                           	callstack 19
  4758   0015A0                     int_func:
  4759                           	callstack 19
  4760   0015A0  0006               	pop		; remove dummy address from shadow register refresh
  4761   0015A2  CFD9 F004          	movff	fsr2l,??_H_ISR+1
  4762   0015A6  CFDA F005          	movff	fsr2h,??_H_ISR+2
  4763   0015AA                     
  4764                           ;addadc.c: 290:         if (INTCONbits.INT0IF) {
  4765   0015AA  A2F2               	btfss	242,1,c	;volatile
  4766   0015AC  EFDA  F00A         	goto	i2u159_41
  4767   0015B0  EFDC  F00A         	goto	i2u159_40
  4768   0015B4                     i2u159_41:
  4769   0015B4  EFF1  F00A         	goto	i2l2281
  4770   0015B8                     i2u159_40:
  4771   0015B8                     
  4772                           ;addadc.c: 291:             INTCONbits.INT0IE = 0;
  4773   0015B8  98F2               	bcf	242,4,c	;volatile
  4774   0015BA                     
  4775                           ;addadc.c: 292:             _delay((unsigned long)((20)*(8000000/4000.0)));
  4776   0015BA  0E34               	movlw	52
  4777   0015BC  6E03               	movwf	??_H_ISR^0,c
  4778   0015BE  0EF2               	movlw	242
  4779   0015C0                     i2u171_47:
  4780   0015C0  2EE8               	decfsz	wreg,f,c
  4781   0015C2  D7FE               	bra	i2u171_47
  4782   0015C4  2E03               	decfsz	??_H_ISR^0,f,c
  4783   0015C6  D7FC               	bra	i2u171_47
  4784   0015C8                     
  4785                           ;addadc.c: 294:             if(PORTBbits.RB0 == 1){
  4786   0015C8  A081               	btfss	129,0,c	;volatile
  4787   0015CA  EFE9  F00A         	goto	i2u160_41
  4788   0015CE  EFEB  F00A         	goto	i2u160_40
  4789   0015D2                     i2u160_41:
  4790   0015D2  EFED  F00A         	goto	i2l2275
  4791   0015D6                     i2u160_40:
  4792   0015D6                     
  4793                           ;addadc.c: 295:                 button_pressed();
  4794   0015D6  EC35  F00C         	call	_button_pressed	;wreg free
  4795   0015DA                     i2l2275:
  4796                           
  4797                           ;addadc.c: 298:             btn_interr = 1;
  4798   0015DA  0E01               	movlw	1
  4799   0015DC  6E6D               	movwf	_btn_interr^0,c
  4800   0015DE                     
  4801                           ;addadc.c: 299:             INTCONbits.INT0IF = 0;
  4802   0015DE  92F2               	bcf	242,1,c	;volatile
  4803   0015E0                     
  4804                           ;addadc.c: 300:             INTCONbits.INT0IE = 1;
  4805   0015E0  88F2               	bsf	242,4,c	;volatile
  4806   0015E2                     i2l2281:
  4807                           
  4808                           ;addadc.c: 303:         if (RCIF) {
  4809   0015E2  AA9E               	btfss	3998,5,c	;volatile
  4810   0015E4  EFF6  F00A         	goto	i2u161_41
  4811   0015E8  EFF8  F00A         	goto	i2u161_40
  4812   0015EC                     i2u161_41:
  4813   0015EC  EF04  F00B         	goto	i2l174
  4814   0015F0                     i2u161_40:
  4815   0015F0                     
  4816                           ;addadc.c: 304:             if (RCSTAbits.OERR) {
  4817   0015F0  A2AB               	btfss	171,1,c	;volatile
  4818   0015F2  EFFD  F00A         	goto	i2u162_41
  4819   0015F6  EFFF  F00A         	goto	i2u162_40
  4820   0015FA                     i2u162_41:
  4821   0015FA  EF02  F00B         	goto	i2l2287
  4822   0015FE                     i2u162_40:
  4823   0015FE                     
  4824                           ;addadc.c: 305:                 CREN = 0;
  4825   0015FE  98AB               	bcf	4011,4,c	;volatile
  4826                           
  4827                           ;addadc.c: 306:                 __nop();
  4828   001600  0000               	nop	
  4829                           
  4830                           ;addadc.c: 307:                 CREN = 1;
  4831   001602  88AB               	bsf	4011,4,c	;volatile
  4832   001604                     i2l2287:
  4833                           
  4834                           ;addadc.c: 310:             MyusartRead();
  4835   001604  EC3B  F00B         	call	_MyusartRead	;wreg free
  4836   001608                     i2l174:
  4837   001608  C005  FFDA         	movff	??_H_ISR+2,fsr2h
  4838   00160C  C004  FFD9         	movff	??_H_ISR+1,fsr2l
  4839   001610  926E               	bcf	int$flags,1,c	;clear compiler interrupt flag (level 2)
  4840   001612  0011               	retfie		f
  4841   001614                     __end_of_H_ISR:
  4842                           	callstack 0
  4843                           
  4844 ;; *************** function _button_pressed *****************
  4845 ;; Defined at:
  4846 ;;		line 328 in file "addadc.c"
  4847 ;; Parameters:    Size  Location     Type
  4848 ;;		None
  4849 ;; Auto vars:     Size  Location     Type
  4850 ;;		None
  4851 ;; Return value:  Size  Location     Type
  4852 ;;                  1    wreg      void 
  4853 ;; Registers used:
  4854 ;;		wreg, status,2, status,0
  4855 ;; Tracked objects:
  4856 ;;		On entry : 0/0
  4857 ;;		On exit  : 0/0
  4858 ;;		Unchanged: 0/0
  4859 ;; Data sizes:     COMRAM   BANK0   BANK1   BANK2   BANK3   BANK4   BANK5
  4860 ;;      Params:         0       0       0       0       0       0       0
  4861 ;;      Locals:         0       0       0       0       0       0       0
  4862 ;;      Temps:          0       0       0       0       0       0       0
  4863 ;;      Totals:         0       0       0       0       0       0       0
  4864 ;;Total ram usage:        0 bytes
  4865 ;; Hardware stack levels used: 1
  4866 ;; This function calls:
  4867 ;;		Nothing
  4868 ;; This function is called by:
  4869 ;;		_H_ISR
  4870 ;; This function uses a non-reentrant model
  4871 ;;
  4872                           
  4873                           	psect	text31
  4874   00186A                     __ptext31:
  4875                           	callstack 0
  4876   00186A                     _button_pressed:
  4877                           	callstack 19
  4878   00186A                     
  4879                           ;addadc.c: 334:         mode = !mode;
  4880   00186A  5066               	movf	_mode^0,w,c
  4881   00186C  1067               	iorwf	(_mode+1)^0,w,c
  4882   00186E  B4D8               	btfsc	status,2,c
  4883   001870  EF3C  F00C         	goto	i2u75_41
  4884   001874  EF3F  F00C         	goto	i2u75_40
  4885   001878                     i2u75_41:
  4886   001878  0E01               	movlw	1
  4887   00187A  EF40  F00C         	goto	i2u76_40
  4888   00187E                     i2u75_40:
  4889   00187E  0E00               	movlw	0
  4890   001880                     i2u76_40:
  4891   001880  6E66               	movwf	_mode^0,c
  4892   001882  6A67               	clrf	(_mode+1)^0,c
  4893   001884                     
  4894                           ;addadc.c: 335:         alcohol = 0;
  4895   001884  0E00               	movlw	0
  4896   001886  6E69               	movwf	(_alcohol+1)^0,c
  4897   001888  0E00               	movlw	0
  4898   00188A  6E68               	movwf	_alcohol^0,c
  4899   00188C  0012               	return		;funcret
  4900   00188E                     __end_of_button_pressed:
  4901                           	callstack 0
  4902                           
  4903 ;; *************** function _MyusartRead *****************
  4904 ;; Defined at:
  4905 ;;		line 215 in file "addadc.c"
  4906 ;; Parameters:    Size  Location     Type
  4907 ;;		None
  4908 ;; Auto vars:     Size  Location     Type
  4909 ;;  data            1    1[COMRAM] unsigned char 
  4910 ;; Return value:  Size  Location     Type
  4911 ;;                  1    wreg      void 
  4912 ;; Registers used:
  4913 ;;		wreg, fsr2l, fsr2h, status,2, status,0
  4914 ;; Tracked objects:
  4915 ;;		On entry : 0/0
  4916 ;;		On exit  : 0/0
  4917 ;;		Unchanged: 0/0
  4918 ;; Data sizes:     COMRAM   BANK0   BANK1   BANK2   BANK3   BANK4   BANK5
  4919 ;;      Params:         0       0       0       0       0       0       0
  4920 ;;      Locals:         1       0       0       0       0       0       0
  4921 ;;      Temps:          1       0       0       0       0       0       0
  4922 ;;      Totals:         2       0       0       0       0       0       0
  4923 ;;Total ram usage:        2 bytes
  4924 ;; Hardware stack levels used: 1
  4925 ;; This function calls:
  4926 ;;		Nothing
  4927 ;; This function is called by:
  4928 ;;		_H_ISR
  4929 ;; This function uses a non-reentrant model
  4930 ;;
  4931                           
  4932                           	psect	text32
  4933   001676                     __ptext32:
  4934                           	callstack 0
  4935   001676                     _MyusartRead:
  4936                           	callstack 19
  4937   001676                     
  4938                           ;addadc.c: 216:         char data = RCREG;
  4939   001676  CFAE F002          	movff	4014,MyusartRead@data	;volatile
  4940   00167A                     
  4941                           ;addadc.c: 217:         if (!(((unsigned char)((data)-0x20)) < 0x5f) && data != '\r') re
      +                          turn;
  4942   00167A  C002  F001         	movff	MyusartRead@data,??_MyusartRead
  4943   00167E  0EE0               	movlw	224
  4944   001680  2601               	addwf	??_MyusartRead^0,f,c
  4945   001682  0E5E               	movlw	94
  4946   001684  6401               	cpfsgt	??_MyusartRead^0,c
  4947   001686  EF47  F00B         	goto	i2u155_41
  4948   00168A  EF49  F00B         	goto	i2u155_40
  4949   00168E                     i2u155_41:
  4950   00168E  EF54  F00B         	goto	i2l2231
  4951   001692                     i2u155_40:
  4952   001692  0E0D               	movlw	13
  4953   001694  1802               	xorwf	MyusartRead@data^0,w,c
  4954   001696  B4D8               	btfsc	status,2,c
  4955   001698  EF50  F00B         	goto	i2u156_41
  4956   00169C  EF52  F00B         	goto	i2u156_40
  4957   0016A0                     i2u156_41:
  4958   0016A0  EF54  F00B         	goto	i2l2231
  4959   0016A4                     i2u156_40:
  4960   0016A4  EF5E  F00B         	goto	i2l120
  4961   0016A8                     i2l2231:
  4962                           
  4963                           ;addadc.c: 218:         buffer[buffer_size++] = data;
  4964   0016A8  0E00               	movlw	low _buffer
  4965   0016AA  246A               	addwf	_buffer_size^0,w,c
  4966   0016AC  6ED9               	movwf	fsr2l,c
  4967   0016AE  0E01               	movlw	high _buffer
  4968   0016B0  206B               	addwfc	(_buffer_size+1)^0,w,c
  4969   0016B2  6EDA               	movwf	fsr2h,c
  4970   0016B4  C002  FFDF         	movff	MyusartRead@data,indf2
  4971   0016B8  4A6A               	infsnz	_buffer_size^0,f,c
  4972   0016BA  2A6B               	incf	(_buffer_size+1)^0,f,c
  4973   0016BC                     i2l120:
  4974   0016BC  0012               	return		;funcret
  4975   0016BE                     __end_of_MyusartRead:
  4976                           	callstack 0
  4977                           
  4978                           	psect	rparam
  4979   000001                     ___rparam_used  equ	1
  4980   000000                     ___param_bank   equ	0
  4981   000000                     __Lparam        equ	__Lrparam
  4982   000000                     __Hparam        equ	__Hrparam
  4983                           
  4984                           	psect	temp
  4985   00006E                     btemp:
  4986                           	callstack 0
  4987   00006E                     	ds	1
  4988   00006E                     int$flags       set	btemp
  4989   00006F                     wtemp8          set	btemp+1
  4990   00006F                     ttemp5          set	btemp+1
  4991   000072                     ttemp6          set	btemp+4
  4992   000076                     ttemp7          set	btemp+8
  4993                           
  4994                           	psect	idloc
  4995                           
  4996                           ;Config register IDLOC0 @ 0x200000
  4997                           ;	unspecified, using default values
  4998   200000                     	org	2097152
  4999   200000  FF                 	db	255
  5000                           
  5001                           ;Config register IDLOC1 @ 0x200001
  5002                           ;	unspecified, using default values
  5003   200001                     	org	2097153
  5004   200001  FF                 	db	255
  5005                           
  5006                           ;Config register IDLOC2 @ 0x200002
  5007                           ;	unspecified, using default values
  5008   200002                     	org	2097154
  5009   200002  FF                 	db	255
  5010                           
  5011                           ;Config register IDLOC3 @ 0x200003
  5012                           ;	unspecified, using default values
  5013   200003                     	org	2097155
  5014   200003  FF                 	db	255
  5015                           
  5016                           ;Config register IDLOC4 @ 0x200004
  5017                           ;	unspecified, using default values
  5018   200004                     	org	2097156
  5019   200004  FF                 	db	255
  5020                           
  5021                           ;Config register IDLOC5 @ 0x200005
  5022                           ;	unspecified, using default values
  5023   200005                     	org	2097157
  5024   200005  FF                 	db	255
  5025                           
  5026                           ;Config register IDLOC6 @ 0x200006
  5027                           ;	unspecified, using default values
  5028   200006                     	org	2097158
  5029   200006  FF                 	db	255
  5030                           
  5031                           ;Config register IDLOC7 @ 0x200007
  5032                           ;	unspecified, using default values
  5033   200007                     	org	2097159
  5034   200007  FF                 	db	255
  5035                           
  5036                           	psect	config
  5037                           
  5038                           ; Padding undefined space
  5039   300000                     	org	3145728
  5040   300000  FF                 	db	255
  5041                           
  5042                           ;Config register CONFIG1H @ 0x300001
  5043                           ;	Oscillator Selection bits
  5044                           ;	OSC = INTIO67, Internal oscillator block, port function on RA6 and RA7
  5045                           ;	Fail-Safe Clock Monitor Enable bit
  5046                           ;	FCMEN = OFF, Fail-Safe Clock Monitor disabled
  5047                           ;	Internal/External Oscillator Switchover bit
  5048                           ;	IESO = ON, Oscillator Switchover mode enabled
  5049   300001                     	org	3145729
  5050   300001  88                 	db	136
  5051                           
  5052                           ;Config register CONFIG2L @ 0x300002
  5053                           ;	Power-up Timer Enable bit
  5054                           ;	PWRT = OFF, PWRT disabled
  5055                           ;	Brown-out Reset Enable bits
  5056                           ;	BOREN = SBORDIS, Brown-out Reset enabled in hardware only (SBOREN is disabled)
  5057                           ;	Brown Out Reset Voltage bits
  5058                           ;	BORV = 3, Minimum setting
  5059   300002                     	org	3145730
  5060   300002  1F                 	db	31
  5061                           
  5062                           ;Config register CONFIG2H @ 0x300003
  5063                           ;	Watchdog Timer Enable bit
  5064                           ;	WDT = OFF, WDT disabled (control is placed on the SWDTEN bit)
  5065                           ;	Watchdog Timer Postscale Select bits
  5066                           ;	WDTPS = 1, 1:1
  5067   300003                     	org	3145731
  5068   300003  00                 	db	0
  5069                           
  5070                           ; Padding undefined space
  5071   300004                     	org	3145732
  5072   300004  FF                 	db	255
  5073                           
  5074                           ;Config register CONFIG3H @ 0x300005
  5075                           ;	CCP2 MUX bit
  5076                           ;	CCP2MX = PORTC, CCP2 input/output is multiplexed with RC1
  5077                           ;	PORTB A/D Enable bit
  5078                           ;	PBADEN = ON, PORTB<4:0> pins are configured as analog input channels on Reset
  5079                           ;	Low-Power Timer1 Oscillator Enable bit
  5080                           ;	LPT1OSC = OFF, Timer1 configured for higher power operation
  5081                           ;	MCLR Pin Enable bit
  5082                           ;	MCLRE = ON, MCLR pin enabled; RE3 input pin disabled
  5083   300005                     	org	3145733
  5084   300005  83                 	db	131
  5085                           
  5086                           ;Config register CONFIG4L @ 0x300006
  5087                           ;	Stack Full/Underflow Reset Enable bit
  5088                           ;	STVREN = ON, Stack full/underflow will cause Reset
  5089                           ;	Single-Supply ICSP Enable bit
  5090                           ;	LVP = OFF, Single-Supply ICSP disabled
  5091                           ;	Extended Instruction Set Enable bit
  5092                           ;	XINST = OFF, Instruction set extension and Indexed Addressing mode disabled (Legacy mo
      +                          de)
  5093                           ;	Background Debugger Enable bit
  5094                           ;	DEBUG = 0x1, unprogrammed default
  5095   300006                     	org	3145734
  5096   300006  81                 	db	129
  5097                           
  5098                           ; Padding undefined space
  5099   300007                     	org	3145735
  5100   300007  FF                 	db	255
  5101                           
  5102                           ;Config register CONFIG5L @ 0x300008
  5103                           ;	Code Protection bit
  5104                           ;	CP0 = OFF, Block 0 (000800-001FFFh) not code-protected
  5105                           ;	Code Protection bit
  5106                           ;	CP1 = OFF, Block 1 (002000-003FFFh) not code-protected
  5107                           ;	Code Protection bit
  5108                           ;	CP2 = OFF, Block 2 (004000-005FFFh) not code-protected
  5109                           ;	Code Protection bit
  5110                           ;	CP3 = OFF, Block 3 (006000-007FFFh) not code-protected
  5111   300008                     	org	3145736
  5112   300008  0F                 	db	15
  5113                           
  5114                           ;Config register CONFIG5H @ 0x300009
  5115                           ;	Boot Block Code Protection bit
  5116                           ;	CPB = OFF, Boot block (000000-0007FFh) not code-protected
  5117                           ;	Data EEPROM Code Protection bit
  5118                           ;	CPD = OFF, Data EEPROM not code-protected
  5119   300009                     	org	3145737
  5120   300009  C0                 	db	192
  5121                           
  5122                           ;Config register CONFIG6L @ 0x30000A
  5123                           ;	Write Protection bit
  5124                           ;	WRT0 = OFF, Block 0 (000800-001FFFh) not write-protected
  5125                           ;	Write Protection bit
  5126                           ;	WRT1 = OFF, Block 1 (002000-003FFFh) not write-protected
  5127                           ;	Write Protection bit
  5128                           ;	WRT2 = OFF, Block 2 (004000-005FFFh) not write-protected
  5129                           ;	Write Protection bit
  5130                           ;	WRT3 = OFF, Block 3 (006000-007FFFh) not write-protected
  5131   30000A                     	org	3145738
  5132   30000A  0F                 	db	15
  5133                           
  5134                           ;Config register CONFIG6H @ 0x30000B
  5135                           ;	Configuration Register Write Protection bit
  5136                           ;	WRTC = OFF, Configuration registers (300000-3000FFh) not write-protected
  5137                           ;	Boot Block Write Protection bit
  5138                           ;	WRTB = OFF, Boot block (000000-0007FFh) not write-protected
  5139                           ;	Data EEPROM Write Protection bit
  5140                           ;	WRTD = OFF, Data EEPROM not write-protected
  5141   30000B                     	org	3145739
  5142   30000B  E0                 	db	224
  5143                           
  5144                           ;Config register CONFIG7L @ 0x30000C
  5145                           ;	Table Read Protection bit
  5146                           ;	EBTR0 = OFF, Block 0 (000800-001FFFh) not protected from table reads executed in other
      +                           blocks
  5147                           ;	Table Read Protection bit
  5148                           ;	EBTR1 = OFF, Block 1 (002000-003FFFh) not protected from table reads executed in other
      +                           blocks
  5149                           ;	Table Read Protection bit
  5150                           ;	EBTR2 = OFF, Block 2 (004000-005FFFh) not protected from table reads executed in other
      +                           blocks
  5151                           ;	Table Read Protection bit
  5152                           ;	EBTR3 = OFF, Block 3 (006000-007FFFh) not protected from table reads executed in other
      +                           blocks
  5153   30000C                     	org	3145740
  5154   30000C  0F                 	db	15
  5155                           
  5156                           ;Config register CONFIG7H @ 0x30000D
  5157                           ;	Boot Block Table Read Protection bit
  5158                           ;	EBTRB = OFF, Boot block (000000-0007FFh) not protected from table reads executed in ot
      +                          her blocks
  5159   30000D                     	org	3145741
  5160   30000D  40                 	db	64
  5161                           tosu	equ	0xFFF
  5162                           tosh	equ	0xFFE
  5163                           tosl	equ	0xFFD
  5164                           stkptr	equ	0xFFC
  5165                           pclatu	equ	0xFFB
  5166                           pclath	equ	0xFFA
  5167                           pcl	equ	0xFF9
  5168                           tblptru	equ	0xFF8
  5169                           tblptrh	equ	0xFF7
  5170                           tblptrl	equ	0xFF6
  5171                           tablat	equ	0xFF5
  5172                           prodh	equ	0xFF4
  5173                           prodl	equ	0xFF3
  5174                           indf0	equ	0xFEF
  5175                           postinc0	equ	0xFEE
  5176                           postdec0	equ	0xFED
  5177                           preinc0	equ	0xFEC
  5178                           plusw0	equ	0xFEB
  5179                           fsr0h	equ	0xFEA
  5180                           fsr0l	equ	0xFE9
  5181                           wreg	equ	0xFE8
  5182                           indf1	equ	0xFE7
  5183                           postinc1	equ	0xFE6
  5184                           postdec1	equ	0xFE5
  5185                           preinc1	equ	0xFE4
  5186                           plusw1	equ	0xFE3
  5187                           fsr1h	equ	0xFE2
  5188                           fsr1l	equ	0xFE1
  5189                           bsr	equ	0xFE0
  5190                           indf2	equ	0xFDF
  5191                           postinc2	equ	0xFDE
  5192                           postdec2	equ	0xFDD
  5193                           preinc2	equ	0xFDC
  5194                           plusw2	equ	0xFDB
  5195                           fsr2h	equ	0xFDA
  5196                           fsr2l	equ	0xFD9
  5197                           status	equ	0xFD8

Data Sizes:
    Strings     109
    Constant    0
    Data        0
    BSS         144
    Persistent  0
    Stack       0

Auto Spaces:
    Space          Size  Autos    Used
    COMRAM          126     97     109
    BANK0           128      0      32
    BANK1           256      0     100
    BANK2           256      0       0
    BANK3           256      0       0
    BANK4           256      0       0
    BANK5           244      0       0

Pointer List with Targets:

    dtoa@fp	PTR struct _IO_FILE size(2) Largest target is 0
		 -> NULL(NULL[0]), 

    fputc@fp	PTR struct _IO_FILE size(2) Largest target is 0
		 -> NULL(NULL[0]), 

    fputc@fp$.$buffer	PTR unsigned char  size(2) Largest target is 0

    fputc@fp$.$source	PTR const unsigned char  size(2) Largest target is 0

    fputs@fp	PTR struct _IO_FILE size(2) Largest target is 0
		 -> NULL(NULL[0]), 

    fputs@s	PTR const unsigned char  size(1) Largest target is 32
		 -> dbuf(BANK0[32]), 

    pad@buf	PTR unsigned char  size(1) Largest target is 32
		 -> dbuf(BANK0[32]), 

    pad@fp	PTR struct _IO_FILE size(2) Largest target is 0
		 -> NULL(NULL[0]), 

    printf@ap	PTR void [1] size(1) Largest target is 2
		 -> ?_printf(COMRAM[2]), 

    printf@fmt	PTR const unsigned char  size(1) Largest target is 24
		 -> STR_1(CODE[8]), STR_10(CODE[22]), STR_11(CODE[24]), STR_12(CODE[12]), 
		 -> STR_2(CODE[20]), STR_3(CODE[6]), STR_4(CODE[6]), STR_5(CODE[6]), 
		 -> STR_6(CODE[6]), STR_7(CODE[6]), STR_8(CODE[6]), STR_9(CODE[17]), 

    read_prec_or_width@ap	PTR PTR void [1] size(1) Largest target is 1
		 -> printf@ap(COMRAM[1]), 

    read_prec_or_width@fmt	PTR PTR const unsigned char  size(1) Largest target is 1
		 -> vfprintf@cfmt(COMRAM[1]), 

    S1614$buffer	PTR unsigned char  size(2) Largest target is 0

    S1614$source	PTR const unsigned char  size(2) Largest target is 0

    sp__strcpy	PTR unsigned char  size(2) Largest target is 0

    utoa@fp	PTR struct _IO_FILE size(2) Largest target is 0
		 -> NULL(NULL[0]), 

    vfpfcnvrt@ap	PTR PTR void  size(1) Largest target is 1
		 -> printf@ap(COMRAM[1]), 

    vfpfcnvrt@cp	PTR unsigned char  size(1) Largest target is 24
		 -> STR_1(CODE[8]), STR_10(CODE[22]), STR_11(CODE[24]), STR_12(CODE[12]), 
		 -> STR_2(CODE[20]), STR_3(CODE[6]), STR_4(CODE[6]), STR_5(CODE[6]), 
		 -> STR_6(CODE[6]), STR_7(CODE[6]), STR_8(CODE[6]), STR_9(CODE[17]), 

    vfpfcnvrt@fmt	PTR PTR unsigned char  size(1) Largest target is 1
		 -> vfprintf@cfmt(COMRAM[1]), 

    vfpfcnvrt@fp	PTR struct _IO_FILE size(2) Largest target is 0
		 -> NULL(NULL[0]), 

    vfprintf@ap	PTR PTR void  size(1) Largest target is 1
		 -> printf@ap(COMRAM[1]), 

    vfprintf@cfmt	PTR unsigned char  size(1) Largest target is 24
		 -> STR_1(CODE[8]), STR_10(CODE[22]), STR_11(CODE[24]), STR_12(CODE[12]), 
		 -> STR_2(CODE[20]), STR_3(CODE[6]), STR_4(CODE[6]), STR_5(CODE[6]), 
		 -> STR_6(CODE[6]), STR_7(CODE[6]), STR_8(CODE[6]), STR_9(CODE[17]), 

    vfprintf@fmt	PTR const unsigned char  size(1) Largest target is 24
		 -> STR_1(CODE[8]), STR_10(CODE[22]), STR_11(CODE[24]), STR_12(CODE[12]), 
		 -> STR_2(CODE[20]), STR_3(CODE[6]), STR_4(CODE[6]), STR_5(CODE[6]), 
		 -> STR_6(CODE[6]), STR_7(CODE[6]), STR_8(CODE[6]), STR_9(CODE[17]), 

    vfprintf@fp	PTR struct _IO_FILE size(2) Largest target is 0
		 -> NULL(NULL[0]), 

    xtoa@fp	PTR struct _IO_FILE size(2) Largest target is 0
		 -> NULL(NULL[0]), 


Critical Paths under _main in COMRAM

    _main->_printf
    _printf->_vfprintf
    _vfprintf->_vfpfcnvrt
    _vfpfcnvrt->_xtoa
    _xtoa->_pad
    _utoa->_pad
    _dtoa->_pad
    _pad->_fputs
    _fputs->_fputc
    _fputc->_putch
    _abs->___almod
    _i2c_write->_i2c_is_idle
    _i2c_stop->_i2c_is_idle
    _i2c_start->_i2c_is_idle
    _i2c_rep_start->_i2c_is_idle
    _i2c_read->_i2c_is_idle

Critical Paths under _Lo_ISR in COMRAM

    _Lo_ISR->_variable_register_changed

Critical Paths under _H_ISR in COMRAM

    _H_ISR->_MyusartRead

Critical Paths under _main in BANK0

    None.

Critical Paths under _Lo_ISR in BANK0

    None.

Critical Paths under _H_ISR in BANK0

    None.

Critical Paths under _main in BANK1

    None.

Critical Paths under _Lo_ISR in BANK1

    None.

Critical Paths under _H_ISR in BANK1

    None.

Critical Paths under _main in BANK2

    None.

Critical Paths under _Lo_ISR in BANK2

    None.

Critical Paths under _H_ISR in BANK2

    None.

Critical Paths under _main in BANK3

    None.

Critical Paths under _Lo_ISR in BANK3

    None.

Critical Paths under _H_ISR in BANK3

    None.

Critical Paths under _main in BANK4

    None.

Critical Paths under _Lo_ISR in BANK4

    None.

Critical Paths under _H_ISR in BANK4

    None.

Critical Paths under _main in BANK5

    None.

Critical Paths under _Lo_ISR in BANK5

    None.

Critical Paths under _H_ISR in BANK5

    None.

Call Graph Tables:

 ---------------------------------------------------------------------------------
 (Depth) Function   	        Calls       Base Space   Used Autos Params    Refs
 ---------------------------------------------------------------------------------
 (0) _main                                               131   131      0    6420
                                             80 COMRAM    17    17      0
                         _Initialize
                           _i2c_read
                      _i2c_rep_start
                          _i2c_start
                           _i2c_stop
                          _i2c_write
                             _printf
 ---------------------------------------------------------------------------------
 (1) _printf                                              10     3      7    6228
                                             72 COMRAM     8     1      7
                           _vfprintf
 ---------------------------------------------------------------------------------
 (2) _vfprintf                                             5     1      4    6154
                                             67 COMRAM     5     1      4
                          _vfpfcnvrt
 ---------------------------------------------------------------------------------
 (3) _vfpfcnvrt                                           13     9      4    6018
                                             54 COMRAM    13     9      4
                               _dtoa
                              _fputc
                 _read_prec_or_width
                               _utoa
                               _xtoa
 ---------------------------------------------------------------------------------
 (4) _xtoa                                                16    10      6    1225
                                             38 COMRAM    16    10      6
                                _pad
 ---------------------------------------------------------------------------------
 (4) _utoa                                                11     5      6    1503
                                             38 COMRAM    11     5      6
                            ___lldiv
                            ___llmod
                                _pad
 ---------------------------------------------------------------------------------
 (5) ___llmod                                              9     1      8     161
                                             14 COMRAM     9     1      8
 ---------------------------------------------------------------------------------
 (5) ___lldiv                                             13     5      8     164
                                             14 COMRAM    13     5      8
 ---------------------------------------------------------------------------------
 (4) _read_prec_or_width                                   7     5      2     182
                                             14 COMRAM     7     5      2
 ---------------------------------------------------------------------------------
 (4) _dtoa                                                14     8      6    2005
                                             38 COMRAM    14     8      6
                            ___aldiv
                            ___almod
                                _abs
                                _pad
 ---------------------------------------------------------------------------------
 (5) _pad                                                  8     3      5     927
                                             30 COMRAM     8     3      5
                              _fputc
                              _fputs
 ---------------------------------------------------------------------------------
 (6) _fputs                                                6     3      3     420
                                             24 COMRAM     6     3      3
                              _fputc
 ---------------------------------------------------------------------------------
 (7) _fputc                                                9     5      4     319
                                             15 COMRAM     9     5      4
                              _putch
 ---------------------------------------------------------------------------------
 (8) _putch                                                1     1      0      87
                                             14 COMRAM     1     1      0
 ---------------------------------------------------------------------------------
 (5) _abs                                                  4     2      2      67
                                             24 COMRAM     4     2      2
                            ___almod (ARG)
 ---------------------------------------------------------------------------------
 (5) ___almod                                             10     2      8     298
                                             14 COMRAM    10     2      8
 ---------------------------------------------------------------------------------
 (5) ___aldiv                                             14     6      8     302
                                             14 COMRAM    14     6      8
 ---------------------------------------------------------------------------------
 (1) _i2c_write                                            1     1      0      15
                                             15 COMRAM     1     1      0
                        _i2c_is_idle
 ---------------------------------------------------------------------------------
 (1) _i2c_stop                                             0     0      0       0
                        _i2c_is_idle
 ---------------------------------------------------------------------------------
 (1) _i2c_start                                            0     0      0       0
                        _i2c_is_idle
 ---------------------------------------------------------------------------------
 (1) _i2c_rep_start                                        0     0      0       0
                        _i2c_is_idle
 ---------------------------------------------------------------------------------
 (1) _i2c_read                                             2     2      0      30
                                             15 COMRAM     2     2      0
                        _i2c_is_idle
 ---------------------------------------------------------------------------------
 (2) _i2c_is_idle                                          1     1      0       0
                                             14 COMRAM     1     1      0
 ---------------------------------------------------------------------------------
 (1) _Initialize                                           0     0      0       0
                     _ADC_Initialize
                  _Button_Initialize
                     _I2C_Initialize
                    _UART_Initialize
 ---------------------------------------------------------------------------------
 (2) _UART_Initialize                                      0     0      0       0
 ---------------------------------------------------------------------------------
 (2) _I2C_Initialize                                       0     0      0       0
 ---------------------------------------------------------------------------------
 (2) _Button_Initialize                                    0     0      0       0
 ---------------------------------------------------------------------------------
 (2) _ADC_Initialize                                       0     0      0       0
 ---------------------------------------------------------------------------------
 Estimated maximum stack depth 8
 ---------------------------------------------------------------------------------
 (Depth) Function   	        Calls       Base Space   Used Autos Params    Refs
 ---------------------------------------------------------------------------------
 (9) _Lo_ISR                                               7     7      0      46
                                              7 COMRAM     7     7      0
          _variable_register_changed
 ---------------------------------------------------------------------------------
 (10) _variable_register_changed                           2     0      2      23
                                              5 COMRAM     2     0      2
 ---------------------------------------------------------------------------------
 Estimated maximum stack depth 10
 ---------------------------------------------------------------------------------
 (Depth) Function   	        Calls       Base Space   Used Autos Params    Refs
 ---------------------------------------------------------------------------------
 (11) _H_ISR                                               3     3      0      67
                                              2 COMRAM     3     3      0
                        _MyusartRead
                     _button_pressed
 ---------------------------------------------------------------------------------
 (12) _button_pressed                                      0     0      0       0
 ---------------------------------------------------------------------------------
 (12) _MyusartRead                                         2     2      0      67
                                              0 COMRAM     2     2      0
 ---------------------------------------------------------------------------------
 Estimated maximum stack depth 12
 ---------------------------------------------------------------------------------

 Call Graph Graphs:

 _main (ROOT)
   _Initialize
     _ADC_Initialize
     _Button_Initialize
     _I2C_Initialize
     _UART_Initialize
   _i2c_read
     _i2c_is_idle
   _i2c_rep_start
     _i2c_is_idle
   _i2c_start
     _i2c_is_idle
   _i2c_stop
     _i2c_is_idle
   _i2c_write
     _i2c_is_idle
   _printf
     _vfprintf
       _vfpfcnvrt
         _dtoa
           ___aldiv
           ___almod
           _abs
             ___almod (ARG)
           _pad
             _fputc
               _putch
             _fputs
               _fputc
         _fputc
         _read_prec_or_width
         _utoa
           ___lldiv
           ___llmod
           _pad
         _xtoa
           _pad

 _Lo_ISR (ROOT)
   _variable_register_changed

 _H_ISR (ROOT)
   _MyusartRead
   _button_pressed

Address spaces:
Name               Size   Autos  Total    Usage
BIGRAM            1523      0       0      0.0%
BITBANK4           256      0       0      0.0%
BANK4              256      0       0      0.0%
BITBANK3           256      0       0      0.0%
BANK3              256      0       0      0.0%
BITBANK2           256      0       0      0.0%
BANK2              256      0       0      0.0%
BITBANK1           256      0       0      0.0%
BANK1              256      0     100     39.1%
BITBANK5           244      0       0      0.0%
BANK5              244      0       0      0.0%
BITBANK0           128      0       0      0.0%
BANK0              128      0      32     25.0%
BITCOMRAM          126      0       0      0.0%
COMRAM             126     97     109     86.5%
BITBIGSFR_1h        38      0       0      0.0%
BITBIGSFRh          26      0       0      0.0%
BITBIGSFR_1llh      12      0       0      0.0%
BITBIGSFR_5h        10      0       0      0.0%
BITBIGSFR_2          6      0       0      0.0%
BITBIGSFR_4          3      0       0      0.0%
BITBIGSFR_3          3      0       0      0.0%
BITBIGSFR_5l         2      0       0      0.0%
BITBIGSFR_1lh        1      0       0      0.0%
BITBIGSFRl           1      0       0      0.0%
STACK                0      0       0      0.0%
DATA                 0      0     241      0.0%


Microchip Technology PIC18 Macro Assembler V3.00 build 20241204225717 
Symbol Table                                                                                   Sun Dec 14 16:24:15 2025

                      _SSPSTATbits 0FC7                                 l83 1868  
                               l92 18E0                                 l86 190A  
                               l95 181C                                 l89 18AE  
                               bsr 0FE0                                l101 163A  
                              l110 1670                                l111 1674  
                              l104 164C                                l140 1902  
                              l108 1662                                l134 1842  
                              l143 18F2                                l152 17CC  
                              l137 18FA                                l241 13DC  
                              l146 17B0                                l234 13CC  
                              l155 17D6                                l157 17E4  
                              l149 17BE                                l158 17F4  
                              l286 1184                                l634 159E  
                              l299 126E                                l627 158E  
                              l910 1516                                l905 14B6  
                              l913 0D26                                l908 14F8  
                              l926 0E5A                                l952 1478  
                              l936 107A                                l956 1480  
                              l948 0F6E                                l973 0A86  
                              l885 18C8                                l983 0CC6  
                              l975 0A8E                                u710 17BE  
                              u711 17BA                                u720 17CC  
                              u721 17C8                                u650 1834  
                              u730 17E4                                u651 1830  
                              u731 17E0                                u660 1842  
                              u900 163A                                u661 183E  
                              u901 1636                                u910 1648  
                              u911 1644                                u920 165A  
                              u745 17F0                                u921 1656  
                              u746 17F2                                u930 1670  
                              u931 166C                                u940 1282  
                              u941 127E                                u950 1294  
                              u951 1290                                u960 12BC  
                              u961 12B8                                u890 1628  
                              u970 12F2                                u891 1624  
                              u971 12EE                                u980 173E  
                              u981 173A                                u990 1360  
                              u991 135C                                _abs 1740  
                              _pad 1482                                wreg 0FE8  
                 ??_button_pressed 0001                               l1000 16FE  
                             l1004 175A                               l1007 1772  
                             l2001 0D82                               l1019 1338  
                             l1027 173E                               l2011 0E10  
                             l2003 0DB6                               ?_abs 0019  
                             l2005 0DD0                               l2013 0E1E  
                             l2101 144A                               l2015 0E2E  
                             l2007 0DE6                               l2103 1452  
                             l2031 0F92                               l2023 0F70  
                             l2111 09EA                               l2017 0E34  
                             l2009 0DF6                               l2041 1012  
                             l2033 0FC4                               l2025 0F74  
                             l2113 09EE                               l2105 09B4  
                             l2201 16C6                               l2019 0E40  
                             l2043 1028                               l2035 0FC6  
                             l2027 0F84                               l2131 0A5A  
                             l2123 0A0A                               l2115 09F4  
                             l2107 09D6                               l2203 16DA  
                             l1501 180A                               l2045 1038  
                             l2037 0FCC                               l2029 0F8C  
                             l2061 0E7E                               l2053 0E5C  
                             l2133 0A64                               l2117 09F6  
                             l2125 0A28                               l2109 09DE  
                             l2205 16F6                               l2301 0670  
                             l1431 1846                               l1511 1818  
                             l1503 180E                               l2047 1052  
                             l2039 1000                               l2071 0EAC  
                             l2063 0E84                               l2055 0E60  
                             l2151 0B24                               l2143 0A94  
                             l2135 0A6E                               l2127 0A38  
                             l2119 0A02                               l2311 0688  
                             l2303 0674                               l1441 1862  
                             l1433 184A                               l1513 181A  
                             l1505 1812                               l2049 1060  
                             l2081 0F1C                               l2073 0EAE  
                             l2065 0E94                               l2057 0E70  
                             l2145 0AC2                               l2137 0A80  
                             l2129 0A4C                               l2401 07D4  
                             l2321 06B6                               l2313 068E  
                             l2305 0674                               l1443 1864  
                             l1435 184C                               l1451 188E  
                             l1507 1814                               l2091 13DE  
                             l2083 0F2C                               l2075 0EB4  
                             l2067 0E9C                               l2059 0E78  
                             l2163 0B88                               l2147 0ADE  
                             l2155 0B48                               l2139 0A86  
                             l2235 18B0                               l2411 07EE  
                             l2403 07D8                               l2331 06FE  
                             l2323 06C6                               l2315 069C  
                             l2307 0674                               l1445 1866  
                             l1437 185E                               l1429 1844  
                             l1461 18A2                               l1453 1898  
                             l1509 1816                               l2093 13E6  
                             l2085 0F46                               l2069 0EA0  
                             l2077 0EEA                               l2181 0C54  
                             l2165 0BA4                               l2173 0C10  
                             l2157 0B5E                               l2149 0AFE  
                             l2237 18B4                               l2421 0808  
                             l2413 07F2                               l2405 07DE  
                             l2341 072C                               l2333 0706  
                             l2325 06CE                               l2317 06A4  
                             l2309 067C                               l1439 1860  
                             l1447 1904                               l1471 18AC  
                             l1463 18A4                               l1455 189C  
                             l1551 18FC                               l2095 1408  
                             l2079 0F06                               l2087 0F54  
                             l2175 0C26                               l2167 0BC4  
                             l2159 0B68                               l2431 0824  
                             l2423 0810                               l2415 07F8  
                             l2407 07E4                               l2351 0750  
                             l2343 0732                               l2335 071C  
                             l2327 06E0                               l2319 06B0  
                             l1449 1908                               l1473 18CA  
                             l1465 18A6                               l1457 189E  
                             l1481 181E                               l1553 1900  
                             l1561 17AC                               l2097 1410  
                             l2177 0C34                               l2169 0BEC  
                             l2193 0CA0                               l2441 0846  
                             l2433 0828                               l2425 0814  
                             l2417 07FE                               l2409 07EA  
                             l2361 076C                               l2353 0756  
                             l2345 0736                               l2337 0720  
                             l2329 06F2                               l1475 18D2  
                             l1467 18A8                               l1459 18A0  
                             l1483 1834                               l1563 17D0  
                             l1547 18F4                               l1555 18EC  
                             l1811 165A                               l2099 142C  
                             l2187 0C74                               l2443 0938  
                             l2451 097A                               l2435 082E  
                             l2427 0818                               l2419 0802  
                             l2371 0786                               l2363 0770  
                             l2355 075C                               l2347 0746  
                             l2339 0726                               l1477 18DE  
                             l1469 18AA                               l1565 17D0  
                             l1549 18F8                               l1557 18F0  
                             l1901 1186                               l1805 1616  
                             l1821 12BC                               l1813 1270  
                             l2189 0C94                               l2453 098A  
                             l2445 0948                               l2437 0836  
                             l2429 081E                               l2381 07A0  
                             l2373 078A                               l2365 0776  
                             l2357 0762                               l2349 074A  
                             l1495 17F6                               l1479 181E  
                             l1567 17D4                               l1559 17A8  
                             l1911 11B8                               l1903 1188  
                             l1807 1628                               l1823 12F2  
                             l1815 1282                               l1831 171E  
                             l2199 16BE                               l2455 099C  
                             l2447 0958                               l2439 083A  
                             l2391 07BA                               l2383 07A4  
                             l2375 0790                               l2367 077C  
                             l2359 0768                               l1497 1802  
                             l1569 17F2                               l1921 1200  
                             l1913 11C8                               l1905 1196  
                             l1809 1648                               l1817 1294  
                             l1833 1722                               l1841 1368  
                             l2457 09AA                               l2449 0978  
                             l2393 07BE                               l2385 07AA  
                             l2377 0796                               l2369 0782  
                             l1499 1806                               l1931 124E  
                             l1923 121E                               l1915 11DE  
                             l1907 11A6                               l1819 129E  
                             l1827 1700                               l1851 13BA  
                             l1843 1374                               l1835 133A  
                             l2395 07C4                               l2387 07B0  
                             l2379 079C                               l1861 108C  
                             l1933 125E                               l1925 122E  
                             l1917 11E6                               l1909 11AA  
                             l1829 170C                               l1853 13BC  
                             l1845 1382                               l1837 134A  
                             l1941 1536                               l2397 07CA  
                             l2389 07B6                               l1871 10C2  
                             l1863 109C                               l1927 1238  
                             l1919 11F2                               l1855 13C6  
                             l1847 138C                               l1839 1360  
                             l1951 1588                               l1943 1542  
                             l2399 07D0                               l1881 110A  
                             l1873 10D2                               l1865 10A0  
                             l1857 107C                               l1929 123E  
                             l1961 14C2                               l1953 1482  
                             l1849 13AA                               l1945 1550  
                             l1937 1518                               l1891 114E  
                             l1883 1114                               l1875 10E8  
                             l1867 10AE                               l1859 107E  
                             l1971 174E                               l1963 14D6  
                             l1955 1490                               l1947 156E  
                             l1939 152E                               l1885 1132  
                             l1877 10F0                               l1893 1154  
                             l1869 10BE                               l1965 14DA  
                             l1957 14A0                               l1981 0CF8  
                             l1973 0CC8                               l1949 157E  
                             ?_pad 001F                               l1895 1164  
                             l1887 1142                               l1879 10FC  
                             l1967 1506                               l1959 14AE  
                             l1991 0D2E                               l1983 0CFE  
                             l1975 0CCC                               l1897 1174  
                             l1889 1144                               l1969 1740  
                             l1993 0D36                               l1985 0D0E  
                             l1977 0CE0                               l1995 0D3C  
                             l1987 0D1A                               l1979 0CE8  
                             l1997 0D7A                               l1989 0D22  
                             l1999 0D7C                               STR_1 0660  
                             STR_2 062F                               STR_3 0668  
                             STR_4 0668                               STR_5 0668  
                             STR_6 0668                               STR_7 0668  
                             STR_8 0668                               STR_9 0643  
                             u1000 1382                               _CREN 7D5C  
                             u1001 137E                               u1010 13AA  
                             u1011 13A6                               u1020 108C  
                             u1100 11DE                               u1021 1088  
                             u1101 11DA                               u1030 10AE  
                             u1110 1200                               u1031 10AA  
                             u1111 11FC                               u1040 10E8  
                             u1120 121E                               u1200 1506  
                             u1041 10E4                               u1121 121A  
                             u1201 1502                               u1050 110A  
                             u1130 124E                               u1210 174E  
                             u1051 1106                               u1131 124A  
                             u1211 174A                               u1060 1132  
                             u1300 0E1E                               u1220 0CDC  
                             u1140 152E                               u1061 112E  
                             u1301 0E1A                               u1221 0CD6  
                             u1141 152A                               u1070 1164  
                             u1310 0E2E                               u1230 0CDE  
                             u1150 1550                               u1071 1160  
                             u1311 0E2A                               u1151 154C  
                             u1080 1196                               u1240 0CF8  
                             u1160 156E                               u1320 1012  
                             u1400 0F1C                               u1081 1192  
                             u1241 0CF4                               u1161 156A  
                             u1321 100E                               u1401 0F18  
                             u1090 11B8                               u1170 1490  
                             u1250 0D0E                               u1330 1028  
                             u1410 0F2C                               u1091 11B4  
                             u1171 148C                               u1251 0D0A  
                             u1331 1024                               u1411 0F28  
                             u1180 14AE                               u1260 0DD0  
                             u1340 1038                               u1420 0F46  
                             u1500 0AFA                               u1181 14AA  
                             u1261 0DCC                               u1341 1034  
                             u1421 0F42                               u1501 0AF6  
                             u1190 14F8                               u1270 0DE6  
                             u1350 1052                               u1430 0F54  
                             u1510 0BA4                               u1191 14F4  
                             u1271 0DE2                               u1351 104E  
                             u1431 0F50                               u1511 0BA0  
                             u1280 0DF6                               u1440 1408  
                             u1360 1060                               u1520 0BC0  
                             u1281 0DF2                               u1441 1404  
                             u1361 105C                               u1521 0BBC  
                             u1290 0E10                               u1450 1478  
                             u1370 0E94                               u1530 16F6  
                             u1291 0E0C                               u1451 1474  
                             u1371 0E90                               u1531 16F2  
                             u1380 0ED4                               u1460 09D6  
                             u1461 09D2                               u1390 0F06  
                             u1470 0A38                               u1391 0F02  
                             u1471 0A34                               u1480 0A5A  
                             u1640 06F2                               u1385 0ECA  
                             u1481 0A56                               u1641 06EE  
                             u1490 0ADE                               u1650 098A  
                             u1491 0ADA                               u1651 0986  
                             u1660 099C                               u1661 0998  
                             u1670 09AA                               u1671 09A6  
                             u1687 0710                               u1697 073C  
                             _RCIF 7CF5                        main@part_id 0061  
                             abs@a 0019                               _dbuf 0080  
                      main@samples 005C                               _main 0670  
                             _dtoa 0CC8                               _mode 0066  
                             _prec 0064                               pad@i 0025  
                             pad@p 0022                               fsr1h 0FE2  
                             fsr2h 0FDA                               indf2 0FDF  
                             fsr1l 0FE1                               fsr2l 0FD9  
                             btemp 006E                               _utoa 0F70  
                             _xtoa 0E5C                      ??_i2c_is_idle 000F  
                             prodh 0FF4                               prodl 0FF3  
                             start 0072                    MyusartRead@data 0002  
                     ___param_bank 0000                      _i2c_rep_start 18FC  
       ?_variable_register_changed 0006                              ??_abs 001B  
                            ??_pad 0024                   ?_UART_Initialize 0001  
                  __end_of___aldiv 1186                    __end_of___almod 1270  
                            ?_main 0001                              ?_dtoa 0027  
                            STR_10 0619                              STR_11 0601  
                            STR_12 0654                    __end_of___lldiv 13DE  
                            ?_utoa 0027                        i2c_read@ack 0010  
                            ?_xtoa 0027                    __end_of___llmod 15A0  
                            i1l180 0062                              i2l120 16BC  
                            i1l186 18EA                              i2l174 1608  
                            i2l183 188C                              _RCREG 0FAE  
                     vfpfcnvrt@fmt 0039                              _H_ISR 0008  
                            _SPBRG 0FAF                              _TRISB 0F93  
                            _TXREG 0FAD                              _flags 006C  
              read_prec_or_width@c 0013                read_prec_or_width@n 0014  
                            _fputc 1270                              _fputs 1700  
                            pad@fp 001F                              _width 0062  
                            _putch 1614                              dtoa@d 0029  
                            dtoa@i 0033                              dtoa@p 002F  
                            dtoa@s 0032                              dtoa@w 0030  
                            tablat 0FF5                              ttemp5 006F  
                            ttemp6 0072                              ttemp7 0076  
                            utoa@d 0029                              utoa@i 0030  
                            utoa@p 002D                              utoa@w 002E  
                            status 0FD8                              wtemp8 006F  
                            xtoa@c 0034                              xtoa@d 0029  
                            xtoa@i 0035                              xtoa@p 0031  
                            xtoa@w 0032                    __initialization 1774  
                   ?_i2c_rep_start 0001                       __end_of_main 09B4  
                     __end_of_dtoa 0E5C                       __end_of_utoa 107C  
                     __end_of_xtoa 0F70                   __end_of_i2c_read 17F6  
              __end_of_i2c_is_idle 1844                   __end_of_i2c_stop 18F4  
                       _Initialize 17F6                             ??_main 0051  
                           ??_dtoa 002D                             ??_utoa 002D  
                           ??_xtoa 002D                      __activetblptr 0002  
                           ?_H_ISR 0001         __end_of_read_prec_or_width 1482  
                           ?_fputc 0010                   ___llmod@dividend 000F  
                           ?_fputs 0019                             _ADRESH 0FC4  
                           _ADRESL 0FC3                             ?_putch 0001  
                           i1l2241 18E2                             i1l2291 0034  
                           i1l2293 0046                             i1l2295 0052  
                           i1l2297 0054                             i1l2289 0026  
                           i2l2231 16A8                             i2l2223 1676  
                           i2l2233 16B8                             i2l2225 167A  
                           i2l2227 1692                             i2l2271 15C8  
                           i2l2273 15D6                             i2l2281 15E2  
                           i2l2265 15AA                             i2l2283 15F0  
                           i2l2275 15DA                             i2l2267 15B8  
                           i2l1573 186A                             i2l2285 15FE  
                           i2l2277 15DE                             i2l2269 15BA  
                           i2l1575 1884                             i2l2287 1604  
                           i2l2279 15E0                      vfpfcnvrt@done 003D  
                           _SSPADD 0FC8                             _SSPBUF 0FC9  
                           _Lo_ISR 0018                       vfprintf@cfmt 0048  
                        ??___aldiv 0017                          ??___almod 0017  
                        ??___lldiv 0017                          ??___llmod 0017  
                           _buffer 0100               read_prec_or_width@ap 0010  
                           clear_0 177A                             clear_1 1786  
                           clear_2 1792                             isa$std 0001  
                           _printf 18B0                             pad@buf 0021  
                           main@ir 005D                             main@rd 005B  
                           dtoa@fp 0027                             main@wr 005A  
                           fputc@c 0010                             fputs@c 001C  
                           fputs@i 001D                             fputs@s 0019  
                _Button_Initialize 1904                       __mediumconst 0600  
                           tblptrh 0FF7                             tblptrl 0FF6  
                           tblptru 0FF8                   __end_of_vfprintf 1700  
                           utoa@fp 0027                 ?_Button_Initialize 0001  
                           xtoa@fp 0027                         __accesstop 0080  
          __end_of__initialization 1798                ??_Button_Initialize 000F  
                    ___rparam_used 0001                    ??_i2c_rep_start 0010  
                      _i2c_is_idle 181E                      __end_of_H_ISR 1614  
                   __pcstackCOMRAM 0001                      __end_of_fputc 133A  
                    __end_of_fputs 1740                        ?_Initialize 0001  
                    __end_of_putch 1676          __end_of_Button_Initialize 190C  
                __end_of_i2c_start 18FC                  __end_of_i2c_write 17CE  
                          ??_H_ISR 0003                      ??_MyusartRead 0001  
                          ??_fputc 0014                            ??_fputs 001C  
                          ??_putch 000F                         __pbssBANK0 0080  
                       __pbssBANK1 0100                          ?_i2c_read 0001  
                        ?_i2c_stop 0001                            ?_Lo_ISR 0001  
      ??_variable_register_changed 0008                            ?_printf 0049  
                          i2u75_40 187E                            i2u75_41 1878  
                          i2u76_40 1880                            _SSPCON2 0FC5  
                       _btn_interr 006D                __end_of_MyusartRead 16BE  
                       ??_i2c_read 0010                         ??_i2c_stop 0010  
                          __Hparam 0000                            __Lparam 0000  
                          ___aldiv 107C                            ___almod 1186  
                          ___lldiv 133A                            ___llmod 1518  
                        ?_vfprintf 0044                       __psmallconst 0600  
                          __pcinit 1774                     _I2C_Initialize 18CA  
                          _alcohol 0068                            __ramtop 0600  
                          __ptext0 0670                            __ptext1 18B0  
                          __ptext2 16BE                            __ptext3 09B4  
                          __ptext4 0E5C                            __ptext5 0F70  
                          __ptext6 1518                            __ptext7 133A  
                          __ptext8 13DE                            __ptext9 0CC8  
            read_prec_or_width@fmt 000F                   ___aldiv@dividend 000F  
                  i2c_read@recieve 0011          _variable_register_changed 18E2  
                          main@red 0056                     __pintcode_body 15A0  
             end_of_initialization 1798                            fputc@fp 0012  
                    __Lmediumconst 0000                            int_func 15A0  
                          fputs@fp 001A                 _read_prec_or_width 13DE  
                  ___lldiv@divisor 0013                    ___lldiv@counter 001B  
                __end_of_vfpfcnvrt 0CC8                          _RCSTAbits 0FAB  
                 ___aldiv@quotient 0019                            postdec2 0FDD  
              ?_read_prec_or_width 000F                            postinc0 0FEE  
                          postinc1 0FE6                            postinc2 0FDE  
                 vfpfcnvrt@convarg 003E             __end_of_I2C_Initialize 18E2  
                       ??_vfprintf 0048                          _PORTBbits 0F81  
                        _TRISAbits 0F92                          _TRISCbits 0F94  
                      _MyusartRead 1676               ??_read_prec_or_width 0011  
                        _TXSTAbits 0FAC                       ?_i2c_is_idle 0001  
                   __end_of_Lo_ISR 0072                    ?_I2C_Initialize 0001  
                     ??_Initialize 000F                        vfpfcnvrt@ap 003A  
                      vfpfcnvrt@cp 0043                        vfpfcnvrt@fp 0037  
                      _BAUDCONbits 0FB8                     _ADC_Initialize 1844  
                   __end_of_printf 18CA                start_initialization 1774  
                      __end_of_abs 1774                          _i2c_start 18F4  
                      __end_of_pad 1518                          _i2c_write 17A6  
                ??_UART_Initialize 000F                 __end_of_Initialize 181E  
                  ___llmod@divisor 0013                    ___llmod@counter 0017  
                         ??_Lo_ISR 0008              __end_of_i2c_rep_start 1904  
                      vfprintf@fmt 0046             __end_of_ADC_Initialize 186A  
                         ??_printf 0050                        __pbssCOMRAM 0062  
                       ?_i2c_start 0001                         ?_i2c_write 0001  
                   _button_pressed 186A                          _dtoa$1680 002D  
                        __pintcode 0008                           ?___aldiv 000F  
                         ?___almod 000F                           ?___lldiv 000F  
                         ?___llmod 000F                    ?_ADC_Initialize 0001  
                      __pintcodelo 0018                   ___almod@dividend 000F  
                      __smallconst 0600             __end_of_button_pressed 188E  
                  ___aldiv@divisor 0013                    ___aldiv@counter 0017  
                         _IPR1bits 0F9F                           _PIE1bits 0F9D  
                         i1u170_27 005A                           i1u163_20 0034  
                         i1u163_21 0030                           i2u160_40 15D6  
                         i2u160_41 15D2                           i2u161_40 15F0  
                         i2u161_41 15EC                           i2u162_40 15FE  
                         i2u162_41 15FA                           i2u155_40 1692  
                         i2u155_41 168E                           i2u171_47 15C0  
                         i2u156_40 16A4                           i2u156_41 16A0  
                         i2u159_40 15B8                           i2u159_41 15B4  
                         _PIR1bits 0F9E                        _buffer_size 006A  
__end_of_variable_register_changed 18EC                           _RCONbits 0FD0  
                        _vfpfcnvrt 09B4                         _ADCON0bits 0FC2  
                       _ADCON1bits 0FC1                         _ADCON2bits 0FC0  
                     ?_MyusartRead 0001                        ??_i2c_start 0010  
                      ??_i2c_write 0010                         vfpfcnvrt@c 0042  
                  ?_button_pressed 0001                           _i2c_read 17CE  
                         _i2c_stop 18EC                   ??_I2C_Initialize 000F  
                         __Hrparam 0000                         vfprintf@ap 0047  
                         __Lrparam 0000                         vfprintf@fp 0044  
                       ?_vfpfcnvrt 0037                    _UART_Initialize 188E  
                         __ptext10 1482                           __ptext11 1700  
                         __ptext20 18FC                           __ptext12 1270  
                         __ptext21 17CE                           __ptext13 1614  
                         __ptext22 181E                           __ptext14 1740  
                         __ptext31 186A                           __ptext23 17F6  
                         __ptext15 1186                           __ptext32 1676  
                         __ptext24 188E                           __ptext16 107C  
                         __ptext25 18CA                           __ptext17 17A6  
                         __ptext26 1904                           __ptext18 18EC  
                         __ptext27 1844                           __ptext19 18F4  
                         __ptext29 18E2                    ___almod@divisor 0013  
                  ___almod@counter 0017     variable_register_changed@value 0006  
                         isa$xinst 0000                           int$flags 006E  
                         _vfprintf 16BE                          printf@fmt 0049  
                i2c_write@i2c_data 0010                          putch@data 000F  
                       _INTCONbits 0FF2                           intlevel1 0000  
                         intlevel2 0000                        Lo_ISR@value 000D  
                 ___lldiv@dividend 000F                   ??_ADC_Initialize 000F  
                       _OSCCONbits 0FD3                           printf@ap 0050  
          __end_of_UART_Initialize 18B0                        ??_vfpfcnvrt 003B  
                 ___lldiv@quotient 0017                       ___aldiv@sign 0018  
                      _SSPCON1bits 0FC6                        _SSPCON2bits 0FC5  
                     ___almod@sign 0018  
