

Microchip MPLAB XC8 Assembler V3.00 build 20241204225717 
                                                                                               Thu Nov 27 17:56:45 2025

Microchip MPLAB XC8 C Compiler v3.00 (Free license) build 20241204225717 Og1 
     1                           	processor	18F4520
     2                           	fnconf	rparam,??,?,0
     3                           	pagewidth 120
     4                           	opt	flic
     5                           	psect	idataBANK0,global,class=CODE,space=0,delta=1,noexec
     6                           	psect	smallconst,global,reloc=2,class=SMALLCONST,space=0,delta=1,noexec
     7                           	psect	cinit,global,reloc=2,class=CODE,space=0,delta=1
     8                           	psect	bssCOMRAM,global,class=COMRAM,space=1,delta=1,lowdata,noexec
     9                           	psect	bssBANK0,global,class=BANK0,space=1,delta=1,lowdata,noexec
    10                           	psect	dataBANK0,global,class=BANK0,space=1,delta=1,lowdata,noexec
    11                           	psect	bssBANK1,global,class=BANK1,space=1,delta=1,lowdata,noexec
    12                           	psect	bssBANK2,global,class=BANK2,space=1,delta=1,lowdata,noexec
    13                           	psect	cstackBANK2,global,class=BANK2,space=1,delta=1,lowdata,noexec
    14                           	psect	cstackBANK1,global,class=BANK1,space=1,delta=1,lowdata,noexec
    15                           	psect	cstackBANK0,global,class=BANK0,space=1,delta=1,lowdata,noexec
    16                           	psect	cstackCOMRAM,global,class=COMRAM,space=1,delta=1,lowdata,noexec
    17                           	psect	text0,global,reloc=2,class=CODE,space=0,delta=1
    18                           	psect	text1,global,reloc=2,class=CODE,space=0,delta=1
    19                           	psect	text2,global,reloc=2,class=CODE,space=0,delta=1
    20                           	psect	text3,global,reloc=2,class=CODE,space=0,delta=1,group=3
    21                           	psect	text4,global,reloc=2,class=CODE,space=0,delta=1,group=1
    22                           	psect	text5,global,reloc=2,class=CODE,space=0,delta=1,group=1
    23                           	psect	text6,global,reloc=2,class=CODE,space=0,delta=1,group=1
    24                           	psect	text7,global,reloc=2,class=CODE,space=0,delta=1,group=1
    25                           	psect	text8,global,reloc=2,class=CODE,space=0,delta=1,group=3
    26                           	psect	text9,global,reloc=2,class=CODE,space=0,delta=1,group=3
    27                           	psect	text10,global,reloc=2,class=CODE,space=0,delta=1
    28                           	psect	text11,global,reloc=2,class=CODE,space=0,delta=1,group=3
    29                           	psect	text12,global,reloc=2,class=CODE,space=0,delta=1,group=3
    30                           	psect	text13,global,reloc=2,class=CODE,space=0,delta=1,group=3
    31                           	psect	text14,global,reloc=2,class=CODE,space=0,delta=1,group=3
    32                           	psect	text15,global,reloc=2,class=CODE,space=0,delta=1,group=2
    33                           	psect	text16,global,reloc=2,class=CODE,space=0,delta=1,group=2
    34                           	psect	text17,global,reloc=2,class=CODE,space=0,delta=1,group=2
    35                           	psect	text18,global,reloc=2,class=CODE,space=0,delta=1,group=2
    36                           	psect	text19,global,reloc=2,class=CODE,space=0,delta=1,group=2
    37                           	psect	text20,global,reloc=2,class=CODE,space=0,delta=1,group=2
    38                           	psect	text21,global,reloc=2,class=CODE,space=0,delta=1,group=2
    39                           	psect	text22,global,reloc=2,class=CODE,space=0,delta=1,group=2
    40                           	psect	text23,global,reloc=2,class=CODE,space=0,delta=1,group=3
    41                           	psect	text24,global,reloc=2,class=CODE,space=0,delta=1,group=2
    42                           	psect	text25,global,reloc=2,class=CODE,space=0,delta=1
    43                           	psect	text26,global,reloc=2,class=CODE,space=0,delta=1
    44                           	psect	text27,global,reloc=2,class=CODE,space=0,delta=1
    45                           	psect	text28,global,reloc=2,class=CODE,space=0,delta=1
    46                           	psect	text29,global,reloc=2,class=CODE,space=0,delta=1,group=3
    47                           	psect	text30,global,reloc=2,class=CODE,space=0,delta=1
    48                           	psect	intcodelo,global,reloc=2,class=CODE,space=0,delta=1
    49                           	psect	text32,global,reloc=2,class=CODE,space=0,delta=1
    50                           	psect	text33,global,reloc=2,class=CODE,space=0,delta=1
    51                           	psect	text34,global,reloc=2,class=CODE,space=0,delta=1
    52                           	psect	text35,global,reloc=2,class=CODE,space=0,delta=1
    53                           	psect	text36,global,reloc=2,class=CODE,space=0,delta=1
    54                           	psect	text37,global,reloc=2,class=CODE,space=0,delta=1
    55                           	psect	text38,global,reloc=2,class=CODE,space=0,delta=1
    56                           	psect	text39,global,reloc=2,class=CODE,space=0,delta=1
    57                           	psect	text40,global,reloc=2,class=CODE,space=0,delta=1
    58                           	psect	text41,global,reloc=2,class=CODE,space=0,delta=1
    59                           	psect	text42,global,reloc=2,class=CODE,space=0,delta=1
    60                           	psect	text43,global,reloc=2,class=CODE,space=0,delta=1
    61                           	psect	text44,global,reloc=2,class=CODE,space=0,delta=1
    62                           	psect	text45,global,reloc=2,class=CODE,space=0,delta=1
    63                           	psect	text46,global,reloc=2,class=CODE,space=0,delta=1
    64                           	psect	text47,global,reloc=2,class=CODE,space=0,delta=1
    65                           	psect	text48,global,reloc=2,class=CODE,space=0,delta=1
    66                           	psect	text49,global,reloc=2,class=CODE,space=0,delta=1
    67                           	psect	text50,global,reloc=2,class=CODE,space=0,delta=1
    68                           	psect	text51,global,reloc=2,class=CODE,space=0,delta=1
    69                           	psect	text52,global,reloc=2,class=CODE,space=0,delta=1
    70                           	psect	text53,global,reloc=2,class=CODE,space=0,delta=1
    71                           	psect	text54,global,reloc=2,class=CODE,space=0,delta=1
    72                           	psect	text55,global,reloc=2,class=CODE,space=0,delta=1
    73                           	psect	text56,global,reloc=2,class=CODE,space=0,delta=1
    74                           	psect	text57,global,reloc=2,class=CODE,space=0,delta=1
    75                           	psect	text58,global,reloc=2,class=CODE,space=0,delta=1
    76                           	psect	text59,global,reloc=2,class=CODE,space=0,delta=1
    77                           	psect	intcode,global,reloc=2,class=CODE,space=0,delta=1
    78                           	psect	intcode_body,global,reloc=2,class=CODE,space=0,delta=1
    79                           	psect	text61,global,reloc=2,class=CODE,space=0,delta=1
    80                           	psect	text62,global,reloc=2,class=CODE,space=0,delta=1
    81                           	psect	text63,global,reloc=2,class=CODE,space=0,delta=1
    82                           	psect	intsave_regs,global,class=BIGRAM,space=1,delta=1,noexec
    83                           	psect	rparam,global,class=COMRAM,space=1,delta=1,noexec
    84                           	psect	temp,global,ovrld,common,class=COMRAM,space=1,delta=1,lowdata
    85                           	psect	idloc,global,abs,ovrld,class=IDLOC,space=5,delta=1,noexec
    86                           	psect	config,global,abs,ovrld,class=CONFIG,space=4,delta=1,noexec
    87   000000                     
    88                           ; Generated 05/12/2024 GMT
    89                           ; 
    90                           ; Copyright © 2024, Microchip Technology Inc. and its subsidiaries ("Microchip")
    91                           ; All rights reserved.
    92                           ; 
    93                           ; This software is developed by Microchip Technology Inc. and its subsidiaries ("Microch
      +                          ip").
    94                           ; 
    95                           ; Redistribution and use in source and binary forms, with or without modification, are
    96                           ; permitted provided that the following conditions are met:
    97                           ; 
    98                           ;     1. Redistributions of source code must retain the above copyright notice, this lis
      +                          t of
    99                           ;        conditions and the following disclaimer.
   100                           ; 
   101                           ;     2. Redistributions in binary form must reproduce the above copyright notice, this 
      +                          list
   102                           ;        of conditions and the following disclaimer in the documentation and/or other
   103                           ;        materials provided with the distribution. Publication is not required when
   104                           ;        this file is used in an embedded application.
   105                           ; 
   106                           ;     3. Microchip's name may not be used to endorse or promote products derived from th
      +                          is
   107                           ;        software without specific prior written permission.
   108                           ; 
   109                           ; THIS SOFTWARE IS PROVIDED BY MICROCHIP "AS IS" AND ANY EXPRESS OR IMPLIED WARRANTIES,
   110                           ; INCLUDING, BUT NOT LIMITED TO, THE IMPLIED WARRANTIES OF MERCHANTABILITY AND FITNESS F
      +                          OR
   111                           ; PURPOSE ARE DISCLAIMED.  IN NO EVENT SHALL MICROCHIP BE LIABLE FOR ANY DIRECT, INDIREC
      +                          T,
   112                           ; INCIDENTAL, SPECIAL, EXEMPLARY, OR CONSEQUENTIAL DAMAGES (INCLUDING BUT NOT LIMITED TO
   113                           ; PROCUREMENT OF SUBSTITUTE GOODS OR SERVICES; LOSS OF USE, DATA OR PROFITS; OR BUSINESS
   114                           ; INTERRUPTION) HOWSOEVER CAUSED AND ON ANY THEORY OF LIABILITY, WHETHER IN CONTRACT, ST
      +                          RICT
   115                           ; LIABILITY, OR TORT (INCLUDING NEGLIGENCE OR OTHERWISE) ARISING IN ANY WAY OUT OF THE U
      +                          SE OF
   116                           ; THIS SOFTWARE, EVEN IF ADVISED OF THE POSSIBILITY OF SUCH DAMAGE.
   117                           ; 
   118                           ; 
   119                           ; Code-generator required, PIC18F4520 Definitions
   120                           ; 
   121                           ; SFR Addresses
   122   000FE0                     bsr             equ	4064
   123   000FE9                     fsr0            equ	4073
   124   000FEA                     fsr0h           equ	4074
   125   000FE9                     fsr0l           equ	4073
   126   000FE1                     fsr1            equ	4065
   127   000FE2                     fsr1h           equ	4066
   128   000FE1                     fsr1l           equ	4065
   129   000FD9                     fsr2            equ	4057
   130   000FDA                     fsr2h           equ	4058
   131   000FD9                     fsr2l           equ	4057
   132   000FEF                     indf0           equ	4079
   133   000FE7                     indf1           equ	4071
   134   000FDF                     indf2           equ	4063
   135   000FF2                     intcon          equ	4082
   136   000000                     nvmcon          equ	0
   137   000FF9                     pcl             equ	4089
   138   000FFA                     pclath          equ	4090
   139   000FFB                     pclatu          equ	4091
   140   000FEB                     plusw0          equ	4075
   141   000FE3                     plusw1          equ	4067
   142   000FDB                     plusw2          equ	4059
   143   000FED                     postdec0        equ	4077
   144   000FE5                     postdec1        equ	4069
   145   000FDD                     postdec2        equ	4061
   146   000FEE                     postinc0        equ	4078
   147   000FE6                     postinc1        equ	4070
   148   000FDE                     postinc2        equ	4062
   149   000FEC                     preinc0         equ	4076
   150   000FE4                     preinc1         equ	4068
   151   000FDC                     preinc2         equ	4060
   152   000FF3                     prod            equ	4083
   153   000FF4                     prodh           equ	4084
   154   000FF3                     prodl           equ	4083
   155   000FD8                     status          equ	4056
   156   000FF5                     tablat          equ	4085
   157   000FF6                     tblptr          equ	4086
   158   000FF7                     tblptrh         equ	4087
   159   000FF6                     tblptrl         equ	4086
   160   000FF8                     tblptru         equ	4088
   161   000FFD                     tosl            equ	4093
   162   000FE8                     wreg            equ	4072
   163   000F80                     PORTA           equ	3968	;# 
   164   000F81                     PORTB           equ	3969	;# 
   165   000F82                     PORTC           equ	3970	;# 
   166   000F83                     PORTD           equ	3971	;# 
   167   000F84                     PORTE           equ	3972	;# 
   168   000F89                     LATA            equ	3977	;# 
   169   000F8A                     LATB            equ	3978	;# 
   170   000F8B                     LATC            equ	3979	;# 
   171   000F8C                     LATD            equ	3980	;# 
   172   000F8D                     LATE            equ	3981	;# 
   173   000F92                     TRISA           equ	3986	;# 
   174   000F92                     DDRA            equ	3986	;# 
   175   000F93                     TRISB           equ	3987	;# 
   176   000F93                     DDRB            equ	3987	;# 
   177   000F94                     TRISC           equ	3988	;# 
   178   000F94                     DDRC            equ	3988	;# 
   179   000F95                     TRISD           equ	3989	;# 
   180   000F95                     DDRD            equ	3989	;# 
   181   000F96                     TRISE           equ	3990	;# 
   182   000F96                     DDRE            equ	3990	;# 
   183   000F9B                     OSCTUNE         equ	3995	;# 
   184   000F9D                     PIE1            equ	3997	;# 
   185   000F9E                     PIR1            equ	3998	;# 
   186   000F9F                     IPR1            equ	3999	;# 
   187   000FA0                     PIE2            equ	4000	;# 
   188   000FA1                     PIR2            equ	4001	;# 
   189   000FA2                     IPR2            equ	4002	;# 
   190   000FA6                     EECON1          equ	4006	;# 
   191   000FA7                     EECON2          equ	4007	;# 
   192   000FA8                     EEDATA          equ	4008	;# 
   193   000FA9                     EEADR           equ	4009	;# 
   194   000FAB                     RCSTA           equ	4011	;# 
   195   000FAB                     RCSTA1          equ	4011	;# 
   196   000FAC                     TXSTA           equ	4012	;# 
   197   000FAC                     TXSTA1          equ	4012	;# 
   198   000FAD                     TXREG           equ	4013	;# 
   199   000FAD                     TXREG1          equ	4013	;# 
   200   000FAE                     RCREG           equ	4014	;# 
   201   000FAE                     RCREG1          equ	4014	;# 
   202   000FAF                     SPBRG           equ	4015	;# 
   203   000FAF                     SPBRG1          equ	4015	;# 
   204   000FB0                     SPBRGH          equ	4016	;# 
   205   000FB1                     T3CON           equ	4017	;# 
   206   000FB2                     TMR3            equ	4018	;# 
   207   000FB2                     TMR3L           equ	4018	;# 
   208   000FB3                     TMR3H           equ	4019	;# 
   209   000FB4                     CMCON           equ	4020	;# 
   210   000FB5                     CVRCON          equ	4021	;# 
   211   000FB6                     ECCP1AS         equ	4022	;# 
   212   000FB6                     ECCPAS          equ	4022	;# 
   213   000FB7                     PWM1CON         equ	4023	;# 
   214   000FB7                     ECCP1DEL        equ	4023	;# 
   215   000FB8                     BAUDCON         equ	4024	;# 
   216   000FB8                     BAUDCTL         equ	4024	;# 
   217   000FBA                     CCP2CON         equ	4026	;# 
   218   000FBB                     CCPR2           equ	4027	;# 
   219   000FBB                     CCPR2L          equ	4027	;# 
   220   000FBC                     CCPR2H          equ	4028	;# 
   221   000FBD                     CCP1CON         equ	4029	;# 
   222   000FBE                     CCPR1           equ	4030	;# 
   223   000FBE                     CCPR1L          equ	4030	;# 
   224   000FBF                     CCPR1H          equ	4031	;# 
   225   000FC0                     ADCON2          equ	4032	;# 
   226   000FC1                     ADCON1          equ	4033	;# 
   227   000FC2                     ADCON0          equ	4034	;# 
   228   000FC3                     ADRES           equ	4035	;# 
   229   000FC3                     ADRESL          equ	4035	;# 
   230   000FC4                     ADRESH          equ	4036	;# 
   231   000FC5                     SSPCON2         equ	4037	;# 
   232   000FC6                     SSPCON1         equ	4038	;# 
   233   000FC7                     SSPSTAT         equ	4039	;# 
   234   000FC8                     SSPADD          equ	4040	;# 
   235   000FC9                     SSPBUF          equ	4041	;# 
   236   000FCA                     T2CON           equ	4042	;# 
   237   000FCB                     PR2             equ	4043	;# 
   238   000FCB                     MEMCON          equ	4043	;# 
   239   000FCC                     TMR2            equ	4044	;# 
   240   000FCD                     T1CON           equ	4045	;# 
   241   000FCE                     TMR1            equ	4046	;# 
   242   000FCE                     TMR1L           equ	4046	;# 
   243   000FCF                     TMR1H           equ	4047	;# 
   244   000FD0                     RCON            equ	4048	;# 
   245   000FD1                     WDTCON          equ	4049	;# 
   246   000FD2                     HLVDCON         equ	4050	;# 
   247   000FD2                     LVDCON          equ	4050	;# 
   248   000FD3                     OSCCON          equ	4051	;# 
   249   000FD5                     T0CON           equ	4053	;# 
   250   000FD6                     TMR0            equ	4054	;# 
   251   000FD6                     TMR0L           equ	4054	;# 
   252   000FD7                     TMR0H           equ	4055	;# 
   253   000FD8                     STATUS          equ	4056	;# 
   254   000FD9                     FSR2            equ	4057	;# 
   255   000FD9                     FSR2L           equ	4057	;# 
   256   000FDA                     FSR2H           equ	4058	;# 
   257   000FDB                     PLUSW2          equ	4059	;# 
   258   000FDC                     PREINC2         equ	4060	;# 
   259   000FDD                     POSTDEC2        equ	4061	;# 
   260   000FDE                     POSTINC2        equ	4062	;# 
   261   000FDF                     INDF2           equ	4063	;# 
   262   000FE0                     BSR             equ	4064	;# 
   263   000FE1                     FSR1            equ	4065	;# 
   264   000FE1                     FSR1L           equ	4065	;# 
   265   000FE2                     FSR1H           equ	4066	;# 
   266   000FE3                     PLUSW1          equ	4067	;# 
   267   000FE4                     PREINC1         equ	4068	;# 
   268   000FE5                     POSTDEC1        equ	4069	;# 
   269   000FE6                     POSTINC1        equ	4070	;# 
   270   000FE7                     INDF1           equ	4071	;# 
   271   000FE8                     WREG            equ	4072	;# 
   272   000FE9                     FSR0            equ	4073	;# 
   273   000FE9                     FSR0L           equ	4073	;# 
   274   000FEA                     FSR0H           equ	4074	;# 
   275   000FEB                     PLUSW0          equ	4075	;# 
   276   000FEC                     PREINC0         equ	4076	;# 
   277   000FED                     POSTDEC0        equ	4077	;# 
   278   000FEE                     POSTINC0        equ	4078	;# 
   279   000FEF                     INDF0           equ	4079	;# 
   280   000FF0                     INTCON3         equ	4080	;# 
   281   000FF1                     INTCON2         equ	4081	;# 
   282   000FF2                     INTCON          equ	4082	;# 
   283   000FF3                     PROD            equ	4083	;# 
   284   000FF3                     PRODL           equ	4083	;# 
   285   000FF4                     PRODH           equ	4084	;# 
   286   000FF5                     TABLAT          equ	4085	;# 
   287   000FF6                     TBLPTR          equ	4086	;# 
   288   000FF6                     TBLPTRL         equ	4086	;# 
   289   000FF7                     TBLPTRH         equ	4087	;# 
   290   000FF8                     TBLPTRU         equ	4088	;# 
   291   000FF9                     PCLAT           equ	4089	;# 
   292   000FF9                     PC              equ	4089	;# 
   293   000FF9                     PCL             equ	4089	;# 
   294   000FFA                     PCLATH          equ	4090	;# 
   295   000FFB                     PCLATU          equ	4091	;# 
   296   000FFC                     STKPTR          equ	4092	;# 
   297   000FFD                     TOS             equ	4093	;# 
   298   000FFD                     TOSL            equ	4093	;# 
   299   000FFE                     TOSH            equ	4094	;# 
   300   000FFF                     TOSU            equ	4095	;# 
   301                           
   302                           	psect	idataBANK0
   303   005262                     __pidataBANK0:
   304                           	callstack 0
   305                           
   306                           ;initializer for _x
   307   005262  0000               	dw	0
   308   005264  42C8               	dw	17096
   309   007D5C                     _CREN           set	32092
   310   007CF5                     _RCIF           set	31989
   311   000F93                     _TRISB          set	3987
   312   000F8C                     _LATD           set	3980
   313   000F95                     _TRISD          set	3989
   314   000F8B                     _LATC           set	3979
   315   000F94                     _TRISCbits      set	3988
   316   000F92                     _TRISAbits      set	3986
   317   000FB2                     _TMR3           set	4018
   318   000FCE                     _TMR1           set	4046
   319   000FC3                     _ADRESL         set	4035
   320   000FC4                     _ADRESH         set	4036
   321   000FBE                     _CCPR1L         set	4030
   322   000FAE                     _RCREG          set	4014
   323   000FAD                     _TXREG          set	4013
   324   000FD0                     _RCONbits       set	4048
   325   000FD3                     _OSCCONbits     set	4051
   326   000FAB                     _RCSTAbits      set	4011
   327   000FAF                     _SPBRG          set	4015
   328   000FB8                     _BAUDCONbits    set	4024
   329   000FAC                     _TXSTAbits      set	4012
   330   000FBD                     _CCP1CONbits    set	4029
   331   000FC0                     _ADCON2bits     set	4032
   332   000FC1                     _ADCON1bits     set	4033
   333   000FC2                     _ADCON0bits     set	4034
   334   000FB1                     _T3CONbits      set	4017
   335   000FA0                     _PIE2bits       set	4000
   336   000FA2                     _IPR2bits       set	4002
   337   000FA1                     _PIR2bits       set	4001
   338   000FCB                     _PR2            set	4043
   339   000FCA                     _T2CONbits      set	4042
   340   000FCD                     _T1CONbits      set	4045
   341   000F9D                     _PIE1bits       set	3997
   342   000F9F                     _IPR1bits       set	3999
   343   000F9E                     _PIR1bits       set	3998
   344   000FD6                     _TMR0           set	4054
   345   000FD5                     _T0CONbits      set	4053
   346   000FF1                     _INTCON2bits    set	4081
   347   000FF2                     _INTCONbits     set	4082
   348                           
   349                           	psect	smallconst
   350   000600                     __psmallconst:
   351                           	callstack 0
   352   000600  00                 	db	0
   353   000601                     STR_1:
   354   000601  1B                 	db	27
   355   000602  5B                 	db	91	;'['
   356   000603  32                 	db	50	;'2'
   357   000604  4A                 	db	74	;'J'
   358   000605  1B                 	db	27
   359   000606  5B                 	db	91	;'['
   360   000607  48                 	db	72	;'H'
   361   000608  00                 	db	0
   362   000609                     STR_4:
   363   000609  69                 	db	105	;'i'
   364   00060A  6E                 	db	110	;'n'
   365   00060B  66                 	db	102	;'f'
   366   00060C  00                 	db	0
   367   00060D                     STR_7:
   368   00060D  6E                 	db	110	;'n'
   369   00060E  61                 	db	97	;'a'
   370   00060F  6E                 	db	110	;'n'
   371   000610  00                 	db	0
   372   000611                     STR_2:
   373   000611  25                 	db	37
   374   000612  66                 	db	102	;'f'
   375   000613  0A                 	db	10
   376   000614  00                 	db	0
   377   00060D                     STR_8           equ	STR_7
   378   00060D                     STR_9           equ	STR_7
   379   000609                     STR_5           equ	STR_4
   380   000609                     STR_6           equ	STR_4
   381   000611                     STR_3           equ	STR_2
   382   000615  00                 	db	0	; dummy byte at the end
   383   000600                     __smallconst    set	__psmallconst
   384   000600                     __mediumconst   set	__psmallconst
   385   000002                     __activetblptr  equ	2
   386                           
   387                           ; #config settings
   388                           
   389                           	psect	cinit
   390   004C4A                     __pcinit:
   391                           	callstack 0
   392   004C4A                     start_initialization:
   393                           	callstack 0
   394   004C4A                     __initialization:
   395                           	callstack 0
   396                           
   397                           ; Initialize objects allocated to BANK0 (4 bytes)
   398                           ; load TBLPTR registers with __pidataBANK0
   399   004C4A  0E62               	movlw	low __pidataBANK0
   400   004C4C  6EF6               	movwf	tblptrl,c
   401   004C4E  0E52               	movlw	high __pidataBANK0
   402   004C50  6EF7               	movwf	tblptrh,c
   403   004C52  0E00               	movlw	low (__pidataBANK0 shr (0+16))
   404   004C54  6EF8               	movwf	tblptru,c
   405   004C56  EE00  F0D5         	lfsr	0,__pdataBANK0
   406   004C5A  EE10 F004          	lfsr	1,4
   407   004C5E                     copy_data0:
   408   004C5E  0009               	tblrd		*+
   409   004C60  CFF5 FFEE          	movff	tablat,postinc0
   410   004C64  50E5               	movf	postdec1,w,c
   411   004C66  50E1               	movf	fsr1l,w,c
   412   004C68  E1FA               	bnz	copy_data0
   413                           
   414                           ; Clear objects allocated to BANK2 (100 bytes)
   415   004C6A  EE02  F000         	lfsr	0,__pbssBANK2
   416   004C6E  0E64               	movlw	100
   417   004C70                     clear_0:
   418   004C70  6AEE               	clrf	postinc0,c
   419   004C72  06E8               	decf	wreg,f,c
   420   004C74  E1FD               	bnz	clear_0
   421                           
   422                           ; Clear objects allocated to BANK1 (80 bytes)
   423   004C76  EE01  F064         	lfsr	0,__pbssBANK1
   424   004C7A  0E50               	movlw	80
   425   004C7C                     clear_1:
   426   004C7C  6AEE               	clrf	postinc0,c
   427   004C7E  06E8               	decf	wreg,f,c
   428   004C80  E1FD               	bnz	clear_1
   429                           
   430                           ; Clear objects allocated to BANK0 (16 bytes)
   431   004C82  EE00  F0C5         	lfsr	0,__pbssBANK0
   432   004C86  0E10               	movlw	16
   433   004C88                     clear_2:
   434   004C88  6AEE               	clrf	postinc0,c
   435   004C8A  06E8               	decf	wreg,f,c
   436   004C8C  E1FD               	bnz	clear_2
   437                           
   438                           ; Clear objects allocated to COMRAM (6 bytes)
   439   004C8E  6A78               	clrf	(__pbssCOMRAM+5)& (0+255),c
   440   004C90  6A77               	clrf	(__pbssCOMRAM+4)& (0+255),c
   441   004C92  6A76               	clrf	(__pbssCOMRAM+3)& (0+255),c
   442   004C94  6A75               	clrf	(__pbssCOMRAM+2)& (0+255),c
   443   004C96  6A74               	clrf	(__pbssCOMRAM+1)& (0+255),c
   444   004C98  6A73               	clrf	__pbssCOMRAM& (0+255),c
   445   004C9A                     end_of_initialization:
   446                           	callstack 0
   447   004C9A                     __end_of__initialization:
   448                           	callstack 0
   449   004C9A  9079               	bcf	int$flags,0,c	;clear compiler interrupt flag (level 1)
   450   004C9C  9279               	bcf	int$flags,1,c	;clear compiler interrupt flag (level 2)
   451   004C9E  0E00               	movlw	low (__Lmediumconst shr (0+16))
   452   004CA0  6EF8               	movwf	tblptru,c
   453   004CA2  0100               	movlb	0
   454   004CA4  EF79  F027         	goto	_main	;jump to C main() function
   455                           
   456                           	psect	bssCOMRAM
   457   000073                     __pbssCOMRAM:
   458                           	callstack 0
   459   000073                     _width:
   460                           	callstack 0
   461   000073                     	ds	2
   462   000075                     _prec:
   463                           	callstack 0
   464   000075                     	ds	2
   465   000077                     _flags:
   466                           	callstack 0
   467   000077                     	ds	1
   468   000078                     _btn_interr:
   469                           	callstack 0
   470   000078                     	ds	1
   471                           
   472                           	psect	bssBANK0
   473   0000C5                     __pbssBANK0:
   474                           	callstack 0
   475   0000C5                     floorf@F521:
   476                           	callstack 0
   477   0000C5                     	ds	4
   478   0000C9                     ___fpclassifyf@F465:
   479                           	callstack 0
   480   0000C9                     	ds	4
   481   0000CD                     _g_value:
   482                           	callstack 0
   483   0000CD                     	ds	4
   484   0000D1                     _current_servo_angle:
   485                           	callstack 0
   486   0000D1                     	ds	2
   487   0000D3                     _buffer_size:
   488                           	callstack 0
   489   0000D3                     	ds	2
   490                           
   491                           	psect	dataBANK0
   492   0000D5                     __pdataBANK0:
   493                           	callstack 0
   494   0000D5                     _x:
   495                           	callstack 0
   496   0000D5                     	ds	4
   497                           
   498                           	psect	bssBANK1
   499   000164                     __pbssBANK1:
   500                           	callstack 0
   501   000164                     _dbuf:
   502                           	callstack 0
   503   000164                     	ds	80
   504                           
   505                           	psect	bssBANK2
   506   000200                     __pbssBANK2:
   507                           	callstack 0
   508   000200                     _buffer:
   509                           	callstack 0
   510   000200                     	ds	100
   511                           
   512                           	psect	cstackBANK2
   513   000264                     __pcstackBANK2:
   514                           	callstack 0
   515   000264                     main@str:
   516                           	callstack 0
   517                           
   518                           ; 100 bytes @ 0x0
   519   000264                     	ds	100
   520                           
   521                           	psect	cstackBANK1
   522   000100                     __pcstackBANK1:
   523                           	callstack 0
   524   000100                     ?___flsub:
   525                           	callstack 0
   526   000100                     ___flge@ff1:
   527                           	callstack 0
   528   000100                     ___flsub@b:
   529                           	callstack 0
   530   000100                     ??_floorf:
   531                           
   532                           ; 1 bytes @ 0x0
   533   000100                     	ds	4
   534   000104                     ___flge@ff2:
   535                           	callstack 0
   536   000104                     ___flsub@a:
   537                           	callstack 0
   538                           
   539                           ; 4 bytes @ 0x4
   540   000104                     	ds	2
   541   000106                     floorf@m:
   542                           	callstack 0
   543                           
   544                           ; 4 bytes @ 0x6
   545   000106                     	ds	4
   546   00010A                     floorf@e:
   547                           	callstack 0
   548                           
   549                           ; 2 bytes @ 0xA
   550   00010A                     	ds	2
   551   00010C                     floorf@u:
   552                           	callstack 0
   553                           
   554                           ; 4 bytes @ 0xC
   555   00010C                     	ds	4
   556   000110                     efgtoa@fp:
   557                           	callstack 0
   558                           
   559                           ; 2 bytes @ 0x10
   560   000110                     	ds	2
   561   000112                     efgtoa@f:
   562                           	callstack 0
   563                           
   564                           ; 4 bytes @ 0x12
   565   000112                     	ds	4
   566   000116                     efgtoa@c:
   567                           	callstack 0
   568                           
   569                           ; 1 bytes @ 0x16
   570   000116                     	ds	1
   571   000117                     ??_efgtoa:
   572                           
   573                           ; 1 bytes @ 0x17
   574   000117                     	ds	2
   575   000119                     efgtoa@ne:
   576                           	callstack 0
   577                           
   578                           ; 2 bytes @ 0x19
   579   000119                     	ds	2
   580   00011B                     efgtoa@p:
   581                           	callstack 0
   582                           
   583                           ; 2 bytes @ 0x1B
   584   00011B                     	ds	2
   585   00011D                     efgtoa@t:
   586                           	callstack 0
   587                           
   588                           ; 2 bytes @ 0x1D
   589   00011D                     	ds	2
   590   00011F                     _efgtoa$1841:
   591                           	callstack 0
   592                           
   593                           ; 2 bytes @ 0x1F
   594   00011F                     	ds	2
   595   000121                     efgtoa@pp:
   596                           	callstack 0
   597                           
   598                           ; 1 bytes @ 0x21
   599   000121                     	ds	1
   600   000122                     efgtoa@mode:
   601                           	callstack 0
   602                           
   603                           ; 1 bytes @ 0x22
   604   000122                     	ds	1
   605   000123                     efgtoa@nmode:
   606                           	callstack 0
   607                           
   608                           ; 1 bytes @ 0x23
   609   000123                     	ds	1
   610   000124                     efgtoa@d:
   611                           	callstack 0
   612                           
   613                           ; 2 bytes @ 0x24
   614   000124                     	ds	2
   615   000126                     efgtoa@m:
   616                           	callstack 0
   617                           
   618                           ; 2 bytes @ 0x26
   619   000126                     	ds	2
   620   000128                     efgtoa@e:
   621                           	callstack 0
   622                           
   623                           ; 2 bytes @ 0x28
   624   000128                     	ds	2
   625   00012A                     efgtoa@w:
   626                           	callstack 0
   627                           
   628                           ; 2 bytes @ 0x2A
   629   00012A                     	ds	2
   630   00012C                     efgtoa@ou:
   631                           	callstack 0
   632                           
   633                           ; 4 bytes @ 0x2C
   634   00012C                     	ds	4
   635   000130                     efgtoa@i:
   636                           	callstack 0
   637                           
   638                           ; 2 bytes @ 0x30
   639   000130                     	ds	2
   640   000132                     efgtoa@h:
   641                           	callstack 0
   642                           
   643                           ; 4 bytes @ 0x32
   644   000132                     	ds	4
   645   000136                     efgtoa@l:
   646                           	callstack 0
   647                           
   648                           ; 4 bytes @ 0x36
   649   000136                     	ds	4
   650   00013A                     efgtoa@sign:
   651                           	callstack 0
   652                           
   653                           ; 1 bytes @ 0x3A
   654   00013A                     	ds	1
   655   00013B                     efgtoa@g:
   656                           	callstack 0
   657                           
   658                           ; 4 bytes @ 0x3B
   659   00013B                     	ds	4
   660   00013F                     efgtoa@n:
   661                           	callstack 0
   662                           
   663                           ; 2 bytes @ 0x3F
   664   00013F                     	ds	2
   665   000141                     efgtoa@u:
   666                           	callstack 0
   667                           
   668                           ; 4 bytes @ 0x41
   669   000141                     	ds	4
   670   000145                     vfpfcnvrt@fp:
   671                           	callstack 0
   672                           
   673                           ; 2 bytes @ 0x45
   674   000145                     	ds	2
   675   000147                     vfpfcnvrt@fmt:
   676                           	callstack 0
   677                           
   678                           ; 1 bytes @ 0x47
   679   000147                     	ds	1
   680   000148                     vfpfcnvrt@ap:
   681                           	callstack 0
   682                           
   683                           ; 2 bytes @ 0x48
   684   000148                     	ds	2
   685   00014A                     ??_vfpfcnvrt:
   686                           
   687                           ; 1 bytes @ 0x4A
   688   00014A                     	ds	2
   689   00014C                     vfpfcnvrt@convarg:
   690                           	callstack 0
   691                           
   692                           ; 4 bytes @ 0x4C
   693   00014C                     	ds	4
   694   000150                     vfpfcnvrt@c:
   695                           	callstack 0
   696                           
   697                           ; 1 bytes @ 0x50
   698   000150                     	ds	1
   699   000151                     vfpfcnvrt@cp:
   700                           	callstack 0
   701                           
   702                           ; 1 bytes @ 0x51
   703   000151                     	ds	1
   704   000152                     ?_vfprintf:
   705                           	callstack 0
   706   000152                     vfprintf@fp:
   707                           	callstack 0
   708                           
   709                           ; 2 bytes @ 0x52
   710   000152                     	ds	2
   711   000154                     vfprintf@fmt:
   712                           	callstack 0
   713                           
   714                           ; 1 bytes @ 0x54
   715   000154                     	ds	1
   716   000155                     vfprintf@ap:
   717                           	callstack 0
   718                           
   719                           ; 2 bytes @ 0x55
   720   000155                     	ds	2
   721   000157                     ?_printf:
   722                           	callstack 0
   723   000157                     printf@fmt:
   724                           	callstack 0
   725                           
   726                           ; 1 bytes @ 0x57
   727   000157                     	ds	5
   728   00015C                     printf@ap:
   729                           	callstack 0
   730                           
   731                           ; 2 bytes @ 0x5C
   732   00015C                     	ds	2
   733   00015E                     keyboard_input@str:
   734                           	callstack 0
   735                           
   736                           ; 2 bytes @ 0x5E
   737   00015E                     	ds	2
   738   000160                     _keyboard_input$2190:
   739                           	callstack 0
   740                           
   741                           ; 4 bytes @ 0x60
   742   000160                     	ds	4
   743                           
   744                           	psect	cstackBANK0
   745   000080                     __pcstackBANK0:
   746                           	callstack 0
   747   000080                     i1vfpfcnvrt@convarg:
   748                           	callstack 0
   749                           
   750                           ; 4 bytes @ 0x0
   751   000080                     	ds	4
   752   000084                     i1vfpfcnvrt@c:
   753                           	callstack 0
   754                           
   755                           ; 1 bytes @ 0x4
   756   000084                     	ds	1
   757   000085                     i1vfpfcnvrt@cp:
   758                           	callstack 0
   759                           
   760                           ; 1 bytes @ 0x5
   761   000085                     	ds	1
   762   000086                     ?i1_vfprintf:
   763                           	callstack 0
   764   000086                     i1vfprintf@fp:
   765                           	callstack 0
   766                           
   767                           ; 2 bytes @ 0x6
   768   000086                     	ds	2
   769   000088                     i1vfprintf@fmt:
   770                           	callstack 0
   771                           
   772                           ; 1 bytes @ 0x8
   773   000088                     	ds	1
   774   000089                     i1vfprintf@ap:
   775                           	callstack 0
   776                           
   777                           ; 2 bytes @ 0x9
   778   000089                     	ds	2
   779   00008B                     ?i1_printf:
   780                           	callstack 0
   781   00008B                     i1printf@fmt:
   782                           	callstack 0
   783                           
   784                           ; 1 bytes @ 0xB
   785   00008B                     	ds	5
   786   000090                     variable_register_changed@value:
   787                           	callstack 0
   788                           
   789                           ; 2 bytes @ 0x10
   790   000090                     	ds	2
   791   000092                     _variable_register_changed$2431:
   792                           	callstack 0
   793                           
   794                           ; 4 bytes @ 0x12
   795   000092                     	ds	4
   796   000096                     ??_Lo_ISR:
   797                           
   798                           ; 1 bytes @ 0x16
   799   000096                     	ds	15
   800   0000A5                     Lo_ISR@value:
   801                           	callstack 0
   802                           
   803                           ; 2 bytes @ 0x25
   804   0000A5                     	ds	2
   805   0000A7                     ?_atoi:
   806                           	callstack 0
   807   0000A7                     ?___fpclassifyf:
   808                           	callstack 0
   809   0000A7                     ?___fladd:
   810                           	callstack 0
   811   0000A7                     ?___fldiv:
   812                           	callstack 0
   813   0000A7                     ?___flmul:
   814                           	callstack 0
   815   0000A7                     ?_labs:
   816                           	callstack 0
   817   0000A7                     ?___flneg:
   818                           	callstack 0
   819   0000A7                     ?___fltol:
   820                           	callstack 0
   821   0000A7                     putch@data:
   822                           	callstack 0
   823   0000A7                     ClearBuffer@i:
   824                           	callstack 0
   825   0000A7                     atoi@s:
   826                           	callstack 0
   827   0000A7                     memcpy@d1:
   828                           	callstack 0
   829   0000A7                     strcpy@dest:
   830                           	callstack 0
   831   0000A7                     ___fleq@ff1:
   832                           	callstack 0
   833   0000A7                     ___flneg@f1:
   834                           	callstack 0
   835   0000A7                     ___fltol@f1:
   836                           	callstack 0
   837   0000A7                     ___fladd@b:
   838                           	callstack 0
   839   0000A7                     ___fldiv@b:
   840                           	callstack 0
   841   0000A7                     ___flmul@b:
   842                           	callstack 0
   843   0000A7                     ___fpclassifyf@x:
   844                           	callstack 0
   845   0000A7                     labs@a:
   846                           	callstack 0
   847   0000A7                     
   848                           ; 1 bytes @ 0x27
   849   0000A7                     	ds	1
   850   0000A8                     fputc@c:
   851                           	callstack 0
   852                           
   853                           ; 2 bytes @ 0x28
   854   0000A8                     	ds	1
   855   0000A9                     memcpy@s1:
   856                           	callstack 0
   857   0000A9                     strcpy@src:
   858                           	callstack 0
   859   0000A9                     ??_atoi:
   860                           
   861                           ; 1 bytes @ 0x29
   862   0000A9                     	ds	1
   863   0000AA                     fputc@fp:
   864                           	callstack 0
   865                           
   866                           ; 2 bytes @ 0x2A
   867   0000AA                     	ds	1
   868   0000AB                     memcpy@n:
   869                           	callstack 0
   870   0000AB                     ___fleq@ff2:
   871                           	callstack 0
   872   0000AB                     ___fladd@a:
   873                           	callstack 0
   874   0000AB                     ___fldiv@a:
   875                           	callstack 0
   876   0000AB                     ___flmul@a:
   877                           	callstack 0
   878   0000AB                     ??_strcpy:
   879   0000AB                     ??___fpclassifyf:
   880   0000AB                     ??_labs:
   881   0000AB                     ??___fltol:
   882                           
   883                           ; 1 bytes @ 0x2B
   884   0000AB                     	ds	1
   885   0000AC                     atoi@neg:
   886                           	callstack 0
   887   0000AC                     ??_fputc:
   888                           
   889                           ; 1 bytes @ 0x2C
   890   0000AC                     	ds	1
   891   0000AD                     memcpy@tmp:
   892                           	callstack 0
   893   0000AD                     atoi@n:
   894                           	callstack 0
   895   0000AD                     strcpy@d:
   896                           	callstack 0
   897   0000AD                     
   898                           ; 1 bytes @ 0x2D
   899   0000AD                     	ds	1
   900   0000AE                     memcpy@d:
   901                           	callstack 0
   902                           
   903                           ; 2 bytes @ 0x2E
   904   0000AE                     	ds	1
   905   0000AF                     ?_GetString:
   906                           	callstack 0
   907   0000AF                     ?___xxtofl:
   908                           	callstack 0
   909   0000AF                     ___fltol@sign1:
   910                           	callstack 0
   911   0000AF                     GetString@str:
   912                           	callstack 0
   913   0000AF                     ___fpclassifyf@e:
   914                           	callstack 0
   915   0000AF                     ___xxtofl@val:
   916                           	callstack 0
   917   0000AF                     ??___fladd:
   918   0000AF                     ??___fldiv:
   919   0000AF                     ??___flmul:
   920   0000AF                     ??___fleq:
   921                           
   922                           ; 1 bytes @ 0x2F
   923   0000AF                     	ds	1
   924   0000B0                     ___fltol@exp1:
   925                           	callstack 0
   926   0000B0                     memcpy@s:
   927                           	callstack 0
   928                           
   929                           ; 2 bytes @ 0x30
   930   0000B0                     	ds	1
   931   0000B1                     fputs@s:
   932                           	callstack 0
   933   0000B1                     ___fpclassifyf@u:
   934                           	callstack 0
   935   0000B1                     
   936                           ; 1 bytes @ 0x31
   937   0000B1                     	ds	2
   938   0000B3                     ___fladd@signs:
   939                           	callstack 0
   940   0000B3                     ___flmul@sign:
   941                           	callstack 0
   942   0000B3                     fputs@fp:
   943                           	callstack 0
   944   0000B3                     ___fldiv@rem:
   945                           	callstack 0
   946   0000B3                     ??___xxtofl:
   947                           
   948                           ; 1 bytes @ 0x33
   949   0000B3                     	ds	1
   950   0000B4                     ___fladd@aexp:
   951                           	callstack 0
   952   0000B4                     ___flmul@aexp:
   953                           	callstack 0
   954                           
   955                           ; 1 bytes @ 0x34
   956   0000B4                     	ds	1
   957   0000B5                     ___fladd@bexp:
   958                           	callstack 0
   959   0000B5                     fputs@c:
   960                           	callstack 0
   961   0000B5                     ___flmul@grs:
   962                           	callstack 0
   963   0000B5                     
   964                           ; 1 bytes @ 0x35
   965   0000B5                     	ds	1
   966   0000B6                     ___fladd@grs:
   967                           	callstack 0
   968   0000B6                     fputs@i:
   969                           	callstack 0
   970                           
   971                           ; 2 bytes @ 0x36
   972   0000B6                     	ds	1
   973   0000B7                     ___fldiv@sign:
   974                           	callstack 0
   975   0000B7                     ___xxtofl@sign:
   976                           	callstack 0
   977                           
   978                           ; 1 bytes @ 0x37
   979   0000B7                     	ds	1
   980   0000B8                     ___xxtofl@exp:
   981                           	callstack 0
   982   0000B8                     ___fldiv@new_exp:
   983                           	callstack 0
   984   0000B8                     pad@fp:
   985                           	callstack 0
   986                           
   987                           ; 2 bytes @ 0x38
   988   0000B8                     	ds	1
   989   0000B9                     ___flmul@bexp:
   990                           	callstack 0
   991   0000B9                     ___xxtofl@arg:
   992                           	callstack 0
   993                           
   994                           ; 4 bytes @ 0x39
   995   0000B9                     	ds	1
   996   0000BA                     pad@buf:
   997                           	callstack 0
   998   0000BA                     ___fldiv@grs:
   999                           	callstack 0
  1000   0000BA                     ___flmul@prod:
  1001                           	callstack 0
  1002                           
  1003                           ; 4 bytes @ 0x3A
  1004   0000BA                     	ds	2
  1005   0000BC                     pad@p:
  1006                           	callstack 0
  1007                           
  1008                           ; 2 bytes @ 0x3C
  1009   0000BC                     	ds	2
  1010   0000BE                     ___fldiv@bexp:
  1011                           	callstack 0
  1012   0000BE                     ___flmul@temp:
  1013                           	callstack 0
  1014   0000BE                     ??_pad:
  1015                           
  1016                           ; 1 bytes @ 0x3E
  1017   0000BE                     	ds	1
  1018   0000BF                     ___fldiv@aexp:
  1019                           	callstack 0
  1020   0000BF                     pad@i:
  1021                           	callstack 0
  1022                           
  1023                           ; 2 bytes @ 0x3F
  1024   0000BF                     	ds	1
  1025   0000C0                     ?_floorf:
  1026                           	callstack 0
  1027   0000C0                     floorf@x:
  1028                           	callstack 0
  1029   0000C0                     ??___flge:
  1030                           
  1031                           ; 1 bytes @ 0x40
  1032   0000C0                     	ds	4
  1033   0000C4                     vfprintf@cfmt:
  1034                           	callstack 0
  1035   0000C4                     
  1036                           ; 1 bytes @ 0x44
  1037   0000C4                     	ds	1
  1038   0000C5                     
  1039                           ; 1 bytes @ 0x45
  1040                           
  1041                           	psect	cstackCOMRAM
  1042   000001                     __pcstackCOMRAM:
  1043                           	callstack 0
  1044   000001                     i2putch@data:
  1045                           	callstack 0
  1046   000001                     
  1047                           ; 1 bytes @ 0x0
  1048   000001                     	ds	1
  1049   000002                     ??_MyusartRead:
  1050                           
  1051                           ; 1 bytes @ 0x1
  1052   000002                     	ds	1
  1053   000003                     MyusartRead@data:
  1054                           	callstack 0
  1055                           
  1056                           ; 1 bytes @ 0x2
  1057   000003                     	ds	1
  1058   000004                     ??_H_ISR:
  1059                           
  1060                           ; 1 bytes @ 0x3
  1061   000004                     	ds	3
  1062   000007                     ?i1___fpclassifyf:
  1063                           	callstack 0
  1064   000007                     ?i1___flneg:
  1065                           	callstack 0
  1066   000007                     ?i1___fltol:
  1067                           	callstack 0
  1068   000007                     ?i1___fladd:
  1069                           	callstack 0
  1070   000007                     ?i1___fldiv:
  1071                           	callstack 0
  1072   000007                     ?i1___flmul:
  1073                           	callstack 0
  1074   000007                     ?i1___xxtofl:
  1075                           	callstack 0
  1076   000007                     ?i1_labs:
  1077                           	callstack 0
  1078   000007                     i1putch@data:
  1079                           	callstack 0
  1080   000007                     i1memcpy@d1:
  1081                           	callstack 0
  1082   000007                     i1strcpy@dest:
  1083                           	callstack 0
  1084   000007                     i1___fleq@ff1:
  1085                           	callstack 0
  1086   000007                     i1___flneg@f1:
  1087                           	callstack 0
  1088   000007                     i1___fltol@f1:
  1089                           	callstack 0
  1090   000007                     i1___fladd@b:
  1091                           	callstack 0
  1092   000007                     i1___fldiv@b:
  1093                           	callstack 0
  1094   000007                     i1___flmul@b:
  1095                           	callstack 0
  1096   000007                     i1___xxtofl@val:
  1097                           	callstack 0
  1098   000007                     i1___fpclassifyf@x:
  1099                           	callstack 0
  1100   000007                     i1labs@a:
  1101                           	callstack 0
  1102   000007                     
  1103                           ; 1 bytes @ 0x6
  1104   000007                     	ds	1
  1105   000008                     i1fputc@c:
  1106                           	callstack 0
  1107                           
  1108                           ; 2 bytes @ 0x7
  1109   000008                     	ds	1
  1110   000009                     i1memcpy@s1:
  1111                           	callstack 0
  1112   000009                     i1strcpy@src:
  1113                           	callstack 0
  1114                           
  1115                           ; 2 bytes @ 0x8
  1116   000009                     	ds	1
  1117   00000A                     i1fputc@fp:
  1118                           	callstack 0
  1119                           
  1120                           ; 2 bytes @ 0x9
  1121   00000A                     	ds	1
  1122   00000B                     i1memcpy@n:
  1123                           	callstack 0
  1124   00000B                     i1___fleq@ff2:
  1125                           	callstack 0
  1126   00000B                     i1___fladd@a:
  1127                           	callstack 0
  1128   00000B                     i1___fldiv@a:
  1129                           	callstack 0
  1130   00000B                     i1___flmul@a:
  1131                           	callstack 0
  1132   00000B                     ??i1___fltol:
  1133   00000B                     ??i1___xxtofl:
  1134   00000B                     ??i1___fpclassifyf:
  1135   00000B                     ??i1_labs:
  1136   00000B                     ??i1_strcpy:
  1137                           
  1138                           ; 1 bytes @ 0xA
  1139   00000B                     	ds	1
  1140   00000C                     ??i1_fputc:
  1141                           
  1142                           ; 1 bytes @ 0xB
  1143   00000C                     	ds	1
  1144   00000D                     i1memcpy@tmp:
  1145                           	callstack 0
  1146   00000D                     i1strcpy@d:
  1147                           	callstack 0
  1148   00000D                     
  1149                           ; 1 bytes @ 0xC
  1150   00000D                     	ds	1
  1151   00000E                     i1memcpy@d:
  1152                           	callstack 0
  1153                           
  1154                           ; 2 bytes @ 0xD
  1155   00000E                     	ds	1
  1156   00000F                     i1___fltol@sign1:
  1157                           	callstack 0
  1158   00000F                     i1___xxtofl@sign:
  1159                           	callstack 0
  1160   00000F                     i1___fpclassifyf@e:
  1161                           	callstack 0
  1162   00000F                     ??i1___fleq:
  1163   00000F                     ??i1___fladd:
  1164   00000F                     ??i1___fldiv:
  1165   00000F                     ??i1___flmul:
  1166                           
  1167                           ; 1 bytes @ 0xE
  1168   00000F                     	ds	1
  1169   000010                     i1___fltol@exp1:
  1170                           	callstack 0
  1171   000010                     i1___xxtofl@exp:
  1172                           	callstack 0
  1173   000010                     i1memcpy@s:
  1174                           	callstack 0
  1175                           
  1176                           ; 2 bytes @ 0xF
  1177   000010                     	ds	1
  1178   000011                     i1fputs@s:
  1179                           	callstack 0
  1180   000011                     i1___xxtofl@arg:
  1181                           	callstack 0
  1182   000011                     i1___fpclassifyf@u:
  1183                           	callstack 0
  1184                           
  1185                           ; 4 bytes @ 0x10
  1186   000011                     	ds	2
  1187   000013                     i1___fladd@signs:
  1188                           	callstack 0
  1189   000013                     i1___flmul@sign:
  1190                           	callstack 0
  1191   000013                     i1fputs@fp:
  1192                           	callstack 0
  1193   000013                     i1___fldiv@rem:
  1194                           	callstack 0
  1195                           
  1196                           ; 4 bytes @ 0x12
  1197   000013                     	ds	1
  1198   000014                     i1___fladd@aexp:
  1199                           	callstack 0
  1200   000014                     i1___flmul@aexp:
  1201                           	callstack 0
  1202                           
  1203                           ; 1 bytes @ 0x13
  1204   000014                     	ds	1
  1205   000015                     i1___fladd@bexp:
  1206                           	callstack 0
  1207   000015                     i1___flmul@bexp:
  1208                           	callstack 0
  1209   000015                     i1fputs@c:
  1210                           	callstack 0
  1211   000015                     
  1212                           ; 1 bytes @ 0x14
  1213   000015                     	ds	1
  1214   000016                     i1___fladd@grs:
  1215                           	callstack 0
  1216   000016                     i1fputs@i:
  1217                           	callstack 0
  1218   000016                     i1___flmul@grs:
  1219                           	callstack 0
  1220                           
  1221                           ; 4 bytes @ 0x15
  1222   000016                     	ds	1
  1223   000017                     i1___fldiv@sign:
  1224                           	callstack 0
  1225                           
  1226                           ; 1 bytes @ 0x16
  1227   000017                     	ds	1
  1228   000018                     i1___fldiv@new_exp:
  1229                           	callstack 0
  1230   000018                     i1pad@fp:
  1231                           	callstack 0
  1232                           
  1233                           ; 2 bytes @ 0x17
  1234   000018                     	ds	2
  1235   00001A                     i1pad@buf:
  1236                           	callstack 0
  1237   00001A                     i1___fldiv@grs:
  1238                           	callstack 0
  1239   00001A                     i1___flmul@prod:
  1240                           	callstack 0
  1241                           
  1242                           ; 4 bytes @ 0x19
  1243   00001A                     	ds	2
  1244   00001C                     i1pad@p:
  1245                           	callstack 0
  1246                           
  1247                           ; 2 bytes @ 0x1B
  1248   00001C                     	ds	2
  1249   00001E                     i1___fldiv@bexp:
  1250                           	callstack 0
  1251   00001E                     i1___flmul@temp:
  1252                           	callstack 0
  1253   00001E                     ??i1_pad:
  1254                           
  1255                           ; 1 bytes @ 0x1D
  1256   00001E                     	ds	1
  1257   00001F                     i1___fldiv@aexp:
  1258                           	callstack 0
  1259   00001F                     i1pad@i:
  1260                           	callstack 0
  1261                           
  1262                           ; 2 bytes @ 0x1E
  1263   00001F                     	ds	1
  1264   000020                     ?i1___flsub:
  1265                           	callstack 0
  1266   000020                     ?i1_floorf:
  1267                           	callstack 0
  1268   000020                     i1___flge@ff1:
  1269                           	callstack 0
  1270   000020                     i1___flsub@b:
  1271                           	callstack 0
  1272   000020                     i1floorf@x:
  1273                           	callstack 0
  1274                           
  1275                           ; 4 bytes @ 0x1F
  1276   000020                     	ds	4
  1277   000024                     i1___flge@ff2:
  1278                           	callstack 0
  1279   000024                     i1___flsub@a:
  1280                           	callstack 0
  1281   000024                     ??i1_floorf:
  1282                           
  1283                           ; 1 bytes @ 0x23
  1284   000024                     	ds	4
  1285   000028                     ??i1___flge:
  1286   000028                     
  1287                           ; 1 bytes @ 0x27
  1288   000028                     	ds	2
  1289   00002A                     i1floorf@m:
  1290                           	callstack 0
  1291                           
  1292                           ; 4 bytes @ 0x29
  1293   00002A                     	ds	4
  1294   00002E                     i1floorf@e:
  1295                           	callstack 0
  1296                           
  1297                           ; 2 bytes @ 0x2D
  1298   00002E                     	ds	2
  1299   000030                     i1floorf@u:
  1300                           	callstack 0
  1301                           
  1302                           ; 4 bytes @ 0x2F
  1303   000030                     	ds	4
  1304   000034                     i1efgtoa@fp:
  1305                           	callstack 0
  1306                           
  1307                           ; 2 bytes @ 0x33
  1308   000034                     	ds	2
  1309   000036                     i1efgtoa@f:
  1310                           	callstack 0
  1311                           
  1312                           ; 4 bytes @ 0x35
  1313   000036                     	ds	4
  1314   00003A                     i1efgtoa@c:
  1315                           	callstack 0
  1316                           
  1317                           ; 1 bytes @ 0x39
  1318   00003A                     	ds	1
  1319   00003B                     ??i1_efgtoa:
  1320                           
  1321                           ; 1 bytes @ 0x3A
  1322   00003B                     	ds	2
  1323   00003D                     i1efgtoa@ne:
  1324                           	callstack 0
  1325                           
  1326                           ; 2 bytes @ 0x3C
  1327   00003D                     	ds	2
  1328   00003F                     i1efgtoa@p:
  1329                           	callstack 0
  1330                           
  1331                           ; 2 bytes @ 0x3E
  1332   00003F                     	ds	2
  1333   000041                     i1efgtoa@t:
  1334                           	callstack 0
  1335                           
  1336                           ; 2 bytes @ 0x40
  1337   000041                     	ds	2
  1338   000043                     i1_efgtoa$1841:
  1339                           	callstack 0
  1340                           
  1341                           ; 2 bytes @ 0x42
  1342   000043                     	ds	2
  1343   000045                     i1efgtoa@pp:
  1344                           	callstack 0
  1345                           
  1346                           ; 1 bytes @ 0x44
  1347   000045                     	ds	1
  1348   000046                     i1efgtoa@mode:
  1349                           	callstack 0
  1350                           
  1351                           ; 1 bytes @ 0x45
  1352   000046                     	ds	1
  1353   000047                     i1efgtoa@nmode:
  1354                           	callstack 0
  1355                           
  1356                           ; 1 bytes @ 0x46
  1357   000047                     	ds	1
  1358   000048                     i1efgtoa@d:
  1359                           	callstack 0
  1360                           
  1361                           ; 2 bytes @ 0x47
  1362   000048                     	ds	2
  1363   00004A                     i1efgtoa@m:
  1364                           	callstack 0
  1365                           
  1366                           ; 2 bytes @ 0x49
  1367   00004A                     	ds	2
  1368   00004C                     i1efgtoa@e:
  1369                           	callstack 0
  1370                           
  1371                           ; 2 bytes @ 0x4B
  1372   00004C                     	ds	2
  1373   00004E                     i1efgtoa@w:
  1374                           	callstack 0
  1375                           
  1376                           ; 2 bytes @ 0x4D
  1377   00004E                     	ds	2
  1378   000050                     i1efgtoa@ou:
  1379                           	callstack 0
  1380                           
  1381                           ; 4 bytes @ 0x4F
  1382   000050                     	ds	4
  1383   000054                     i1efgtoa@i:
  1384                           	callstack 0
  1385                           
  1386                           ; 2 bytes @ 0x53
  1387   000054                     	ds	2
  1388   000056                     i1efgtoa@h:
  1389                           	callstack 0
  1390                           
  1391                           ; 4 bytes @ 0x55
  1392   000056                     	ds	4
  1393   00005A                     i1efgtoa@l:
  1394                           	callstack 0
  1395                           
  1396                           ; 4 bytes @ 0x59
  1397   00005A                     	ds	4
  1398   00005E                     i1efgtoa@sign:
  1399                           	callstack 0
  1400                           
  1401                           ; 1 bytes @ 0x5D
  1402   00005E                     	ds	1
  1403   00005F                     i1efgtoa@g:
  1404                           	callstack 0
  1405                           
  1406                           ; 4 bytes @ 0x5E
  1407   00005F                     	ds	4
  1408   000063                     i1efgtoa@n:
  1409                           	callstack 0
  1410                           
  1411                           ; 2 bytes @ 0x62
  1412   000063                     	ds	2
  1413   000065                     i1efgtoa@u:
  1414                           	callstack 0
  1415                           
  1416                           ; 4 bytes @ 0x64
  1417   000065                     	ds	4
  1418   000069                     i1vfpfcnvrt@fp:
  1419                           	callstack 0
  1420                           
  1421                           ; 2 bytes @ 0x68
  1422   000069                     	ds	2
  1423   00006B                     i1vfpfcnvrt@fmt:
  1424                           	callstack 0
  1425                           
  1426                           ; 1 bytes @ 0x6A
  1427   00006B                     	ds	1
  1428   00006C                     i1vfpfcnvrt@ap:
  1429                           	callstack 0
  1430                           
  1431                           ; 2 bytes @ 0x6B
  1432   00006C                     	ds	2
  1433   00006E                     ??i1_vfpfcnvrt:
  1434                           
  1435                           ; 1 bytes @ 0x6D
  1436   00006E                     	ds	2
  1437   000070                     i1vfprintf@cfmt:
  1438                           	callstack 0
  1439   000070                     
  1440                           ; 1 bytes @ 0x6F
  1441   000070                     	ds	1
  1442   000071                     i1printf@ap:
  1443                           	callstack 0
  1444   000071                     
  1445                           ; 1 bytes @ 0x70
  1446   000071                     	ds	2
  1447   000073                     
  1448                           ; 1 bytes @ 0x72
  1449 ;;
  1450 ;;Main: autosize = 0, tempsize = 0, incstack = 0, save=0
  1451 ;;
  1452 ;; *************** function _main *****************
  1453 ;; Defined at:
  1454 ;;		line 498 in file "3b.c"
  1455 ;; Parameters:    Size  Location     Type
  1456 ;;		None
  1457 ;; Auto vars:     Size  Location     Type
  1458 ;;  str           100    0[BANK2 ] unsigned char [100]
  1459 ;; Return value:  Size  Location     Type
  1460 ;;                  1    wreg      void 
  1461 ;; Registers used:
  1462 ;;		wreg, fsr1l, fsr1h, fsr2l, fsr2h, status,2, status,0, tblptrl, tblptrh, tblptru, prodl, prodh, cstack
  1463 ;; Tracked objects:
  1464 ;;		On entry : 0/0
  1465 ;;		On exit  : 0/0
  1466 ;;		Unchanged: 0/0
  1467 ;; Data sizes:     COMRAM   BANK0   BANK1   BANK2   BANK3   BANK4   BANK5
  1468 ;;      Params:         0       0       0       0       0       0       0
  1469 ;;      Locals:         0       0       0     100       0       0       0
  1470 ;;      Temps:          0       0       0       0       0       0       0
  1471 ;;      Totals:         0       0       0     100       0       0       0
  1472 ;;Total ram usage:      100 bytes
  1473 ;; Hardware stack levels required when called: 24
  1474 ;; This function calls:
  1475 ;;		_GetString
  1476 ;;		_Initialize
  1477 ;;		_keyboard_input
  1478 ;; This function is called by:
  1479 ;;		Startup code after reset
  1480 ;; This function uses a non-reentrant model
  1481 ;;
  1482                           
  1483                           	psect	text0
  1484   004EF2                     __ptext0:
  1485                           	callstack 0
  1486   004EF2                     _main:
  1487                           	callstack 7
  1488   004EF2  ECE1  F028         	call	_Initialize	;wreg free
  1489   004EF6                     l9294:
  1490   004EF6  0E64               	movlw	low main@str
  1491   004EF8  0100               	movlb	0	; () banked
  1492   004EFA  6FAF               	movwf	GetString@str& (0+255),b
  1493   004EFC  0E02               	movlw	high main@str
  1494   004EFE  6FB0               	movwf	(GetString@str+1)& (0+255),b
  1495   004F00  ECEE  F024         	call	_GetString	;wreg free
  1496   004F04  0100               	movlb	0	; () banked
  1497   004F06  51AF               	movf	?_GetString& (0+255),w,b
  1498   004F08  11B0               	iorwf	(?_GetString+1)& (0+255),w,b
  1499   004F0A  B4D8               	btfsc	status,2,c
  1500   004F0C  EF8A  F027         	goto	u13331
  1501   004F10  EF8C  F027         	goto	u13330
  1502   004F14                     u13331:
  1503   004F14  EF93  F027         	goto	l9298
  1504   004F18                     u13330:
  1505   004F18                     
  1506                           ; BSR set to: 0
  1507   004F18  0E64               	movlw	low main@str
  1508   004F1A  0101               	movlb	1	; () banked
  1509   004F1C  6F5E               	movwf	keyboard_input@str& (0+255),b
  1510   004F1E  0E02               	movlw	high main@str
  1511   004F20  6F5F               	movwf	(keyboard_input@str+1)& (0+255),b
  1512   004F22  EC32  F024         	call	_keyboard_input	;wreg free
  1513   004F26                     l9298:
  1514   004F26  B2C2               	btfsc	194,1,c	;volatile
  1515   004F28  EF98  F027         	goto	u13341
  1516   004F2C  EF9A  F027         	goto	u13340
  1517   004F30                     u13341:
  1518   004F30  EF7B  F027         	goto	l9294
  1519   004F34                     u13340:
  1520   004F34  82C2               	bsf	194,1,c	;volatile
  1521   004F36  EF7B  F027         	goto	l9294
  1522   004F3A  EF97  F000         	goto	start
  1523   004F3E                     __end_of_main:
  1524                           	callstack 0
  1525                           
  1526 ;; *************** function _keyboard_input *****************
  1527 ;; Defined at:
  1528 ;;		line 467 in file "3b.c"
  1529 ;; Parameters:    Size  Location     Type
  1530 ;;  str             2   94[BANK1 ] PTR unsigned char 
  1531 ;;		 -> main@str(100), 
  1532 ;; Auto vars:     Size  Location     Type
  1533 ;;		None
  1534 ;; Return value:  Size  Location     Type
  1535 ;;                  1    wreg      void 
  1536 ;; Registers used:
  1537 ;;		wreg, fsr1l, fsr1h, fsr2l, fsr2h, status,2, status,0, tblptrl, tblptrh, tblptru, prodl, prodh, cstack
  1538 ;; Tracked objects:
  1539 ;;		On entry : 0/0
  1540 ;;		On exit  : 0/0
  1541 ;;		Unchanged: 0/0
  1542 ;; Data sizes:     COMRAM   BANK0   BANK1   BANK2   BANK3   BANK4   BANK5
  1543 ;;      Params:         0       0       2       0       0       0       0
  1544 ;;      Locals:         0       0       4       0       0       0       0
  1545 ;;      Temps:          0       0       0       0       0       0       0
  1546 ;;      Totals:         0       0       6       0       0       0       0
  1547 ;;Total ram usage:        6 bytes
  1548 ;; Hardware stack levels used: 1
  1549 ;; Hardware stack levels required when called: 23
  1550 ;; This function calls:
  1551 ;;		___fldiv
  1552 ;;		___xxtofl
  1553 ;;		_atoi
  1554 ;;		_clear_terminal
  1555 ;;		_printf
  1556 ;; This function is called by:
  1557 ;;		_main
  1558 ;; This function uses a non-reentrant model
  1559 ;;
  1560                           
  1561                           	psect	text1
  1562   004864                     __ptext1:
  1563                           	callstack 0
  1564   004864                     _keyboard_input:
  1565                           	callstack 7
  1566   004864  C15E  F0A7         	movff	keyboard_input@str,atoi@s
  1567   004868  C15F  F0A8         	movff	keyboard_input@str+1,atoi@s+1
  1568   00486C  ECA5  F01F         	call	_atoi	;wreg free
  1569   004870  0100               	movlb	0	; () banked
  1570   004872  C0A7  F0AF         	movff	?_atoi,___xxtofl@val
  1571   004876  C0A8  F0B0         	movff	?_atoi+1,___xxtofl@val+1
  1572   00487A  0E00               	movlw	0
  1573   00487C  BFB0               	btfsc	(___xxtofl@val+1)& (0+255),7,b
  1574   00487E  0EFF               	movlw	-1
  1575   004880  6FB1               	movwf	(___xxtofl@val+2)& (0+255),b
  1576   004882  6FB2               	movwf	(___xxtofl@val+3)& (0+255),b
  1577   004884  0E01               	movlw	1
  1578   004886  ECA8  F01B         	call	___xxtofl
  1579   00488A  C0AF  F0D5         	movff	?___xxtofl,_x
  1580   00488E  C0B0  F0D6         	movff	?___xxtofl+1,_x+1
  1581   004892  C0B1  F0D7         	movff	?___xxtofl+2,_x+2
  1582   004896  C0B2  F0D8         	movff	?___xxtofl+3,_x+3
  1583   00489A  C0CD  F0A7         	movff	_g_value,___fldiv@b
  1584   00489E  C0CE  F0A8         	movff	_g_value+1,___fldiv@b+1
  1585   0048A2  C0CF  F0A9         	movff	_g_value+2,___fldiv@b+2
  1586   0048A6  C0D0  F0AA         	movff	_g_value+3,___fldiv@b+3
  1587   0048AA  C0D5  F0AB         	movff	_x,___fldiv@a
  1588   0048AE  C0D6  F0AC         	movff	_x+1,___fldiv@a+1
  1589   0048B2  C0D7  F0AD         	movff	_x+2,___fldiv@a+2
  1590   0048B6  C0D8  F0AE         	movff	_x+3,___fldiv@a+3
  1591   0048BA  EC03  F016         	call	___fldiv	;wreg free
  1592   0048BE  C0A7  F160         	movff	?___fldiv,_keyboard_input$2190
  1593   0048C2  C0A8  F161         	movff	?___fldiv+1,_keyboard_input$2190+1
  1594   0048C6  C0A9  F162         	movff	?___fldiv+2,_keyboard_input$2190+2
  1595   0048CA  C0AA  F163         	movff	?___fldiv+3,_keyboard_input$2190+3
  1596   0048CE  0E11               	movlw	low STR_2
  1597   0048D0  0101               	movlb	1	; () banked
  1598   0048D2  6F57               	movwf	printf@fmt& (0+255),b
  1599   0048D4  C160  F158         	movff	_keyboard_input$2190,?_printf+1
  1600   0048D8  C161  F159         	movff	_keyboard_input$2190+1,?_printf+2
  1601   0048DC  C162  F15A         	movff	_keyboard_input$2190+2,?_printf+3
  1602   0048E0  C163  F15B         	movff	_keyboard_input$2190+3,?_printf+4
  1603   0048E4  ECCF  F028         	call	_printf	;wreg free
  1604   0048E8  EC25  F029         	call	_clear_terminal	;wreg free
  1605   0048EC  0012               	return		;funcret
  1606   0048EE                     __end_of_keyboard_input:
  1607                           	callstack 0
  1608                           
  1609 ;; *************** function _clear_terminal *****************
  1610 ;; Defined at:
  1611 ;;		line 317 in file "3b.c"
  1612 ;; Parameters:    Size  Location     Type
  1613 ;;		None
  1614 ;; Auto vars:     Size  Location     Type
  1615 ;;		None
  1616 ;; Return value:  Size  Location     Type
  1617 ;;                  1    wreg      void 
  1618 ;; Registers used:
  1619 ;;		wreg, fsr1l, fsr1h, fsr2l, fsr2h, status,2, status,0, tblptrl, tblptrh, tblptru, prodl, prodh, cstack
  1620 ;; Tracked objects:
  1621 ;;		On entry : 0/0
  1622 ;;		On exit  : 0/0
  1623 ;;		Unchanged: 0/0
  1624 ;; Data sizes:     COMRAM   BANK0   BANK1   BANK2   BANK3   BANK4   BANK5
  1625 ;;      Params:         0       0       0       0       0       0       0
  1626 ;;      Locals:         0       0       0       0       0       0       0
  1627 ;;      Temps:          0       0       0       0       0       0       0
  1628 ;;      Totals:         0       0       0       0       0       0       0
  1629 ;;Total ram usage:        0 bytes
  1630 ;; Hardware stack levels used: 1
  1631 ;; Hardware stack levels required when called: 22
  1632 ;; This function calls:
  1633 ;;		_printf
  1634 ;; This function is called by:
  1635 ;;		_keyboard_input
  1636 ;; This function uses a non-reentrant model
  1637 ;;
  1638                           
  1639                           	psect	text2
  1640   00524A                     __ptext2:
  1641                           	callstack 0
  1642   00524A                     _clear_terminal:
  1643                           	callstack 7
  1644   00524A  0E01               	movlw	low STR_1
  1645   00524C  0101               	movlb	1	; () banked
  1646   00524E  6F57               	movwf	printf@fmt& (0+255),b
  1647   005250  ECCF  F028         	call	_printf	;wreg free
  1648   005254  0012               	return		;funcret
  1649   005256                     __end_of_clear_terminal:
  1650                           	callstack 0
  1651                           
  1652 ;; *************** function _printf *****************
  1653 ;; Defined at:
  1654 ;;		line 5 in file "C:\Program Files\Microchip\xc8\v3.00\pic\sources\c99\common\printf.c"
  1655 ;; Parameters:    Size  Location     Type
  1656 ;;  fmt             1   87[BANK1 ] PTR const unsigned char 
  1657 ;;		 -> STR_3(4), STR_2(4), STR_1(8), 
  1658 ;; Auto vars:     Size  Location     Type
  1659 ;;  ap              2   92[BANK1 ] PTR void [1]
  1660 ;;		 -> ?_printf(2), 
  1661 ;;  ret             2    0        int 
  1662 ;; Return value:  Size  Location     Type
  1663 ;;                  2   87[BANK1 ] int 
  1664 ;; Registers used:
  1665 ;;		wreg, fsr1l, fsr1h, fsr2l, fsr2h, status,2, status,0, tblptrl, tblptrh, tblptru, prodl, prodh, cstack
  1666 ;; Tracked objects:
  1667 ;;		On entry : 0/0
  1668 ;;		On exit  : 0/0
  1669 ;;		Unchanged: 0/0
  1670 ;; Data sizes:     COMRAM   BANK0   BANK1   BANK2   BANK3   BANK4   BANK5
  1671 ;;      Params:         0       0       5       0       0       0       0
  1672 ;;      Locals:         0       0       2       0       0       0       0
  1673 ;;      Temps:          0       0       0       0       0       0       0
  1674 ;;      Totals:         0       0       7       0       0       0       0
  1675 ;;Total ram usage:        7 bytes
  1676 ;; Hardware stack levels used: 1
  1677 ;; Hardware stack levels required when called: 21
  1678 ;; This function calls:
  1679 ;;		_vfprintf
  1680 ;; This function is called by:
  1681 ;;		_clear_terminal
  1682 ;;		_keyboard_input
  1683 ;; This function uses a non-reentrant model
  1684 ;;
  1685                           
  1686                           	psect	text3
  1687   00519E                     __ptext3:
  1688                           	callstack 0
  1689   00519E                     _printf:
  1690                           	callstack 8
  1691   00519E  0E58               	movlw	low (?_printf+1)
  1692   0051A0  0101               	movlb	1	; () banked
  1693   0051A2  6F5C               	movwf	printf@ap& (0+255),b
  1694   0051A4  0E01               	movlw	high (?_printf+1)
  1695   0051A6  6F5D               	movwf	(printf@ap+1)& (0+255),b
  1696   0051A8                     
  1697                           ; BSR set to: 1
  1698   0051A8  0E00               	movlw	0
  1699   0051AA  6F52               	movwf	vfprintf@fp& (0+255),b
  1700   0051AC  0E00               	movlw	0
  1701   0051AE  6F53               	movwf	(vfprintf@fp+1)& (0+255),b
  1702   0051B0  C157  F154         	movff	printf@fmt,vfprintf@fmt
  1703   0051B4  0E5C               	movlw	low printf@ap
  1704   0051B6  6F55               	movwf	vfprintf@ap& (0+255),b
  1705   0051B8  0E01               	movlw	high printf@ap
  1706   0051BA  6F56               	movwf	(vfprintf@ap+1)& (0+255),b
  1707   0051BC  EC9F  F027         	call	_vfprintf	;wreg free
  1708   0051C0  0012               	return		;funcret
  1709   0051C2                     __end_of_printf:
  1710                           	callstack 0
  1711                           
  1712 ;; *************** function _vfprintf *****************
  1713 ;; Defined at:
  1714 ;;		line 1817 in file "C:\Program Files\Microchip\xc8\v3.00\pic\sources\c99\common\doprnt.c"
  1715 ;; Parameters:    Size  Location     Type
  1716 ;;  fp              2   82[BANK1 ] PTR struct _IO_FILE
  1717 ;;		 -> NULL(0), 
  1718 ;;  fmt             1   84[BANK1 ] PTR const unsigned char 
  1719 ;;		 -> STR_3(4), STR_2(4), STR_1(8), 
  1720 ;;  ap              2   85[BANK1 ] PTR PTR void 
  1721 ;;		 -> printf@ap(2), 
  1722 ;; Auto vars:     Size  Location     Type
  1723 ;;  cfmt            1   68[BANK0 ] PTR unsigned char 
  1724 ;;		 -> STR_3(4), STR_2(4), STR_1(8), 
  1725 ;; Return value:  Size  Location     Type
  1726 ;;                  2   82[BANK1 ] int 
  1727 ;; Registers used:
  1728 ;;		wreg, fsr1l, fsr1h, fsr2l, fsr2h, status,2, status,0, tblptrl, tblptrh, tblptru, prodl, prodh, cstack
  1729 ;; Tracked objects:
  1730 ;;		On entry : 0/0
  1731 ;;		On exit  : 0/0
  1732 ;;		Unchanged: 0/0
  1733 ;; Data sizes:     COMRAM   BANK0   BANK1   BANK2   BANK3   BANK4   BANK5
  1734 ;;      Params:         0       0       5       0       0       0       0
  1735 ;;      Locals:         0       1       0       0       0       0       0
  1736 ;;      Temps:          0       0       0       0       0       0       0
  1737 ;;      Totals:         0       1       5       0       0       0       0
  1738 ;;Total ram usage:        6 bytes
  1739 ;; Hardware stack levels used: 1
  1740 ;; Hardware stack levels required when called: 20
  1741 ;; This function calls:
  1742 ;;		_vfpfcnvrt
  1743 ;; This function is called by:
  1744 ;;		_printf
  1745 ;; This function uses a non-reentrant model
  1746 ;;
  1747                           
  1748                           	psect	text4
  1749   004F3E                     __ptext4:
  1750                           	callstack 0
  1751   004F3E                     _vfprintf:
  1752                           	callstack 8
  1753   004F3E                     
  1754                           ;C:\Program Files\Microchip\xc8\v3.00\pic\sources\c99\common\doprnt.c: 1817: int vfprint
      +                          f(FILE *fp, const char *fmt, va_list ap);C:\Program Files\Microchip\xc8\v3.00\pic\source
      +                          s\c99\common\doprnt.c: 1818: {;C:\Program Files\Microchip\xc8\v3.00\pic\sources\c99\comm
      +                          on\doprnt.c: 1820:     char *cfmt;;C:\Program Files\Microchip\xc8\v3.00\pic\sources\c99\
      +                          common\doprnt.c: 1822:     cfmt = (char *)fmt;
  1755   004F3E  C154  F0C4         	movff	vfprintf@fmt,vfprintf@cfmt
  1756                           
  1757                           ;C:\Program Files\Microchip\xc8\v3.00\pic\sources\c99\common\doprnt.c: 1826:     while (
      +                          *cfmt) {
  1758   004F42  EFB0  F027         	goto	l9190
  1759   004F46                     l9188:
  1760                           
  1761                           ;C:\Program Files\Microchip\xc8\v3.00\pic\sources\c99\common\doprnt.c: 1830:    vfpfcnvr
      +                          t(fp, &cfmt, ap);
  1762   004F46  C152  F145         	movff	vfprintf@fp,vfpfcnvrt@fp
  1763   004F4A  C153  F146         	movff	vfprintf@fp+1,vfpfcnvrt@fp+1
  1764   004F4E  0EC4               	movlw	low vfprintf@cfmt
  1765   004F50  0101               	movlb	1	; () banked
  1766   004F52  6F47               	movwf	vfpfcnvrt@fmt& (0+255),b
  1767   004F54  C155  F148         	movff	vfprintf@ap,vfpfcnvrt@ap
  1768   004F58  C156  F149         	movff	vfprintf@ap+1,vfpfcnvrt@ap+1
  1769   004F5C  EC84  F01C         	call	_vfpfcnvrt	;wreg free
  1770   004F60                     l9190:
  1771                           
  1772                           ;C:\Program Files\Microchip\xc8\v3.00\pic\sources\c99\common\doprnt.c: 1826:     while (
      +                          *cfmt) {
  1773   004F60  C0C4  FFF6         	movff	vfprintf@cfmt,tblptrl
  1774   004F64                     	if	1	;There is more than 1 active tblptr byte
  1775   004F64  0E06               	movlw	high __smallconst
  1776   004F66  6EF7               	movwf	tblptrh,c
  1777   004F68                     	endif
  1778   004F68                     	if	0	;tblptru may be non-zero
  1779   004F68                     	endif
  1780   004F68                     	if	0	;tblptru may be non-zero
  1781   004F68                     	endif
  1782   004F68  0008               	tblrd		*
  1783   004F6A  50F5               	movf	tablat,w,c
  1784   004F6C  0900               	iorlw	0
  1785   004F6E  A4D8               	btfss	status,2,c
  1786   004F70  EFBC  F027         	goto	u13241
  1787   004F74  EFBE  F027         	goto	u13240
  1788   004F78                     u13241:
  1789   004F78  EFA3  F027         	goto	l9188
  1790   004F7C                     u13240:
  1791   004F7C                     
  1792                           ;C:\Program Files\Microchip\xc8\v3.00\pic\sources\c99\common\doprnt.c: 1835:  return 0;
  1793   004F7C  0E00               	movlw	0
  1794   004F7E  0101               	movlb	1	; () banked
  1795   004F80  6F53               	movwf	(?_vfprintf+1)& (0+255),b
  1796   004F82  0E00               	movlw	0
  1797   004F84  6F52               	movwf	?_vfprintf& (0+255),b
  1798   004F86                     
  1799                           ; BSR set to: 1
  1800   004F86  0012               	return		;funcret
  1801   004F88                     __end_of_vfprintf:
  1802                           	callstack 0
  1803                           
  1804 ;; *************** function _vfpfcnvrt *****************
  1805 ;; Defined at:
  1806 ;;		line 1177 in file "C:\Program Files\Microchip\xc8\v3.00\pic\sources\c99\common\doprnt.c"
  1807 ;; Parameters:    Size  Location     Type
  1808 ;;  fp              2   69[BANK1 ] PTR struct _IO_FILE
  1809 ;;		 -> NULL(0), 
  1810 ;;  fmt             1   71[BANK1 ] PTR PTR unsigned char 
  1811 ;;		 -> vfprintf@cfmt(1), 
  1812 ;;  ap              2   72[BANK1 ] PTR PTR void 
  1813 ;;		 -> printf@ap(2), 
  1814 ;; Auto vars:     Size  Location     Type
  1815 ;;  convarg         4   76[BANK1 ] struct .
  1816 ;;  cp              1   81[BANK1 ] PTR unsigned char 
  1817 ;;		 -> STR_3(4), STR_2(4), STR_1(8), 
  1818 ;;  c               1   80[BANK1 ] unsigned char 
  1819 ;;  done            1    0        _Bool 
  1820 ;; Return value:  Size  Location     Type
  1821 ;;                  1    wreg      void 
  1822 ;; Registers used:
  1823 ;;		wreg, fsr1l, fsr1h, fsr2l, fsr2h, status,2, status,0, tblptrl, tblptrh, tblptru, prodl, prodh, cstack
  1824 ;; Tracked objects:
  1825 ;;		On entry : 0/0
  1826 ;;		On exit  : 0/0
  1827 ;;		Unchanged: 0/0
  1828 ;; Data sizes:     COMRAM   BANK0   BANK1   BANK2   BANK3   BANK4   BANK5
  1829 ;;      Params:         0       0       5       0       0       0       0
  1830 ;;      Locals:         0       0       6       0       0       0       0
  1831 ;;      Temps:          0       0       2       0       0       0       0
  1832 ;;      Totals:         0       0      13       0       0       0       0
  1833 ;;Total ram usage:       13 bytes
  1834 ;; Hardware stack levels used: 1
  1835 ;; Hardware stack levels required when called: 19
  1836 ;; This function calls:
  1837 ;;		_efgtoa
  1838 ;;		_fputc
  1839 ;; This function is called by:
  1840 ;;		_vfprintf
  1841 ;; This function uses a non-reentrant model
  1842 ;;
  1843                           
  1844                           	psect	text5
  1845   003908                     __ptext5:
  1846                           	callstack 0
  1847   003908                     _vfpfcnvrt:
  1848                           	callstack 8
  1849   003908                     
  1850                           ;C:\Program Files\Microchip\xc8\v3.00\pic\sources\c99\common\doprnt.c: 1177: vfpfcnvrt(F
      +                          ILE *fp, char *fmt[], va_list ap);C:\Program Files\Microchip\xc8\v3.00\pic\sources\c99\c
      +                          ommon\doprnt.c: 1178: {;C:\Program Files\Microchip\xc8\v3.00\pic\sources\c99\common\dopr
      +                          nt.c: 1179:     char c, *cp;;C:\Program Files\Microchip\xc8\v3.00\pic\sources\c99\common
      +                          \doprnt.c: 1180:     _Bool done;;C:\Program Files\Microchip\xc8\v3.00\pic\sources\c99\co
      +                          mmon\doprnt.c: 1188:  } convarg;;C:\Program Files\Microchip\xc8\v3.00\pic\sources\c99\co
      +                          mmon\doprnt.c: 1201:     if ((*fmt)[0] == '%') {
  1851   003908  0101               	movlb	1	; () banked
  1852   00390A  5147               	movf	vfpfcnvrt@fmt& (0+255),w,b
  1853   00390C  6ED9               	movwf	fsr2l,c
  1854   00390E  6ADA               	clrf	fsr2h,c
  1855   003910  CFDF FFF6          	movff	indf2,tblptrl
  1856   003914                     	if	1	;There is more than 1 active tblptr byte
  1857   003914  0E06               	movlw	high __smallconst
  1858   003916  6EF7               	movwf	tblptrh,c
  1859   003918                     	endif
  1860   003918                     	if	0	;tblptru may be non-zero
  1861   003918                     	endif
  1862   003918                     	if	0	;tblptru may be non-zero
  1863   003918                     	endif
  1864   003918  0008               	tblrd		*
  1865   00391A  50F5               	movf	tablat,w,c
  1866   00391C  0A25               	xorlw	37
  1867   00391E  A4D8               	btfss	status,2,c
  1868   003920  EF94  F01C         	goto	u13201
  1869   003924  EF96  F01C         	goto	u13200
  1870   003928                     u13201:
  1871   003928  EF49  F01D         	goto	l9130
  1872   00392C                     u13200:
  1873   00392C                     
  1874                           ; BSR set to: 1
  1875                           ;C:\Program Files\Microchip\xc8\v3.00\pic\sources\c99\common\doprnt.c: 1202:         ++*
      +                          fmt;
  1876   00392C  5147               	movf	vfpfcnvrt@fmt& (0+255),w,b
  1877   00392E  6ED9               	movwf	fsr2l,c
  1878   003930  6ADA               	clrf	fsr2h,c
  1879   003932  2ADF               	incf	indf2,f,c
  1880   003934                     
  1881                           ; BSR set to: 1
  1882                           ;C:\Program Files\Microchip\xc8\v3.00\pic\sources\c99\common\doprnt.c: 1204:         fla
      +                          gs = width = 0;
  1883   003934  0E00               	movlw	0
  1884   003936  6E74               	movwf	(_width+1)^0,c
  1885   003938  0E00               	movlw	0
  1886   00393A  6E73               	movwf	_width^0,c
  1887   00393C  C073  F077         	movff	_width,_flags
  1888   003940                     
  1889                           ; BSR set to: 1
  1890                           ;C:\Program Files\Microchip\xc8\v3.00\pic\sources\c99\common\doprnt.c: 1205:         pre
      +                          c = -1;
  1891   003940  6875               	setf	_prec^0,c
  1892   003942  6876               	setf	(_prec+1)^0,c
  1893   003944                     
  1894                           ; BSR set to: 1
  1895                           ;C:\Program Files\Microchip\xc8\v3.00\pic\sources\c99\common\doprnt.c: 1689:   cp = *fmt
      +                          ;
  1896   003944  5147               	movf	vfpfcnvrt@fmt& (0+255),w,b
  1897   003946  6ED9               	movwf	fsr2l,c
  1898   003948  6ADA               	clrf	fsr2h,c
  1899   00394A  50DF               	movf	indf2,w,c
  1900   00394C  6F51               	movwf	vfpfcnvrt@cp& (0+255),b
  1901   00394E                     
  1902                           ; BSR set to: 1
  1903                           ;C:\Program Files\Microchip\xc8\v3.00\pic\sources\c99\common\doprnt.c: 1690:   c = *cp;
  1904   00394E  C151  FFF6         	movff	vfpfcnvrt@cp,tblptrl
  1905   003952                     	if	1	;There is more than 1 active tblptr byte
  1906   003952  0E06               	movlw	high __smallconst
  1907   003954  6EF7               	movwf	tblptrh,c
  1908   003956                     	endif
  1909   003956                     	if	0	;tblptru may be non-zero
  1910   003956                     	endif
  1911   003956                     	if	0	;tblptru may be non-zero
  1912   003956                     	endif
  1913   003956  0008               	tblrd		*
  1914   003958  CFF5 F150          	movff	tablat,vfpfcnvrt@c
  1915                           
  1916                           ;C:\Program Files\Microchip\xc8\v3.00\pic\sources\c99\common\doprnt.c: 1691:   switch(c)
      +                           {
  1917   00395C  EFBA  F01C         	goto	l9104
  1918   003960                     l9098:
  1919                           
  1920                           ; BSR set to: 1
  1921                           ;C:\Program Files\Microchip\xc8\v3.00\pic\sources\c99\common\doprnt.c: 1695:     cp++;
  1922   003960  2B51               	incf	vfpfcnvrt@cp& (0+255),f,b
  1923                           
  1924                           ;C:\Program Files\Microchip\xc8\v3.00\pic\sources\c99\common\doprnt.c: 1696:     break;
  1925   003962  EFC9  F01C         	goto	l9106
  1926   003966                     l9100:
  1927                           
  1928                           ; BSR set to: 1
  1929                           ;C:\Program Files\Microchip\xc8\v3.00\pic\sources\c99\common\doprnt.c: 1721:     c = 'l'
      +                          ;
  1930   003966  0E6C               	movlw	108
  1931   003968  6F50               	movwf	vfpfcnvrt@c& (0+255),b
  1932                           
  1933                           ;C:\Program Files\Microchip\xc8\v3.00\pic\sources\c99\common\doprnt.c: 1722:     break;
  1934   00396A  EFC9  F01C         	goto	l9106
  1935   00396E                     l1050:
  1936                           
  1937                           ; BSR set to: 1
  1938                           ;C:\Program Files\Microchip\xc8\v3.00\pic\sources\c99\common\doprnt.c: 1724:     c = 0;
  1939   00396E  6B50               	clrf	vfpfcnvrt@c& (0+255),b
  1940                           
  1941                           ;C:\Program Files\Microchip\xc8\v3.00\pic\sources\c99\common\doprnt.c: 1725:     break;
  1942   003970  EFC9  F01C         	goto	l9106
  1943   003974                     l9104:
  1944                           
  1945                           ; BSR set to: 1
  1946   003974  5150               	movf	vfpfcnvrt@c& (0+255),w,b
  1947                           
  1948                           ; Switch size 1, requested type "simple"
  1949                           ; Number of cases is 3, Range of values is 76 to 108
  1950                           ; switch strategies available:
  1951                           ; Name         Instructions Cycles
  1952                           ; simple_byte           10     6 (average)
  1953                           ;	Chosen strategy is simple_byte
  1954   003976  0A4C               	xorlw	76	; case 76
  1955   003978  B4D8               	btfsc	status,2,c
  1956   00397A  EFB0  F01C         	goto	l9098
  1957   00397E  0A2A               	xorlw	42	; case 102
  1958   003980  B4D8               	btfsc	status,2,c
  1959   003982  EFB3  F01C         	goto	l9100
  1960   003986  0A0A               	xorlw	10	; case 108
  1961   003988  B4D8               	btfsc	status,2,c
  1962   00398A  EFB0  F01C         	goto	l9098
  1963   00398E  EFB7  F01C         	goto	l1050
  1964   003992                     l9106:
  1965                           
  1966                           ; BSR set to: 1
  1967   003992  C151  FFF6         	movff	vfpfcnvrt@cp,tblptrl
  1968   003996                     	if	1	;There is more than 1 active tblptr byte
  1969   003996  0E06               	movlw	high __smallconst
  1970   003998  6EF7               	movwf	tblptrh,c
  1971   00399A                     	endif
  1972   00399A                     	if	0	;tblptru may be non-zero
  1973   00399A                     	endif
  1974   00399A                     	if	0	;tblptru may be non-zero
  1975   00399A                     	endif
  1976   00399A  0008               	tblrd		*
  1977   00399C  50F5               	movf	tablat,w,c
  1978   00399E  0A66               	xorlw	102
  1979   0039A0  A4D8               	btfss	status,2,c
  1980   0039A2  EFD5  F01C         	goto	u13211
  1981   0039A6  EFD7  F01C         	goto	u13210
  1982   0039AA                     u13211:
  1983   0039AA  EF42  F01D         	goto	l9126
  1984   0039AE                     u13210:
  1985   0039AE  EF0D  F01D         	goto	l9114
  1986   0039B2                     l9108:
  1987                           
  1988                           ; BSR set to: 1
  1989                           ;C:\Program Files\Microchip\xc8\v3.00\pic\sources\c99\common\doprnt.c: 1756:      convar
      +                          g.f = (long double)(*(double *)__va_arg(*(double **)ap, (double)0));
  1990   0039B2  C148  FFD9         	movff	vfpfcnvrt@ap,fsr2l
  1991   0039B6  C149  FFDA         	movff	vfpfcnvrt@ap+1,fsr2h
  1992   0039BA  CFDF F14A          	movff	indf2,??_vfpfcnvrt
  1993   0039BE  0E04               	movlw	4
  1994   0039C0  26DE               	addwf	postinc2,f,c
  1995   0039C2  CFDF F14B          	movff	indf2,??_vfpfcnvrt+1
  1996   0039C6  0E00               	movlw	0
  1997   0039C8  22DD               	addwfc	postdec2,f,c
  1998   0039CA  C14A  FFD9         	movff	??_vfpfcnvrt,fsr2l
  1999   0039CE  C14B  FFDA         	movff	??_vfpfcnvrt+1,fsr2h
  2000   0039D2  CFDE F14C          	movff	postinc2,vfpfcnvrt@convarg
  2001   0039D6  CFDE F14D          	movff	postinc2,vfpfcnvrt@convarg+1
  2002   0039DA  CFDE F14E          	movff	postinc2,vfpfcnvrt@convarg+2
  2003   0039DE  CFDE F14F          	movff	postinc2,vfpfcnvrt@convarg+3
  2004                           
  2005                           ;C:\Program Files\Microchip\xc8\v3.00\pic\sources\c99\common\doprnt.c: 1757:      break;
  2006   0039E2  EF18  F01D         	goto	l9116
  2007   0039E6                     l9110:
  2008                           
  2009                           ; BSR set to: 1
  2010                           ;C:\Program Files\Microchip\xc8\v3.00\pic\sources\c99\common\doprnt.c: 1759:      convar
      +                          g.f = (long double)(*(long double *)__va_arg(*(long double **)ap, (long double)0));
  2011   0039E6  C148  FFD9         	movff	vfpfcnvrt@ap,fsr2l
  2012   0039EA  C149  FFDA         	movff	vfpfcnvrt@ap+1,fsr2h
  2013   0039EE  CFDF F14A          	movff	indf2,??_vfpfcnvrt
  2014   0039F2  0E04               	movlw	4
  2015   0039F4  26DE               	addwf	postinc2,f,c
  2016   0039F6  CFDF F14B          	movff	indf2,??_vfpfcnvrt+1
  2017   0039FA  0E00               	movlw	0
  2018   0039FC  22DD               	addwfc	postdec2,f,c
  2019   0039FE  C14A  FFD9         	movff	??_vfpfcnvrt,fsr2l
  2020   003A02  C14B  FFDA         	movff	??_vfpfcnvrt+1,fsr2h
  2021   003A06  CFDE F14C          	movff	postinc2,vfpfcnvrt@convarg
  2022   003A0A  CFDE F14D          	movff	postinc2,vfpfcnvrt@convarg+1
  2023   003A0E  CFDE F14E          	movff	postinc2,vfpfcnvrt@convarg+2
  2024   003A12  CFDE F14F          	movff	postinc2,vfpfcnvrt@convarg+3
  2025                           
  2026                           ;C:\Program Files\Microchip\xc8\v3.00\pic\sources\c99\common\doprnt.c: 1760:      break;
  2027   003A16  EF18  F01D         	goto	l9116
  2028   003A1A                     l9114:
  2029                           
  2030                           ; BSR set to: 1
  2031   003A1A  5150               	movf	vfpfcnvrt@c& (0+255),w,b
  2032                           
  2033                           ; Switch size 1, requested type "simple"
  2034                           ; Number of cases is 2, Range of values is 76 to 108
  2035                           ; switch strategies available:
  2036                           ; Name         Instructions Cycles
  2037                           ; simple_byte            7     4 (average)
  2038                           ;	Chosen strategy is simple_byte
  2039   003A1C  0A4C               	xorlw	76	; case 76
  2040   003A1E  B4D8               	btfsc	status,2,c
  2041   003A20  EFF3  F01C         	goto	l9110
  2042   003A24  0A20               	xorlw	32	; case 108
  2043   003A26  B4D8               	btfsc	status,2,c
  2044   003A28  EFD9  F01C         	goto	l9108
  2045   003A2C  EF18  F01D         	goto	l9116
  2046   003A30                     l9116:
  2047                           
  2048                           ; BSR set to: 1
  2049                           ;C:\Program Files\Microchip\xc8\v3.00\pic\sources\c99\common\doprnt.c: 1762:    *fmt = c
      +                          p+1;
  2050   003A30  5147               	movf	vfpfcnvrt@fmt& (0+255),w,b
  2051   003A32  6ED9               	movwf	fsr2l,c
  2052   003A34  6ADA               	clrf	fsr2h,c
  2053   003A36  2951               	incf	vfpfcnvrt@cp& (0+255),w,b
  2054   003A38  6EDF               	movwf	indf2,c
  2055                           
  2056                           ;C:\Program Files\Microchip\xc8\v3.00\pic\sources\c99\common\doprnt.c: 1763:    switch (
      +                          *cp) {
  2057   003A3A  EF36  F01D         	goto	l9124
  2058   003A3E                     l9118:
  2059                           
  2060                           ; BSR set to: 1
  2061                           ;C:\Program Files\Microchip\xc8\v3.00\pic\sources\c99\common\doprnt.c: 1790:      return
      +                           (void) efgtoa(fp, convarg.f, *cp);;	Return value of _vfpfcnvrt is never used
  2062   003A3E  C145  F110         	movff	vfpfcnvrt@fp,efgtoa@fp
  2063   003A42  C146  F111         	movff	vfpfcnvrt@fp+1,efgtoa@fp+1
  2064   003A46  C14C  F112         	movff	vfpfcnvrt@convarg,efgtoa@f
  2065   003A4A  C14D  F113         	movff	vfpfcnvrt@convarg+1,efgtoa@f+1
  2066   003A4E  C14E  F114         	movff	vfpfcnvrt@convarg+2,efgtoa@f+2
  2067   003A52  C14F  F115         	movff	vfpfcnvrt@convarg+3,efgtoa@f+3
  2068   003A56  C151  FFF6         	movff	vfpfcnvrt@cp,tblptrl
  2069   003A5A                     	if	1	;There is more than 1 active tblptr byte
  2070   003A5A  0E06               	movlw	high __smallconst
  2071   003A5C  6EF7               	movwf	tblptrh,c
  2072   003A5E                     	endif
  2073   003A5E                     	if	0	;tblptru may be non-zero
  2074   003A5E                     	endif
  2075   003A5E                     	if	0	;tblptru may be non-zero
  2076   003A5E                     	endif
  2077   003A5E  0008               	tblrd		*
  2078   003A60  CFF5 F116          	movff	tablat,efgtoa@c
  2079   003A64  EC0B  F003         	call	_efgtoa	;wreg free
  2080   003A68  EF5D  F01D         	goto	l1060
  2081   003A6C                     l9124:
  2082                           
  2083                           ; BSR set to: 1
  2084   003A6C  C151  FFF6         	movff	vfpfcnvrt@cp,tblptrl
  2085   003A70                     	if	1	;There is more than 1 active tblptr byte
  2086   003A70  0E06               	movlw	high __smallconst
  2087   003A72  6EF7               	movwf	tblptrh,c
  2088   003A74                     	endif
  2089   003A74                     	if	0	;tblptru may be non-zero
  2090   003A74                     	endif
  2091   003A74                     	if	0	;tblptru may be non-zero
  2092   003A74                     	endif
  2093   003A74  0008               	tblrd		*
  2094   003A76  50F5               	movf	tablat,w,c
  2095                           
  2096                           ; Switch size 1, requested type "simple"
  2097                           ; Number of cases is 1, Range of values is 102 to 102
  2098                           ; switch strategies available:
  2099                           ; Name         Instructions Cycles
  2100                           ; simple_byte            4     3 (average)
  2101                           ;	Chosen strategy is simple_byte
  2102   003A78  0A66               	xorlw	102	; case 102
  2103   003A7A  B4D8               	btfsc	status,2,c
  2104   003A7C  EF1F  F01D         	goto	l9118
  2105   003A80  EF42  F01D         	goto	l9126
  2106   003A84                     l9126:
  2107                           
  2108                           ;C:\Program Files\Microchip\xc8\v3.00\pic\sources\c99\common\doprnt.c: 1806:         ++*
      +                          fmt;
  2109   003A84  0101               	movlb	1	; () banked
  2110   003A86  5147               	movf	vfpfcnvrt@fmt& (0+255),w,b
  2111   003A88  6ED9               	movwf	fsr2l,c
  2112   003A8A  6ADA               	clrf	fsr2h,c
  2113   003A8C  2ADF               	incf	indf2,f,c
  2114   003A8E  EF5D  F01D         	goto	l1060
  2115   003A92                     l9130:
  2116                           
  2117                           ; BSR set to: 1
  2118                           ;C:\Program Files\Microchip\xc8\v3.00\pic\sources\c99\common\doprnt.c: 1811:     fputc((
      +                          int)(*fmt)[0], fp);
  2119   003A92  5147               	movf	vfpfcnvrt@fmt& (0+255),w,b
  2120   003A94  6ED9               	movwf	fsr2l,c
  2121   003A96  6ADA               	clrf	fsr2h,c
  2122   003A98  CFDF FFF6          	movff	indf2,tblptrl
  2123   003A9C                     	if	1	;There is more than 1 active tblptr byte
  2124   003A9C  0E06               	movlw	high __smallconst
  2125   003A9E  6EF7               	movwf	tblptrh,c
  2126   003AA0                     	endif
  2127   003AA0                     	if	0	;tblptru may be non-zero
  2128   003AA0                     	endif
  2129   003AA0                     	if	0	;tblptru may be non-zero
  2130   003AA0                     	endif
  2131   003AA0  0008               	tblrd		*
  2132   003AA2  50F5               	movf	tablat,w,c
  2133   003AA4  0100               	movlb	0	; () banked
  2134   003AA6  6FA8               	movwf	fputc@c& (0+255),b
  2135   003AA8  6BA9               	clrf	(fputc@c+1)& (0+255),b
  2136   003AAA  C145  F0AA         	movff	vfpfcnvrt@fp,fputc@fp
  2137   003AAE  C146  F0AB         	movff	vfpfcnvrt@fp+1,fputc@fp+1
  2138   003AB2  ECBC  F022         	call	_fputc	;wreg free
  2139   003AB6  EF42  F01D         	goto	l9126
  2140   003ABA                     l1060:
  2141   003ABA  0012               	return		;funcret
  2142   003ABC                     __end_of_vfpfcnvrt:
  2143                           	callstack 0
  2144                           
  2145 ;; *************** function _efgtoa *****************
  2146 ;; Defined at:
  2147 ;;		line 587 in file "C:\Program Files\Microchip\xc8\v3.00\pic\sources\c99\common\doprnt.c"
  2148 ;; Parameters:    Size  Location     Type
  2149 ;;  fp              2   16[BANK1 ] PTR struct _IO_FILE
  2150 ;;		 -> NULL(0), 
  2151 ;;  f               4   18[BANK1 ] PTR struct _IO_FILE
  2152 ;;  c               1   22[BANK1 ] unsigned char 
  2153 ;; Auto vars:     Size  Location     Type
  2154 ;;  u               4   65[BANK1 ] struct flui
  2155 ;;  g               4   59[BANK1 ] struct flui
  2156 ;;  l               4   54[BANK1 ] struct flui
  2157 ;;  h               4   50[BANK1 ] struct flui
  2158 ;;  ou              4   44[BANK1 ] struct flui
  2159 ;;  n               2   63[BANK1 ] int 
  2160 ;;  i               2   48[BANK1 ] int 
  2161 ;;  w               2   42[BANK1 ] int 
  2162 ;;  e               2   40[BANK1 ] int 
  2163 ;;  m               2   38[BANK1 ] int 
  2164 ;;  d               2   36[BANK1 ] int 
  2165 ;;  t               2   29[BANK1 ] int 
  2166 ;;  p               2   27[BANK1 ] int 
  2167 ;;  ne              2   25[BANK1 ] int 
  2168 ;;  sign            1   58[BANK1 ] unsigned char 
  2169 ;;  nmode           1   35[BANK1 ] unsigned char 
  2170 ;;  mode            1   34[BANK1 ] unsigned char 
  2171 ;;  pp              1   33[BANK1 ] unsigned char 
  2172 ;;  esign           1    0        unsigned char 
  2173 ;; Return value:  Size  Location     Type
  2174 ;;                  1    wreg      void 
  2175 ;; Registers used:
  2176 ;;		wreg, fsr1l, fsr1h, fsr2l, fsr2h, status,2, status,0, tblptrl, tblptrh, tblptru, prodl, prodh, cstack
  2177 ;; Tracked objects:
  2178 ;;		On entry : 0/0
  2179 ;;		On exit  : 0/0
  2180 ;;		Unchanged: 0/0
  2181 ;; Data sizes:     COMRAM   BANK0   BANK1   BANK2   BANK3   BANK4   BANK5
  2182 ;;      Params:         0       0       7       0       0       0       0
  2183 ;;      Locals:         0       0      44       0       0       0       0
  2184 ;;      Temps:          0       0       2       0       0       0       0
  2185 ;;      Totals:         0       0      53       0       0       0       0
  2186 ;;Total ram usage:       53 bytes
  2187 ;; Hardware stack levels used: 1
  2188 ;; Hardware stack levels required when called: 18
  2189 ;; This function calls:
  2190 ;;		___fladd
  2191 ;;		___fldiv
  2192 ;;		___fleq
  2193 ;;		___flge
  2194 ;;		___flmul
  2195 ;;		___flneg
  2196 ;;		___flsub
  2197 ;;		___fltol
  2198 ;;		___fpclassifyf
  2199 ;;		_floorf
  2200 ;;		_labs
  2201 ;;		_memcpy
  2202 ;;		_pad
  2203 ;;		_strcpy
  2204 ;; This function is called by:
  2205 ;;		_vfpfcnvrt
  2206 ;; This function uses a non-reentrant model
  2207 ;;
  2208                           
  2209                           	psect	text6
  2210   000616                     __ptext6:
  2211                           	callstack 0
  2212   000616                     _efgtoa:
  2213                           	callstack 8
  2214   000616                     
  2215                           ;C:\Program Files\Microchip\xc8\v3.00\pic\sources\c99\common\doprnt.c: 587: static void 
      +                          efgtoa(FILE *fp, long double f, char c);C:\Program Files\Microchip\xc8\v3.00\pic\sources
      +                          \c99\common\doprnt.c: 588: {;C:\Program Files\Microchip\xc8\v3.00\pic\sources\c99\common
      +                          \doprnt.c: 589:     char mode, nmode, pp, sign, esign;;C:\Program Files\Microchip\xc8\v3
      +                          .00\pic\sources\c99\common\doprnt.c: 590:     int d, e, i, m, n, ne, p, t, w;;C:\Program
      +                           Files\Microchip\xc8\v3.00\pic\sources\c99\common\doprnt.c: 591:     long double h, l;
  2216   000616  0101               	movlb	1	; () banked
  2217   000618  6B3A               	clrf	efgtoa@sign& (0+255),b
  2218                           
  2219                           ;C:\Program Files\Microchip\xc8\v3.00\pic\sources\c99\common\doprnt.c: 596:     g.f = f;
  2220   00061A  C112  F13B         	movff	efgtoa@f,efgtoa@g
  2221   00061E  C113  F13C         	movff	efgtoa@f+1,efgtoa@g+1
  2222   000622  C114  F13D         	movff	efgtoa@f+2,efgtoa@g+2
  2223   000626  C115  F13E         	movff	efgtoa@f+3,efgtoa@g+3
  2224   00062A                     
  2225                           ; BSR set to: 1
  2226                           ;C:\Program Files\Microchip\xc8\v3.00\pic\sources\c99\common\doprnt.c: 597:     if (g.f 
      +                          < 0.0) {
  2227   00062A  BF3E               	btfsc	(efgtoa@g+3)& (0+255),7,b
  2228   00062C  EF1C  F003         	goto	u12560
  2229   000630  EF1A  F003         	goto	u12561
  2230   000634                     u12561:
  2231   000634  EF30  F003         	goto	l8654
  2232   000638                     u12560:
  2233   000638                     
  2234                           ; BSR set to: 1
  2235                           ;C:\Program Files\Microchip\xc8\v3.00\pic\sources\c99\common\doprnt.c: 598:         sign
      +                           = 1;
  2236   000638  0E01               	movlw	1
  2237   00063A  6F3A               	movwf	efgtoa@sign& (0+255),b
  2238   00063C                     
  2239                           ; BSR set to: 1
  2240                           ;C:\Program Files\Microchip\xc8\v3.00\pic\sources\c99\common\doprnt.c: 599:         g.f 
      +                          = -g.f;
  2241   00063C  C13B  F0A7         	movff	efgtoa@g,___flneg@f1
  2242   000640  C13C  F0A8         	movff	efgtoa@g+1,___flneg@f1+1
  2243   000644  C13D  F0A9         	movff	efgtoa@g+2,___flneg@f1+2
  2244   000648  C13E  F0AA         	movff	efgtoa@g+3,___flneg@f1+3
  2245   00064C  EC96  F028         	call	___flneg	;wreg free
  2246   000650  C0A7  F13B         	movff	?___flneg,efgtoa@g
  2247   000654  C0A8  F13C         	movff	?___flneg+1,efgtoa@g+1
  2248   000658  C0A9  F13D         	movff	?___flneg+2,efgtoa@g+2
  2249   00065C  C0AA  F13E         	movff	?___flneg+3,efgtoa@g+3
  2250   000660                     l8654:
  2251                           
  2252                           ;C:\Program Files\Microchip\xc8\v3.00\pic\sources\c99\common\doprnt.c: 603:     n = 0;
  2253   000660  0E00               	movlw	0
  2254   000662  0101               	movlb	1	; () banked
  2255   000664  6F40               	movwf	(efgtoa@n+1)& (0+255),b
  2256   000666  0E00               	movlw	0
  2257   000668  6F3F               	movwf	efgtoa@n& (0+255),b
  2258   00066A                     
  2259                           ; BSR set to: 1
  2260                           ;C:\Program Files\Microchip\xc8\v3.00\pic\sources\c99\common\doprnt.c: 604:     w = widt
      +                          h;
  2261   00066A  C073  F12A         	movff	_width,efgtoa@w
  2262   00066E  C074  F12B         	movff	_width+1,efgtoa@w+1
  2263   000672                     
  2264                           ; BSR set to: 1
  2265                           ;C:\Program Files\Microchip\xc8\v3.00\pic\sources\c99\common\doprnt.c: 605:     if (sign
  2266   000672  513A               	movf	efgtoa@sign& (0+255),w,b
  2267   000674  B4D8               	btfsc	status,2,c
  2268   000676  EF3F  F003         	goto	u12571
  2269   00067A  EF41  F003         	goto	u12570
  2270   00067E                     u12571:
  2271   00067E  EF55  F003         	goto	l8668
  2272   000682                     u12570:
  2273   000682                     
  2274                           ; BSR set to: 1
  2275                           ;C:\Program Files\Microchip\xc8\v3.00\pic\sources\c99\common\doprnt.c: 609:    ) {;C:\Pr
      +                          ogram Files\Microchip\xc8\v3.00\pic\sources\c99\common\doprnt.c: 610:   sign = sign ? '-
      +                          ' : '+';
  2276   000682  513A               	movf	efgtoa@sign& (0+255),w,b
  2277   000684  A4D8               	btfss	status,2,c
  2278   000686  EF47  F003         	goto	u12581
  2279   00068A  EF49  F003         	goto	u12580
  2280   00068E                     u12581:
  2281   00068E  EF4F  F003         	goto	l8664
  2282   000692                     u12580:
  2283   000692                     
  2284                           ; BSR set to: 1
  2285   000692  0E00               	movlw	0
  2286   000694  6F20               	movwf	(_efgtoa$1841+1)& (0+255),b
  2287   000696  0E2B               	movlw	43
  2288   000698  6F1F               	movwf	_efgtoa$1841& (0+255),b
  2289   00069A  EF53  F003         	goto	l8666
  2290   00069E                     l8664:
  2291                           
  2292                           ; BSR set to: 1
  2293   00069E  0E00               	movlw	0
  2294   0006A0  6F20               	movwf	(_efgtoa$1841+1)& (0+255),b
  2295   0006A2  0E2D               	movlw	45
  2296   0006A4  6F1F               	movwf	_efgtoa$1841& (0+255),b
  2297   0006A6                     l8666:
  2298                           
  2299                           ; BSR set to: 1
  2300   0006A6  C11F  F13A         	movff	_efgtoa$1841,efgtoa@sign
  2301   0006AA                     l8668:
  2302                           
  2303                           ; BSR set to: 1
  2304                           ;C:\Program Files\Microchip\xc8\v3.00\pic\sources\c99\common\doprnt.c: 619:     if (( __
      +                          fpclassifyf(g.f) == 1 )) {
  2305   0006AA  C13B  F0A7         	movff	efgtoa@g,___fpclassifyf@x
  2306   0006AE  C13C  F0A8         	movff	efgtoa@g+1,___fpclassifyf@x+1
  2307   0006B2  C13D  F0A9         	movff	efgtoa@g+2,___fpclassifyf@x+2
  2308   0006B6  C13E  F0AA         	movff	efgtoa@g+3,___fpclassifyf@x+3
  2309   0006BA  ECBD  F021         	call	___fpclassifyf	;wreg free
  2310   0006BE  0100               	movlb	0	; () banked
  2311   0006C0  05A7               	decf	?___fpclassifyf& (0+255),w,b
  2312   0006C2  11A8               	iorwf	(?___fpclassifyf+1)& (0+255),w,b
  2313   0006C4  A4D8               	btfss	status,2,c
  2314   0006C6  EF67  F003         	goto	u12591
  2315   0006CA  EF69  F003         	goto	u12590
  2316   0006CE                     u12591:
  2317   0006CE  EFA2  F003         	goto	l8686
  2318   0006D2                     u12590:
  2319   0006D2                     
  2320                           ; BSR set to: 0
  2321                           ;C:\Program Files\Microchip\xc8\v3.00\pic\sources\c99\common\doprnt.c: 620:   if (sign) 
      +                          {
  2322   0006D2  0101               	movlb	1	; () banked
  2323   0006D4  513A               	movf	efgtoa@sign& (0+255),w,b
  2324   0006D6  B4D8               	btfsc	status,2,c
  2325   0006D8  EF70  F003         	goto	u12601
  2326   0006DC  EF72  F003         	goto	u12600
  2327   0006E0                     u12601:
  2328   0006E0  EF7B  F003         	goto	l8678
  2329   0006E4                     u12600:
  2330   0006E4                     
  2331                           ; BSR set to: 1
  2332                           ;C:\Program Files\Microchip\xc8\v3.00\pic\sources\c99\common\doprnt.c: 621:    dbuf[0] =
      +                           sign;
  2333   0006E4  C13A  F164         	movff	efgtoa@sign,_dbuf
  2334   0006E8                     
  2335                           ; BSR set to: 1
  2336                           ;C:\Program Files\Microchip\xc8\v3.00\pic\sources\c99\common\doprnt.c: 622:    w--;
  2337   0006E8  072A               	decf	efgtoa@w& (0+255),f,b
  2338   0006EA  A0D8               	btfss	status,0,c
  2339   0006EC  072B               	decf	(efgtoa@w+1)& (0+255),f,b
  2340   0006EE                     
  2341                           ; BSR set to: 1
  2342                           ;C:\Program Files\Microchip\xc8\v3.00\pic\sources\c99\common\doprnt.c: 623:    n = 1;
  2343   0006EE  0E00               	movlw	0
  2344   0006F0  6F40               	movwf	(efgtoa@n+1)& (0+255),b
  2345   0006F2  0E01               	movlw	1
  2346   0006F4  6F3F               	movwf	efgtoa@n& (0+255),b
  2347   0006F6                     l8678:
  2348                           
  2349                           ; BSR set to: 1
  2350                           ;C:\Program Files\Microchip\xc8\v3.00\pic\sources\c99\common\doprnt.c: 631:   {;C:\Progr
      +                          am Files\Microchip\xc8\v3.00\pic\sources\c99\common\doprnt.c: 632:             strcpy(&d
      +                          buf[n], "inf");
  2351   0006F6  0E64               	movlw	low _dbuf
  2352   0006F8  253F               	addwf	efgtoa@n& (0+255),w,b
  2353   0006FA  0100               	movlb	0	; () banked
  2354   0006FC  6FA7               	movwf	strcpy@dest& (0+255),b
  2355   0006FE  0E01               	movlw	high _dbuf
  2356   000700  0101               	movlb	1	; () banked
  2357   000702  2140               	addwfc	(efgtoa@n+1)& (0+255),w,b
  2358   000704  0100               	movlb	0	; () banked
  2359   000706  6FA8               	movwf	(strcpy@dest+1)& (0+255),b
  2360   000708  0E09               	movlw	low STR_4
  2361   00070A  6FA9               	movwf	strcpy@src& (0+255),b
  2362   00070C  51A9               	movf	strcpy@src& (0+255),w,b
  2363   00070E  A4D8               	btfss	status,2,c
  2364   000710  0E06               	movlw	high __smallconst
  2365   000712  6FAA               	movwf	(strcpy@src+1)& (0+255),b
  2366   000714  EC80  F026         	call	_strcpy	;wreg free
  2367   000718                     l8680:
  2368                           
  2369                           ;C:\Program Files\Microchip\xc8\v3.00\pic\sources\c99\common\doprnt.c: 633:         };C:
      +                          \Program Files\Microchip\xc8\v3.00\pic\sources\c99\common\doprnt.c: 634:         w -= ((
      +                          sizeof("inf")/sizeof("inf"[0]))-1);
  2370   000718  0101               	movlb	1	; () banked
  2371   00071A  0EFD               	movlw	253
  2372   00071C  272A               	addwf	efgtoa@w& (0+255),f,b
  2373   00071E  0EFF               	movlw	255
  2374   000720  232B               	addwfc	(efgtoa@w+1)& (0+255),f,b
  2375   000722                     
  2376                           ; BSR set to: 1
  2377                           ;C:\Program Files\Microchip\xc8\v3.00\pic\sources\c99\common\doprnt.c: 635:         retu
      +                          rn (void) pad(fp, &dbuf[0], w);
  2378   000722  C110  F0B8         	movff	efgtoa@fp,pad@fp
  2379   000726  C111  F0B9         	movff	efgtoa@fp+1,pad@fp+1
  2380   00072A  0E64               	movlw	low _dbuf
  2381   00072C  0100               	movlb	0	; () banked
  2382   00072E  6FBA               	movwf	pad@buf& (0+255),b
  2383   000730  0E01               	movlw	high _dbuf
  2384   000732  6FBB               	movwf	(pad@buf+1)& (0+255),b
  2385   000734  C12A  F0BC         	movff	efgtoa@w,pad@p
  2386   000738  C12B  F0BD         	movff	efgtoa@w+1,pad@p+1
  2387   00073C  ECB5  F024         	call	_pad	;wreg free
  2388   000740  EF3B  F008         	goto	l1000
  2389   000744                     l8686:
  2390                           
  2391                           ; BSR set to: 0
  2392                           ;C:\Program Files\Microchip\xc8\v3.00\pic\sources\c99\common\doprnt.c: 637:     if (( __
      +                          fpclassifyf(g.f) == 0 )) {
  2393   000744  C13B  F0A7         	movff	efgtoa@g,___fpclassifyf@x
  2394   000748  C13C  F0A8         	movff	efgtoa@g+1,___fpclassifyf@x+1
  2395   00074C  C13D  F0A9         	movff	efgtoa@g+2,___fpclassifyf@x+2
  2396   000750  C13E  F0AA         	movff	efgtoa@g+3,___fpclassifyf@x+3
  2397   000754  ECBD  F021         	call	___fpclassifyf	;wreg free
  2398   000758  0100               	movlb	0	; () banked
  2399   00075A  51A7               	movf	?___fpclassifyf& (0+255),w,b
  2400   00075C  11A8               	iorwf	(?___fpclassifyf+1)& (0+255),w,b
  2401   00075E  A4D8               	btfss	status,2,c
  2402   000760  EFB4  F003         	goto	u12611
  2403   000764  EFB6  F003         	goto	u12610
  2404   000768                     u12611:
  2405   000768  EFDB  F003         	goto	l8704
  2406   00076C                     u12610:
  2407   00076C                     
  2408                           ; BSR set to: 0
  2409                           ;C:\Program Files\Microchip\xc8\v3.00\pic\sources\c99\common\doprnt.c: 638:   if (sign) 
      +                          {
  2410   00076C  0101               	movlb	1	; () banked
  2411   00076E  513A               	movf	efgtoa@sign& (0+255),w,b
  2412   000770  B4D8               	btfsc	status,2,c
  2413   000772  EFBD  F003         	goto	u12621
  2414   000776  EFBF  F003         	goto	u12620
  2415   00077A                     u12621:
  2416   00077A  EFC8  F003         	goto	l8696
  2417   00077E                     u12620:
  2418   00077E                     
  2419                           ; BSR set to: 1
  2420                           ;C:\Program Files\Microchip\xc8\v3.00\pic\sources\c99\common\doprnt.c: 639:    dbuf[0] =
      +                           sign;
  2421   00077E  C13A  F164         	movff	efgtoa@sign,_dbuf
  2422   000782                     
  2423                           ; BSR set to: 1
  2424                           ;C:\Program Files\Microchip\xc8\v3.00\pic\sources\c99\common\doprnt.c: 640:    w--;
  2425   000782  072A               	decf	efgtoa@w& (0+255),f,b
  2426   000784  A0D8               	btfss	status,0,c
  2427   000786  072B               	decf	(efgtoa@w+1)& (0+255),f,b
  2428   000788                     
  2429                           ; BSR set to: 1
  2430                           ;C:\Program Files\Microchip\xc8\v3.00\pic\sources\c99\common\doprnt.c: 641:    n = 1;
  2431   000788  0E00               	movlw	0
  2432   00078A  6F40               	movwf	(efgtoa@n+1)& (0+255),b
  2433   00078C  0E01               	movlw	1
  2434   00078E  6F3F               	movwf	efgtoa@n& (0+255),b
  2435   000790                     l8696:
  2436                           
  2437                           ; BSR set to: 1
  2438                           ;C:\Program Files\Microchip\xc8\v3.00\pic\sources\c99\common\doprnt.c: 649:   {;C:\Progr
      +                          am Files\Microchip\xc8\v3.00\pic\sources\c99\common\doprnt.c: 650:             strcpy(&d
      +                          buf[n], "nan");
  2439   000790  0E64               	movlw	low _dbuf
  2440   000792  253F               	addwf	efgtoa@n& (0+255),w,b
  2441   000794  0100               	movlb	0	; () banked
  2442   000796  6FA7               	movwf	strcpy@dest& (0+255),b
  2443   000798  0E01               	movlw	high _dbuf
  2444   00079A  0101               	movlb	1	; () banked
  2445   00079C  2140               	addwfc	(efgtoa@n+1)& (0+255),w,b
  2446   00079E  0100               	movlb	0	; () banked
  2447   0007A0  6FA8               	movwf	(strcpy@dest+1)& (0+255),b
  2448   0007A2  0E0D               	movlw	low STR_7
  2449   0007A4  6FA9               	movwf	strcpy@src& (0+255),b
  2450   0007A6  51A9               	movf	strcpy@src& (0+255),w,b
  2451   0007A8  A4D8               	btfss	status,2,c
  2452   0007AA  0E06               	movlw	high __smallconst
  2453   0007AC  6FAA               	movwf	(strcpy@src+1)& (0+255),b
  2454   0007AE  EC80  F026         	call	_strcpy	;wreg free
  2455   0007B2  EF8C  F003         	goto	l8680
  2456   0007B6                     l8704:
  2457                           
  2458                           ; BSR set to: 0
  2459                           ;C:\Program Files\Microchip\xc8\v3.00\pic\sources\c99\common\doprnt.c: 657:     u.f = 1.
      +                          0;
  2460   0007B6  0E00               	movlw	0
  2461   0007B8  0101               	movlb	1	; () banked
  2462   0007BA  6F41               	movwf	efgtoa@u& (0+255),b
  2463   0007BC  0E00               	movlw	0
  2464   0007BE  6F42               	movwf	(efgtoa@u+1)& (0+255),b
  2465   0007C0  0E80               	movlw	128
  2466   0007C2  6F43               	movwf	(efgtoa@u+2)& (0+255),b
  2467   0007C4  0E3F               	movlw	63
  2468   0007C6  6F44               	movwf	(efgtoa@u+3)& (0+255),b
  2469                           
  2470                           ;C:\Program Files\Microchip\xc8\v3.00\pic\sources\c99\common\doprnt.c: 658:     e = 0;
  2471   0007C8  0E00               	movlw	0
  2472   0007CA  6F29               	movwf	(efgtoa@e+1)& (0+255),b
  2473   0007CC  0E00               	movlw	0
  2474   0007CE  6F28               	movwf	efgtoa@e& (0+255),b
  2475   0007D0                     
  2476                           ; BSR set to: 1
  2477                           ;C:\Program Files\Microchip\xc8\v3.00\pic\sources\c99\common\doprnt.c: 659:  if (!(g.f =
      +                          = 0.0)) {
  2478   0007D0  C13B  F0A7         	movff	efgtoa@g,___fleq@ff1
  2479   0007D4  C13C  F0A8         	movff	efgtoa@g+1,___fleq@ff1+1
  2480   0007D8  C13D  F0A9         	movff	efgtoa@g+2,___fleq@ff1+2
  2481   0007DC  C13E  F0AA         	movff	efgtoa@g+3,___fleq@ff1+3
  2482   0007E0  0E00               	movlw	0
  2483   0007E2  0100               	movlb	0	; () banked
  2484   0007E4  6FAB               	movwf	___fleq@ff2& (0+255),b
  2485   0007E6  0E00               	movlw	0
  2486   0007E8  6FAC               	movwf	(___fleq@ff2+1)& (0+255),b
  2487   0007EA  0E00               	movlw	0
  2488   0007EC  6FAD               	movwf	(___fleq@ff2+2)& (0+255),b
  2489   0007EE  0E00               	movlw	0
  2490   0007F0  6FAE               	movwf	(___fleq@ff2+3)& (0+255),b
  2491   0007F2  EC87  F023         	call	___fleq	;wreg free
  2492   0007F6  0100               	movlb	0	; () banked
  2493   0007F8  B0D8               	btfsc	status,0,c
  2494   0007FA  EF01  F004         	goto	u12631
  2495   0007FE  EF03  F004         	goto	u12630
  2496   000802                     u12631:
  2497   000802  EFFD  F004         	goto	l1003
  2498   000806                     u12630:
  2499   000806  EF10  F004         	goto	l8712
  2500   00080A                     l1005:
  2501                           
  2502                           ;C:\Program Files\Microchip\xc8\v3.00\pic\sources\c99\common\doprnt.c: 661:    u = ou;
  2503   00080A  C12C  F141         	movff	efgtoa@ou,efgtoa@u
  2504   00080E  C12D  F142         	movff	efgtoa@ou+1,efgtoa@u+1
  2505   000812  C12E  F143         	movff	efgtoa@ou+2,efgtoa@u+2
  2506   000816  C12F  F144         	movff	efgtoa@ou+3,efgtoa@u+3
  2507   00081A                     
  2508                           ;C:\Program Files\Microchip\xc8\v3.00\pic\sources\c99\common\doprnt.c: 662:    ++e;
  2509   00081A  0101               	movlb	1	; () banked
  2510   00081C  4B28               	infsnz	efgtoa@e& (0+255),f,b
  2511   00081E  2B29               	incf	(efgtoa@e+1)& (0+255),f,b
  2512   000820                     l8712:
  2513                           
  2514                           ;C:\Program Files\Microchip\xc8\v3.00\pic\sources\c99\common\doprnt.c: 660:   while ((la
      +                          bs((g).u-((ou.f = u.f*10.0,ou)).u) <= 1) || g.f > ou.f) {
  2515   000820  C141  F0A7         	movff	efgtoa@u,___flmul@b
  2516   000824  C142  F0A8         	movff	efgtoa@u+1,___flmul@b+1
  2517   000828  C143  F0A9         	movff	efgtoa@u+2,___flmul@b+2
  2518   00082C  C144  F0AA         	movff	efgtoa@u+3,___flmul@b+3
  2519   000830  0E00               	movlw	0
  2520   000832  0100               	movlb	0	; () banked
  2521   000834  6FAB               	movwf	___flmul@a& (0+255),b
  2522   000836  0E00               	movlw	0
  2523   000838  6FAC               	movwf	(___flmul@a+1)& (0+255),b
  2524   00083A  0E20               	movlw	32
  2525   00083C  6FAD               	movwf	(___flmul@a+2)& (0+255),b
  2526   00083E  0E41               	movlw	65
  2527   000840  6FAE               	movwf	(___flmul@a+3)& (0+255),b
  2528   000842  ECDC  F011         	call	___flmul	;wreg free
  2529   000846  C0A7  F12C         	movff	?___flmul,efgtoa@ou
  2530   00084A  C0A8  F12D         	movff	?___flmul+1,efgtoa@ou+1
  2531   00084E  C0A9  F12E         	movff	?___flmul+2,efgtoa@ou+2
  2532   000852  C0AA  F12F         	movff	?___flmul+3,efgtoa@ou+3
  2533   000856  0101               	movlb	1	; () banked
  2534   000858  512C               	movf	efgtoa@ou& (0+255),w,b
  2535   00085A  5D3B               	subwf	efgtoa@g& (0+255),w,b
  2536   00085C  0100               	movlb	0	; () banked
  2537   00085E  6FA7               	movwf	labs@a& (0+255),b
  2538   000860  0101               	movlb	1	; () banked
  2539   000862  512D               	movf	(efgtoa@ou+1)& (0+255),w,b
  2540   000864  593C               	subwfb	(efgtoa@g+1)& (0+255),w,b
  2541   000866  0100               	movlb	0	; () banked
  2542   000868  6FA8               	movwf	(labs@a+1)& (0+255),b
  2543   00086A  0101               	movlb	1	; () banked
  2544   00086C  512E               	movf	(efgtoa@ou+2)& (0+255),w,b
  2545   00086E  593D               	subwfb	(efgtoa@g+2)& (0+255),w,b
  2546   000870  0100               	movlb	0	; () banked
  2547   000872  6FA9               	movwf	(labs@a+2)& (0+255),b
  2548   000874  0101               	movlb	1	; () banked
  2549   000876  512F               	movf	(efgtoa@ou+3)& (0+255),w,b
  2550   000878  593E               	subwfb	(efgtoa@g+3)& (0+255),w,b
  2551   00087A  0100               	movlb	0	; () banked
  2552   00087C  6FAA               	movwf	(labs@a+3)& (0+255),b
  2553   00087E  EC54  F026         	call	_labs	;wreg free
  2554   000882  0100               	movlb	0	; () banked
  2555   000884  BFAA               	btfsc	(?_labs+3)& (0+255),7,b
  2556   000886  EF50  F004         	goto	u12641
  2557   00088A  51AA               	movf	(?_labs+3)& (0+255),w,b
  2558   00088C  11A9               	iorwf	(?_labs+2)& (0+255),w,b
  2559   00088E  11A8               	iorwf	(?_labs+1)& (0+255),w,b
  2560   000890  E109               	bnz	u12640
  2561   000892  0E02               	movlw	2
  2562   000894  5DA7               	subwf	?_labs& (0+255),w,b
  2563   000896  A0D8               	btfss	status,0,c
  2564   000898  EF50  F004         	goto	u12641
  2565   00089C  EF52  F004         	goto	u12640
  2566   0008A0                     u12641:
  2567   0008A0  EF05  F004         	goto	l1005
  2568   0008A4                     u12640:
  2569   0008A4                     
  2570                           ; BSR set to: 0
  2571   0008A4  C12C  F100         	movff	efgtoa@ou,___flge@ff1
  2572   0008A8  C12D  F101         	movff	efgtoa@ou+1,___flge@ff1+1
  2573   0008AC  C12E  F102         	movff	efgtoa@ou+2,___flge@ff1+2
  2574   0008B0  C12F  F103         	movff	efgtoa@ou+3,___flge@ff1+3
  2575   0008B4  C13B  F104         	movff	efgtoa@g,___flge@ff2
  2576   0008B8  C13C  F105         	movff	efgtoa@g+1,___flge@ff2+1
  2577   0008BC  C13D  F106         	movff	efgtoa@g+2,___flge@ff2+2
  2578   0008C0  C13E  F107         	movff	efgtoa@g+3,___flge@ff2+3
  2579   0008C4  EC10  F01F         	call	___flge	;wreg free
  2580   0008C8  0101               	movlb	1	; () banked
  2581   0008CA  A0D8               	btfss	status,0,c
  2582   0008CC  EF6A  F004         	goto	u12651
  2583   0008D0  EF6C  F004         	goto	u12650
  2584   0008D4                     u12651:
  2585   0008D4  EF05  F004         	goto	l1005
  2586   0008D8                     u12650:
  2587   0008D8                     
  2588                           ; BSR set to: 1
  2589                           ;C:\Program Files\Microchip\xc8\v3.00\pic\sources\c99\common\doprnt.c: 664:   if ((labs(
      +                          (g).u-(u).u) <= 1)) {
  2590   0008D8  5141               	movf	efgtoa@u& (0+255),w,b
  2591   0008DA  5D3B               	subwf	efgtoa@g& (0+255),w,b
  2592   0008DC  0100               	movlb	0	; () banked
  2593   0008DE  6FA7               	movwf	labs@a& (0+255),b
  2594   0008E0  0101               	movlb	1	; () banked
  2595   0008E2  5142               	movf	(efgtoa@u+1)& (0+255),w,b
  2596   0008E4  593C               	subwfb	(efgtoa@g+1)& (0+255),w,b
  2597   0008E6  0100               	movlb	0	; () banked
  2598   0008E8  6FA8               	movwf	(labs@a+1)& (0+255),b
  2599   0008EA  0101               	movlb	1	; () banked
  2600   0008EC  5143               	movf	(efgtoa@u+2)& (0+255),w,b
  2601   0008EE  593D               	subwfb	(efgtoa@g+2)& (0+255),w,b
  2602   0008F0  0100               	movlb	0	; () banked
  2603   0008F2  6FA9               	movwf	(labs@a+2)& (0+255),b
  2604   0008F4  0101               	movlb	1	; () banked
  2605   0008F6  5144               	movf	(efgtoa@u+3)& (0+255),w,b
  2606   0008F8  593E               	subwfb	(efgtoa@g+3)& (0+255),w,b
  2607   0008FA  0100               	movlb	0	; () banked
  2608   0008FC  6FAA               	movwf	(labs@a+3)& (0+255),b
  2609   0008FE  EC54  F026         	call	_labs	;wreg free
  2610   000902  0100               	movlb	0	; () banked
  2611   000904  BFAA               	btfsc	(?_labs+3)& (0+255),7,b
  2612   000906  EF92  F004         	goto	u12660
  2613   00090A  51AA               	movf	(?_labs+3)& (0+255),w,b
  2614   00090C  11A9               	iorwf	(?_labs+2)& (0+255),w,b
  2615   00090E  11A8               	iorwf	(?_labs+1)& (0+255),w,b
  2616   000910  E107               	bnz	u12661
  2617   000912  0E02               	movlw	2
  2618   000914  5DA7               	subwf	?_labs& (0+255),w,b
  2619   000916  B0D8               	btfsc	status,0,c
  2620   000918  EF90  F004         	goto	u12661
  2621   00091C  EF92  F004         	goto	u12660
  2622   000920                     u12661:
  2623   000920  EFE3  F004         	goto	l8730
  2624   000924                     u12660:
  2625   000924                     l8720:
  2626                           
  2627                           ; BSR set to: 0
  2628                           ;C:\Program Files\Microchip\xc8\v3.00\pic\sources\c99\common\doprnt.c: 665:    g = u;
  2629   000924  C141  F13B         	movff	efgtoa@u,efgtoa@g
  2630   000928  C142  F13C         	movff	efgtoa@u+1,efgtoa@g+1
  2631   00092C  C143  F13D         	movff	efgtoa@u+2,efgtoa@g+2
  2632   000930  C144  F13E         	movff	efgtoa@u+3,efgtoa@g+3
  2633                           
  2634                           ;C:\Program Files\Microchip\xc8\v3.00\pic\sources\c99\common\doprnt.c: 666:   }
  2635   000934  EFFD  F004         	goto	l1003
  2636   000938                     l8722:
  2637                           
  2638                           ; BSR set to: 1
  2639                           ;C:\Program Files\Microchip\xc8\v3.00\pic\sources\c99\common\doprnt.c: 669:     u.f = u.
      +                          f/10.0;
  2640   000938  C141  F0A7         	movff	efgtoa@u,___fldiv@b
  2641   00093C  C142  F0A8         	movff	efgtoa@u+1,___fldiv@b+1
  2642   000940  C143  F0A9         	movff	efgtoa@u+2,___fldiv@b+2
  2643   000944  C144  F0AA         	movff	efgtoa@u+3,___fldiv@b+3
  2644   000948  0E00               	movlw	0
  2645   00094A  0100               	movlb	0	; () banked
  2646   00094C  6FAB               	movwf	___fldiv@a& (0+255),b
  2647   00094E  0E00               	movlw	0
  2648   000950  6FAC               	movwf	(___fldiv@a+1)& (0+255),b
  2649   000952  0E20               	movlw	32
  2650   000954  6FAD               	movwf	(___fldiv@a+2)& (0+255),b
  2651   000956  0E41               	movlw	65
  2652   000958  6FAE               	movwf	(___fldiv@a+3)& (0+255),b
  2653   00095A  EC03  F016         	call	___fldiv	;wreg free
  2654   00095E  C0A7  F141         	movff	?___fldiv,efgtoa@u
  2655   000962  C0A8  F142         	movff	?___fldiv+1,efgtoa@u+1
  2656   000966  C0A9  F143         	movff	?___fldiv+2,efgtoa@u+2
  2657   00096A  C0AA  F144         	movff	?___fldiv+3,efgtoa@u+3
  2658   00096E                     
  2659                           ;C:\Program Files\Microchip\xc8\v3.00\pic\sources\c99\common\doprnt.c: 670:     --e;
  2660   00096E  0101               	movlb	1	; () banked
  2661   000970  0728               	decf	efgtoa@e& (0+255),f,b
  2662   000972  A0D8               	btfss	status,0,c
  2663   000974  0729               	decf	(efgtoa@e+1)& (0+255),f,b
  2664   000976                     
  2665                           ; BSR set to: 1
  2666                           ;C:\Program Files\Microchip\xc8\v3.00\pic\sources\c99\common\doprnt.c: 671:     if ((lab
      +                          s((g).u-(u).u) <= 1)) {
  2667   000976  5141               	movf	efgtoa@u& (0+255),w,b
  2668   000978  5D3B               	subwf	efgtoa@g& (0+255),w,b
  2669   00097A  0100               	movlb	0	; () banked
  2670   00097C  6FA7               	movwf	labs@a& (0+255),b
  2671   00097E  0101               	movlb	1	; () banked
  2672   000980  5142               	movf	(efgtoa@u+1)& (0+255),w,b
  2673   000982  593C               	subwfb	(efgtoa@g+1)& (0+255),w,b
  2674   000984  0100               	movlb	0	; () banked
  2675   000986  6FA8               	movwf	(labs@a+1)& (0+255),b
  2676   000988  0101               	movlb	1	; () banked
  2677   00098A  5143               	movf	(efgtoa@u+2)& (0+255),w,b
  2678   00098C  593D               	subwfb	(efgtoa@g+2)& (0+255),w,b
  2679   00098E  0100               	movlb	0	; () banked
  2680   000990  6FA9               	movwf	(labs@a+2)& (0+255),b
  2681   000992  0101               	movlb	1	; () banked
  2682   000994  5144               	movf	(efgtoa@u+3)& (0+255),w,b
  2683   000996  593E               	subwfb	(efgtoa@g+3)& (0+255),w,b
  2684   000998  0100               	movlb	0	; () banked
  2685   00099A  6FAA               	movwf	(labs@a+3)& (0+255),b
  2686   00099C  EC54  F026         	call	_labs	;wreg free
  2687   0009A0  0100               	movlb	0	; () banked
  2688   0009A2  BFAA               	btfsc	(?_labs+3)& (0+255),7,b
  2689   0009A4  EFE1  F004         	goto	u12670
  2690   0009A8  51AA               	movf	(?_labs+3)& (0+255),w,b
  2691   0009AA  11A9               	iorwf	(?_labs+2)& (0+255),w,b
  2692   0009AC  11A8               	iorwf	(?_labs+1)& (0+255),w,b
  2693   0009AE  E107               	bnz	u12671
  2694   0009B0  0E02               	movlw	2
  2695   0009B2  5DA7               	subwf	?_labs& (0+255),w,b
  2696   0009B4  B0D8               	btfsc	status,0,c
  2697   0009B6  EFDF  F004         	goto	u12671
  2698   0009BA  EFE1  F004         	goto	u12670
  2699   0009BE                     u12671:
  2700   0009BE  EFE3  F004         	goto	l8730
  2701   0009C2                     u12670:
  2702   0009C2  EF92  F004         	goto	l8720
  2703   0009C6                     l8730:
  2704                           
  2705                           ; BSR set to: 0
  2706                           ;C:\Program Files\Microchip\xc8\v3.00\pic\sources\c99\common\doprnt.c: 668:    while (g.
      +                          f < u.f) {
  2707   0009C6  C13B  F100         	movff	efgtoa@g,___flge@ff1
  2708   0009CA  C13C  F101         	movff	efgtoa@g+1,___flge@ff1+1
  2709   0009CE  C13D  F102         	movff	efgtoa@g+2,___flge@ff1+2
  2710   0009D2  C13E  F103         	movff	efgtoa@g+3,___flge@ff1+3
  2711   0009D6  C141  F104         	movff	efgtoa@u,___flge@ff2
  2712   0009DA  C142  F105         	movff	efgtoa@u+1,___flge@ff2+1
  2713   0009DE  C143  F106         	movff	efgtoa@u+2,___flge@ff2+2
  2714   0009E2  C144  F107         	movff	efgtoa@u+3,___flge@ff2+3
  2715   0009E6  EC10  F01F         	call	___flge	;wreg free
  2716   0009EA  0101               	movlb	1	; () banked
  2717   0009EC  A0D8               	btfss	status,0,c
  2718   0009EE  EFFB  F004         	goto	u12681
  2719   0009F2  EFFD  F004         	goto	u12680
  2720   0009F6                     u12681:
  2721   0009F6  EF9C  F004         	goto	l8722
  2722   0009FA                     u12680:
  2723   0009FA                     l1003:
  2724                           
  2725                           ;C:\Program Files\Microchip\xc8\v3.00\pic\sources\c99\common\doprnt.c: 683:  mode = c;
  2726   0009FA  C116  F122         	movff	efgtoa@c,efgtoa@mode
  2727                           
  2728                           ;C:\Program Files\Microchip\xc8\v3.00\pic\sources\c99\common\doprnt.c: 685:     nmode = 
      +                          mode;
  2729   0009FE  C122  F123         	movff	efgtoa@mode,efgtoa@nmode
  2730   000A02                     
  2731                           ;C:\Program Files\Microchip\xc8\v3.00\pic\sources\c99\common\doprnt.c: 695:  {;C:\Progra
      +                          m Files\Microchip\xc8\v3.00\pic\sources\c99\common\doprnt.c: 696:         p = (prec < 0)
      +                           ? 6 : prec;
  2732   000A02  BE76               	btfsc	(_prec+1)^0,7,c
  2733   000A04  EF06  F005         	goto	u12691
  2734   000A08  EF08  F005         	goto	u12690
  2735   000A0C                     u12691:
  2736   000A0C  EF0E  F005         	goto	l8736
  2737   000A10                     u12690:
  2738   000A10  C075  F11B         	movff	_prec,efgtoa@p
  2739   000A14  C076  F11C         	movff	_prec+1,efgtoa@p+1
  2740   000A18  EF13  F005         	goto	l8738
  2741   000A1C                     l8736:
  2742   000A1C  0E00               	movlw	0
  2743   000A1E  0101               	movlb	1	; () banked
  2744   000A20  6F1C               	movwf	(efgtoa@p+1)& (0+255),b
  2745   000A22  0E06               	movlw	6
  2746   000A24  6F1B               	movwf	efgtoa@p& (0+255),b
  2747   000A26                     l8738:
  2748                           
  2749                           ;C:\Program Files\Microchip\xc8\v3.00\pic\sources\c99\common\doprnt.c: 697:     };C:\Pro
      +                          gram Files\Microchip\xc8\v3.00\pic\sources\c99\common\doprnt.c: 711:     m = p;
  2750   000A26  C11B  F126         	movff	efgtoa@p,efgtoa@m
  2751   000A2A  C11C  F127         	movff	efgtoa@p+1,efgtoa@m+1
  2752   000A2E                     
  2753                           ;C:\Program Files\Microchip\xc8\v3.00\pic\sources\c99\common\doprnt.c: 715:  {;C:\Progra
      +                          m Files\Microchip\xc8\v3.00\pic\sources\c99\common\doprnt.c: 716:         ++m;
  2754   000A2E  0101               	movlb	1	; () banked
  2755   000A30  4B26               	infsnz	efgtoa@m& (0+255),f,b
  2756   000A32  2B27               	incf	(efgtoa@m+1)& (0+255),f,b
  2757   000A34                     
  2758                           ; BSR set to: 1
  2759                           ;C:\Program Files\Microchip\xc8\v3.00\pic\sources\c99\common\doprnt.c: 717:     };C:\Pro
      +                          gram Files\Microchip\xc8\v3.00\pic\sources\c99\common\doprnt.c: 721:     if (nmode == 'f
      +                          ') {
  2760   000A34  0E66               	movlw	102
  2761   000A36  1923               	xorwf	efgtoa@nmode& (0+255),w,b
  2762   000A38  A4D8               	btfss	status,2,c
  2763   000A3A  EF21  F005         	goto	u12701
  2764   000A3E  EF23  F005         	goto	u12700
  2765   000A42                     u12701:
  2766   000A42  EF43  F005         	goto	l8752
  2767   000A46                     u12700:
  2768   000A46                     
  2769                           ; BSR set to: 1
  2770                           ;C:\Program Files\Microchip\xc8\v3.00\pic\sources\c99\common\doprnt.c: 722:         if (
      +                          e < 0) {
  2771   000A46  BF29               	btfsc	(efgtoa@e+1)& (0+255),7,b
  2772   000A48  EF2A  F005         	goto	u12710
  2773   000A4C  EF28  F005         	goto	u12711
  2774   000A50                     u12711:
  2775   000A50  EF36  F005         	goto	l8748
  2776   000A54                     u12710:
  2777   000A54                     
  2778                           ; BSR set to: 1
  2779                           ;C:\Program Files\Microchip\xc8\v3.00\pic\sources\c99\common\doprnt.c: 723:             
      +                          u.f = 1.0;
  2780   000A54  0E00               	movlw	0
  2781   000A56  6F41               	movwf	efgtoa@u& (0+255),b
  2782   000A58  0E00               	movlw	0
  2783   000A5A  6F42               	movwf	(efgtoa@u+1)& (0+255),b
  2784   000A5C  0E80               	movlw	128
  2785   000A5E  6F43               	movwf	(efgtoa@u+2)& (0+255),b
  2786   000A60  0E3F               	movlw	63
  2787   000A62  6F44               	movwf	(efgtoa@u+3)& (0+255),b
  2788                           
  2789                           ;C:\Program Files\Microchip\xc8\v3.00\pic\sources\c99\common\doprnt.c: 724:             
      +                          e = 0;
  2790   000A64  0E00               	movlw	0
  2791   000A66  6F29               	movwf	(efgtoa@e+1)& (0+255),b
  2792   000A68  0E00               	movlw	0
  2793   000A6A  6F28               	movwf	efgtoa@e& (0+255),b
  2794   000A6C                     l8748:
  2795                           
  2796                           ; BSR set to: 1
  2797                           ;C:\Program Files\Microchip\xc8\v3.00\pic\sources\c99\common\doprnt.c: 726:         if (
      +                          !(mode == 'g')) {
  2798   000A6C  0E67               	movlw	103
  2799   000A6E  1922               	xorwf	efgtoa@mode& (0+255),w,b
  2800   000A70  B4D8               	btfsc	status,2,c
  2801   000A72  EF3D  F005         	goto	u12721
  2802   000A76  EF3F  F005         	goto	u12720
  2803   000A7A                     u12721:
  2804   000A7A  EF43  F005         	goto	l8752
  2805   000A7E                     u12720:
  2806   000A7E                     
  2807                           ; BSR set to: 1
  2808                           ;C:\Program Files\Microchip\xc8\v3.00\pic\sources\c99\common\doprnt.c: 727:             
      +                          m += e;
  2809   000A7E  5128               	movf	efgtoa@e& (0+255),w,b
  2810   000A80  2726               	addwf	efgtoa@m& (0+255),f,b
  2811   000A82  5129               	movf	(efgtoa@e+1)& (0+255),w,b
  2812   000A84  2327               	addwfc	(efgtoa@m+1)& (0+255),f,b
  2813   000A86                     l8752:
  2814                           
  2815                           ; BSR set to: 1
  2816                           ;C:\Program Files\Microchip\xc8\v3.00\pic\sources\c99\common\doprnt.c: 733:     i = 0;
  2817   000A86  0E00               	movlw	0
  2818   000A88  6F31               	movwf	(efgtoa@i+1)& (0+255),b
  2819   000A8A  0E00               	movlw	0
  2820   000A8C  6F30               	movwf	efgtoa@i& (0+255),b
  2821   000A8E                     
  2822                           ; BSR set to: 1
  2823                           ;C:\Program Files\Microchip\xc8\v3.00\pic\sources\c99\common\doprnt.c: 734:     h = g.f;
  2824   000A8E  C13B  F132         	movff	efgtoa@g,efgtoa@h
  2825   000A92  C13C  F133         	movff	efgtoa@g+1,efgtoa@h+1
  2826   000A96  C13D  F134         	movff	efgtoa@g+2,efgtoa@h+2
  2827   000A9A  C13E  F135         	movff	efgtoa@g+3,efgtoa@h+3
  2828   000A9E                     
  2829                           ; BSR set to: 1
  2830                           ;C:\Program Files\Microchip\xc8\v3.00\pic\sources\c99\common\doprnt.c: 735:     ou = u;
  2831   000A9E  C141  F12C         	movff	efgtoa@u,efgtoa@ou
  2832   000AA2  C142  F12D         	movff	efgtoa@u+1,efgtoa@ou+1
  2833   000AA6  C143  F12E         	movff	efgtoa@u+2,efgtoa@ou+2
  2834   000AAA  C144  F12F         	movff	efgtoa@u+3,efgtoa@ou+3
  2835                           
  2836                           ;C:\Program Files\Microchip\xc8\v3.00\pic\sources\c99\common\doprnt.c: 736:     while (i
      +                           < m) {
  2837   000AAE  EFD5  F005         	goto	l8766
  2838   000AB2                     l8758:
  2839                           
  2840                           ; BSR set to: 1
  2841                           ;C:\Program Files\Microchip\xc8\v3.00\pic\sources\c99\common\doprnt.c: 737:         l = 
      +                          floorf(h/u.f);
  2842   000AB2  C132  F0A7         	movff	efgtoa@h,___fldiv@b
  2843   000AB6  C133  F0A8         	movff	efgtoa@h+1,___fldiv@b+1
  2844   000ABA  C134  F0A9         	movff	efgtoa@h+2,___fldiv@b+2
  2845   000ABE  C135  F0AA         	movff	efgtoa@h+3,___fldiv@b+3
  2846   000AC2  C141  F0AB         	movff	efgtoa@u,___fldiv@a
  2847   000AC6  C142  F0AC         	movff	efgtoa@u+1,___fldiv@a+1
  2848   000ACA  C143  F0AD         	movff	efgtoa@u+2,___fldiv@a+2
  2849   000ACE  C144  F0AE         	movff	efgtoa@u+3,___fldiv@a+3
  2850   000AD2  EC03  F016         	call	___fldiv	;wreg free
  2851   000AD6  C0A7  F0C0         	movff	?___fldiv,floorf@x
  2852   000ADA  C0A8  F0C1         	movff	?___fldiv+1,floorf@x+1
  2853   000ADE  C0A9  F0C2         	movff	?___fldiv+2,floorf@x+2
  2854   000AE2  C0AA  F0C3         	movff	?___fldiv+3,floorf@x+3
  2855   000AE6  EC94  F019         	call	_floorf	;wreg free
  2856   000AEA  C0C0  F136         	movff	?_floorf,efgtoa@l
  2857   000AEE  C0C1  F137         	movff	?_floorf+1,efgtoa@l+1
  2858   000AF2  C0C2  F138         	movff	?_floorf+2,efgtoa@l+2
  2859   000AF6  C0C3  F139         	movff	?_floorf+3,efgtoa@l+3
  2860                           
  2861                           ;C:\Program Files\Microchip\xc8\v3.00\pic\sources\c99\common\doprnt.c: 738:         d = 
      +                          (int)l;
  2862   000AFA  C136  F0A7         	movff	efgtoa@l,___fltol@f1
  2863   000AFE  C137  F0A8         	movff	efgtoa@l+1,___fltol@f1+1
  2864   000B02  C138  F0A9         	movff	efgtoa@l+2,___fltol@f1+2
  2865   000B06  C139  F0AA         	movff	efgtoa@l+3,___fltol@f1+3
  2866   000B0A  EC34  F020         	call	___fltol	;wreg free
  2867   000B0E  C0A7  F124         	movff	?___fltol,efgtoa@d
  2868   000B12  C0A8  F125         	movff	?___fltol+1,efgtoa@d+1
  2869   000B16                     
  2870                           ;C:\Program Files\Microchip\xc8\v3.00\pic\sources\c99\common\doprnt.c: 739:         h -=
      +                           l*u.f;
  2871   000B16  C132  F100         	movff	efgtoa@h,___flsub@b
  2872   000B1A  C133  F101         	movff	efgtoa@h+1,___flsub@b+1
  2873   000B1E  C134  F102         	movff	efgtoa@h+2,___flsub@b+2
  2874   000B22  C135  F103         	movff	efgtoa@h+3,___flsub@b+3
  2875   000B26  C136  F0AB         	movff	efgtoa@l,___flmul@a
  2876   000B2A  C137  F0AC         	movff	efgtoa@l+1,___flmul@a+1
  2877   000B2E  C138  F0AD         	movff	efgtoa@l+2,___flmul@a+2
  2878   000B32  C139  F0AE         	movff	efgtoa@l+3,___flmul@a+3
  2879   000B36  C141  F0A7         	movff	efgtoa@u,___flmul@b
  2880   000B3A  C142  F0A8         	movff	efgtoa@u+1,___flmul@b+1
  2881   000B3E  C143  F0A9         	movff	efgtoa@u+2,___flmul@b+2
  2882   000B42  C144  F0AA         	movff	efgtoa@u+3,___flmul@b+3
  2883   000B46  ECDC  F011         	call	___flmul	;wreg free
  2884   000B4A  C0A7  F104         	movff	?___flmul,___flsub@a
  2885   000B4E  C0A8  F105         	movff	?___flmul+1,___flsub@a+1
  2886   000B52  C0A9  F106         	movff	?___flmul+2,___flsub@a+2
  2887   000B56  C0AA  F107         	movff	?___flmul+3,___flsub@a+3
  2888   000B5A  ECE8  F027         	call	___flsub	;wreg free
  2889   000B5E  C100  F132         	movff	?___flsub,efgtoa@h
  2890   000B62  C101  F133         	movff	?___flsub+1,efgtoa@h+1
  2891   000B66  C102  F134         	movff	?___flsub+2,efgtoa@h+2
  2892   000B6A  C103  F135         	movff	?___flsub+3,efgtoa@h+3
  2893   000B6E                     
  2894                           ;C:\Program Files\Microchip\xc8\v3.00\pic\sources\c99\common\doprnt.c: 740:         u.f 
      +                          = u.f/10.0;
  2895   000B6E  C141  F0A7         	movff	efgtoa@u,___fldiv@b
  2896   000B72  C142  F0A8         	movff	efgtoa@u+1,___fldiv@b+1
  2897   000B76  C143  F0A9         	movff	efgtoa@u+2,___fldiv@b+2
  2898   000B7A  C144  F0AA         	movff	efgtoa@u+3,___fldiv@b+3
  2899   000B7E  0E00               	movlw	0
  2900   000B80  0100               	movlb	0	; () banked
  2901   000B82  6FAB               	movwf	___fldiv@a& (0+255),b
  2902   000B84  0E00               	movlw	0
  2903   000B86  6FAC               	movwf	(___fldiv@a+1)& (0+255),b
  2904   000B88  0E20               	movlw	32
  2905   000B8A  6FAD               	movwf	(___fldiv@a+2)& (0+255),b
  2906   000B8C  0E41               	movlw	65
  2907   000B8E  6FAE               	movwf	(___fldiv@a+3)& (0+255),b
  2908   000B90  EC03  F016         	call	___fldiv	;wreg free
  2909   000B94  C0A7  F141         	movff	?___fldiv,efgtoa@u
  2910   000B98  C0A8  F142         	movff	?___fldiv+1,efgtoa@u+1
  2911   000B9C  C0A9  F143         	movff	?___fldiv+2,efgtoa@u+2
  2912   000BA0  C0AA  F144         	movff	?___fldiv+3,efgtoa@u+3
  2913   000BA4                     
  2914                           ;C:\Program Files\Microchip\xc8\v3.00\pic\sources\c99\common\doprnt.c: 741:         ++i;
  2915   000BA4  0101               	movlb	1	; () banked
  2916   000BA6  4B30               	infsnz	efgtoa@i& (0+255),f,b
  2917   000BA8  2B31               	incf	(efgtoa@i+1)& (0+255),f,b
  2918   000BAA                     l8766:
  2919                           
  2920                           ; BSR set to: 1
  2921                           ;C:\Program Files\Microchip\xc8\v3.00\pic\sources\c99\common\doprnt.c: 736:     while (i
      +                           < m) {
  2922   000BAA  5126               	movf	efgtoa@m& (0+255),w,b
  2923   000BAC  5D30               	subwf	efgtoa@i& (0+255),w,b
  2924   000BAE  5131               	movf	(efgtoa@i+1)& (0+255),w,b
  2925   000BB0  0A80               	xorlw	128
  2926   000BB2  6F17               	movwf	??_efgtoa& (0+255),b
  2927   000BB4  5127               	movf	(efgtoa@m+1)& (0+255),w,b
  2928   000BB6  0A80               	xorlw	128
  2929   000BB8  5917               	subwfb	??_efgtoa& (0+255),w,b
  2930   000BBA  A0D8               	btfss	status,0,c
  2931   000BBC  EFE2  F005         	goto	u12731
  2932   000BC0  EFE4  F005         	goto	u12730
  2933   000BC4                     u12731:
  2934   000BC4  EF59  F005         	goto	l8758
  2935   000BC8                     u12730:
  2936   000BC8                     
  2937                           ; BSR set to: 1
  2938                           ;C:\Program Files\Microchip\xc8\v3.00\pic\sources\c99\common\doprnt.c: 745:     l = u.f*
      +                          5.0;
  2939   000BC8  C141  F0A7         	movff	efgtoa@u,___flmul@b
  2940   000BCC  C142  F0A8         	movff	efgtoa@u+1,___flmul@b+1
  2941   000BD0  C143  F0A9         	movff	efgtoa@u+2,___flmul@b+2
  2942   000BD4  C144  F0AA         	movff	efgtoa@u+3,___flmul@b+3
  2943   000BD8  0E00               	movlw	0
  2944   000BDA  0100               	movlb	0	; () banked
  2945   000BDC  6FAB               	movwf	___flmul@a& (0+255),b
  2946   000BDE  0E00               	movlw	0
  2947   000BE0  6FAC               	movwf	(___flmul@a+1)& (0+255),b
  2948   000BE2  0EA0               	movlw	160
  2949   000BE4  6FAD               	movwf	(___flmul@a+2)& (0+255),b
  2950   000BE6  0E40               	movlw	64
  2951   000BE8  6FAE               	movwf	(___flmul@a+3)& (0+255),b
  2952   000BEA  ECDC  F011         	call	___flmul	;wreg free
  2953   000BEE  C0A7  F136         	movff	?___flmul,efgtoa@l
  2954   000BF2  C0A8  F137         	movff	?___flmul+1,efgtoa@l+1
  2955   000BF6  C0A9  F138         	movff	?___flmul+2,efgtoa@l+2
  2956   000BFA  C0AA  F139         	movff	?___flmul+3,efgtoa@l+3
  2957   000BFE                     
  2958                           ;C:\Program Files\Microchip\xc8\v3.00\pic\sources\c99\common\doprnt.c: 746:     if (h < 
      +                          l) {
  2959   000BFE  C132  F100         	movff	efgtoa@h,___flge@ff1
  2960   000C02  C133  F101         	movff	efgtoa@h+1,___flge@ff1+1
  2961   000C06  C134  F102         	movff	efgtoa@h+2,___flge@ff1+2
  2962   000C0A  C135  F103         	movff	efgtoa@h+3,___flge@ff1+3
  2963   000C0E  C136  F104         	movff	efgtoa@l,___flge@ff2
  2964   000C12  C137  F105         	movff	efgtoa@l+1,___flge@ff2+1
  2965   000C16  C138  F106         	movff	efgtoa@l+2,___flge@ff2+2
  2966   000C1A  C139  F107         	movff	efgtoa@l+3,___flge@ff2+3
  2967   000C1E  EC10  F01F         	call	___flge	;wreg free
  2968   000C22  0101               	movlb	1	; () banked
  2969   000C24  B0D8               	btfsc	status,0,c
  2970   000C26  EF17  F006         	goto	u12741
  2971   000C2A  EF19  F006         	goto	u12740
  2972   000C2E                     u12741:
  2973   000C2E  EF23  F006         	goto	l8774
  2974   000C32                     u12740:
  2975   000C32                     
  2976                           ; BSR set to: 1
  2977                           ;C:\Program Files\Microchip\xc8\v3.00\pic\sources\c99\common\doprnt.c: 747:         l = 
      +                          0.0;
  2978   000C32  0E00               	movlw	0
  2979   000C34  6F36               	movwf	efgtoa@l& (0+255),b
  2980   000C36  0E00               	movlw	0
  2981   000C38  6F37               	movwf	(efgtoa@l+1)& (0+255),b
  2982   000C3A  0E00               	movlw	0
  2983   000C3C  6F38               	movwf	(efgtoa@l+2)& (0+255),b
  2984   000C3E  0E00               	movlw	0
  2985   000C40  6F39               	movwf	(efgtoa@l+3)& (0+255),b
  2986                           
  2987                           ;C:\Program Files\Microchip\xc8\v3.00\pic\sources\c99\common\doprnt.c: 748:     } else {
  2988   000C42  EF4D  F006         	goto	l8780
  2989   000C46                     l8774:
  2990                           
  2991                           ; BSR set to: 1
  2992                           ;C:\Program Files\Microchip\xc8\v3.00\pic\sources\c99\common\doprnt.c: 750:         if (
      +                          (h == l) && !(d % 2)) {
  2993   000C46  C132  F0A7         	movff	efgtoa@h,___fleq@ff1
  2994   000C4A  C133  F0A8         	movff	efgtoa@h+1,___fleq@ff1+1
  2995   000C4E  C134  F0A9         	movff	efgtoa@h+2,___fleq@ff1+2
  2996   000C52  C135  F0AA         	movff	efgtoa@h+3,___fleq@ff1+3
  2997   000C56  C136  F0AB         	movff	efgtoa@l,___fleq@ff2
  2998   000C5A  C137  F0AC         	movff	efgtoa@l+1,___fleq@ff2+1
  2999   000C5E  C138  F0AD         	movff	efgtoa@l+2,___fleq@ff2+2
  3000   000C62  C139  F0AE         	movff	efgtoa@l+3,___fleq@ff2+3
  3001   000C66  EC87  F023         	call	___fleq	;wreg free
  3002   000C6A  0100               	movlb	0	; () banked
  3003   000C6C  A0D8               	btfss	status,0,c
  3004   000C6E  EF3B  F006         	goto	u12751
  3005   000C72  EF3D  F006         	goto	u12750
  3006   000C76                     u12751:
  3007   000C76  EF4D  F006         	goto	l8780
  3008   000C7A                     u12750:
  3009   000C7A                     
  3010                           ; BSR set to: 0
  3011   000C7A  0101               	movlb	1	; () banked
  3012   000C7C  B124               	btfsc	efgtoa@d& (0+255),0,b
  3013   000C7E  EF43  F006         	goto	u12761
  3014   000C82  EF45  F006         	goto	u12760
  3015   000C86                     u12761:
  3016   000C86  EF4D  F006         	goto	l8780
  3017   000C8A                     u12760:
  3018   000C8A                     
  3019                           ; BSR set to: 1
  3020                           ;C:\Program Files\Microchip\xc8\v3.00\pic\sources\c99\common\doprnt.c: 751:             
      +                          l = 0.0;
  3021   000C8A  0E00               	movlw	0
  3022   000C8C  6F36               	movwf	efgtoa@l& (0+255),b
  3023   000C8E  0E00               	movlw	0
  3024   000C90  6F37               	movwf	(efgtoa@l+1)& (0+255),b
  3025   000C92  0E00               	movlw	0
  3026   000C94  6F38               	movwf	(efgtoa@l+2)& (0+255),b
  3027   000C96  0E00               	movlw	0
  3028   000C98  6F39               	movwf	(efgtoa@l+3)& (0+255),b
  3029   000C9A                     l8780:
  3030                           
  3031                           ;C:\Program Files\Microchip\xc8\v3.00\pic\sources\c99\common\doprnt.c: 756:     h = g.f 
      +                          + l;
  3032   000C9A  C13B  F0A7         	movff	efgtoa@g,___fladd@b
  3033   000C9E  C13C  F0A8         	movff	efgtoa@g+1,___fladd@b+1
  3034   000CA2  C13D  F0A9         	movff	efgtoa@g+2,___fladd@b+2
  3035   000CA6  C13E  F0AA         	movff	efgtoa@g+3,___fladd@b+3
  3036   000CAA  C136  F0AB         	movff	efgtoa@l,___fladd@a
  3037   000CAE  C137  F0AC         	movff	efgtoa@l+1,___fladd@a+1
  3038   000CB2  C138  F0AD         	movff	efgtoa@l+2,___fladd@a+2
  3039   000CB6  C139  F0AE         	movff	efgtoa@l+3,___fladd@a+3
  3040   000CBA  EC25  F00D         	call	___fladd	;wreg free
  3041   000CBE  C0A7  F132         	movff	?___fladd,efgtoa@h
  3042   000CC2  C0A8  F133         	movff	?___fladd+1,efgtoa@h+1
  3043   000CC6  C0A9  F134         	movff	?___fladd+2,efgtoa@h+2
  3044   000CCA  C0AA  F135         	movff	?___fladd+3,efgtoa@h+3
  3045   000CCE                     
  3046                           ;C:\Program Files\Microchip\xc8\v3.00\pic\sources\c99\common\doprnt.c: 758:  if (h >= (o
      +                          u.f*10.0)) {
  3047   000CCE  C132  F100         	movff	efgtoa@h,___flge@ff1
  3048   000CD2  C133  F101         	movff	efgtoa@h+1,___flge@ff1+1
  3049   000CD6  C134  F102         	movff	efgtoa@h+2,___flge@ff1+2
  3050   000CDA  C135  F103         	movff	efgtoa@h+3,___flge@ff1+3
  3051   000CDE  0E00               	movlw	0
  3052   000CE0  0100               	movlb	0	; () banked
  3053   000CE2  6FAB               	movwf	___flmul@a& (0+255),b
  3054   000CE4  0E00               	movlw	0
  3055   000CE6  6FAC               	movwf	(___flmul@a+1)& (0+255),b
  3056   000CE8  0E20               	movlw	32
  3057   000CEA  6FAD               	movwf	(___flmul@a+2)& (0+255),b
  3058   000CEC  0E41               	movlw	65
  3059   000CEE  6FAE               	movwf	(___flmul@a+3)& (0+255),b
  3060   000CF0  C12C  F0A7         	movff	efgtoa@ou,___flmul@b
  3061   000CF4  C12D  F0A8         	movff	efgtoa@ou+1,___flmul@b+1
  3062   000CF8  C12E  F0A9         	movff	efgtoa@ou+2,___flmul@b+2
  3063   000CFC  C12F  F0AA         	movff	efgtoa@ou+3,___flmul@b+3
  3064   000D00  ECDC  F011         	call	___flmul	;wreg free
  3065   000D04  C0A7  F104         	movff	?___flmul,___flge@ff2
  3066   000D08  C0A8  F105         	movff	?___flmul+1,___flge@ff2+1
  3067   000D0C  C0A9  F106         	movff	?___flmul+2,___flge@ff2+2
  3068   000D10  C0AA  F107         	movff	?___flmul+3,___flge@ff2+3
  3069   000D14  EC10  F01F         	call	___flge	;wreg free
  3070   000D18  0101               	movlb	1	; () banked
  3071   000D1A  A0D8               	btfss	status,0,c
  3072   000D1C  EF92  F006         	goto	u12771
  3073   000D20  EF94  F006         	goto	u12770
  3074   000D24                     u12771:
  3075   000D24  EFBD  F006         	goto	l8792
  3076   000D28                     u12770:
  3077   000D28                     
  3078                           ; BSR set to: 1
  3079                           ;C:\Program Files\Microchip\xc8\v3.00\pic\sources\c99\common\doprnt.c: 759:   e++;
  3080   000D28  4B28               	infsnz	efgtoa@e& (0+255),f,b
  3081   000D2A  2B29               	incf	(efgtoa@e+1)& (0+255),f,b
  3082   000D2C                     
  3083                           ; BSR set to: 1
  3084                           ;C:\Program Files\Microchip\xc8\v3.00\pic\sources\c99\common\doprnt.c: 760:   ou.f *= 10
      +                          .0;
  3085   000D2C  C12C  F0A7         	movff	efgtoa@ou,___flmul@b
  3086   000D30  C12D  F0A8         	movff	efgtoa@ou+1,___flmul@b+1
  3087   000D34  C12E  F0A9         	movff	efgtoa@ou+2,___flmul@b+2
  3088   000D38  C12F  F0AA         	movff	efgtoa@ou+3,___flmul@b+3
  3089   000D3C  0E00               	movlw	0
  3090   000D3E  0100               	movlb	0	; () banked
  3091   000D40  6FAB               	movwf	___flmul@a& (0+255),b
  3092   000D42  0E00               	movlw	0
  3093   000D44  6FAC               	movwf	(___flmul@a+1)& (0+255),b
  3094   000D46  0E20               	movlw	32
  3095   000D48  6FAD               	movwf	(___flmul@a+2)& (0+255),b
  3096   000D4A  0E41               	movlw	65
  3097   000D4C  6FAE               	movwf	(___flmul@a+3)& (0+255),b
  3098   000D4E  ECDC  F011         	call	___flmul	;wreg free
  3099   000D52  C0A7  F12C         	movff	?___flmul,efgtoa@ou
  3100   000D56  C0A8  F12D         	movff	?___flmul+1,efgtoa@ou+1
  3101   000D5A  C0A9  F12E         	movff	?___flmul+2,efgtoa@ou+2
  3102   000D5E  C0AA  F12F         	movff	?___flmul+3,efgtoa@ou+3
  3103   000D62                     
  3104                           ;C:\Program Files\Microchip\xc8\v3.00\pic\sources\c99\common\doprnt.c: 762:   if (nmode 
      +                          == 'f') {
  3105   000D62  0E66               	movlw	102
  3106   000D64  0101               	movlb	1	; () banked
  3107   000D66  1923               	xorwf	efgtoa@nmode& (0+255),w,b
  3108   000D68  A4D8               	btfss	status,2,c
  3109   000D6A  EFB9  F006         	goto	u12781
  3110   000D6E  EFBB  F006         	goto	u12780
  3111   000D72                     u12781:
  3112   000D72  EFBD  F006         	goto	l8792
  3113   000D76                     u12780:
  3114   000D76                     
  3115                           ; BSR set to: 1
  3116                           ;C:\Program Files\Microchip\xc8\v3.00\pic\sources\c99\common\doprnt.c: 764:    m++;
  3117   000D76  4B26               	infsnz	efgtoa@m& (0+255),f,b
  3118   000D78  2B27               	incf	(efgtoa@m+1)& (0+255),f,b
  3119   000D7A                     l8792:
  3120                           
  3121                           ; BSR set to: 1
  3122                           ;C:\Program Files\Microchip\xc8\v3.00\pic\sources\c99\common\doprnt.c: 770:     u = ou;
  3123   000D7A  C12C  F141         	movff	efgtoa@ou,efgtoa@u
  3124   000D7E  C12D  F142         	movff	efgtoa@ou+1,efgtoa@u+1
  3125   000D82  C12E  F143         	movff	efgtoa@ou+2,efgtoa@u+2
  3126   000D86  C12F  F144         	movff	efgtoa@ou+3,efgtoa@u+3
  3127   000D8A                     
  3128                           ; BSR set to: 1
  3129                           ;C:\Program Files\Microchip\xc8\v3.00\pic\sources\c99\common\doprnt.c: 774:  ne = e;
  3130   000D8A  C128  F119         	movff	efgtoa@e,efgtoa@ne
  3131   000D8E  C129  F11A         	movff	efgtoa@e+1,efgtoa@ne+1
  3132   000D92                     
  3133                           ; BSR set to: 1
  3134                           ;C:\Program Files\Microchip\xc8\v3.00\pic\sources\c99\common\doprnt.c: 776:     pp = 0;
  3135   000D92  6B21               	clrf	efgtoa@pp& (0+255),b
  3136   000D94                     
  3137                           ; BSR set to: 1
  3138                           ;C:\Program Files\Microchip\xc8\v3.00\pic\sources\c99\common\doprnt.c: 777:     t = 0;
  3139   000D94  0E00               	movlw	0
  3140   000D96  6F1E               	movwf	(efgtoa@t+1)& (0+255),b
  3141   000D98  0E00               	movlw	0
  3142   000D9A  6F1D               	movwf	efgtoa@t& (0+255),b
  3143   000D9C                     
  3144                           ; BSR set to: 1
  3145                           ;C:\Program Files\Microchip\xc8\v3.00\pic\sources\c99\common\doprnt.c: 778:     i = 0;
  3146   000D9C  0E00               	movlw	0
  3147   000D9E  6F31               	movwf	(efgtoa@i+1)& (0+255),b
  3148   000DA0  0E00               	movlw	0
  3149   000DA2  6F30               	movwf	efgtoa@i& (0+255),b
  3150                           
  3151                           ;C:\Program Files\Microchip\xc8\v3.00\pic\sources\c99\common\doprnt.c: 779:     while ((
      +                          i < m) && (n < (80 - 5))) {
  3152   000DA4  EFBB  F007         	goto	l8842
  3153   000DA8                     l8802:
  3154                           
  3155                           ; BSR set to: 1
  3156                           ;C:\Program Files\Microchip\xc8\v3.00\pic\sources\c99\common\doprnt.c: 780:         l = 
      +                          floorf(h/u.f);
  3157   000DA8  C132  F0A7         	movff	efgtoa@h,___fldiv@b
  3158   000DAC  C133  F0A8         	movff	efgtoa@h+1,___fldiv@b+1
  3159   000DB0  C134  F0A9         	movff	efgtoa@h+2,___fldiv@b+2
  3160   000DB4  C135  F0AA         	movff	efgtoa@h+3,___fldiv@b+3
  3161   000DB8  C141  F0AB         	movff	efgtoa@u,___fldiv@a
  3162   000DBC  C142  F0AC         	movff	efgtoa@u+1,___fldiv@a+1
  3163   000DC0  C143  F0AD         	movff	efgtoa@u+2,___fldiv@a+2
  3164   000DC4  C144  F0AE         	movff	efgtoa@u+3,___fldiv@a+3
  3165   000DC8  EC03  F016         	call	___fldiv	;wreg free
  3166   000DCC  C0A7  F0C0         	movff	?___fldiv,floorf@x
  3167   000DD0  C0A8  F0C1         	movff	?___fldiv+1,floorf@x+1
  3168   000DD4  C0A9  F0C2         	movff	?___fldiv+2,floorf@x+2
  3169   000DD8  C0AA  F0C3         	movff	?___fldiv+3,floorf@x+3
  3170   000DDC  EC94  F019         	call	_floorf	;wreg free
  3171   000DE0  C0C0  F136         	movff	?_floorf,efgtoa@l
  3172   000DE4  C0C1  F137         	movff	?_floorf+1,efgtoa@l+1
  3173   000DE8  C0C2  F138         	movff	?_floorf+2,efgtoa@l+2
  3174   000DEC  C0C3  F139         	movff	?_floorf+3,efgtoa@l+3
  3175                           
  3176                           ;C:\Program Files\Microchip\xc8\v3.00\pic\sources\c99\common\doprnt.c: 781:         d = 
      +                          (int)l > 9 ? 9 : (int)l;
  3177   000DF0  C136  F0A7         	movff	efgtoa@l,___fltol@f1
  3178   000DF4  C137  F0A8         	movff	efgtoa@l+1,___fltol@f1+1
  3179   000DF8  C138  F0A9         	movff	efgtoa@l+2,___fltol@f1+2
  3180   000DFC  C139  F0AA         	movff	efgtoa@l+3,___fltol@f1+3
  3181   000E00  EC34  F020         	call	___fltol	;wreg free
  3182   000E04  0100               	movlb	0	; () banked
  3183   000E06  BFA8               	btfsc	(?___fltol+1)& (0+255),7,b
  3184   000E08  EF11  F007         	goto	u12790
  3185   000E0C  51A8               	movf	(?___fltol+1)& (0+255),w,b
  3186   000E0E  E107               	bnz	u12791
  3187   000E10  0E0A               	movlw	10
  3188   000E12  5DA7               	subwf	?___fltol& (0+255),w,b
  3189   000E14  B0D8               	btfsc	status,0,c
  3190   000E16  EF0F  F007         	goto	u12791
  3191   000E1A  EF11  F007         	goto	u12790
  3192   000E1E                     u12791:
  3193   000E1E  EF21  F007         	goto	l8806
  3194   000E22                     u12790:
  3195   000E22                     
  3196                           ; BSR set to: 0
  3197   000E22  C136  F0A7         	movff	efgtoa@l,___fltol@f1
  3198   000E26  C137  F0A8         	movff	efgtoa@l+1,___fltol@f1+1
  3199   000E2A  C138  F0A9         	movff	efgtoa@l+2,___fltol@f1+2
  3200   000E2E  C139  F0AA         	movff	efgtoa@l+3,___fltol@f1+3
  3201   000E32  EC34  F020         	call	___fltol	;wreg free
  3202   000E36  C0A7  F124         	movff	?___fltol,efgtoa@d
  3203   000E3A  C0A8  F125         	movff	?___fltol+1,efgtoa@d+1
  3204   000E3E  EF26  F007         	goto	l1033
  3205   000E42                     l8806:
  3206                           
  3207                           ; BSR set to: 0
  3208   000E42  0E00               	movlw	0
  3209   000E44  0101               	movlb	1	; () banked
  3210   000E46  6F25               	movwf	(efgtoa@d+1)& (0+255),b
  3211   000E48  0E09               	movlw	9
  3212   000E4A  6F24               	movwf	efgtoa@d& (0+255),b
  3213   000E4C                     l1033:
  3214                           
  3215                           ;C:\Program Files\Microchip\xc8\v3.00\pic\sources\c99\common\doprnt.c: 792:   {;C:\Progr
      +                          am Files\Microchip\xc8\v3.00\pic\sources\c99\common\doprnt.c: 793:             if (!pp &
      +                          & (ne < 0)) {
  3216   000E4C  0101               	movlb	1	; () banked
  3217   000E4E  5121               	movf	efgtoa@pp& (0+255),w,b
  3218   000E50  A4D8               	btfss	status,2,c
  3219   000E52  EF2D  F007         	goto	u12801
  3220   000E56  EF2F  F007         	goto	u12800
  3221   000E5A                     u12801:
  3222   000E5A  EF57  F007         	goto	l8826
  3223   000E5E                     u12800:
  3224   000E5E                     
  3225                           ; BSR set to: 1
  3226   000E5E  BF1A               	btfsc	(efgtoa@ne+1)& (0+255),7,b
  3227   000E60  EF36  F007         	goto	u12810
  3228   000E64  EF34  F007         	goto	u12811
  3229   000E68                     u12811:
  3230   000E68  EF57  F007         	goto	l8826
  3231   000E6C                     u12810:
  3232   000E6C                     
  3233                           ; BSR set to: 1
  3234                           ;C:\Program Files\Microchip\xc8\v3.00\pic\sources\c99\common\doprnt.c: 794:             
      +                              dbuf[n++] = '.';
  3235   000E6C  0E64               	movlw	low _dbuf
  3236   000E6E  253F               	addwf	efgtoa@n& (0+255),w,b
  3237   000E70  6ED9               	movwf	fsr2l,c
  3238   000E72  0E01               	movlw	high _dbuf
  3239   000E74  2140               	addwfc	(efgtoa@n+1)& (0+255),w,b
  3240   000E76  6EDA               	movwf	fsr2h,c
  3241   000E78  0E2E               	movlw	46
  3242   000E7A  6EDF               	movwf	indf2,c
  3243   000E7C                     
  3244                           ; BSR set to: 1
  3245   000E7C  4B3F               	infsnz	efgtoa@n& (0+255),f,b
  3246   000E7E  2B40               	incf	(efgtoa@n+1)& (0+255),f,b
  3247   000E80                     
  3248                           ; BSR set to: 1
  3249                           ;C:\Program Files\Microchip\xc8\v3.00\pic\sources\c99\common\doprnt.c: 795:             
      +                              --w;
  3250   000E80  072A               	decf	efgtoa@w& (0+255),f,b
  3251   000E82  A0D8               	btfss	status,0,c
  3252   000E84  072B               	decf	(efgtoa@w+1)& (0+255),f,b
  3253   000E86                     
  3254                           ; BSR set to: 1
  3255                           ;C:\Program Files\Microchip\xc8\v3.00\pic\sources\c99\common\doprnt.c: 796:             
      +                              pp = 1;
  3256   000E86  0E01               	movlw	1
  3257   000E88  6F21               	movwf	efgtoa@pp& (0+255),b
  3258   000E8A  EF57  F007         	goto	l8826
  3259   000E8E                     l8818:
  3260                           
  3261                           ; BSR set to: 1
  3262                           ;C:\Program Files\Microchip\xc8\v3.00\pic\sources\c99\common\doprnt.c: 799:             
      +                              dbuf[n++] = '0';
  3263   000E8E  0E64               	movlw	low _dbuf
  3264   000E90  253F               	addwf	efgtoa@n& (0+255),w,b
  3265   000E92  6ED9               	movwf	fsr2l,c
  3266   000E94  0E01               	movlw	high _dbuf
  3267   000E96  2140               	addwfc	(efgtoa@n+1)& (0+255),w,b
  3268   000E98  6EDA               	movwf	fsr2h,c
  3269   000E9A  0E30               	movlw	48
  3270   000E9C  6EDF               	movwf	indf2,c
  3271   000E9E                     
  3272                           ; BSR set to: 1
  3273   000E9E  4B3F               	infsnz	efgtoa@n& (0+255),f,b
  3274   000EA0  2B40               	incf	(efgtoa@n+1)& (0+255),f,b
  3275   000EA2                     
  3276                           ; BSR set to: 1
  3277                           ;C:\Program Files\Microchip\xc8\v3.00\pic\sources\c99\common\doprnt.c: 800:             
      +                              --w;
  3278   000EA2  072A               	decf	efgtoa@w& (0+255),f,b
  3279   000EA4  A0D8               	btfss	status,0,c
  3280   000EA6  072B               	decf	(efgtoa@w+1)& (0+255),f,b
  3281   000EA8                     
  3282                           ; BSR set to: 1
  3283                           ;C:\Program Files\Microchip\xc8\v3.00\pic\sources\c99\common\doprnt.c: 801:             
      +                              --t;
  3284   000EA8  071D               	decf	efgtoa@t& (0+255),f,b
  3285   000EAA  A0D8               	btfss	status,0,c
  3286   000EAC  071E               	decf	(efgtoa@t+1)& (0+255),f,b
  3287   000EAE                     l8826:
  3288                           
  3289                           ; BSR set to: 1
  3290                           ;C:\Program Files\Microchip\xc8\v3.00\pic\sources\c99\common\doprnt.c: 798:             
      +                          while (t) {
  3291   000EAE  511D               	movf	efgtoa@t& (0+255),w,b
  3292   000EB0  111E               	iorwf	(efgtoa@t+1)& (0+255),w,b
  3293   000EB2  A4D8               	btfss	status,2,c
  3294   000EB4  EF5E  F007         	goto	u12821
  3295   000EB8  EF60  F007         	goto	u12820
  3296   000EBC                     u12821:
  3297   000EBC  EF47  F007         	goto	l8818
  3298   000EC0                     u12820:
  3299   000EC0                     
  3300                           ; BSR set to: 1
  3301                           ;C:\Program Files\Microchip\xc8\v3.00\pic\sources\c99\common\doprnt.c: 803:             
      +                          dbuf[n++] = (char)((int)'0' + d);
  3302   000EC0  0E64               	movlw	low _dbuf
  3303   000EC2  253F               	addwf	efgtoa@n& (0+255),w,b
  3304   000EC4  6ED9               	movwf	fsr2l,c
  3305   000EC6  0E01               	movlw	high _dbuf
  3306   000EC8  2140               	addwfc	(efgtoa@n+1)& (0+255),w,b
  3307   000ECA  6EDA               	movwf	fsr2h,c
  3308   000ECC  5124               	movf	efgtoa@d& (0+255),w,b
  3309   000ECE  0F30               	addlw	48
  3310   000ED0  6EDF               	movwf	indf2,c
  3311   000ED2                     
  3312                           ; BSR set to: 1
  3313   000ED2  4B3F               	infsnz	efgtoa@n& (0+255),f,b
  3314   000ED4  2B40               	incf	(efgtoa@n+1)& (0+255),f,b
  3315   000ED6                     
  3316                           ; BSR set to: 1
  3317                           ;C:\Program Files\Microchip\xc8\v3.00\pic\sources\c99\common\doprnt.c: 804:             
      +                          --w;
  3318   000ED6  072A               	decf	efgtoa@w& (0+255),f,b
  3319   000ED8  A0D8               	btfss	status,0,c
  3320   000EDA  072B               	decf	(efgtoa@w+1)& (0+255),f,b
  3321   000EDC                     
  3322                           ; BSR set to: 1
  3323                           ;C:\Program Files\Microchip\xc8\v3.00\pic\sources\c99\common\doprnt.c: 805:         };C:
      +                          \Program Files\Microchip\xc8\v3.00\pic\sources\c99\common\doprnt.c: 806:         h -= l*
      +                          u.f;
  3324   000EDC  C132  F100         	movff	efgtoa@h,___flsub@b
  3325   000EE0  C133  F101         	movff	efgtoa@h+1,___flsub@b+1
  3326   000EE4  C134  F102         	movff	efgtoa@h+2,___flsub@b+2
  3327   000EE8  C135  F103         	movff	efgtoa@h+3,___flsub@b+3
  3328   000EEC  C136  F0AB         	movff	efgtoa@l,___flmul@a
  3329   000EF0  C137  F0AC         	movff	efgtoa@l+1,___flmul@a+1
  3330   000EF4  C138  F0AD         	movff	efgtoa@l+2,___flmul@a+2
  3331   000EF8  C139  F0AE         	movff	efgtoa@l+3,___flmul@a+3
  3332   000EFC  C141  F0A7         	movff	efgtoa@u,___flmul@b
  3333   000F00  C142  F0A8         	movff	efgtoa@u+1,___flmul@b+1
  3334   000F04  C143  F0A9         	movff	efgtoa@u+2,___flmul@b+2
  3335   000F08  C144  F0AA         	movff	efgtoa@u+3,___flmul@b+3
  3336   000F0C  ECDC  F011         	call	___flmul	;wreg free
  3337   000F10  C0A7  F104         	movff	?___flmul,___flsub@a
  3338   000F14  C0A8  F105         	movff	?___flmul+1,___flsub@a+1
  3339   000F18  C0A9  F106         	movff	?___flmul+2,___flsub@a+2
  3340   000F1C  C0AA  F107         	movff	?___flmul+3,___flsub@a+3
  3341   000F20  ECE8  F027         	call	___flsub	;wreg free
  3342   000F24  C100  F132         	movff	?___flsub,efgtoa@h
  3343   000F28  C101  F133         	movff	?___flsub+1,efgtoa@h+1
  3344   000F2C  C102  F134         	movff	?___flsub+2,efgtoa@h+2
  3345   000F30  C103  F135         	movff	?___flsub+3,efgtoa@h+3
  3346   000F34                     
  3347                           ;C:\Program Files\Microchip\xc8\v3.00\pic\sources\c99\common\doprnt.c: 807:         u.f 
      +                          = u.f/10.0;
  3348   000F34  C141  F0A7         	movff	efgtoa@u,___fldiv@b
  3349   000F38  C142  F0A8         	movff	efgtoa@u+1,___fldiv@b+1
  3350   000F3C  C143  F0A9         	movff	efgtoa@u+2,___fldiv@b+2
  3351   000F40  C144  F0AA         	movff	efgtoa@u+3,___fldiv@b+3
  3352   000F44  0E00               	movlw	0
  3353   000F46  0100               	movlb	0	; () banked
  3354   000F48  6FAB               	movwf	___fldiv@a& (0+255),b
  3355   000F4A  0E00               	movlw	0
  3356   000F4C  6FAC               	movwf	(___fldiv@a+1)& (0+255),b
  3357   000F4E  0E20               	movlw	32
  3358   000F50  6FAD               	movwf	(___fldiv@a+2)& (0+255),b
  3359   000F52  0E41               	movlw	65
  3360   000F54  6FAE               	movwf	(___fldiv@a+3)& (0+255),b
  3361   000F56  EC03  F016         	call	___fldiv	;wreg free
  3362   000F5A  C0A7  F141         	movff	?___fldiv,efgtoa@u
  3363   000F5E  C0A8  F142         	movff	?___fldiv+1,efgtoa@u+1
  3364   000F62  C0A9  F143         	movff	?___fldiv+2,efgtoa@u+2
  3365   000F66  C0AA  F144         	movff	?___fldiv+3,efgtoa@u+3
  3366   000F6A                     
  3367                           ;C:\Program Files\Microchip\xc8\v3.00\pic\sources\c99\common\doprnt.c: 808:         --ne
      +                          ;
  3368   000F6A  0101               	movlb	1	; () banked
  3369   000F6C  0719               	decf	efgtoa@ne& (0+255),f,b
  3370   000F6E  A0D8               	btfss	status,0,c
  3371   000F70  071A               	decf	(efgtoa@ne+1)& (0+255),f,b
  3372   000F72                     
  3373                           ; BSR set to: 1
  3374                           ;C:\Program Files\Microchip\xc8\v3.00\pic\sources\c99\common\doprnt.c: 809:         ++i;
  3375   000F72  4B30               	infsnz	efgtoa@i& (0+255),f,b
  3376   000F74  2B31               	incf	(efgtoa@i+1)& (0+255),f,b
  3377   000F76                     l8842:
  3378                           
  3379                           ; BSR set to: 1
  3380                           ;C:\Program Files\Microchip\xc8\v3.00\pic\sources\c99\common\doprnt.c: 779:     while ((
      +                          i < m) && (n < (80 - 5))) {
  3381   000F76  5126               	movf	efgtoa@m& (0+255),w,b
  3382   000F78  5D30               	subwf	efgtoa@i& (0+255),w,b
  3383   000F7A  5131               	movf	(efgtoa@i+1)& (0+255),w,b
  3384   000F7C  0A80               	xorlw	128
  3385   000F7E  6F17               	movwf	??_efgtoa& (0+255),b
  3386   000F80  5127               	movf	(efgtoa@m+1)& (0+255),w,b
  3387   000F82  0A80               	xorlw	128
  3388   000F84  5917               	subwfb	??_efgtoa& (0+255),w,b
  3389   000F86  B0D8               	btfsc	status,0,c
  3390   000F88  EFC8  F007         	goto	u12831
  3391   000F8C  EFCA  F007         	goto	u12830
  3392   000F90                     u12831:
  3393   000F90  EFD8  F007         	goto	l8846
  3394   000F94                     u12830:
  3395   000F94                     
  3396                           ; BSR set to: 1
  3397   000F94  BF40               	btfsc	(efgtoa@n+1)& (0+255),7,b
  3398   000F96  EFD6  F007         	goto	u12841
  3399   000F9A  5140               	movf	(efgtoa@n+1)& (0+255),w,b
  3400   000F9C  E109               	bnz	u12840
  3401   000F9E  0E4B               	movlw	75
  3402   000FA0  5D3F               	subwf	efgtoa@n& (0+255),w,b
  3403   000FA2  A0D8               	btfss	status,0,c
  3404   000FA4  EFD6  F007         	goto	u12841
  3405   000FA8  EFD8  F007         	goto	u12840
  3406   000FAC                     u12841:
  3407   000FAC  EFD4  F006         	goto	l8802
  3408   000FB0                     u12840:
  3409   000FB0                     l8846:
  3410                           
  3411                           ; BSR set to: 1
  3412                           ;C:\Program Files\Microchip\xc8\v3.00\pic\sources\c99\common\doprnt.c: 816:  i = sizeof(
      +                          dbuf) - 1;
  3413   000FB0  0E00               	movlw	0
  3414   000FB2  6F31               	movwf	(efgtoa@i+1)& (0+255),b
  3415   000FB4  0E4F               	movlw	79
  3416   000FB6  6F30               	movwf	efgtoa@i& (0+255),b
  3417   000FB8                     
  3418                           ; BSR set to: 1
  3419                           ;C:\Program Files\Microchip\xc8\v3.00\pic\sources\c99\common\doprnt.c: 817:     dbuf[i] 
      +                          = '\0';
  3420   000FB8  0E64               	movlw	low _dbuf
  3421   000FBA  2530               	addwf	efgtoa@i& (0+255),w,b
  3422   000FBC  6ED9               	movwf	fsr2l,c
  3423   000FBE  0E01               	movlw	high _dbuf
  3424   000FC0  2131               	addwfc	(efgtoa@i+1)& (0+255),w,b
  3425   000FC2  6EDA               	movwf	fsr2h,c
  3426   000FC4  6ADF               	clrf	indf2,c
  3427   000FC6                     
  3428                           ; BSR set to: 1
  3429                           ;C:\Program Files\Microchip\xc8\v3.00\pic\sources\c99\common\doprnt.c: 848:  memcpy(&dbu
      +                          f[i-n], &dbuf[0], (size_t)n);
  3430   000FC6  0E64               	movlw	low _dbuf
  3431   000FC8  6F17               	movwf	??_efgtoa& (0+255),b
  3432   000FCA  0E01               	movlw	high _dbuf
  3433   000FCC  6F18               	movwf	(??_efgtoa+1)& (0+255),b
  3434   000FCE  513F               	movf	efgtoa@n& (0+255),w,b
  3435   000FD0  5F17               	subwf	??_efgtoa& (0+255),f,b
  3436   000FD2  5140               	movf	(efgtoa@n+1)& (0+255),w,b
  3437   000FD4  5B18               	subwfb	(??_efgtoa+1)& (0+255),f,b
  3438   000FD6  5130               	movf	efgtoa@i& (0+255),w,b
  3439   000FD8  2517               	addwf	??_efgtoa& (0+255),w,b
  3440   000FDA  0100               	movlb	0	; () banked
  3441   000FDC  6FA7               	movwf	memcpy@d1& (0+255),b
  3442   000FDE  0101               	movlb	1	; () banked
  3443   000FE0  5131               	movf	(efgtoa@i+1)& (0+255),w,b
  3444   000FE2  2118               	addwfc	(??_efgtoa+1)& (0+255),w,b
  3445   000FE4  0100               	movlb	0	; () banked
  3446   000FE6  6FA8               	movwf	(memcpy@d1+1)& (0+255),b
  3447   000FE8  0E64               	movlw	low _dbuf
  3448   000FEA  6FA9               	movwf	memcpy@s1& (0+255),b
  3449   000FEC  0E01               	movlw	high _dbuf
  3450   000FEE  6FAA               	movwf	(memcpy@s1+1)& (0+255),b
  3451   000FF0  C13F  F0AB         	movff	efgtoa@n,memcpy@n
  3452   000FF4  C140  F0AC         	movff	efgtoa@n+1,memcpy@n+1
  3453   000FF8  EC00  F027         	call	_memcpy	;wreg free
  3454   000FFC                     
  3455                           ;C:\Program Files\Microchip\xc8\v3.00\pic\sources\c99\common\doprnt.c: 849:  n = i-n;
  3456   000FFC  0101               	movlb	1	; () banked
  3457   000FFE  513F               	movf	efgtoa@n& (0+255),w,b
  3458   001000  5D30               	subwf	efgtoa@i& (0+255),w,b
  3459   001002  6F3F               	movwf	efgtoa@n& (0+255),b
  3460   001004  5140               	movf	(efgtoa@n+1)& (0+255),w,b
  3461   001006  5931               	subwfb	(efgtoa@i+1)& (0+255),w,b
  3462   001008  6F40               	movwf	(efgtoa@n+1)& (0+255),b
  3463   00100A                     
  3464                           ; BSR set to: 1
  3465                           ;C:\Program Files\Microchip\xc8\v3.00\pic\sources\c99\common\doprnt.c: 850:  i = sign ==
      +                           0 ? 0 : 1;
  3466   00100A  513A               	movf	efgtoa@sign& (0+255),w,b
  3467   00100C  A4D8               	btfss	status,2,c
  3468   00100E  EF0B  F008         	goto	u12851
  3469   001012  EF0E  F008         	goto	u12850
  3470   001016                     u12851:
  3471   001016  0E01               	movlw	1
  3472   001018  EF0F  F008         	goto	u12860
  3473   00101C                     u12850:
  3474   00101C  0E00               	movlw	0
  3475   00101E                     u12860:
  3476   00101E  6F30               	movwf	efgtoa@i& (0+255),b
  3477   001020  6B31               	clrf	(efgtoa@i+1)& (0+255),b
  3478   001022                     
  3479                           ; BSR set to: 1
  3480                           ;C:\Program Files\Microchip\xc8\v3.00\pic\sources\c99\common\doprnt.c: 861:  if (sign) {
  3481   001022  513A               	movf	efgtoa@sign& (0+255),w,b
  3482   001024  B4D8               	btfsc	status,2,c
  3483   001026  EF17  F008         	goto	u12871
  3484   00102A  EF19  F008         	goto	u12870
  3485   00102E                     u12871:
  3486   00102E  EF24  F008         	goto	l8860
  3487   001032                     u12870:
  3488   001032                     
  3489                           ; BSR set to: 1
  3490                           ;C:\Program Files\Microchip\xc8\v3.00\pic\sources\c99\common\doprnt.c: 862:   dbuf[--n] 
      +                          = sign;
  3491   001032  073F               	decf	efgtoa@n& (0+255),f,b
  3492   001034  A0D8               	btfss	status,0,c
  3493   001036  0740               	decf	(efgtoa@n+1)& (0+255),f,b
  3494   001038  0E64               	movlw	low _dbuf
  3495   00103A  253F               	addwf	efgtoa@n& (0+255),w,b
  3496   00103C  6ED9               	movwf	fsr2l,c
  3497   00103E  0E01               	movlw	high _dbuf
  3498   001040  2140               	addwfc	(efgtoa@n+1)& (0+255),w,b
  3499   001042  6EDA               	movwf	fsr2h,c
  3500   001044  C13A  FFDF         	movff	efgtoa@sign,indf2
  3501   001048                     l8860:
  3502                           
  3503                           ; BSR set to: 1
  3504                           ;C:\Program Files\Microchip\xc8\v3.00\pic\sources\c99\common\doprnt.c: 864:  w -= i;
  3505   001048  5130               	movf	efgtoa@i& (0+255),w,b
  3506   00104A  5F2A               	subwf	efgtoa@w& (0+255),f,b
  3507   00104C  5131               	movf	(efgtoa@i+1)& (0+255),w,b
  3508   00104E  5B2B               	subwfb	(efgtoa@w+1)& (0+255),f,b
  3509   001050                     
  3510                           ; BSR set to: 1
  3511                           ;C:\Program Files\Microchip\xc8\v3.00\pic\sources\c99\common\doprnt.c: 867:     return (
      +                          void) pad(fp, &dbuf[n], w);
  3512   001050  C110  F0B8         	movff	efgtoa@fp,pad@fp
  3513   001054  C111  F0B9         	movff	efgtoa@fp+1,pad@fp+1
  3514   001058  0E64               	movlw	low _dbuf
  3515   00105A  253F               	addwf	efgtoa@n& (0+255),w,b
  3516   00105C  0100               	movlb	0	; () banked
  3517   00105E  6FBA               	movwf	pad@buf& (0+255),b
  3518   001060  0E01               	movlw	high _dbuf
  3519   001062  0101               	movlb	1	; () banked
  3520   001064  2140               	addwfc	(efgtoa@n+1)& (0+255),w,b
  3521   001066  0100               	movlb	0	; () banked
  3522   001068  6FBB               	movwf	(pad@buf+1)& (0+255),b
  3523   00106A  C12A  F0BC         	movff	efgtoa@w,pad@p
  3524   00106E  C12B  F0BD         	movff	efgtoa@w+1,pad@p+1
  3525   001072  ECB5  F024         	call	_pad	;wreg free
  3526   001076                     l1000:
  3527   001076  0012               	return		;funcret
  3528   001078                     __end_of_efgtoa:
  3529                           	callstack 0
  3530                           
  3531 ;; *************** function _pad *****************
  3532 ;; Defined at:
  3533 ;;		line 193 in file "C:\Program Files\Microchip\xc8\v3.00\pic\sources\c99\common\doprnt.c"
  3534 ;; Parameters:    Size  Location     Type
  3535 ;;  fp              2   56[BANK0 ] PTR struct _IO_FILE
  3536 ;;		 -> NULL(0), 
  3537 ;;  buf             2   58[BANK0 ] PTR unsigned char 
  3538 ;;		 -> dbuf(80), 
  3539 ;;  p               2   60[BANK0 ] int 
  3540 ;; Auto vars:     Size  Location     Type
  3541 ;;  i               2   63[BANK0 ] int 
  3542 ;; Return value:  Size  Location     Type
  3543 ;;                  1    wreg      void 
  3544 ;; Registers used:
  3545 ;;		wreg, fsr1l, fsr1h, fsr2l, fsr2h, status,2, status,0, cstack
  3546 ;; Tracked objects:
  3547 ;;		On entry : 0/0
  3548 ;;		On exit  : 0/0
  3549 ;;		Unchanged: 0/0
  3550 ;; Data sizes:     COMRAM   BANK0   BANK1   BANK2   BANK3   BANK4   BANK5
  3551 ;;      Params:         0       6       0       0       0       0       0
  3552 ;;      Locals:         0       2       0       0       0       0       0
  3553 ;;      Temps:          0       1       0       0       0       0       0
  3554 ;;      Totals:         0       9       0       0       0       0       0
  3555 ;;Total ram usage:        9 bytes
  3556 ;; Hardware stack levels used: 1
  3557 ;; Hardware stack levels required when called: 17
  3558 ;; This function calls:
  3559 ;;		_fputc
  3560 ;;		_fputs
  3561 ;; This function is called by:
  3562 ;;		_efgtoa
  3563 ;; This function uses a non-reentrant model
  3564 ;;
  3565                           
  3566                           	psect	text7
  3567   00496A                     __ptext7:
  3568                           	callstack 0
  3569   00496A                     _pad:
  3570                           	callstack 8
  3571   00496A                     
  3572                           ;C:\Program Files\Microchip\xc8\v3.00\pic\sources\c99\common\doprnt.c: 193: static void 
      +                          pad(FILE *fp, char *buf, int p);C:\Program Files\Microchip\xc8\v3.00\pic\sources\c99\com
      +                          mon\doprnt.c: 194: {;C:\Program Files\Microchip\xc8\v3.00\pic\sources\c99\common\doprnt.
      +                          c: 195:     int i;;C:\Program Files\Microchip\xc8\v3.00\pic\sources\c99\common\doprnt.c:
      +                           205:  if (p < 0) {
  3573   00496A  0100               	movlb	0	; () banked
  3574   00496C  BFBD               	btfsc	(pad@p+1)& (0+255),7,b
  3575   00496E  EFBD  F024         	goto	u9190
  3576   004972  EFBB  F024         	goto	u9191
  3577   004976                     u9191:
  3578   004976  EFC1  F024         	goto	l985
  3579   00497A                     u9190:
  3580   00497A                     
  3581                           ; BSR set to: 0
  3582                           ;C:\Program Files\Microchip\xc8\v3.00\pic\sources\c99\common\doprnt.c: 206:   p = 0;
  3583   00497A  0E00               	movlw	0
  3584   00497C  6FBD               	movwf	(pad@p+1)& (0+255),b
  3585   00497E  0E00               	movlw	0
  3586   004980  6FBC               	movwf	pad@p& (0+255),b
  3587   004982                     l985:
  3588                           
  3589                           ; BSR set to: 0
  3590                           ;C:\Program Files\Microchip\xc8\v3.00\pic\sources\c99\common\doprnt.c: 208:     i = 0;
  3591   004982  0E00               	movlw	0
  3592   004984  6FC0               	movwf	(pad@i+1)& (0+255),b
  3593   004986  0E00               	movlw	0
  3594   004988  6FBF               	movwf	pad@i& (0+255),b
  3595                           
  3596                           ;C:\Program Files\Microchip\xc8\v3.00\pic\sources\c99\common\doprnt.c: 209:     while (i
      +                           < p) {
  3597   00498A  EFD4  F024         	goto	l6576
  3598   00498E                     l6572:
  3599                           
  3600                           ; BSR set to: 0
  3601                           ;C:\Program Files\Microchip\xc8\v3.00\pic\sources\c99\common\doprnt.c: 210:         fput
      +                          c(' ', fp);
  3602   00498E  0E00               	movlw	0
  3603   004990  6FA9               	movwf	(fputc@c+1)& (0+255),b
  3604   004992  0E20               	movlw	32
  3605   004994  6FA8               	movwf	fputc@c& (0+255),b
  3606   004996  C0B8  F0AA         	movff	pad@fp,fputc@fp
  3607   00499A  C0B9  F0AB         	movff	pad@fp+1,fputc@fp+1
  3608   00499E  ECBC  F022         	call	_fputc	;wreg free
  3609   0049A2                     
  3610                           ;C:\Program Files\Microchip\xc8\v3.00\pic\sources\c99\common\doprnt.c: 211:         ++i;
  3611   0049A2  0100               	movlb	0	; () banked
  3612   0049A4  4BBF               	infsnz	pad@i& (0+255),f,b
  3613   0049A6  2BC0               	incf	(pad@i+1)& (0+255),f,b
  3614   0049A8                     l6576:
  3615                           
  3616                           ; BSR set to: 0
  3617                           ;C:\Program Files\Microchip\xc8\v3.00\pic\sources\c99\common\doprnt.c: 209:     while (i
      +                           < p) {
  3618   0049A8  51BC               	movf	pad@p& (0+255),w,b
  3619   0049AA  5DBF               	subwf	pad@i& (0+255),w,b
  3620   0049AC  51C0               	movf	(pad@i+1)& (0+255),w,b
  3621   0049AE  0A80               	xorlw	128
  3622   0049B0  6FBE               	movwf	??_pad& (0+255),b
  3623   0049B2  51BD               	movf	(pad@p+1)& (0+255),w,b
  3624   0049B4  0A80               	xorlw	128
  3625   0049B6  59BE               	subwfb	??_pad& (0+255),w,b
  3626   0049B8  A0D8               	btfss	status,0,c
  3627   0049BA  EFE1  F024         	goto	u9201
  3628   0049BE  EFE3  F024         	goto	u9200
  3629   0049C2                     u9201:
  3630   0049C2  EFC7  F024         	goto	l6572
  3631   0049C6                     u9200:
  3632   0049C6                     
  3633                           ; BSR set to: 0
  3634                           ;C:\Program Files\Microchip\xc8\v3.00\pic\sources\c99\common\doprnt.c: 218:         fput
      +                          s((const char *)buf, fp);
  3635   0049C6  C0BA  F0B1         	movff	pad@buf,fputs@s
  3636   0049CA  C0BB  F0B2         	movff	pad@buf+1,fputs@s+1
  3637   0049CE  C0B8  F0B3         	movff	pad@fp,fputs@fp
  3638   0049D2  C0B9  F0B4         	movff	pad@fp+1,fputs@fp+1
  3639   0049D6  ECC4  F027         	call	_fputs	;wreg free
  3640   0049DA  0012               	return		;funcret
  3641   0049DC                     __end_of_pad:
  3642                           	callstack 0
  3643                           
  3644 ;; *************** function _fputs *****************
  3645 ;; Defined at:
  3646 ;;		line 8 in file "C:\Program Files\Microchip\xc8\v3.00\pic\sources\c99\common\nf_fputs.c"
  3647 ;; Parameters:    Size  Location     Type
  3648 ;;  s               2   49[BANK0 ] PTR const unsigned char 
  3649 ;;		 -> dbuf(80), 
  3650 ;;  fp              2   51[BANK0 ] PTR struct _IO_FILE
  3651 ;;		 -> NULL(0), 
  3652 ;; Auto vars:     Size  Location     Type
  3653 ;;  i               2   54[BANK0 ] int 
  3654 ;;  c               1   53[BANK0 ] unsigned char 
  3655 ;; Return value:  Size  Location     Type
  3656 ;;                  2   49[BANK0 ] int 
  3657 ;; Registers used:
  3658 ;;		wreg, fsr1l, fsr1h, fsr2l, fsr2h, status,2, status,0, cstack
  3659 ;; Tracked objects:
  3660 ;;		On entry : 0/0
  3661 ;;		On exit  : 0/0
  3662 ;;		Unchanged: 0/0
  3663 ;; Data sizes:     COMRAM   BANK0   BANK1   BANK2   BANK3   BANK4   BANK5
  3664 ;;      Params:         0       4       0       0       0       0       0
  3665 ;;      Locals:         0       3       0       0       0       0       0
  3666 ;;      Temps:          0       0       0       0       0       0       0
  3667 ;;      Totals:         0       7       0       0       0       0       0
  3668 ;;Total ram usage:        7 bytes
  3669 ;; Hardware stack levels used: 1
  3670 ;; Hardware stack levels required when called: 16
  3671 ;; This function calls:
  3672 ;;		_fputc
  3673 ;; This function is called by:
  3674 ;;		_pad
  3675 ;; This function uses a non-reentrant model
  3676 ;;
  3677                           
  3678                           	psect	text8
  3679   004F88                     __ptext8:
  3680                           	callstack 0
  3681   004F88                     _fputs:
  3682                           	callstack 8
  3683   004F88  0E00               	movlw	0
  3684   004F8A  0100               	movlb	0	; () banked
  3685   004F8C  6FB7               	movwf	(fputs@i+1)& (0+255),b
  3686   004F8E  0E00               	movlw	0
  3687   004F90  6FB6               	movwf	fputs@i& (0+255),b
  3688   004F92  EFD7  F027         	goto	l6000
  3689   004F96                     l5996:
  3690                           
  3691                           ; BSR set to: 0
  3692   004F96  C0B5  F0A8         	movff	fputs@c,fputc@c
  3693   004F9A  6BA9               	clrf	(fputc@c+1)& (0+255),b
  3694   004F9C  C0B3  F0AA         	movff	fputs@fp,fputc@fp
  3695   004FA0  C0B4  F0AB         	movff	fputs@fp+1,fputc@fp+1
  3696   004FA4  ECBC  F022         	call	_fputc	;wreg free
  3697   004FA8  0100               	movlb	0	; () banked
  3698   004FAA  4BB6               	infsnz	fputs@i& (0+255),f,b
  3699   004FAC  2BB7               	incf	(fputs@i+1)& (0+255),f,b
  3700   004FAE                     l6000:
  3701                           
  3702                           ; BSR set to: 0
  3703   004FAE  51B6               	movf	fputs@i& (0+255),w,b
  3704   004FB0  25B1               	addwf	fputs@s& (0+255),w,b
  3705   004FB2  6ED9               	movwf	fsr2l,c
  3706   004FB4  51B7               	movf	(fputs@i+1)& (0+255),w,b
  3707   004FB6  21B2               	addwfc	(fputs@s+1)& (0+255),w,b
  3708   004FB8  6EDA               	movwf	fsr2h,c
  3709   004FBA  50DF               	movf	indf2,w,c
  3710   004FBC  6FB5               	movwf	fputs@c& (0+255),b
  3711   004FBE  51B5               	movf	fputs@c& (0+255),w,b
  3712   004FC0  A4D8               	btfss	status,2,c
  3713   004FC2  EFE5  F027         	goto	u8181
  3714   004FC6  EFE7  F027         	goto	u8180
  3715   004FCA                     u8181:
  3716   004FCA  EFCB  F027         	goto	l5996
  3717   004FCE                     u8180:
  3718   004FCE                     
  3719                           ; BSR set to: 0
  3720   004FCE  0012               	return		;funcret
  3721   004FD0                     __end_of_fputs:
  3722                           	callstack 0
  3723                           
  3724 ;; *************** function _fputc *****************
  3725 ;; Defined at:
  3726 ;;		line 8 in file "C:\Program Files\Microchip\xc8\v3.00\pic\sources\c99\common\nf_fputc.c"
  3727 ;; Parameters:    Size  Location     Type
  3728 ;;  c               2   40[BANK0 ] int 
  3729 ;;  fp              2   42[BANK0 ] PTR struct _IO_FILE
  3730 ;;		 -> NULL(0), 
  3731 ;; Auto vars:     Size  Location     Type
  3732 ;;		None
  3733 ;; Return value:  Size  Location     Type
  3734 ;;                  2   40[BANK0 ] int 
  3735 ;; Registers used:
  3736 ;;		wreg, fsr1l, fsr1h, fsr2l, fsr2h, status,2, status,0, cstack
  3737 ;; Tracked objects:
  3738 ;;		On entry : 0/0
  3739 ;;		On exit  : 0/0
  3740 ;;		Unchanged: 0/0
  3741 ;; Data sizes:     COMRAM   BANK0   BANK1   BANK2   BANK3   BANK4   BANK5
  3742 ;;      Params:         0       4       0       0       0       0       0
  3743 ;;      Locals:         0       0       0       0       0       0       0
  3744 ;;      Temps:          0       5       0       0       0       0       0
  3745 ;;      Totals:         0       9       0       0       0       0       0
  3746 ;;Total ram usage:        9 bytes
  3747 ;; Hardware stack levels used: 1
  3748 ;; Hardware stack levels required when called: 15
  3749 ;; This function calls:
  3750 ;;		_putch
  3751 ;; This function is called by:
  3752 ;;		_pad
  3753 ;;		_vfpfcnvrt
  3754 ;;		_fputs
  3755 ;; This function uses a non-reentrant model
  3756 ;;
  3757                           
  3758                           	psect	text9
  3759   004578                     __ptext9:
  3760                           	callstack 0
  3761   004578                     _fputc:
  3762                           	callstack 11
  3763   004578  0100               	movlb	0	; () banked
  3764   00457A  51AA               	movf	fputc@fp& (0+255),w,b
  3765   00457C  11AB               	iorwf	(fputc@fp+1)& (0+255),w,b
  3766   00457E  B4D8               	btfsc	status,2,c
  3767   004580  EFC4  F022         	goto	u7711
  3768   004584  EFC6  F022         	goto	u7710
  3769   004588                     u7711:
  3770   004588  EFCF  F022         	goto	l5776
  3771   00458C                     u7710:
  3772   00458C                     
  3773                           ; BSR set to: 0
  3774   00458C  51AA               	movf	fputc@fp& (0+255),w,b
  3775   00458E  11AB               	iorwf	(fputc@fp+1)& (0+255),w,b
  3776   004590  A4D8               	btfss	status,2,c
  3777   004592  EFCD  F022         	goto	u7721
  3778   004596  EFCF  F022         	goto	u7720
  3779   00459A                     u7721:
  3780   00459A  EFD4  F022         	goto	l5778
  3781   00459E                     u7720:
  3782   00459E                     l5776:
  3783                           
  3784                           ; BSR set to: 0
  3785   00459E  51A8               	movf	fputc@c& (0+255),w,b
  3786   0045A0  EC90  F025         	call	_putch
  3787   0045A4  EF21  F023         	goto	l1116
  3788   0045A8                     l5778:
  3789                           
  3790                           ; BSR set to: 0
  3791   0045A8  EE20 F009          	lfsr	2,9
  3792   0045AC  51AA               	movf	fputc@fp& (0+255),w,b
  3793   0045AE  26D9               	addwf	fsr2l,f,c
  3794   0045B0  51AB               	movf	(fputc@fp+1)& (0+255),w,b
  3795   0045B2  22DA               	addwfc	fsr2h,f,c
  3796   0045B4  50DE               	movf	postinc2,w,c
  3797   0045B6  10DE               	iorwf	postinc2,w,c
  3798   0045B8  B4D8               	btfsc	status,2,c
  3799   0045BA  EFE1  F022         	goto	u7731
  3800   0045BE  EFE3  F022         	goto	u7730
  3801   0045C2                     u7731:
  3802   0045C2  EFFE  F022         	goto	l5782
  3803   0045C6                     u7730:
  3804   0045C6                     
  3805                           ; BSR set to: 0
  3806   0045C6  EE20 F009          	lfsr	2,9
  3807   0045CA  51AA               	movf	fputc@fp& (0+255),w,b
  3808   0045CC  26D9               	addwf	fsr2l,f,c
  3809   0045CE  51AB               	movf	(fputc@fp+1)& (0+255),w,b
  3810   0045D0  22DA               	addwfc	fsr2h,f,c
  3811   0045D2  EE10 F002          	lfsr	1,2
  3812   0045D6  51AA               	movf	fputc@fp& (0+255),w,b
  3813   0045D8  26E1               	addwf	fsr1l,f,c
  3814   0045DA  51AB               	movf	(fputc@fp+1)& (0+255),w,b
  3815   0045DC  22E2               	addwfc	fsr1h,f,c
  3816   0045DE  50DE               	movf	postinc2,w,c
  3817   0045E0  5CE6               	subwf	postinc1,w,c
  3818   0045E2  50E6               	movf	postinc1,w,c
  3819   0045E4  0A80               	xorlw	128
  3820   0045E6  6FB0               	movwf	(??_fputc+4)& (0+255),b
  3821   0045E8  50DE               	movf	postinc2,w,c
  3822   0045EA  0A80               	xorlw	128
  3823   0045EC  59B0               	subwfb	(??_fputc+4)& (0+255),w,b
  3824   0045EE  B0D8               	btfsc	status,0,c
  3825   0045F0  EFFC  F022         	goto	u7741
  3826   0045F4  EFFE  F022         	goto	u7740
  3827   0045F8                     u7741:
  3828   0045F8  EF21  F023         	goto	l1116
  3829   0045FC                     u7740:
  3830   0045FC                     l5782:
  3831                           
  3832                           ; BSR set to: 0
  3833   0045FC  EE20 F002          	lfsr	2,2
  3834   004600  51AA               	movf	fputc@fp& (0+255),w,b
  3835   004602  26D9               	addwf	fsr2l,f,c
  3836   004604  51AB               	movf	(fputc@fp+1)& (0+255),w,b
  3837   004606  22DA               	addwfc	fsr2h,f,c
  3838   004608  CFDE F0AC          	movff	postinc2,??_fputc
  3839   00460C  CFDD F0AD          	movff	postdec2,??_fputc+1
  3840   004610  C0AA  FFD9         	movff	fputc@fp,fsr2l
  3841   004614  C0AB  FFDA         	movff	fputc@fp+1,fsr2h
  3842   004618  CFDE F0AE          	movff	postinc2,??_fputc+2
  3843   00461C  CFDD F0AF          	movff	postdec2,??_fputc+3
  3844   004620  51AC               	movf	??_fputc& (0+255),w,b
  3845   004622  25AE               	addwf	(??_fputc+2)& (0+255),w,b
  3846   004624  6ED9               	movwf	fsr2l,c
  3847   004626  51AD               	movf	(??_fputc+1)& (0+255),w,b
  3848   004628  21AF               	addwfc	(??_fputc+3)& (0+255),w,b
  3849   00462A  6EDA               	movwf	fsr2h,c
  3850   00462C  C0A8  FFDF         	movff	fputc@c,indf2
  3851   004630  EE20 F002          	lfsr	2,2
  3852   004634  51AA               	movf	fputc@fp& (0+255),w,b
  3853   004636  26D9               	addwf	fsr2l,f,c
  3854   004638  51AB               	movf	(fputc@fp+1)& (0+255),w,b
  3855   00463A  22DA               	addwfc	fsr2h,f,c
  3856   00463C  2ADE               	incf	postinc2,f,c
  3857   00463E  0E00               	movlw	0
  3858   004640  22DD               	addwfc	postdec2,f,c
  3859   004642                     l1116:
  3860   004642  0012               	return		;funcret
  3861   004644                     __end_of_fputc:
  3862                           	callstack 0
  3863                           
  3864 ;; *************** function _putch *****************
  3865 ;; Defined at:
  3866 ;;		line 280 in file "3b.c"
  3867 ;; Parameters:    Size  Location     Type
  3868 ;;  data            1    wreg     unsigned char 
  3869 ;; Auto vars:     Size  Location     Type
  3870 ;;  data            1   39[BANK0 ] unsigned char 
  3871 ;; Return value:  Size  Location     Type
  3872 ;;                  1    wreg      void 
  3873 ;; Registers used:
  3874 ;;		wreg, status,2, status,0
  3875 ;; Tracked objects:
  3876 ;;		On entry : 0/0
  3877 ;;		On exit  : 0/0
  3878 ;;		Unchanged: 0/0
  3879 ;; Data sizes:     COMRAM   BANK0   BANK1   BANK2   BANK3   BANK4   BANK5
  3880 ;;      Params:         0       0       0       0       0       0       0
  3881 ;;      Locals:         0       1       0       0       0       0       0
  3882 ;;      Temps:          0       0       0       0       0       0       0
  3883 ;;      Totals:         0       1       0       0       0       0       0
  3884 ;;Total ram usage:        1 bytes
  3885 ;; Hardware stack levels used: 1
  3886 ;; Hardware stack levels required when called: 14
  3887 ;; This function calls:
  3888 ;;		Nothing
  3889 ;; This function is called by:
  3890 ;;		_fputc
  3891 ;; This function uses a non-reentrant model
  3892 ;;
  3893                           
  3894                           	psect	text10
  3895   004B20                     __ptext10:
  3896                           	callstack 0
  3897   004B20                     _putch:
  3898                           	callstack 11
  3899                           
  3900                           ;incstack = 0
  3901                           ;putch@data stored from wreg
  3902   004B20  0100               	movlb	0	; () banked
  3903   004B22  6FA7               	movwf	putch@data& (0+255),b
  3904   004B24  0E0A               	movlw	10
  3905   004B26  0100               	movlb	0	; () banked
  3906   004B28  19A7               	xorwf	putch@data& (0+255),w,b
  3907   004B2A  B4D8               	btfsc	status,2,c
  3908   004B2C  EF9A  F025         	goto	u7611
  3909   004B30  EF9C  F025         	goto	u7610
  3910   004B34                     u7611:
  3911   004B34  EFA5  F025         	goto	l146
  3912   004B38                     u7610:
  3913   004B38                     
  3914                           ; BSR set to: 0
  3915   004B38  0E0D               	movlw	13
  3916   004B3A  19A7               	xorwf	putch@data& (0+255),w,b
  3917   004B3C  A4D8               	btfss	status,2,c
  3918   004B3E  EFA3  F025         	goto	u7621
  3919   004B42  EFA5  F025         	goto	u7620
  3920   004B46                     u7621:
  3921   004B46  EFB9  F025         	goto	l153
  3922   004B4A                     u7620:
  3923   004B4A                     l146:
  3924   004B4A  A2AC               	btfss	172,1,c	;volatile
  3925   004B4C  EFAA  F025         	goto	u7631
  3926   004B50  EFAC  F025         	goto	u7630
  3927   004B54                     u7631:
  3928   004B54  EFA5  F025         	goto	l146
  3929   004B58                     u7630:
  3930   004B58  0E0D               	movlw	13
  3931   004B5A  6EAD               	movwf	173,c	;volatile
  3932   004B5C                     l149:
  3933   004B5C  A2AC               	btfss	172,1,c	;volatile
  3934   004B5E  EFB3  F025         	goto	u7641
  3935   004B62  EFB5  F025         	goto	u7640
  3936   004B66                     u7641:
  3937   004B66  EFAE  F025         	goto	l149
  3938   004B6A                     u7640:
  3939   004B6A  0E0A               	movlw	10
  3940   004B6C  6EAD               	movwf	173,c	;volatile
  3941   004B6E  EFC2  F025         	goto	l156
  3942   004B72                     l153:
  3943   004B72  A2AC               	btfss	172,1,c	;volatile
  3944   004B74  EFBE  F025         	goto	u7651
  3945   004B78  EFC0  F025         	goto	u7650
  3946   004B7C                     u7651:
  3947   004B7C  EFB9  F025         	goto	l153
  3948   004B80                     u7650:
  3949   004B80  C0A7  FFAD         	movff	putch@data,4013	;volatile
  3950   004B84                     l156:
  3951   004B84  0012               	return		;funcret
  3952   004B86                     __end_of_putch:
  3953                           	callstack 0
  3954                           
  3955 ;; *************** function _memcpy *****************
  3956 ;; Defined at:
  3957 ;;		line 4 in file "C:\Program Files\Microchip\xc8\v3.00\pic\sources\c99\common\memcpy.c"
  3958 ;; Parameters:    Size  Location     Type
  3959 ;;  d1              2   39[BANK0 ] PTR void 
  3960 ;;		 -> dbuf(80), 
  3961 ;;  s1              2   41[BANK0 ] PTR const void 
  3962 ;;		 -> dbuf(80), 
  3963 ;;  n               2   43[BANK0 ] unsigned int 
  3964 ;; Auto vars:     Size  Location     Type
  3965 ;;  s               2   48[BANK0 ] PTR const unsigned char 
  3966 ;;		 -> dbuf(80), 
  3967 ;;  d               2   46[BANK0 ] PTR unsigned char 
  3968 ;;		 -> dbuf(80), 
  3969 ;;  tmp             1   45[BANK0 ] unsigned char 
  3970 ;; Return value:  Size  Location     Type
  3971 ;;                  2   39[BANK0 ] PTR void 
  3972 ;; Registers used:
  3973 ;;		wreg, fsr2l, fsr2h, status,2, status,0
  3974 ;; Tracked objects:
  3975 ;;		On entry : 0/0
  3976 ;;		On exit  : 0/0
  3977 ;;		Unchanged: 0/0
  3978 ;; Data sizes:     COMRAM   BANK0   BANK1   BANK2   BANK3   BANK4   BANK5
  3979 ;;      Params:         0       6       0       0       0       0       0
  3980 ;;      Locals:         0       5       0       0       0       0       0
  3981 ;;      Temps:          0       0       0       0       0       0       0
  3982 ;;      Totals:         0      11       0       0       0       0       0
  3983 ;;Total ram usage:       11 bytes
  3984 ;; Hardware stack levels used: 1
  3985 ;; Hardware stack levels required when called: 14
  3986 ;; This function calls:
  3987 ;;		Nothing
  3988 ;; This function is called by:
  3989 ;;		_efgtoa
  3990 ;; This function uses a non-reentrant model
  3991 ;;
  3992                           
  3993                           	psect	text11
  3994   004E00                     __ptext11:
  3995                           	callstack 0
  3996   004E00                     _memcpy:
  3997                           	callstack 11
  3998   004E00  C0A9  F0B0         	movff	memcpy@s1,memcpy@s
  3999   004E04  C0AA  F0B1         	movff	memcpy@s1+1,memcpy@s+1
  4000   004E08  C0A7  F0AE         	movff	memcpy@d1,memcpy@d
  4001   004E0C  C0A8  F0AF         	movff	memcpy@d1+1,memcpy@d+1
  4002   004E10  EF1A  F027         	goto	l6648
  4003   004E14                     l6640:
  4004                           
  4005                           ; BSR set to: 0
  4006   004E14  C0B0  FFD9         	movff	memcpy@s,fsr2l
  4007   004E18  C0B1  FFDA         	movff	memcpy@s+1,fsr2h
  4008   004E1C  50DF               	movf	indf2,w,c
  4009   004E1E  6FAD               	movwf	memcpy@tmp& (0+255),b
  4010   004E20                     
  4011                           ; BSR set to: 0
  4012   004E20  4BB0               	infsnz	memcpy@s& (0+255),f,b
  4013   004E22  2BB1               	incf	(memcpy@s+1)& (0+255),f,b
  4014   004E24                     
  4015                           ; BSR set to: 0
  4016   004E24  C0AE  FFD9         	movff	memcpy@d,fsr2l
  4017   004E28  C0AF  FFDA         	movff	memcpy@d+1,fsr2h
  4018   004E2C  C0AD  FFDF         	movff	memcpy@tmp,indf2
  4019   004E30                     
  4020                           ; BSR set to: 0
  4021   004E30  4BAE               	infsnz	memcpy@d& (0+255),f,b
  4022   004E32  2BAF               	incf	(memcpy@d+1)& (0+255),f,b
  4023   004E34                     l6648:
  4024   004E34  0100               	movlb	0	; () banked
  4025   004E36  07AB               	decf	memcpy@n& (0+255),f,b
  4026   004E38  A0D8               	btfss	status,0,c
  4027   004E3A  07AC               	decf	(memcpy@n+1)& (0+255),f,b
  4028   004E3C  29AB               	incf	memcpy@n& (0+255),w,b
  4029   004E3E  E106               	bnz	u9391
  4030   004E40  29AC               	incf	(memcpy@n+1)& (0+255),w,b
  4031   004E42  A4D8               	btfss	status,2,c
  4032   004E44  EF26  F027         	goto	u9391
  4033   004E48  EF28  F027         	goto	u9390
  4034   004E4C                     u9391:
  4035   004E4C  EF0A  F027         	goto	l6640
  4036   004E50                     u9390:
  4037   004E50                     
  4038                           ; BSR set to: 0
  4039   004E50  0012               	return		;funcret
  4040   004E52                     __end_of_memcpy:
  4041                           	callstack 0
  4042                           
  4043 ;; *************** function _labs *****************
  4044 ;; Defined at:
  4045 ;;		line 1 in file "C:\Program Files\Microchip\xc8\v3.00\pic\sources\c99\common\labs.c"
  4046 ;; Parameters:    Size  Location     Type
  4047 ;;  a               4   39[BANK0 ] long 
  4048 ;; Auto vars:     Size  Location     Type
  4049 ;;		None
  4050 ;; Return value:  Size  Location     Type
  4051 ;;                  4   39[BANK0 ] long 
  4052 ;; Registers used:
  4053 ;;		wreg, status,2, status,0
  4054 ;; Tracked objects:
  4055 ;;		On entry : 0/0
  4056 ;;		On exit  : 0/0
  4057 ;;		Unchanged: 0/0
  4058 ;; Data sizes:     COMRAM   BANK0   BANK1   BANK2   BANK3   BANK4   BANK5
  4059 ;;      Params:         0       4       0       0       0       0       0
  4060 ;;      Locals:         0       0       0       0       0       0       0
  4061 ;;      Temps:          0       4       0       0       0       0       0
  4062 ;;      Totals:         0       8       0       0       0       0       0
  4063 ;;Total ram usage:        8 bytes
  4064 ;; Hardware stack levels used: 1
  4065 ;; Hardware stack levels required when called: 14
  4066 ;; This function calls:
  4067 ;;		Nothing
  4068 ;; This function is called by:
  4069 ;;		_efgtoa
  4070 ;; This function uses a non-reentrant model
  4071 ;;
  4072                           
  4073                           	psect	text12
  4074   004CA8                     __ptext12:
  4075                           	callstack 0
  4076   004CA8                     _labs:
  4077                           	callstack 11
  4078   004CA8  0100               	movlb	0	; () banked
  4079   004CAA  BFAA               	btfsc	(labs@a+3)& (0+255),7,b
  4080   004CAC  EF5A  F026         	goto	u9281
  4081   004CB0  EF5C  F026         	goto	u9280
  4082   004CB4                     u9281:
  4083   004CB4  EF66  F026         	goto	l6606
  4084   004CB8                     u9280:
  4085   004CB8                     
  4086                           ; BSR set to: 0
  4087   004CB8  C0A7  F0A7         	movff	labs@a,?_labs
  4088   004CBC  C0A8  F0A8         	movff	labs@a+1,?_labs+1
  4089   004CC0  C0A9  F0A9         	movff	labs@a+2,?_labs+2
  4090   004CC4  C0AA  F0AA         	movff	labs@a+3,?_labs+3
  4091   004CC8  EF7F  F026         	goto	l1098
  4092   004CCC                     l6606:
  4093                           
  4094                           ; BSR set to: 0
  4095   004CCC  C0A7  F0AB         	movff	labs@a,??_labs
  4096   004CD0  C0A8  F0AC         	movff	labs@a+1,??_labs+1
  4097   004CD4  C0A9  F0AD         	movff	labs@a+2,??_labs+2
  4098   004CD8  C0AA  F0AE         	movff	labs@a+3,??_labs+3
  4099   004CDC  1FAB               	comf	??_labs& (0+255),f,b
  4100   004CDE  1FAC               	comf	(??_labs+1)& (0+255),f,b
  4101   004CE0  1FAD               	comf	(??_labs+2)& (0+255),f,b
  4102   004CE2  1FAE               	comf	(??_labs+3)& (0+255),f,b
  4103   004CE4  2BAB               	incf	??_labs& (0+255),f,b
  4104   004CE6  0E00               	movlw	0
  4105   004CE8  23AC               	addwfc	(??_labs+1)& (0+255),f,b
  4106   004CEA  23AD               	addwfc	(??_labs+2)& (0+255),f,b
  4107   004CEC  23AE               	addwfc	(??_labs+3)& (0+255),f,b
  4108   004CEE  C0AB  F0A7         	movff	??_labs,?_labs
  4109   004CF2  C0AC  F0A8         	movff	??_labs+1,?_labs+1
  4110   004CF6  C0AD  F0A9         	movff	??_labs+2,?_labs+2
  4111   004CFA  C0AE  F0AA         	movff	??_labs+3,?_labs+3
  4112   004CFE                     l1098:
  4113                           
  4114                           ; BSR set to: 0
  4115   004CFE  0012               	return		;funcret
  4116   004D00                     __end_of_labs:
  4117                           	callstack 0
  4118                           
  4119 ;; *************** function _floorf *****************
  4120 ;; Defined at:
  4121 ;;		line 3 in file "C:\Program Files\Microchip\xc8\v3.00\pic\sources\c99\common\floorf.c"
  4122 ;; Parameters:    Size  Location     Type
  4123 ;;  x               4   64[BANK0 ] float 
  4124 ;; Auto vars:     Size  Location     Type
  4125 ;;  u               4   12[BANK1 ] struct .
  4126 ;;  m               4    6[BANK1 ] unsigned long 
  4127 ;;  e               2   10[BANK1 ] int 
  4128 ;; Return value:  Size  Location     Type
  4129 ;;                  4   64[BANK0 ] float 
  4130 ;; Registers used:
  4131 ;;		wreg, status,2, status,0
  4132 ;; Tracked objects:
  4133 ;;		On entry : 0/0
  4134 ;;		On exit  : 0/0
  4135 ;;		Unchanged: 0/0
  4136 ;; Data sizes:     COMRAM   BANK0   BANK1   BANK2   BANK3   BANK4   BANK5
  4137 ;;      Params:         0       4       0       0       0       0       0
  4138 ;;      Locals:         0       0      10       0       0       0       0
  4139 ;;      Temps:          0       0       6       0       0       0       0
  4140 ;;      Totals:         0       4      16       0       0       0       0
  4141 ;;Total ram usage:       20 bytes
  4142 ;; Hardware stack levels used: 1
  4143 ;; Hardware stack levels required when called: 14
  4144 ;; This function calls:
  4145 ;;		Nothing
  4146 ;; This function is called by:
  4147 ;;		_efgtoa
  4148 ;; This function uses a non-reentrant model
  4149 ;;
  4150                           
  4151                           	psect	text13
  4152   003328                     __ptext13:
  4153                           	callstack 0
  4154   003328                     _floorf:
  4155                           	callstack 11
  4156   003328  C0C5  F10C         	movff	floorf@F521,floorf@u
  4157   00332C  C0C6  F10D         	movff	floorf@F521+1,floorf@u+1
  4158   003330  C0C7  F10E         	movff	floorf@F521+2,floorf@u+2
  4159   003334  C0C8  F10F         	movff	floorf@F521+3,floorf@u+3
  4160   003338  C0C0  F10C         	movff	floorf@x,floorf@u
  4161   00333C  C0C1  F10D         	movff	floorf@x+1,floorf@u+1
  4162   003340  C0C2  F10E         	movff	floorf@x+2,floorf@u+2
  4163   003344  C0C3  F10F         	movff	floorf@x+3,floorf@u+3
  4164   003348  0E81               	movlw	129
  4165   00334A  0101               	movlb	1	; () banked
  4166   00334C  6F00               	movwf	??_floorf& (0+255),b
  4167   00334E  0EFF               	movlw	255
  4168   003350  6F01               	movwf	(??_floorf+1)& (0+255),b
  4169   003352  C10C  F102         	movff	floorf@u,??_floorf+2
  4170   003356  C10D  F103         	movff	floorf@u+1,??_floorf+3
  4171   00335A  C10E  F104         	movff	floorf@u+2,??_floorf+4
  4172   00335E  C10F  F105         	movff	floorf@u+3,??_floorf+5
  4173   003362  0E18               	movlw	24
  4174   003364  EFB9  F019         	goto	u9290
  4175   003368                     u9295:
  4176   003368  90D8               	bcf	status,0,c
  4177   00336A  3305               	rrcf	(??_floorf+5)& (0+255),f,b
  4178   00336C  3304               	rrcf	(??_floorf+4)& (0+255),f,b
  4179   00336E  3303               	rrcf	(??_floorf+3)& (0+255),f,b
  4180   003370  3302               	rrcf	(??_floorf+2)& (0+255),f,b
  4181   003372                     u9290:
  4182   003372  2EE8               	decfsz	wreg,f,c
  4183   003374  EFB4  F019         	goto	u9295
  4184   003378  5102               	movf	(??_floorf+2)& (0+255),w,b
  4185   00337A  2500               	addwf	??_floorf& (0+255),w,b
  4186   00337C  6F0A               	movwf	floorf@e& (0+255),b
  4187   00337E  0E00               	movlw	0
  4188   003380  2101               	addwfc	(??_floorf+1)& (0+255),w,b
  4189   003382  6F0B               	movwf	(floorf@e+1)& (0+255),b
  4190   003384  BF0B               	btfsc	(floorf@e+1)& (0+255),7,b
  4191   003386  EFCE  F019         	goto	u9301
  4192   00338A  510B               	movf	(floorf@e+1)& (0+255),w,b
  4193   00338C  E109               	bnz	u9300
  4194   00338E  0E17               	movlw	23
  4195   003390  5D0A               	subwf	floorf@e& (0+255),w,b
  4196   003392  A0D8               	btfss	status,0,c
  4197   003394  EFCE  F019         	goto	u9301
  4198   003398  EFD0  F019         	goto	u9300
  4199   00339C                     u9301:
  4200   00339C  EFDA  F019         	goto	l6616
  4201   0033A0                     u9300:
  4202   0033A0                     l6614:
  4203                           
  4204                           ; BSR set to: 1
  4205   0033A0  C0C0  F0C0         	movff	floorf@x,?_floorf
  4206   0033A4  C0C1  F0C1         	movff	floorf@x+1,?_floorf+1
  4207   0033A8  C0C2  F0C2         	movff	floorf@x+2,?_floorf+2
  4208   0033AC  C0C3  F0C3         	movff	floorf@x+3,?_floorf+3
  4209   0033B0  EF9E  F01A         	goto	l1084
  4210   0033B4                     l6616:
  4211                           
  4212                           ; BSR set to: 1
  4213   0033B4  BF0B               	btfsc	(floorf@e+1)& (0+255),7,b
  4214   0033B6  EFDF  F019         	goto	u9311
  4215   0033BA  EFE1  F019         	goto	u9310
  4216   0033BE                     u9311:
  4217   0033BE  EF52  F01A         	goto	l6626
  4218   0033C2                     u9310:
  4219   0033C2                     
  4220                           ; BSR set to: 1
  4221   0033C2  C10A  F100         	movff	floorf@e,??_floorf
  4222   0033C6  0EFF               	movlw	255
  4223   0033C8  6F01               	movwf	(??_floorf+1)& (0+255),b
  4224   0033CA  0EFF               	movlw	255
  4225   0033CC  6F02               	movwf	(??_floorf+2)& (0+255),b
  4226   0033CE  0E7F               	movlw	127
  4227   0033D0  6F03               	movwf	(??_floorf+3)& (0+255),b
  4228   0033D2  0E00               	movlw	0
  4229   0033D4  6F04               	movwf	(??_floorf+4)& (0+255),b
  4230   0033D6                     u9325:
  4231   0033D6  6700               	tstfsz	??_floorf& (0+255),b
  4232   0033D8  EFF0  F019         	goto	u9326
  4233   0033DC  EFF8  F019         	goto	u9327
  4234   0033E0                     u9326:
  4235   0033E0  3504               	rlcf	(??_floorf+4)& (0+255),w,b
  4236   0033E2  3304               	rrcf	(??_floorf+4)& (0+255),f,b
  4237   0033E4  3303               	rrcf	(??_floorf+3)& (0+255),f,b
  4238   0033E6  3302               	rrcf	(??_floorf+2)& (0+255),f,b
  4239   0033E8  3301               	rrcf	(??_floorf+1)& (0+255),f,b
  4240   0033EA  2F00               	decfsz	??_floorf& (0+255),f,b
  4241   0033EC  EFEB  F019         	goto	u9325
  4242   0033F0                     u9327:
  4243   0033F0  C101  F106         	movff	??_floorf+1,floorf@m
  4244   0033F4  C102  F107         	movff	??_floorf+2,floorf@m+1
  4245   0033F8  C103  F108         	movff	??_floorf+3,floorf@m+2
  4246   0033FC  C104  F109         	movff	??_floorf+4,floorf@m+3
  4247   003400  0101               	movlb	1	; () banked
  4248   003402  5106               	movf	floorf@m& (0+255),w,b
  4249   003404  150C               	andwf	floorf@u& (0+255),w,b
  4250   003406  6F00               	movwf	??_floorf& (0+255),b
  4251   003408  5107               	movf	(floorf@m+1)& (0+255),w,b
  4252   00340A  150D               	andwf	(floorf@u+1)& (0+255),w,b
  4253   00340C  6F01               	movwf	(??_floorf+1)& (0+255),b
  4254   00340E  5108               	movf	(floorf@m+2)& (0+255),w,b
  4255   003410  150E               	andwf	(floorf@u+2)& (0+255),w,b
  4256   003412  6F02               	movwf	(??_floorf+2)& (0+255),b
  4257   003414  5109               	movf	(floorf@m+3)& (0+255),w,b
  4258   003416  150F               	andwf	(floorf@u+3)& (0+255),w,b
  4259   003418  6F03               	movwf	(??_floorf+3)& (0+255),b
  4260   00341A  5100               	movf	??_floorf& (0+255),w,b
  4261   00341C  1101               	iorwf	(??_floorf+1)& (0+255),w,b
  4262   00341E  1102               	iorwf	(??_floorf+2)& (0+255),w,b
  4263   003420  1103               	iorwf	(??_floorf+3)& (0+255),w,b
  4264   003422  A4D8               	btfss	status,2,c
  4265   003424  EF16  F01A         	goto	u9331
  4266   003428  EF18  F01A         	goto	u9330
  4267   00342C                     u9331:
  4268   00342C  EF1A  F01A         	goto	l6622
  4269   003430                     u9330:
  4270   003430  EFD0  F019         	goto	l6614
  4271   003434                     l6622:
  4272                           
  4273                           ; BSR set to: 1
  4274   003434  C10C  F100         	movff	floorf@u,??_floorf
  4275   003438  C10D  F101         	movff	floorf@u+1,??_floorf+1
  4276   00343C  C10E  F102         	movff	floorf@u+2,??_floorf+2
  4277   003440  C10F  F103         	movff	floorf@u+3,??_floorf+3
  4278   003444  0E20               	movlw	32
  4279   003446  EF2A  F01A         	goto	u9340
  4280   00344A                     u9345:
  4281   00344A  90D8               	bcf	status,0,c
  4282   00344C  3303               	rrcf	(??_floorf+3)& (0+255),f,b
  4283   00344E  3302               	rrcf	(??_floorf+2)& (0+255),f,b
  4284   003450  3301               	rrcf	(??_floorf+1)& (0+255),f,b
  4285   003452  3300               	rrcf	??_floorf& (0+255),f,b
  4286   003454                     u9340:
  4287   003454  2EE8               	decfsz	wreg,f,c
  4288   003456  EF25  F01A         	goto	u9345
  4289   00345A  5100               	movf	??_floorf& (0+255),w,b
  4290   00345C  1101               	iorwf	(??_floorf+1)& (0+255),w,b
  4291   00345E  1102               	iorwf	(??_floorf+2)& (0+255),w,b
  4292   003460  1103               	iorwf	(??_floorf+3)& (0+255),w,b
  4293   003462  B4D8               	btfsc	status,2,c
  4294   003464  EF36  F01A         	goto	u9351
  4295   003468  EF38  F01A         	goto	u9350
  4296   00346C                     u9351:
  4297   00346C  EF40  F01A         	goto	l1087
  4298   003470                     u9350:
  4299   003470                     
  4300                           ; BSR set to: 1
  4301   003470  5106               	movf	floorf@m& (0+255),w,b
  4302   003472  270C               	addwf	floorf@u& (0+255),f,b
  4303   003474  5107               	movf	(floorf@m+1)& (0+255),w,b
  4304   003476  230D               	addwfc	(floorf@u+1)& (0+255),f,b
  4305   003478  5108               	movf	(floorf@m+2)& (0+255),w,b
  4306   00347A  230E               	addwfc	(floorf@u+2)& (0+255),f,b
  4307   00347C  5109               	movf	(floorf@m+3)& (0+255),w,b
  4308   00347E  230F               	addwfc	(floorf@u+3)& (0+255),f,b
  4309   003480                     l1087:
  4310                           
  4311                           ; BSR set to: 1
  4312   003480  1D06               	comf	floorf@m& (0+255),w,b
  4313   003482  6F00               	movwf	??_floorf& (0+255),b
  4314   003484  1D07               	comf	(floorf@m+1)& (0+255),w,b
  4315   003486  6F01               	movwf	(??_floorf+1)& (0+255),b
  4316   003488  1D08               	comf	(floorf@m+2)& (0+255),w,b
  4317   00348A  6F02               	movwf	(??_floorf+2)& (0+255),b
  4318   00348C  1D09               	comf	(floorf@m+3)& (0+255),w,b
  4319   00348E  6F03               	movwf	(??_floorf+3)& (0+255),b
  4320   003490  5100               	movf	??_floorf& (0+255),w,b
  4321   003492  170C               	andwf	floorf@u& (0+255),f,b
  4322   003494  5101               	movf	(??_floorf+1)& (0+255),w,b
  4323   003496  170D               	andwf	(floorf@u+1)& (0+255),f,b
  4324   003498  5102               	movf	(??_floorf+2)& (0+255),w,b
  4325   00349A  170E               	andwf	(floorf@u+2)& (0+255),f,b
  4326   00349C  5103               	movf	(??_floorf+3)& (0+255),w,b
  4327   00349E  170F               	andwf	(floorf@u+3)& (0+255),f,b
  4328   0034A0  EF96  F01A         	goto	l6634
  4329   0034A4                     l6626:
  4330                           
  4331                           ; BSR set to: 1
  4332   0034A4  C10C  F100         	movff	floorf@u,??_floorf
  4333   0034A8  C10D  F101         	movff	floorf@u+1,??_floorf+1
  4334   0034AC  C10E  F102         	movff	floorf@u+2,??_floorf+2
  4335   0034B0  C10F  F103         	movff	floorf@u+3,??_floorf+3
  4336   0034B4  0E20               	movlw	32
  4337   0034B6  EF62  F01A         	goto	u9360
  4338   0034BA                     u9365:
  4339   0034BA  90D8               	bcf	status,0,c
  4340   0034BC  3303               	rrcf	(??_floorf+3)& (0+255),f,b
  4341   0034BE  3302               	rrcf	(??_floorf+2)& (0+255),f,b
  4342   0034C0  3301               	rrcf	(??_floorf+1)& (0+255),f,b
  4343   0034C2  3300               	rrcf	??_floorf& (0+255),f,b
  4344   0034C4                     u9360:
  4345   0034C4  2EE8               	decfsz	wreg,f,c
  4346   0034C6  EF5D  F01A         	goto	u9365
  4347   0034CA  5100               	movf	??_floorf& (0+255),w,b
  4348   0034CC  1101               	iorwf	(??_floorf+1)& (0+255),w,b
  4349   0034CE  1102               	iorwf	(??_floorf+2)& (0+255),w,b
  4350   0034D0  1103               	iorwf	(??_floorf+3)& (0+255),w,b
  4351   0034D2  A4D8               	btfss	status,2,c
  4352   0034D4  EF6E  F01A         	goto	u9371
  4353   0034D8  EF70  F01A         	goto	u9370
  4354   0034DC                     u9371:
  4355   0034DC  EF7A  F01A         	goto	l6630
  4356   0034E0                     u9370:
  4357   0034E0                     
  4358                           ; BSR set to: 1
  4359   0034E0  0E00               	movlw	0
  4360   0034E2  6F0C               	movwf	floorf@u& (0+255),b
  4361   0034E4  0E00               	movlw	0
  4362   0034E6  6F0D               	movwf	(floorf@u+1)& (0+255),b
  4363   0034E8  0E00               	movlw	0
  4364   0034EA  6F0E               	movwf	(floorf@u+2)& (0+255),b
  4365   0034EC  0E00               	movlw	0
  4366   0034EE  6F0F               	movwf	(floorf@u+3)& (0+255),b
  4367   0034F0  EF96  F01A         	goto	l6634
  4368   0034F4                     l6630:
  4369                           
  4370                           ; BSR set to: 1
  4371   0034F4  90D8               	bcf	status,0,c
  4372   0034F6  350C               	rlcf	floorf@u& (0+255),w,b
  4373   0034F8  6F00               	movwf	??_floorf& (0+255),b
  4374   0034FA  350D               	rlcf	(floorf@u+1)& (0+255),w,b
  4375   0034FC  6F01               	movwf	(??_floorf+1)& (0+255),b
  4376   0034FE  350E               	rlcf	(floorf@u+2)& (0+255),w,b
  4377   003500  6F02               	movwf	(??_floorf+2)& (0+255),b
  4378   003502  350F               	rlcf	(floorf@u+3)& (0+255),w,b
  4379   003504  6F03               	movwf	(??_floorf+3)& (0+255),b
  4380   003506  5100               	movf	??_floorf& (0+255),w,b
  4381   003508  1101               	iorwf	(??_floorf+1)& (0+255),w,b
  4382   00350A  1102               	iorwf	(??_floorf+2)& (0+255),w,b
  4383   00350C  1103               	iorwf	(??_floorf+3)& (0+255),w,b
  4384   00350E  B4D8               	btfsc	status,2,c
  4385   003510  EF8C  F01A         	goto	u9381
  4386   003514  EF8E  F01A         	goto	u9380
  4387   003518                     u9381:
  4388   003518  EF96  F01A         	goto	l6634
  4389   00351C                     u9380:
  4390   00351C                     
  4391                           ; BSR set to: 1
  4392   00351C  0E00               	movlw	0
  4393   00351E  6F0C               	movwf	floorf@u& (0+255),b
  4394   003520  0E00               	movlw	0
  4395   003522  6F0D               	movwf	(floorf@u+1)& (0+255),b
  4396   003524  0E80               	movlw	128
  4397   003526  6F0E               	movwf	(floorf@u+2)& (0+255),b
  4398   003528  0EBF               	movlw	191
  4399   00352A  6F0F               	movwf	(floorf@u+3)& (0+255),b
  4400   00352C                     l6634:
  4401                           
  4402                           ; BSR set to: 1
  4403   00352C  C10C  F0C0         	movff	floorf@u,?_floorf
  4404   003530  C10D  F0C1         	movff	floorf@u+1,?_floorf+1
  4405   003534  C10E  F0C2         	movff	floorf@u+2,?_floorf+2
  4406   003538  C10F  F0C3         	movff	floorf@u+3,?_floorf+3
  4407   00353C                     l1084:
  4408                           
  4409                           ; BSR set to: 1
  4410   00353C  0012               	return		;funcret
  4411   00353E                     __end_of_floorf:
  4412                           	callstack 0
  4413                           
  4414 ;; *************** function ___fpclassifyf *****************
  4415 ;; Defined at:
  4416 ;;		line 4 in file "C:\Program Files\Microchip\xc8\v3.00\pic\sources\c99\common\__fpclassifyf.c"
  4417 ;; Parameters:    Size  Location     Type
  4418 ;;  x               4   39[BANK0 ] float 
  4419 ;; Auto vars:     Size  Location     Type
  4420 ;;  u               4   49[BANK0 ] struct .
  4421 ;;  e               2   47[BANK0 ] int 
  4422 ;; Return value:  Size  Location     Type
  4423 ;;                  2   39[BANK0 ] int 
  4424 ;; Registers used:
  4425 ;;		wreg, status,2, status,0
  4426 ;; Tracked objects:
  4427 ;;		On entry : 0/0
  4428 ;;		On exit  : 0/0
  4429 ;;		Unchanged: 0/0
  4430 ;; Data sizes:     COMRAM   BANK0   BANK1   BANK2   BANK3   BANK4   BANK5
  4431 ;;      Params:         0       4       0       0       0       0       0
  4432 ;;      Locals:         0       6       0       0       0       0       0
  4433 ;;      Temps:          0       4       0       0       0       0       0
  4434 ;;      Totals:         0      14       0       0       0       0       0
  4435 ;;Total ram usage:       14 bytes
  4436 ;; Hardware stack levels used: 1
  4437 ;; Hardware stack levels required when called: 14
  4438 ;; This function calls:
  4439 ;;		Nothing
  4440 ;; This function is called by:
  4441 ;;		_efgtoa
  4442 ;; This function uses a non-reentrant model
  4443 ;;
  4444                           
  4445                           	psect	text14
  4446   00437A                     __ptext14:
  4447                           	callstack 0
  4448   00437A                     ___fpclassifyf:
  4449                           	callstack 11
  4450   00437A  C0C9  F0B1         	movff	___fpclassifyf@F465,___fpclassifyf@u
  4451   00437E  C0CA  F0B2         	movff	___fpclassifyf@F465+1,___fpclassifyf@u+1
  4452   004382  C0CB  F0B3         	movff	___fpclassifyf@F465+2,___fpclassifyf@u+2
  4453   004386  C0CC  F0B4         	movff	___fpclassifyf@F465+3,___fpclassifyf@u+3
  4454   00438A  C0A7  F0B1         	movff	___fpclassifyf@x,___fpclassifyf@u
  4455   00438E  C0A8  F0B2         	movff	___fpclassifyf@x+1,___fpclassifyf@u+1
  4456   004392  C0A9  F0B3         	movff	___fpclassifyf@x+2,___fpclassifyf@u+2
  4457   004396  C0AA  F0B4         	movff	___fpclassifyf@x+3,___fpclassifyf@u+3
  4458   00439A  C0B1  F0AB         	movff	___fpclassifyf@u,??___fpclassifyf
  4459   00439E  C0B2  F0AC         	movff	___fpclassifyf@u+1,??___fpclassifyf+1
  4460   0043A2  C0B3  F0AD         	movff	___fpclassifyf@u+2,??___fpclassifyf+2
  4461   0043A6  C0B4  F0AE         	movff	___fpclassifyf@u+3,??___fpclassifyf+3
  4462   0043AA  0E18               	movlw	24
  4463   0043AC  EFDE  F021         	goto	u9210
  4464   0043B0                     u9215:
  4465   0043B0  0100               	movlb	0	; () banked
  4466   0043B2  90D8               	bcf	status,0,c
  4467   0043B4  33AE               	rrcf	(??___fpclassifyf+3)& (0+255),f,b
  4468   0043B6  33AD               	rrcf	(??___fpclassifyf+2)& (0+255),f,b
  4469   0043B8  33AC               	rrcf	(??___fpclassifyf+1)& (0+255),f,b
  4470   0043BA  33AB               	rrcf	??___fpclassifyf& (0+255),f,b
  4471   0043BC                     u9210:
  4472   0043BC  2EE8               	decfsz	wreg,f,c
  4473   0043BE  EFD8  F021         	goto	u9215
  4474   0043C2  51AB               	movf	??___fpclassifyf& (0+255),w,b
  4475   0043C4  6FAF               	movwf	___fpclassifyf@e& (0+255),b
  4476   0043C6  6BB0               	clrf	(___fpclassifyf@e+1)& (0+255),b
  4477   0043C8  51AF               	movf	___fpclassifyf@e& (0+255),w,b
  4478   0043CA  11B0               	iorwf	(___fpclassifyf@e+1)& (0+255),w,b
  4479   0043CC  A4D8               	btfss	status,2,c
  4480   0043CE  EFEB  F021         	goto	u9221
  4481   0043D2  EFED  F021         	goto	u9220
  4482   0043D6                     u9221:
  4483   0043D6  EF0D  F022         	goto	l6592
  4484   0043DA                     u9220:
  4485   0043DA                     
  4486                           ; BSR set to: 0
  4487   0043DA  90D8               	bcf	status,0,c
  4488   0043DC  35B1               	rlcf	___fpclassifyf@u& (0+255),w,b
  4489   0043DE  6FAB               	movwf	??___fpclassifyf& (0+255),b
  4490   0043E0  35B2               	rlcf	(___fpclassifyf@u+1)& (0+255),w,b
  4491   0043E2  6FAC               	movwf	(??___fpclassifyf+1)& (0+255),b
  4492   0043E4  35B3               	rlcf	(___fpclassifyf@u+2)& (0+255),w,b
  4493   0043E6  6FAD               	movwf	(??___fpclassifyf+2)& (0+255),b
  4494   0043E8  35B4               	rlcf	(___fpclassifyf@u+3)& (0+255),w,b
  4495   0043EA  6FAE               	movwf	(??___fpclassifyf+3)& (0+255),b
  4496   0043EC  51AB               	movf	??___fpclassifyf& (0+255),w,b
  4497   0043EE  11AC               	iorwf	(??___fpclassifyf+1)& (0+255),w,b
  4498   0043F0  11AD               	iorwf	(??___fpclassifyf+2)& (0+255),w,b
  4499   0043F2  11AE               	iorwf	(??___fpclassifyf+3)& (0+255),w,b
  4500   0043F4  A4D8               	btfss	status,2,c
  4501   0043F6  EFFF  F021         	goto	u9231
  4502   0043FA  EF01  F022         	goto	u9230
  4503   0043FE                     u9231:
  4504   0043FE  EF07  F022         	goto	l6588
  4505   004402                     u9230:
  4506   004402                     
  4507                           ; BSR set to: 0
  4508   004402  0E00               	movlw	0
  4509   004404  6FA8               	movwf	(?___fpclassifyf+1)& (0+255),b
  4510   004406  0E02               	movlw	2
  4511   004408  6FA7               	movwf	?___fpclassifyf& (0+255),b
  4512   00440A  EF3C  F022         	goto	l1077
  4513   00440E                     l6588:
  4514                           
  4515                           ; BSR set to: 0
  4516   00440E  0E00               	movlw	0
  4517   004410  6FA8               	movwf	(?___fpclassifyf+1)& (0+255),b
  4518   004412  0E03               	movlw	3
  4519   004414  6FA7               	movwf	?___fpclassifyf& (0+255),b
  4520   004416  EF3C  F022         	goto	l1077
  4521   00441A                     l6592:
  4522                           
  4523                           ; BSR set to: 0
  4524   00441A  29AF               	incf	___fpclassifyf@e& (0+255),w,b
  4525   00441C  11B0               	iorwf	(___fpclassifyf@e+1)& (0+255),w,b
  4526   00441E  A4D8               	btfss	status,2,c
  4527   004420  EF14  F022         	goto	u9241
  4528   004424  EF16  F022         	goto	u9240
  4529   004428                     u9241:
  4530   004428  EF38  F022         	goto	l6598
  4531   00442C                     u9240:
  4532   00442C                     
  4533                           ; BSR set to: 0
  4534   00442C  C0B1  F0AB         	movff	___fpclassifyf@u,??___fpclassifyf
  4535   004430  C0B2  F0AC         	movff	___fpclassifyf@u+1,??___fpclassifyf+1
  4536   004434  C0B3  F0AD         	movff	___fpclassifyf@u+2,??___fpclassifyf+2
  4537   004438  C0B4  F0AE         	movff	___fpclassifyf@u+3,??___fpclassifyf+3
  4538   00443C  0E09               	movlw	9
  4539   00443E                     u9255:
  4540   00443E  90D8               	bcf	status,0,c
  4541   004440  37AB               	rlcf	??___fpclassifyf& (0+255),f,b
  4542   004442  37AC               	rlcf	(??___fpclassifyf+1)& (0+255),f,b
  4543   004444  37AD               	rlcf	(??___fpclassifyf+2)& (0+255),f,b
  4544   004446  37AE               	rlcf	(??___fpclassifyf+3)& (0+255),f,b
  4545   004448  2EE8               	decfsz	wreg,f,c
  4546   00444A  EF1F  F022         	goto	u9255
  4547   00444E  51AB               	movf	??___fpclassifyf& (0+255),w,b
  4548   004450  11AC               	iorwf	(??___fpclassifyf+1)& (0+255),w,b
  4549   004452  11AD               	iorwf	(??___fpclassifyf+2)& (0+255),w,b
  4550   004454  11AE               	iorwf	(??___fpclassifyf+3)& (0+255),w,b
  4551   004456  B4D8               	btfsc	status,2,c
  4552   004458  EF30  F022         	goto	u9261
  4553   00445C  EF33  F022         	goto	u9260
  4554   004460                     u9261:
  4555   004460  0E01               	movlw	1
  4556   004462  EF34  F022         	goto	u9270
  4557   004466                     u9260:
  4558   004466  0E00               	movlw	0
  4559   004468                     u9270:
  4560   004468  6FA7               	movwf	?___fpclassifyf& (0+255),b
  4561   00446A  6BA8               	clrf	(?___fpclassifyf+1)& (0+255),b
  4562   00446C  EF3C  F022         	goto	l1077
  4563   004470                     l6598:
  4564                           
  4565                           ; BSR set to: 0
  4566   004470  0E00               	movlw	0
  4567   004472  6FA8               	movwf	(?___fpclassifyf+1)& (0+255),b
  4568   004474  0E04               	movlw	4
  4569   004476  6FA7               	movwf	?___fpclassifyf& (0+255),b
  4570   004478                     l1077:
  4571                           
  4572                           ; BSR set to: 0
  4573   004478  0012               	return		;funcret
  4574   00447A                     __end_of___fpclassifyf:
  4575                           	callstack 0
  4576                           
  4577 ;; *************** function ___fltol *****************
  4578 ;; Defined at:
  4579 ;;		line 43 in file "C:\Program Files\Microchip\xc8\v3.00\pic\sources\c99\common\fltol.c"
  4580 ;; Parameters:    Size  Location     Type
  4581 ;;  f1              4   39[BANK0 ] int 
  4582 ;; Auto vars:     Size  Location     Type
  4583 ;;  exp1            1   48[BANK0 ] unsigned char 
  4584 ;;  sign1           1   47[BANK0 ] unsigned char 
  4585 ;; Return value:  Size  Location     Type
  4586 ;;                  4   39[BANK0 ] long 
  4587 ;; Registers used:
  4588 ;;		wreg, status,2, status,0
  4589 ;; Tracked objects:
  4590 ;;		On entry : 0/0
  4591 ;;		On exit  : 0/0
  4592 ;;		Unchanged: 0/0
  4593 ;; Data sizes:     COMRAM   BANK0   BANK1   BANK2   BANK3   BANK4   BANK5
  4594 ;;      Params:         0       4       0       0       0       0       0
  4595 ;;      Locals:         0       2       0       0       0       0       0
  4596 ;;      Temps:          0       4       0       0       0       0       0
  4597 ;;      Totals:         0      10       0       0       0       0       0
  4598 ;;Total ram usage:       10 bytes
  4599 ;; Hardware stack levels used: 1
  4600 ;; Hardware stack levels required when called: 14
  4601 ;; This function calls:
  4602 ;;		Nothing
  4603 ;; This function is called by:
  4604 ;;		_efgtoa
  4605 ;;		_set_servo_angle
  4606 ;;		_VR_value_to_servo_angle
  4607 ;; This function uses a non-reentrant model
  4608 ;;
  4609                           
  4610                           	psect	text15
  4611   004068                     __ptext15:
  4612                           	callstack 0
  4613   004068                     ___fltol:
  4614                           	callstack 11
  4615   004068  0100               	movlb	0	; () banked
  4616   00406A  35A9               	rlcf	(___fltol@f1+2)& (0+255),w,b
  4617   00406C  35AA               	rlcf	(___fltol@f1+3)& (0+255),w,b
  4618   00406E  6FB0               	movwf	___fltol@exp1& (0+255),b
  4619   004070  51B0               	movf	___fltol@exp1& (0+255),w,b
  4620   004072  A4D8               	btfss	status,2,c
  4621   004074  EF3E  F020         	goto	u9121
  4622   004078  EF40  F020         	goto	u9120
  4623   00407C                     u9121:
  4624   00407C  EF4A  F020         	goto	l6530
  4625   004080                     u9120:
  4626   004080                     l6526:
  4627                           
  4628                           ; BSR set to: 0
  4629   004080  0E00               	movlw	0
  4630   004082  6FA7               	movwf	?___fltol& (0+255),b
  4631   004084  0E00               	movlw	0
  4632   004086  6FA8               	movwf	(?___fltol+1)& (0+255),b
  4633   004088  0E00               	movlw	0
  4634   00408A  6FA9               	movwf	(?___fltol+2)& (0+255),b
  4635   00408C  0E00               	movlw	0
  4636   00408E  6FAA               	movwf	(?___fltol+3)& (0+255),b
  4637   004090  EFB7  F020         	goto	l561
  4638   004094                     l6530:
  4639                           
  4640                           ; BSR set to: 0
  4641   004094  C0A7  F0AB         	movff	___fltol@f1,??___fltol
  4642   004098  C0A8  F0AC         	movff	___fltol@f1+1,??___fltol+1
  4643   00409C  C0A9  F0AD         	movff	___fltol@f1+2,??___fltol+2
  4644   0040A0  C0AA  F0AE         	movff	___fltol@f1+3,??___fltol+3
  4645   0040A4  0E20               	movlw	32
  4646   0040A6  EF5A  F020         	goto	u9130
  4647   0040AA                     u9135:
  4648   0040AA  90D8               	bcf	status,0,c
  4649   0040AC  33AE               	rrcf	(??___fltol+3)& (0+255),f,b
  4650   0040AE  33AD               	rrcf	(??___fltol+2)& (0+255),f,b
  4651   0040B0  33AC               	rrcf	(??___fltol+1)& (0+255),f,b
  4652   0040B2  33AB               	rrcf	??___fltol& (0+255),f,b
  4653   0040B4                     u9130:
  4654   0040B4  2EE8               	decfsz	wreg,f,c
  4655   0040B6  EF55  F020         	goto	u9135
  4656   0040BA  51AB               	movf	??___fltol& (0+255),w,b
  4657   0040BC  6FAF               	movwf	___fltol@sign1& (0+255),b
  4658   0040BE                     
  4659                           ; BSR set to: 0
  4660   0040BE  8FA9               	bsf	(___fltol@f1+2)& (0+255),7,b
  4661   0040C0                     
  4662                           ; BSR set to: 0
  4663   0040C0  0EFF               	movlw	255
  4664   0040C2  17A7               	andwf	___fltol@f1& (0+255),f,b
  4665   0040C4  0EFF               	movlw	255
  4666   0040C6  17A8               	andwf	(___fltol@f1+1)& (0+255),f,b
  4667   0040C8  0EFF               	movlw	255
  4668   0040CA  17A9               	andwf	(___fltol@f1+2)& (0+255),f,b
  4669   0040CC  0E00               	movlw	0
  4670   0040CE  17AA               	andwf	(___fltol@f1+3)& (0+255),f,b
  4671   0040D0                     
  4672                           ; BSR set to: 0
  4673   0040D0  0E96               	movlw	150
  4674   0040D2  5FB0               	subwf	___fltol@exp1& (0+255),f,b
  4675   0040D4                     
  4676                           ; BSR set to: 0
  4677   0040D4  BFB0               	btfsc	___fltol@exp1& (0+255),7,b
  4678   0040D6  EF71  F020         	goto	u9140
  4679   0040DA  EF6F  F020         	goto	u9141
  4680   0040DE                     u9141:
  4681   0040DE  EF87  F020         	goto	l6550
  4682   0040E2                     u9140:
  4683   0040E2                     
  4684                           ; BSR set to: 0
  4685   0040E2  51B0               	movf	___fltol@exp1& (0+255),w,b
  4686   0040E4  0A80               	xorlw	128
  4687   0040E6  0F97               	addlw	151
  4688   0040E8  B0D8               	btfsc	status,0,c
  4689   0040EA  EF79  F020         	goto	u9151
  4690   0040EE  EF7B  F020         	goto	u9150
  4691   0040F2                     u9151:
  4692   0040F2  EF7D  F020         	goto	l6546
  4693   0040F6                     u9150:
  4694   0040F6  EF40  F020         	goto	l6526
  4695   0040FA                     l6546:
  4696                           
  4697                           ; BSR set to: 0
  4698   0040FA  90D8               	bcf	status,0,c
  4699   0040FC  33AA               	rrcf	(___fltol@f1+3)& (0+255),f,b
  4700   0040FE  33A9               	rrcf	(___fltol@f1+2)& (0+255),f,b
  4701   004100  33A8               	rrcf	(___fltol@f1+1)& (0+255),f,b
  4702   004102  33A7               	rrcf	___fltol@f1& (0+255),f,b
  4703   004104                     
  4704                           ; BSR set to: 0
  4705   004104  3FB0               	incfsz	___fltol@exp1& (0+255),f,b
  4706   004106  EF7D  F020         	goto	l6546
  4707   00410A  EF9F  F020         	goto	l6560
  4708   00410E                     l6550:
  4709                           
  4710                           ; BSR set to: 0
  4711   00410E  0E1F               	movlw	31
  4712   004110  65B0               	cpfsgt	___fltol@exp1& (0+255),b
  4713   004112  EF8D  F020         	goto	u9161
  4714   004116  EF8F  F020         	goto	u9160
  4715   00411A                     u9161:
  4716   00411A  EF97  F020         	goto	l6558
  4717   00411E                     u9160:
  4718   00411E  EF40  F020         	goto	l6526
  4719   004122                     l6556:
  4720                           
  4721                           ; BSR set to: 0
  4722   004122  90D8               	bcf	status,0,c
  4723   004124  37A7               	rlcf	___fltol@f1& (0+255),f,b
  4724   004126  37A8               	rlcf	(___fltol@f1+1)& (0+255),f,b
  4725   004128  37A9               	rlcf	(___fltol@f1+2)& (0+255),f,b
  4726   00412A  37AA               	rlcf	(___fltol@f1+3)& (0+255),f,b
  4727   00412C  07B0               	decf	___fltol@exp1& (0+255),f,b
  4728   00412E                     l6558:
  4729                           
  4730                           ; BSR set to: 0
  4731   00412E  51B0               	movf	___fltol@exp1& (0+255),w,b
  4732   004130  A4D8               	btfss	status,2,c
  4733   004132  EF9D  F020         	goto	u9171
  4734   004136  EF9F  F020         	goto	u9170
  4735   00413A                     u9171:
  4736   00413A  EF91  F020         	goto	l6556
  4737   00413E                     u9170:
  4738   00413E                     l6560:
  4739                           
  4740                           ; BSR set to: 0
  4741   00413E  51AF               	movf	___fltol@sign1& (0+255),w,b
  4742   004140  B4D8               	btfsc	status,2,c
  4743   004142  EFA5  F020         	goto	u9181
  4744   004146  EFA7  F020         	goto	u9180
  4745   00414A                     u9181:
  4746   00414A  EFAF  F020         	goto	l6564
  4747   00414E                     u9180:
  4748   00414E                     
  4749                           ; BSR set to: 0
  4750   00414E  1FAA               	comf	(___fltol@f1+3)& (0+255),f,b
  4751   004150  1FA9               	comf	(___fltol@f1+2)& (0+255),f,b
  4752   004152  1FA8               	comf	(___fltol@f1+1)& (0+255),f,b
  4753   004154  6DA7               	negf	___fltol@f1& (0+255),b
  4754   004156  0E00               	movlw	0
  4755   004158  23A8               	addwfc	(___fltol@f1+1)& (0+255),f,b
  4756   00415A  23A9               	addwfc	(___fltol@f1+2)& (0+255),f,b
  4757   00415C  23AA               	addwfc	(___fltol@f1+3)& (0+255),f,b
  4758   00415E                     l6564:
  4759                           
  4760                           ; BSR set to: 0
  4761   00415E  C0A7  F0A7         	movff	___fltol@f1,?___fltol
  4762   004162  C0A8  F0A8         	movff	___fltol@f1+1,?___fltol+1
  4763   004166  C0A9  F0A9         	movff	___fltol@f1+2,?___fltol+2
  4764   00416A  C0AA  F0AA         	movff	___fltol@f1+3,?___fltol+3
  4765   00416E                     l561:
  4766                           
  4767                           ; BSR set to: 0
  4768   00416E  0012               	return		;funcret
  4769   004170                     __end_of___fltol:
  4770                           	callstack 0
  4771                           
  4772 ;; *************** function ___flsub *****************
  4773 ;; Defined at:
  4774 ;;		line 245 in file "C:\Program Files\Microchip\xc8\v3.00\pic\sources\c99\common\sprcadd.c"
  4775 ;; Parameters:    Size  Location     Type
  4776 ;;  b               4    0[BANK1 ] long 
  4777 ;;  a               4    4[BANK1 ] long 
  4778 ;; Auto vars:     Size  Location     Type
  4779 ;;		None
  4780 ;; Return value:  Size  Location     Type
  4781 ;;                  4    0[BANK1 ] long 
  4782 ;; Registers used:
  4783 ;;		wreg, status,2, status,0, cstack
  4784 ;; Tracked objects:
  4785 ;;		On entry : 0/0
  4786 ;;		On exit  : 0/0
  4787 ;;		Unchanged: 0/0
  4788 ;; Data sizes:     COMRAM   BANK0   BANK1   BANK2   BANK3   BANK4   BANK5
  4789 ;;      Params:         0       0       8       0       0       0       0
  4790 ;;      Locals:         0       0       0       0       0       0       0
  4791 ;;      Temps:          0       0       0       0       0       0       0
  4792 ;;      Totals:         0       0       8       0       0       0       0
  4793 ;;Total ram usage:        8 bytes
  4794 ;; Hardware stack levels used: 1
  4795 ;; Hardware stack levels required when called: 15
  4796 ;; This function calls:
  4797 ;;		___fladd
  4798 ;; This function is called by:
  4799 ;;		_efgtoa
  4800 ;; This function uses a non-reentrant model
  4801 ;;
  4802                           
  4803                           	psect	text16
  4804   004FD0                     __ptext16:
  4805                           	callstack 0
  4806   004FD0                     ___flsub:
  4807                           	callstack 10
  4808   004FD0  0E00               	movlw	0
  4809   004FD2  0101               	movlb	1	; () banked
  4810   004FD4  1B04               	xorwf	___flsub@a& (0+255),f,b
  4811   004FD6  0E00               	movlw	0
  4812   004FD8  1B05               	xorwf	(___flsub@a+1)& (0+255),f,b
  4813   004FDA  0E00               	movlw	0
  4814   004FDC  1B06               	xorwf	(___flsub@a+2)& (0+255),f,b
  4815   004FDE  0E80               	movlw	128
  4816   004FE0  1B07               	xorwf	(___flsub@a+3)& (0+255),f,b
  4817   004FE2                     
  4818                           ; BSR set to: 1
  4819   004FE2  C100  F0A7         	movff	___flsub@b,___fladd@b
  4820   004FE6  C101  F0A8         	movff	___flsub@b+1,___fladd@b+1
  4821   004FEA  C102  F0A9         	movff	___flsub@b+2,___fladd@b+2
  4822   004FEE  C103  F0AA         	movff	___flsub@b+3,___fladd@b+3
  4823   004FF2  C104  F0AB         	movff	___flsub@a,___fladd@a
  4824   004FF6  C105  F0AC         	movff	___flsub@a+1,___fladd@a+1
  4825   004FFA  C106  F0AD         	movff	___flsub@a+2,___fladd@a+2
  4826   004FFE  C107  F0AE         	movff	___flsub@a+3,___fladd@a+3
  4827   005002  EC25  F00D         	call	___fladd	;wreg free
  4828   005006  C0A7  F100         	movff	?___fladd,?___flsub
  4829   00500A  C0A8  F101         	movff	?___fladd+1,?___flsub+1
  4830   00500E  C0A9  F102         	movff	?___fladd+2,?___flsub+2
  4831   005012  C0AA  F103         	movff	?___fladd+3,?___flsub+3
  4832   005016  0012               	return		;funcret
  4833   005018                     __end_of___flsub:
  4834                           	callstack 0
  4835                           
  4836 ;; *************** function ___fladd *****************
  4837 ;; Defined at:
  4838 ;;		line 10 in file "C:\Program Files\Microchip\xc8\v3.00\pic\sources\c99\common\sprcadd.c"
  4839 ;; Parameters:    Size  Location     Type
  4840 ;;  b               4   39[BANK0 ] long 
  4841 ;;  a               4   43[BANK0 ] long 
  4842 ;; Auto vars:     Size  Location     Type
  4843 ;;  grs             1   54[BANK0 ] unsigned char 
  4844 ;;  bexp            1   53[BANK0 ] unsigned char 
  4845 ;;  aexp            1   52[BANK0 ] unsigned char 
  4846 ;;  signs           1   51[BANK0 ] unsigned char 
  4847 ;; Return value:  Size  Location     Type
  4848 ;;                  4   39[BANK0 ] unsigned char 
  4849 ;; Registers used:
  4850 ;;		wreg, status,2, status,0
  4851 ;; Tracked objects:
  4852 ;;		On entry : 0/0
  4853 ;;		On exit  : 0/0
  4854 ;;		Unchanged: 0/0
  4855 ;; Data sizes:     COMRAM   BANK0   BANK1   BANK2   BANK3   BANK4   BANK5
  4856 ;;      Params:         0       8       0       0       0       0       0
  4857 ;;      Locals:         0       4       0       0       0       0       0
  4858 ;;      Temps:          0       4       0       0       0       0       0
  4859 ;;      Totals:         0      16       0       0       0       0       0
  4860 ;;Total ram usage:       16 bytes
  4861 ;; Hardware stack levels used: 1
  4862 ;; Hardware stack levels required when called: 14
  4863 ;; This function calls:
  4864 ;;		Nothing
  4865 ;; This function is called by:
  4866 ;;		___flsub
  4867 ;;		_efgtoa
  4868 ;;		_set_servo_angle
  4869 ;;		_VR_value_to_servo_angle
  4870 ;; This function uses a non-reentrant model
  4871 ;;
  4872                           
  4873                           	psect	text17
  4874   001A4A                     __ptext17:
  4875                           	callstack 0
  4876   001A4A                     ___fladd:
  4877                           	callstack 10
  4878   001A4A  0100               	movlb	0	; () banked
  4879   001A4C  51AA               	movf	(___fladd@b+3)& (0+255),w,b
  4880   001A4E  0B80               	andlw	128
  4881   001A50  6FB3               	movwf	___fladd@signs& (0+255),b
  4882   001A52  51AA               	movf	(___fladd@b+3)& (0+255),w,b
  4883   001A54  25AA               	addwf	(___fladd@b+3)& (0+255),w,b
  4884   001A56  6FB5               	movwf	___fladd@bexp& (0+255),b
  4885   001A58                     
  4886                           ; BSR set to: 0
  4887   001A58  AFA9               	btfss	(___fladd@b+2)& (0+255),7,b
  4888   001A5A  EF31  F00D         	goto	u7791
  4889   001A5E  EF33  F00D         	goto	u7790
  4890   001A62                     u7791:
  4891   001A62  EF34  F00D         	goto	l5806
  4892   001A66                     u7790:
  4893   001A66                     
  4894                           ; BSR set to: 0
  4895   001A66  81B5               	bsf	___fladd@bexp& (0+255),0,b
  4896   001A68                     l5806:
  4897                           
  4898                           ; BSR set to: 0
  4899   001A68  51B5               	movf	___fladd@bexp& (0+255),w,b
  4900   001A6A  B4D8               	btfsc	status,2,c
  4901   001A6C  EF3A  F00D         	goto	u7801
  4902   001A70  EF3C  F00D         	goto	u7800
  4903   001A74                     u7801:
  4904   001A74  EF50  F00D         	goto	l5816
  4905   001A78                     u7800:
  4906   001A78                     
  4907                           ; BSR set to: 0
  4908   001A78  29B5               	incf	___fladd@bexp& (0+255),w,b
  4909   001A7A  A4D8               	btfss	status,2,c
  4910   001A7C  EF42  F00D         	goto	u7811
  4911   001A80  EF44  F00D         	goto	u7810
  4912   001A84                     u7811:
  4913   001A84  EF4C  F00D         	goto	l5812
  4914   001A88                     u7810:
  4915   001A88                     
  4916                           ; BSR set to: 0
  4917   001A88  0E00               	movlw	0
  4918   001A8A  6FA7               	movwf	___fladd@b& (0+255),b
  4919   001A8C  0E00               	movlw	0
  4920   001A8E  6FA8               	movwf	(___fladd@b+1)& (0+255),b
  4921   001A90  0E00               	movlw	0
  4922   001A92  6FA9               	movwf	(___fladd@b+2)& (0+255),b
  4923   001A94  0E00               	movlw	0
  4924   001A96  6FAA               	movwf	(___fladd@b+3)& (0+255),b
  4925   001A98                     l5812:
  4926                           
  4927                           ; BSR set to: 0
  4928   001A98  8FA9               	bsf	(___fladd@b+2)& (0+255),7,b
  4929   001A9A                     
  4930                           ; BSR set to: 0
  4931   001A9A  6BAA               	clrf	(___fladd@b+3)& (0+255),b
  4932   001A9C  EF58  F00D         	goto	l5818
  4933   001AA0                     l5816:
  4934                           
  4935                           ; BSR set to: 0
  4936   001AA0  0E00               	movlw	0
  4937   001AA2  6FA7               	movwf	___fladd@b& (0+255),b
  4938   001AA4  0E00               	movlw	0
  4939   001AA6  6FA8               	movwf	(___fladd@b+1)& (0+255),b
  4940   001AA8  0E00               	movlw	0
  4941   001AAA  6FA9               	movwf	(___fladd@b+2)& (0+255),b
  4942   001AAC  0E00               	movlw	0
  4943   001AAE  6FAA               	movwf	(___fladd@b+3)& (0+255),b
  4944   001AB0                     l5818:
  4945                           
  4946                           ; BSR set to: 0
  4947   001AB0  51AE               	movf	(___fladd@a+3)& (0+255),w,b
  4948   001AB2  0B80               	andlw	128
  4949   001AB4  6FB4               	movwf	___fladd@aexp& (0+255),b
  4950   001AB6                     
  4951                           ; BSR set to: 0
  4952   001AB6  51B3               	movf	___fladd@signs& (0+255),w,b
  4953   001AB8  19B4               	xorwf	___fladd@aexp& (0+255),w,b
  4954   001ABA  B4D8               	btfsc	status,2,c
  4955   001ABC  EF62  F00D         	goto	u7821
  4956   001AC0  EF64  F00D         	goto	u7820
  4957   001AC4                     u7821:
  4958   001AC4  EF65  F00D         	goto	l5824
  4959   001AC8                     u7820:
  4960   001AC8                     
  4961                           ; BSR set to: 0
  4962   001AC8  8DB3               	bsf	___fladd@signs& (0+255),6,b
  4963   001ACA                     l5824:
  4964                           
  4965                           ; BSR set to: 0
  4966   001ACA  51AE               	movf	(___fladd@a+3)& (0+255),w,b
  4967   001ACC  25AE               	addwf	(___fladd@a+3)& (0+255),w,b
  4968   001ACE  6FB4               	movwf	___fladd@aexp& (0+255),b
  4969   001AD0                     
  4970                           ; BSR set to: 0
  4971   001AD0  AFAD               	btfss	(___fladd@a+2)& (0+255),7,b
  4972   001AD2  EF6D  F00D         	goto	u7831
  4973   001AD6  EF6F  F00D         	goto	u7830
  4974   001ADA                     u7831:
  4975   001ADA  EF70  F00D         	goto	l5830
  4976   001ADE                     u7830:
  4977   001ADE                     
  4978                           ; BSR set to: 0
  4979   001ADE  81B4               	bsf	___fladd@aexp& (0+255),0,b
  4980   001AE0                     l5830:
  4981                           
  4982                           ; BSR set to: 0
  4983   001AE0  51B4               	movf	___fladd@aexp& (0+255),w,b
  4984   001AE2  B4D8               	btfsc	status,2,c
  4985   001AE4  EF76  F00D         	goto	u7841
  4986   001AE8  EF78  F00D         	goto	u7840
  4987   001AEC                     u7841:
  4988   001AEC  EF8C  F00D         	goto	l5840
  4989   001AF0                     u7840:
  4990   001AF0                     
  4991                           ; BSR set to: 0
  4992   001AF0  29B4               	incf	___fladd@aexp& (0+255),w,b
  4993   001AF2  A4D8               	btfss	status,2,c
  4994   001AF4  EF7E  F00D         	goto	u7851
  4995   001AF8  EF80  F00D         	goto	u7850
  4996   001AFC                     u7851:
  4997   001AFC  EF88  F00D         	goto	l5836
  4998   001B00                     u7850:
  4999   001B00                     
  5000                           ; BSR set to: 0
  5001   001B00  0E00               	movlw	0
  5002   001B02  6FAB               	movwf	___fladd@a& (0+255),b
  5003   001B04  0E00               	movlw	0
  5004   001B06  6FAC               	movwf	(___fladd@a+1)& (0+255),b
  5005   001B08  0E00               	movlw	0
  5006   001B0A  6FAD               	movwf	(___fladd@a+2)& (0+255),b
  5007   001B0C  0E00               	movlw	0
  5008   001B0E  6FAE               	movwf	(___fladd@a+3)& (0+255),b
  5009   001B10                     l5836:
  5010                           
  5011                           ; BSR set to: 0
  5012   001B10  8FAD               	bsf	(___fladd@a+2)& (0+255),7,b
  5013   001B12                     
  5014                           ; BSR set to: 0
  5015   001B12  6BAE               	clrf	(___fladd@a+3)& (0+255),b
  5016   001B14  EF94  F00D         	goto	l5842
  5017   001B18                     l5840:
  5018                           
  5019                           ; BSR set to: 0
  5020   001B18  0E00               	movlw	0
  5021   001B1A  6FAB               	movwf	___fladd@a& (0+255),b
  5022   001B1C  0E00               	movlw	0
  5023   001B1E  6FAC               	movwf	(___fladd@a+1)& (0+255),b
  5024   001B20  0E00               	movlw	0
  5025   001B22  6FAD               	movwf	(___fladd@a+2)& (0+255),b
  5026   001B24  0E00               	movlw	0
  5027   001B26  6FAE               	movwf	(___fladd@a+3)& (0+255),b
  5028   001B28                     l5842:
  5029                           
  5030                           ; BSR set to: 0
  5031   001B28  51B5               	movf	___fladd@bexp& (0+255),w,b
  5032   001B2A  5DB4               	subwf	___fladd@aexp& (0+255),w,b
  5033   001B2C  B0D8               	btfsc	status,0,c
  5034   001B2E  EF9B  F00D         	goto	u7861
  5035   001B32  EF9D  F00D         	goto	u7860
  5036   001B36                     u7861:
  5037   001B36  EFC4  F00D         	goto	l5878
  5038   001B3A                     u7860:
  5039   001B3A                     
  5040                           ; BSR set to: 0
  5041   001B3A  ADB3               	btfss	___fladd@signs& (0+255),6,b
  5042   001B3C  EFA2  F00D         	goto	u7871
  5043   001B40  EFA4  F00D         	goto	u7870
  5044   001B44                     u7871:
  5045   001B44  EFA6  F00D         	goto	l5848
  5046   001B48                     u7870:
  5047   001B48                     
  5048                           ; BSR set to: 0
  5049   001B48  0E80               	movlw	128
  5050   001B4A  1BB3               	xorwf	___fladd@signs& (0+255),f,b
  5051   001B4C                     l5848:
  5052                           
  5053                           ; BSR set to: 0
  5054   001B4C  C0B5  F0B6         	movff	___fladd@bexp,___fladd@grs
  5055   001B50                     
  5056                           ; BSR set to: 0
  5057   001B50  C0B4  F0B5         	movff	___fladd@aexp,___fladd@bexp
  5058   001B54                     
  5059                           ; BSR set to: 0
  5060   001B54  C0B6  F0B4         	movff	___fladd@grs,___fladd@aexp
  5061   001B58                     
  5062                           ; BSR set to: 0
  5063   001B58  C0A7  F0B6         	movff	___fladd@b,___fladd@grs
  5064   001B5C                     
  5065                           ; BSR set to: 0
  5066   001B5C  C0AB  F0A7         	movff	___fladd@a,___fladd@b
  5067   001B60                     
  5068                           ; BSR set to: 0
  5069   001B60  C0B6  F0AB         	movff	___fladd@grs,___fladd@a
  5070   001B64                     
  5071                           ; BSR set to: 0
  5072   001B64  C0A8  F0B6         	movff	___fladd@b+1,___fladd@grs
  5073   001B68                     
  5074                           ; BSR set to: 0
  5075   001B68  C0AC  F0A8         	movff	___fladd@a+1,___fladd@b+1
  5076   001B6C                     
  5077                           ; BSR set to: 0
  5078   001B6C  C0B6  F0AC         	movff	___fladd@grs,___fladd@a+1
  5079   001B70                     
  5080                           ; BSR set to: 0
  5081   001B70  C0A9  F0B6         	movff	___fladd@b+2,___fladd@grs
  5082   001B74                     
  5083                           ; BSR set to: 0
  5084   001B74  C0AD  F0A9         	movff	___fladd@a+2,___fladd@b+2
  5085   001B78                     
  5086                           ; BSR set to: 0
  5087   001B78  C0B6  F0AD         	movff	___fladd@grs,___fladd@a+2
  5088   001B7C                     
  5089                           ; BSR set to: 0
  5090   001B7C  C0AA  F0B6         	movff	___fladd@b+3,___fladd@grs
  5091   001B80                     
  5092                           ; BSR set to: 0
  5093   001B80  C0AE  F0AA         	movff	___fladd@a+3,___fladd@b+3
  5094   001B84                     
  5095                           ; BSR set to: 0
  5096   001B84  C0B6  F0AE         	movff	___fladd@grs,___fladd@a+3
  5097   001B88                     l5878:
  5098                           
  5099                           ; BSR set to: 0
  5100   001B88  6BB6               	clrf	___fladd@grs& (0+255),b
  5101   001B8A  51B5               	movf	___fladd@bexp& (0+255),w,b
  5102   001B8C  C0B4  F0AF         	movff	___fladd@aexp,??___fladd
  5103   001B90  6BB0               	clrf	(??___fladd+1)& (0+255),b
  5104   001B92  5FAF               	subwf	??___fladd& (0+255),f,b
  5105   001B94  0E00               	movlw	0
  5106   001B96  5BB0               	subwfb	(??___fladd+1)& (0+255),f,b
  5107   001B98  BFB0               	btfsc	(??___fladd+1)& (0+255),7,b
  5108   001B9A  EFD8  F00D         	goto	u7881
  5109   001B9E  51B0               	movf	(??___fladd+1)& (0+255),w,b
  5110   001BA0  E109               	bnz	u7880
  5111   001BA2  0E1A               	movlw	26
  5112   001BA4  5DAF               	subwf	??___fladd& (0+255),w,b
  5113   001BA6  A0D8               	btfss	status,0,c
  5114   001BA8  EFD8  F00D         	goto	u7881
  5115   001BAC  EFDA  F00D         	goto	u7880
  5116   001BB0                     u7881:
  5117   001BB0  EF11  F00E         	goto	l793
  5118   001BB4                     u7880:
  5119   001BB4                     
  5120                           ; BSR set to: 0
  5121   001BB4  51A7               	movf	___fladd@b& (0+255),w,b
  5122   001BB6  11A8               	iorwf	(___fladd@b+1)& (0+255),w,b
  5123   001BB8  11A9               	iorwf	(___fladd@b+2)& (0+255),w,b
  5124   001BBA  11AA               	iorwf	(___fladd@b+3)& (0+255),w,b
  5125   001BBC  A4D8               	btfss	status,2,c
  5126   001BBE  EFE3  F00D         	goto	u7891
  5127   001BC2  EFE6  F00D         	goto	u7890
  5128   001BC6                     u7891:
  5129   001BC6  0E01               	movlw	1
  5130   001BC8  EFE7  F00D         	goto	u7900
  5131   001BCC                     u7890:
  5132   001BCC  0E00               	movlw	0
  5133   001BCE                     u7900:
  5134   001BCE  6FB6               	movwf	___fladd@grs& (0+255),b
  5135   001BD0                     
  5136                           ; BSR set to: 0
  5137   001BD0  0E00               	movlw	0
  5138   001BD2  6FA7               	movwf	___fladd@b& (0+255),b
  5139   001BD4  0E00               	movlw	0
  5140   001BD6  6FA8               	movwf	(___fladd@b+1)& (0+255),b
  5141   001BD8  0E00               	movlw	0
  5142   001BDA  6FA9               	movwf	(___fladd@b+2)& (0+255),b
  5143   001BDC  0E00               	movlw	0
  5144   001BDE  6FAA               	movwf	(___fladd@b+3)& (0+255),b
  5145   001BE0                     
  5146                           ; BSR set to: 0
  5147   001BE0  C0B4  F0B5         	movff	___fladd@aexp,___fladd@bexp
  5148   001BE4  EF1A  F00E         	goto	l792
  5149   001BE8                     l794:
  5150                           
  5151                           ; BSR set to: 0
  5152   001BE8  A1B6               	btfss	___fladd@grs& (0+255),0,b
  5153   001BEA  EFF9  F00D         	goto	u7911
  5154   001BEE  EFFB  F00D         	goto	u7910
  5155   001BF2                     u7911:
  5156   001BF2  EF01  F00E         	goto	l5888
  5157   001BF6                     u7910:
  5158   001BF6                     
  5159                           ; BSR set to: 0
  5160   001BF6  90D8               	bcf	status,0,c
  5161   001BF8  31B6               	rrcf	___fladd@grs& (0+255),w,b
  5162   001BFA  0901               	iorlw	1
  5163   001BFC  6FB6               	movwf	___fladd@grs& (0+255),b
  5164   001BFE  EF03  F00E         	goto	l5890
  5165   001C02                     l5888:
  5166                           
  5167                           ; BSR set to: 0
  5168   001C02  90D8               	bcf	status,0,c
  5169   001C04  33B6               	rrcf	___fladd@grs& (0+255),f,b
  5170   001C06                     l5890:
  5171                           
  5172                           ; BSR set to: 0
  5173   001C06  A1A7               	btfss	___fladd@b& (0+255),0,b
  5174   001C08  EF08  F00E         	goto	u7921
  5175   001C0C  EF0A  F00E         	goto	u7920
  5176   001C10                     u7921:
  5177   001C10  EF0B  F00E         	goto	l5894
  5178   001C14                     u7920:
  5179   001C14                     
  5180                           ; BSR set to: 0
  5181   001C14  8FB6               	bsf	___fladd@grs& (0+255),7,b
  5182   001C16                     l5894:
  5183                           
  5184                           ; BSR set to: 0
  5185   001C16  35AA               	rlcf	(___fladd@b+3)& (0+255),w,b
  5186   001C18  33AA               	rrcf	(___fladd@b+3)& (0+255),f,b
  5187   001C1A  33A9               	rrcf	(___fladd@b+2)& (0+255),f,b
  5188   001C1C  33A8               	rrcf	(___fladd@b+1)& (0+255),f,b
  5189   001C1E  33A7               	rrcf	___fladd@b& (0+255),f,b
  5190   001C20                     
  5191                           ; BSR set to: 0
  5192   001C20  2BB5               	incf	___fladd@bexp& (0+255),f,b
  5193   001C22                     l793:
  5194                           
  5195                           ; BSR set to: 0
  5196   001C22  51B4               	movf	___fladd@aexp& (0+255),w,b
  5197   001C24  5DB5               	subwf	___fladd@bexp& (0+255),w,b
  5198   001C26  A0D8               	btfss	status,0,c
  5199   001C28  EF18  F00E         	goto	u7931
  5200   001C2C  EF1A  F00E         	goto	u7930
  5201   001C30                     u7931:
  5202   001C30  EFF4  F00D         	goto	l794
  5203   001C34                     u7930:
  5204   001C34                     l792:
  5205                           
  5206                           ; BSR set to: 0
  5207   001C34  BDB3               	btfsc	___fladd@signs& (0+255),6,b
  5208   001C36  EF1F  F00E         	goto	u7941
  5209   001C3A  EF21  F00E         	goto	u7940
  5210   001C3E                     u7941:
  5211   001C3E  EF61  F00E         	goto	l5922
  5212   001C42                     u7940:
  5213   001C42                     
  5214                           ; BSR set to: 0
  5215   001C42  51B5               	movf	___fladd@bexp& (0+255),w,b
  5216   001C44  A4D8               	btfss	status,2,c
  5217   001C46  EF27  F00E         	goto	u7951
  5218   001C4A  EF29  F00E         	goto	u7950
  5219   001C4E                     u7951:
  5220   001C4E  EF33  F00E         	goto	l5904
  5221   001C52                     u7950:
  5222   001C52                     
  5223                           ; BSR set to: 0
  5224   001C52  0E00               	movlw	0
  5225   001C54  6FA7               	movwf	?___fladd& (0+255),b
  5226   001C56  0E00               	movlw	0
  5227   001C58  6FA8               	movwf	(?___fladd+1)& (0+255),b
  5228   001C5A  0E00               	movlw	0
  5229   001C5C  6FA9               	movwf	(?___fladd+2)& (0+255),b
  5230   001C5E  0E00               	movlw	0
  5231   001C60  6FAA               	movwf	(?___fladd+3)& (0+255),b
  5232   001C62  EF80  F00F         	goto	l801
  5233   001C66                     l5904:
  5234                           
  5235                           ; BSR set to: 0
  5236   001C66  51AB               	movf	___fladd@a& (0+255),w,b
  5237   001C68  27A7               	addwf	___fladd@b& (0+255),f,b
  5238   001C6A  51AC               	movf	(___fladd@a+1)& (0+255),w,b
  5239   001C6C  23A8               	addwfc	(___fladd@b+1)& (0+255),f,b
  5240   001C6E  51AD               	movf	(___fladd@a+2)& (0+255),w,b
  5241   001C70  23A9               	addwfc	(___fladd@b+2)& (0+255),f,b
  5242   001C72  51AE               	movf	(___fladd@a+3)& (0+255),w,b
  5243   001C74  23AA               	addwfc	(___fladd@b+3)& (0+255),f,b
  5244   001C76                     
  5245                           ; BSR set to: 0
  5246   001C76  A1AA               	btfss	(___fladd@b+3)& (0+255),0,b
  5247   001C78  EF40  F00E         	goto	u7961
  5248   001C7C  EF42  F00E         	goto	u7960
  5249   001C80                     u7961:
  5250   001C80  EFEE  F00E         	goto	l806
  5251   001C84                     u7960:
  5252   001C84                     
  5253                           ; BSR set to: 0
  5254   001C84  A1B6               	btfss	___fladd@grs& (0+255),0,b
  5255   001C86  EF47  F00E         	goto	u7971
  5256   001C8A  EF49  F00E         	goto	u7970
  5257   001C8E                     u7971:
  5258   001C8E  EF4F  F00E         	goto	l5912
  5259   001C92                     u7970:
  5260   001C92                     
  5261                           ; BSR set to: 0
  5262   001C92  90D8               	bcf	status,0,c
  5263   001C94  31B6               	rrcf	___fladd@grs& (0+255),w,b
  5264   001C96  0901               	iorlw	1
  5265   001C98  6FB6               	movwf	___fladd@grs& (0+255),b
  5266   001C9A  EF51  F00E         	goto	l5914
  5267   001C9E                     l5912:
  5268                           
  5269                           ; BSR set to: 0
  5270   001C9E  90D8               	bcf	status,0,c
  5271   001CA0  33B6               	rrcf	___fladd@grs& (0+255),f,b
  5272   001CA2                     l5914:
  5273                           
  5274                           ; BSR set to: 0
  5275   001CA2  A1A7               	btfss	___fladd@b& (0+255),0,b
  5276   001CA4  EF56  F00E         	goto	u7981
  5277   001CA8  EF58  F00E         	goto	u7980
  5278   001CAC                     u7981:
  5279   001CAC  EF59  F00E         	goto	l5918
  5280   001CB0                     u7980:
  5281   001CB0                     
  5282                           ; BSR set to: 0
  5283   001CB0  8FB6               	bsf	___fladd@grs& (0+255),7,b
  5284   001CB2                     l5918:
  5285                           
  5286                           ; BSR set to: 0
  5287   001CB2  35AA               	rlcf	(___fladd@b+3)& (0+255),w,b
  5288   001CB4  33AA               	rrcf	(___fladd@b+3)& (0+255),f,b
  5289   001CB6  33A9               	rrcf	(___fladd@b+2)& (0+255),f,b
  5290   001CB8  33A8               	rrcf	(___fladd@b+1)& (0+255),f,b
  5291   001CBA  33A7               	rrcf	___fladd@b& (0+255),f,b
  5292   001CBC                     
  5293                           ; BSR set to: 0
  5294   001CBC  2BB5               	incf	___fladd@bexp& (0+255),f,b
  5295   001CBE  EFEE  F00E         	goto	l806
  5296   001CC2                     l5922:
  5297                           
  5298                           ; BSR set to: 0
  5299   001CC2  51AB               	movf	___fladd@a& (0+255),w,b
  5300   001CC4  5DA7               	subwf	___fladd@b& (0+255),w,b
  5301   001CC6  51AC               	movf	(___fladd@a+1)& (0+255),w,b
  5302   001CC8  59A8               	subwfb	(___fladd@b+1)& (0+255),w,b
  5303   001CCA  51AD               	movf	(___fladd@a+2)& (0+255),w,b
  5304   001CCC  59A9               	subwfb	(___fladd@b+2)& (0+255),w,b
  5305   001CCE  51AA               	movf	(___fladd@b+3)& (0+255),w,b
  5306   001CD0  0A80               	xorlw	128
  5307   001CD2  6FAF               	movwf	??___fladd& (0+255),b
  5308   001CD4  51AE               	movf	(___fladd@a+3)& (0+255),w,b
  5309   001CD6  0A80               	xorlw	128
  5310   001CD8  59AF               	subwfb	??___fladd& (0+255),w,b
  5311   001CDA  B0D8               	btfsc	status,0,c
  5312   001CDC  EF72  F00E         	goto	u7991
  5313   001CE0  EF74  F00E         	goto	u7990
  5314   001CE4                     u7991:
  5315   001CE4  EF9F  F00E         	goto	l5932
  5316   001CE8                     u7990:
  5317   001CE8                     
  5318                           ; BSR set to: 0
  5319   001CE8  51A7               	movf	___fladd@b& (0+255),w,b
  5320   001CEA  5DAB               	subwf	___fladd@a& (0+255),w,b
  5321   001CEC  6FAF               	movwf	??___fladd& (0+255),b
  5322   001CEE  51A8               	movf	(___fladd@b+1)& (0+255),w,b
  5323   001CF0  59AC               	subwfb	(___fladd@a+1)& (0+255),w,b
  5324   001CF2  6FB0               	movwf	(??___fladd+1)& (0+255),b
  5325   001CF4  51A9               	movf	(___fladd@b+2)& (0+255),w,b
  5326   001CF6  59AD               	subwfb	(___fladd@a+2)& (0+255),w,b
  5327   001CF8  6FB1               	movwf	(??___fladd+2)& (0+255),b
  5328   001CFA  51AA               	movf	(___fladd@b+3)& (0+255),w,b
  5329   001CFC  59AE               	subwfb	(___fladd@a+3)& (0+255),w,b
  5330   001CFE  6FB2               	movwf	(??___fladd+3)& (0+255),b
  5331   001D00  0EFF               	movlw	255
  5332   001D02  25AF               	addwf	??___fladd& (0+255),w,b
  5333   001D04  6FA7               	movwf	___fladd@b& (0+255),b
  5334   001D06  0EFF               	movlw	255
  5335   001D08  21B0               	addwfc	(??___fladd+1)& (0+255),w,b
  5336   001D0A  6FA8               	movwf	(___fladd@b+1)& (0+255),b
  5337   001D0C  0EFF               	movlw	255
  5338   001D0E  21B1               	addwfc	(??___fladd+2)& (0+255),w,b
  5339   001D10  6FA9               	movwf	(___fladd@b+2)& (0+255),b
  5340   001D12  0EFF               	movlw	255
  5341   001D14  21B2               	addwfc	(??___fladd+3)& (0+255),w,b
  5342   001D16  6FAA               	movwf	(___fladd@b+3)& (0+255),b
  5343   001D18  0E80               	movlw	128
  5344   001D1A  1BB3               	xorwf	___fladd@signs& (0+255),f,b
  5345   001D1C                     
  5346                           ; BSR set to: 0
  5347   001D1C  6DB6               	negf	___fladd@grs& (0+255),b
  5348   001D1E                     
  5349                           ; BSR set to: 0
  5350   001D1E  51B6               	movf	___fladd@grs& (0+255),w,b
  5351   001D20  A4D8               	btfss	status,2,c
  5352   001D22  EF95  F00E         	goto	u8001
  5353   001D26  EF97  F00E         	goto	u8000
  5354   001D2A                     u8001:
  5355   001D2A  EFA7  F00E         	goto	l809
  5356   001D2E                     u8000:
  5357   001D2E                     
  5358                           ; BSR set to: 0
  5359   001D2E  0E01               	movlw	1
  5360   001D30  27A7               	addwf	___fladd@b& (0+255),f,b
  5361   001D32  0E00               	movlw	0
  5362   001D34  23A8               	addwfc	(___fladd@b+1)& (0+255),f,b
  5363   001D36  23A9               	addwfc	(___fladd@b+2)& (0+255),f,b
  5364   001D38  23AA               	addwfc	(___fladd@b+3)& (0+255),f,b
  5365   001D3A  EFA7  F00E         	goto	l809
  5366   001D3E                     l5932:
  5367                           
  5368                           ; BSR set to: 0
  5369   001D3E  51AB               	movf	___fladd@a& (0+255),w,b
  5370   001D40  5FA7               	subwf	___fladd@b& (0+255),f,b
  5371   001D42  51AC               	movf	(___fladd@a+1)& (0+255),w,b
  5372   001D44  5BA8               	subwfb	(___fladd@b+1)& (0+255),f,b
  5373   001D46  51AD               	movf	(___fladd@a+2)& (0+255),w,b
  5374   001D48  5BA9               	subwfb	(___fladd@b+2)& (0+255),f,b
  5375   001D4A  51AE               	movf	(___fladd@a+3)& (0+255),w,b
  5376   001D4C  5BAA               	subwfb	(___fladd@b+3)& (0+255),f,b
  5377   001D4E                     l809:
  5378                           
  5379                           ; BSR set to: 0
  5380   001D4E  51A7               	movf	___fladd@b& (0+255),w,b
  5381   001D50  11A8               	iorwf	(___fladd@b+1)& (0+255),w,b
  5382   001D52  11A9               	iorwf	(___fladd@b+2)& (0+255),w,b
  5383   001D54  11AA               	iorwf	(___fladd@b+3)& (0+255),w,b
  5384   001D56  A4D8               	btfss	status,2,c
  5385   001D58  EFB0  F00E         	goto	u8011
  5386   001D5C  EFB2  F00E         	goto	u8010
  5387   001D60                     u8011:
  5388   001D60  EFE7  F00E         	goto	l5956
  5389   001D64                     u8010:
  5390   001D64                     
  5391                           ; BSR set to: 0
  5392   001D64  51B6               	movf	___fladd@grs& (0+255),w,b
  5393   001D66  A4D8               	btfss	status,2,c
  5394   001D68  EFB8  F00E         	goto	u8021
  5395   001D6C  EFBA  F00E         	goto	u8020
  5396   001D70                     u8021:
  5397   001D70  EFE7  F00E         	goto	l5956
  5398   001D74                     u8020:
  5399   001D74                     
  5400                           ; BSR set to: 0
  5401   001D74  0E00               	movlw	0
  5402   001D76  6FA7               	movwf	?___fladd& (0+255),b
  5403   001D78  0E00               	movlw	0
  5404   001D7A  6FA8               	movwf	(?___fladd+1)& (0+255),b
  5405   001D7C  0E00               	movlw	0
  5406   001D7E  6FA9               	movwf	(?___fladd+2)& (0+255),b
  5407   001D80  0E00               	movlw	0
  5408   001D82  6FAA               	movwf	(?___fladd+3)& (0+255),b
  5409   001D84  EF80  F00F         	goto	l801
  5410   001D88                     l5940:
  5411                           
  5412                           ; BSR set to: 0
  5413   001D88  90D8               	bcf	status,0,c
  5414   001D8A  37A7               	rlcf	___fladd@b& (0+255),f,b
  5415   001D8C  37A8               	rlcf	(___fladd@b+1)& (0+255),f,b
  5416   001D8E  37A9               	rlcf	(___fladd@b+2)& (0+255),f,b
  5417   001D90  37AA               	rlcf	(___fladd@b+3)& (0+255),f,b
  5418   001D92                     
  5419                           ; BSR set to: 0
  5420   001D92  AFB6               	btfss	___fladd@grs& (0+255),7,b
  5421   001D94  EFCE  F00E         	goto	u8031
  5422   001D98  EFD0  F00E         	goto	u8030
  5423   001D9C                     u8031:
  5424   001D9C  EFD1  F00E         	goto	l5946
  5425   001DA0                     u8030:
  5426   001DA0                     
  5427                           ; BSR set to: 0
  5428   001DA0  81A7               	bsf	___fladd@b& (0+255),0,b
  5429   001DA2                     l5946:
  5430                           
  5431                           ; BSR set to: 0
  5432   001DA2  A1B6               	btfss	___fladd@grs& (0+255),0,b
  5433   001DA4  EFD6  F00E         	goto	u8041
  5434   001DA8  EFD8  F00E         	goto	u8040
  5435   001DAC                     u8041:
  5436   001DAC  EFDC  F00E         	goto	l5950
  5437   001DB0                     u8040:
  5438   001DB0                     
  5439                           ; BSR set to: 0
  5440   001DB0  80D8               	bsf	status,0,c
  5441   001DB2  37B6               	rlcf	___fladd@grs& (0+255),f,b
  5442   001DB4  EFDE  F00E         	goto	l5952
  5443   001DB8                     l5950:
  5444                           
  5445                           ; BSR set to: 0
  5446   001DB8  90D8               	bcf	status,0,c
  5447   001DBA  37B6               	rlcf	___fladd@grs& (0+255),f,b
  5448   001DBC                     l5952:
  5449                           
  5450                           ; BSR set to: 0
  5451   001DBC  51B5               	movf	___fladd@bexp& (0+255),w,b
  5452   001DBE  B4D8               	btfsc	status,2,c
  5453   001DC0  EFE4  F00E         	goto	u8051
  5454   001DC4  EFE6  F00E         	goto	u8050
  5455   001DC8                     u8051:
  5456   001DC8  EFE7  F00E         	goto	l5956
  5457   001DCC                     u8050:
  5458   001DCC                     
  5459                           ; BSR set to: 0
  5460   001DCC  07B5               	decf	___fladd@bexp& (0+255),f,b
  5461   001DCE                     l5956:
  5462                           
  5463                           ; BSR set to: 0
  5464   001DCE  AFA9               	btfss	(___fladd@b+2)& (0+255),7,b
  5465   001DD0  EFEC  F00E         	goto	u8061
  5466   001DD4  EFEE  F00E         	goto	u8060
  5467   001DD8                     u8061:
  5468   001DD8  EFC4  F00E         	goto	l5940
  5469   001DDC                     u8060:
  5470   001DDC                     l806:
  5471                           
  5472                           ; BSR set to: 0
  5473   001DDC  6BB4               	clrf	___fladd@aexp& (0+255),b
  5474   001DDE  AFB6               	btfss	___fladd@grs& (0+255),7,b
  5475   001DE0  EFF4  F00E         	goto	u8071
  5476   001DE4  EFF6  F00E         	goto	u8070
  5477   001DE8                     u8071:
  5478   001DE8  EF0E  F00F         	goto	l818
  5479   001DEC                     u8070:
  5480   001DEC                     
  5481                           ; BSR set to: 0
  5482   001DEC  C0B6  F0AF         	movff	___fladd@grs,??___fladd
  5483   001DF0  0E7F               	movlw	127
  5484   001DF2  17AF               	andwf	??___fladd& (0+255),f,b
  5485   001DF4  B4D8               	btfsc	status,2,c
  5486   001DF6  EFFF  F00E         	goto	u8081
  5487   001DFA  EF01  F00F         	goto	u8080
  5488   001DFE                     u8081:
  5489   001DFE  EF05  F00F         	goto	l819
  5490   001E02                     u8080:
  5491   001E02                     l5960:
  5492                           
  5493                           ; BSR set to: 0
  5494   001E02  0E01               	movlw	1
  5495   001E04  6FB4               	movwf	___fladd@aexp& (0+255),b
  5496   001E06  EF0E  F00F         	goto	l818
  5497   001E0A                     l819:
  5498                           
  5499                           ; BSR set to: 0
  5500   001E0A  A1A7               	btfss	___fladd@b& (0+255),0,b
  5501   001E0C  EF0A  F00F         	goto	u8091
  5502   001E10  EF0C  F00F         	goto	u8090
  5503   001E14                     u8091:
  5504   001E14  EF0E  F00F         	goto	l818
  5505   001E18                     u8090:
  5506   001E18  EF01  F00F         	goto	l5960
  5507   001E1C                     l818:
  5508                           
  5509                           ; BSR set to: 0
  5510   001E1C  51B4               	movf	___fladd@aexp& (0+255),w,b
  5511   001E1E  B4D8               	btfsc	status,2,c
  5512   001E20  EF14  F00F         	goto	u8101
  5513   001E24  EF16  F00F         	goto	u8100
  5514   001E28                     u8101:
  5515   001E28  EF41  F00F         	goto	l5972
  5516   001E2C                     u8100:
  5517   001E2C                     
  5518                           ; BSR set to: 0
  5519   001E2C  0E01               	movlw	1
  5520   001E2E  27A7               	addwf	___fladd@b& (0+255),f,b
  5521   001E30  0E00               	movlw	0
  5522   001E32  23A8               	addwfc	(___fladd@b+1)& (0+255),f,b
  5523   001E34  23A9               	addwfc	(___fladd@b+2)& (0+255),f,b
  5524   001E36  23AA               	addwfc	(___fladd@b+3)& (0+255),f,b
  5525   001E38                     
  5526                           ; BSR set to: 0
  5527   001E38  A1AA               	btfss	(___fladd@b+3)& (0+255),0,b
  5528   001E3A  EF21  F00F         	goto	u8111
  5529   001E3E  EF23  F00F         	goto	u8110
  5530   001E42                     u8111:
  5531   001E42  EF41  F00F         	goto	l5972
  5532   001E46                     u8110:
  5533   001E46                     
  5534                           ; BSR set to: 0
  5535   001E46  C0A7  F0AF         	movff	___fladd@b,??___fladd
  5536   001E4A  C0A8  F0B0         	movff	___fladd@b+1,??___fladd+1
  5537   001E4E  C0A9  F0B1         	movff	___fladd@b+2,??___fladd+2
  5538   001E52  C0AA  F0B2         	movff	___fladd@b+3,??___fladd+3
  5539   001E56  35B2               	rlcf	(??___fladd+3)& (0+255),w,b
  5540   001E58  33B2               	rrcf	(??___fladd+3)& (0+255),f,b
  5541   001E5A  33B1               	rrcf	(??___fladd+2)& (0+255),f,b
  5542   001E5C  33B0               	rrcf	(??___fladd+1)& (0+255),f,b
  5543   001E5E  33AF               	rrcf	??___fladd& (0+255),f,b
  5544   001E60  C0AF  F0A7         	movff	??___fladd,___fladd@b
  5545   001E64  C0B0  F0A8         	movff	??___fladd+1,___fladd@b+1
  5546   001E68  C0B1  F0A9         	movff	??___fladd+2,___fladd@b+2
  5547   001E6C  C0B2  F0AA         	movff	??___fladd+3,___fladd@b+3
  5548   001E70  29B5               	incf	___fladd@bexp& (0+255),w,b
  5549   001E72  B4D8               	btfsc	status,2,c
  5550   001E74  EF3E  F00F         	goto	u8121
  5551   001E78  EF40  F00F         	goto	u8120
  5552   001E7C                     u8121:
  5553   001E7C  EF41  F00F         	goto	l5972
  5554   001E80                     u8120:
  5555   001E80                     
  5556                           ; BSR set to: 0
  5557   001E80  2BB5               	incf	___fladd@bexp& (0+255),f,b
  5558   001E82                     l5972:
  5559                           
  5560                           ; BSR set to: 0
  5561   001E82  29B5               	incf	___fladd@bexp& (0+255),w,b
  5562   001E84  B4D8               	btfsc	status,2,c
  5563   001E86  EF47  F00F         	goto	u8131
  5564   001E8A  EF49  F00F         	goto	u8130
  5565   001E8E                     u8131:
  5566   001E8E  EF51  F00F         	goto	l5976
  5567   001E92                     u8130:
  5568   001E92                     
  5569                           ; BSR set to: 0
  5570   001E92  51B5               	movf	___fladd@bexp& (0+255),w,b
  5571   001E94  A4D8               	btfss	status,2,c
  5572   001E96  EF4F  F00F         	goto	u8141
  5573   001E9A  EF51  F00F         	goto	u8140
  5574   001E9E                     u8141:
  5575   001E9E  EF62  F00F         	goto	l825
  5576   001EA2                     u8140:
  5577   001EA2                     l5976:
  5578                           
  5579                           ; BSR set to: 0
  5580   001EA2  0E00               	movlw	0
  5581   001EA4  6FA7               	movwf	___fladd@b& (0+255),b
  5582   001EA6  0E00               	movlw	0
  5583   001EA8  6FA8               	movwf	(___fladd@b+1)& (0+255),b
  5584   001EAA  0E00               	movlw	0
  5585   001EAC  6FA9               	movwf	(___fladd@b+2)& (0+255),b
  5586   001EAE  0E00               	movlw	0
  5587   001EB0  6FAA               	movwf	(___fladd@b+3)& (0+255),b
  5588   001EB2  51B5               	movf	___fladd@bexp& (0+255),w,b
  5589   001EB4  A4D8               	btfss	status,2,c
  5590   001EB6  EF5F  F00F         	goto	u8151
  5591   001EBA  EF61  F00F         	goto	u8150
  5592   001EBE                     u8151:
  5593   001EBE  EF62  F00F         	goto	l825
  5594   001EC2                     u8150:
  5595   001EC2                     
  5596                           ; BSR set to: 0
  5597   001EC2  6BB3               	clrf	___fladd@signs& (0+255),b
  5598   001EC4                     l825:
  5599                           
  5600                           ; BSR set to: 0
  5601   001EC4  A1B5               	btfss	___fladd@bexp& (0+255),0,b
  5602   001EC6  EF67  F00F         	goto	u8161
  5603   001ECA  EF69  F00F         	goto	u8160
  5604   001ECE                     u8161:
  5605   001ECE  EF6C  F00F         	goto	l5982
  5606   001ED2                     u8160:
  5607   001ED2                     
  5608                           ; BSR set to: 0
  5609   001ED2  8FA9               	bsf	(___fladd@b+2)& (0+255),7,b
  5610   001ED4  EF6D  F00F         	goto	l5984
  5611   001ED8                     l5982:
  5612                           
  5613                           ; BSR set to: 0
  5614   001ED8  9FA9               	bcf	(___fladd@b+2)& (0+255),7,b
  5615   001EDA                     l5984:
  5616                           
  5617                           ; BSR set to: 0
  5618   001EDA  90D8               	bcf	status,0,c
  5619   001EDC  31B5               	rrcf	___fladd@bexp& (0+255),w,b
  5620   001EDE  6FAA               	movwf	(___fladd@b+3)& (0+255),b
  5621   001EE0                     
  5622                           ; BSR set to: 0
  5623   001EE0  AFB3               	btfss	___fladd@signs& (0+255),7,b
  5624   001EE2  EF75  F00F         	goto	u8171
  5625   001EE6  EF77  F00F         	goto	u8170
  5626   001EEA                     u8171:
  5627   001EEA  EF78  F00F         	goto	l5990
  5628   001EEE                     u8170:
  5629   001EEE                     
  5630                           ; BSR set to: 0
  5631   001EEE  8FAA               	bsf	(___fladd@b+3)& (0+255),7,b
  5632   001EF0                     l5990:
  5633                           
  5634                           ; BSR set to: 0
  5635   001EF0  C0A7  F0A7         	movff	___fladd@b,?___fladd
  5636   001EF4  C0A8  F0A8         	movff	___fladd@b+1,?___fladd+1
  5637   001EF8  C0A9  F0A9         	movff	___fladd@b+2,?___fladd+2
  5638   001EFC  C0AA  F0AA         	movff	___fladd@b+3,?___fladd+3
  5639   001F00                     l801:
  5640                           
  5641                           ; BSR set to: 0
  5642   001F00  0012               	return		;funcret
  5643   001F02                     __end_of___fladd:
  5644                           	callstack 0
  5645                           
  5646 ;; *************** function ___flneg *****************
  5647 ;; Defined at:
  5648 ;;		line 15 in file "C:\Program Files\Microchip\xc8\v3.00\pic\sources\c99\common\flneg.c"
  5649 ;; Parameters:    Size  Location     Type
  5650 ;;  f1              4   39[BANK0 ] unsigned char 
  5651 ;; Auto vars:     Size  Location     Type
  5652 ;;		None
  5653 ;; Return value:  Size  Location     Type
  5654 ;;                  4   39[BANK0 ] unsigned char 
  5655 ;; Registers used:
  5656 ;;		wreg, status,2, status,0
  5657 ;; Tracked objects:
  5658 ;;		On entry : 0/0
  5659 ;;		On exit  : 0/0
  5660 ;;		Unchanged: 0/0
  5661 ;; Data sizes:     COMRAM   BANK0   BANK1   BANK2   BANK3   BANK4   BANK5
  5662 ;;      Params:         0       4       0       0       0       0       0
  5663 ;;      Locals:         0       0       0       0       0       0       0
  5664 ;;      Temps:          0       0       0       0       0       0       0
  5665 ;;      Totals:         0       4       0       0       0       0       0
  5666 ;;Total ram usage:        4 bytes
  5667 ;; Hardware stack levels used: 1
  5668 ;; Hardware stack levels required when called: 14
  5669 ;; This function calls:
  5670 ;;		Nothing
  5671 ;; This function is called by:
  5672 ;;		_efgtoa
  5673 ;; This function uses a non-reentrant model
  5674 ;;
  5675                           
  5676                           	psect	text18
  5677   00512C                     __ptext18:
  5678                           	callstack 0
  5679   00512C                     ___flneg:
  5680                           	callstack 11
  5681   00512C  0100               	movlb	0	; () banked
  5682   00512E  51A7               	movf	___flneg@f1& (0+255),w,b
  5683   005130  11A8               	iorwf	(___flneg@f1+1)& (0+255),w,b
  5684   005132  11A9               	iorwf	(___flneg@f1+2)& (0+255),w,b
  5685   005134  11AA               	iorwf	(___flneg@f1+3)& (0+255),w,b
  5686   005136  B4D8               	btfsc	status,2,c
  5687   005138  EFA0  F028         	goto	u9111
  5688   00513C  EFA2  F028         	goto	u9110
  5689   005140                     u9111:
  5690   005140  EFAA  F028         	goto	l6520
  5691   005144                     u9110:
  5692   005144                     
  5693                           ; BSR set to: 0
  5694   005144  0E00               	movlw	0
  5695   005146  1BA7               	xorwf	___flneg@f1& (0+255),f,b
  5696   005148  0E00               	movlw	0
  5697   00514A  1BA8               	xorwf	(___flneg@f1+1)& (0+255),f,b
  5698   00514C  0E00               	movlw	0
  5699   00514E  1BA9               	xorwf	(___flneg@f1+2)& (0+255),f,b
  5700   005150  0E80               	movlw	128
  5701   005152  1BAA               	xorwf	(___flneg@f1+3)& (0+255),f,b
  5702   005154                     l6520:
  5703                           
  5704                           ; BSR set to: 0
  5705   005154  C0A7  F0A7         	movff	___flneg@f1,?___flneg
  5706   005158  C0A8  F0A8         	movff	___flneg@f1+1,?___flneg+1
  5707   00515C  C0A9  F0A9         	movff	___flneg@f1+2,?___flneg+2
  5708   005160  C0AA  F0AA         	movff	___flneg@f1+3,?___flneg+3
  5709   005164                     
  5710                           ; BSR set to: 0
  5711   005164  0012               	return		;funcret
  5712   005166                     __end_of___flneg:
  5713                           	callstack 0
  5714                           
  5715 ;; *************** function ___flmul *****************
  5716 ;; Defined at:
  5717 ;;		line 8 in file "C:\Program Files\Microchip\xc8\v3.00\pic\sources\c99\common\sprcmul.c"
  5718 ;; Parameters:    Size  Location     Type
  5719 ;;  b               4   39[BANK0 ] unsigned char 
  5720 ;;  a               4   43[BANK0 ] unsigned char 
  5721 ;; Auto vars:     Size  Location     Type
  5722 ;;  prod            4   58[BANK0 ] struct .
  5723 ;;  grs             4   53[BANK0 ] unsigned long 
  5724 ;;  temp            2   62[BANK0 ] struct .
  5725 ;;  bexp            1   57[BANK0 ] unsigned char 
  5726 ;;  aexp            1   52[BANK0 ] unsigned char 
  5727 ;;  sign            1   51[BANK0 ] unsigned char 
  5728 ;; Return value:  Size  Location     Type
  5729 ;;                  4   39[BANK0 ] unsigned char 
  5730 ;; Registers used:
  5731 ;;		wreg, status,2, status,0, prodl, prodh
  5732 ;; Tracked objects:
  5733 ;;		On entry : 0/0
  5734 ;;		On exit  : 0/0
  5735 ;;		Unchanged: 0/0
  5736 ;; Data sizes:     COMRAM   BANK0   BANK1   BANK2   BANK3   BANK4   BANK5
  5737 ;;      Params:         0       8       0       0       0       0       0
  5738 ;;      Locals:         0      13       0       0       0       0       0
  5739 ;;      Temps:          0       4       0       0       0       0       0
  5740 ;;      Totals:         0      25       0       0       0       0       0
  5741 ;;Total ram usage:       25 bytes
  5742 ;; Hardware stack levels used: 1
  5743 ;; Hardware stack levels required when called: 14
  5744 ;; This function calls:
  5745 ;;		Nothing
  5746 ;; This function is called by:
  5747 ;;		_efgtoa
  5748 ;;		_set_servo_angle
  5749 ;;		_VR_value_to_servo_angle
  5750 ;;		_delay
  5751 ;; This function uses a non-reentrant model
  5752 ;;
  5753                           
  5754                           	psect	text19
  5755   0023B8                     __ptext19:
  5756                           	callstack 0
  5757   0023B8                     ___flmul:
  5758                           	callstack 11
  5759   0023B8  0100               	movlb	0	; () banked
  5760   0023BA  51AA               	movf	(___flmul@b+3)& (0+255),w,b
  5761   0023BC  0B80               	andlw	128
  5762   0023BE  6FB3               	movwf	___flmul@sign& (0+255),b
  5763   0023C0  51AA               	movf	(___flmul@b+3)& (0+255),w,b
  5764   0023C2  25AA               	addwf	(___flmul@b+3)& (0+255),w,b
  5765   0023C4  6FB9               	movwf	___flmul@bexp& (0+255),b
  5766   0023C6                     
  5767                           ; BSR set to: 0
  5768   0023C6  AFA9               	btfss	(___flmul@b+2)& (0+255),7,b
  5769   0023C8  EFE8  F011         	goto	u8841
  5770   0023CC  EFEA  F011         	goto	u8840
  5771   0023D0                     u8841:
  5772   0023D0  EFEB  F011         	goto	l6350
  5773   0023D4                     u8840:
  5774   0023D4                     
  5775                           ; BSR set to: 0
  5776   0023D4  81B9               	bsf	___flmul@bexp& (0+255),0,b
  5777   0023D6                     l6350:
  5778                           
  5779                           ; BSR set to: 0
  5780   0023D6  51B9               	movf	___flmul@bexp& (0+255),w,b
  5781   0023D8  B4D8               	btfsc	status,2,c
  5782   0023DA  EFF1  F011         	goto	u8851
  5783   0023DE  EFF3  F011         	goto	u8850
  5784   0023E2                     u8851:
  5785   0023E2  EF06  F012         	goto	l6358
  5786   0023E6                     u8850:
  5787   0023E6                     
  5788                           ; BSR set to: 0
  5789   0023E6  29B9               	incf	___flmul@bexp& (0+255),w,b
  5790   0023E8  A4D8               	btfss	status,2,c
  5791   0023EA  EFF9  F011         	goto	u8861
  5792   0023EE  EFFB  F011         	goto	u8860
  5793   0023F2                     u8861:
  5794   0023F2  EF03  F012         	goto	l6356
  5795   0023F6                     u8860:
  5796   0023F6                     
  5797                           ; BSR set to: 0
  5798   0023F6  0E00               	movlw	0
  5799   0023F8  6FA7               	movwf	___flmul@b& (0+255),b
  5800   0023FA  0E00               	movlw	0
  5801   0023FC  6FA8               	movwf	(___flmul@b+1)& (0+255),b
  5802   0023FE  0E00               	movlw	0
  5803   002400  6FA9               	movwf	(___flmul@b+2)& (0+255),b
  5804   002402  0E00               	movlw	0
  5805   002404  6FAA               	movwf	(___flmul@b+3)& (0+255),b
  5806   002406                     l6356:
  5807                           
  5808                           ; BSR set to: 0
  5809   002406  8FA9               	bsf	(___flmul@b+2)& (0+255),7,b
  5810   002408  EF0E  F012         	goto	l6360
  5811   00240C                     l6358:
  5812                           
  5813                           ; BSR set to: 0
  5814   00240C  0E00               	movlw	0
  5815   00240E  6FA7               	movwf	___flmul@b& (0+255),b
  5816   002410  0E00               	movlw	0
  5817   002412  6FA8               	movwf	(___flmul@b+1)& (0+255),b
  5818   002414  0E00               	movlw	0
  5819   002416  6FA9               	movwf	(___flmul@b+2)& (0+255),b
  5820   002418  0E00               	movlw	0
  5821   00241A  6FAA               	movwf	(___flmul@b+3)& (0+255),b
  5822   00241C                     l6360:
  5823                           
  5824                           ; BSR set to: 0
  5825   00241C  51AE               	movf	(___flmul@a+3)& (0+255),w,b
  5826   00241E  0B80               	andlw	128
  5827   002420  1BB3               	xorwf	___flmul@sign& (0+255),f,b
  5828   002422                     
  5829                           ; BSR set to: 0
  5830   002422  51AE               	movf	(___flmul@a+3)& (0+255),w,b
  5831   002424  25AE               	addwf	(___flmul@a+3)& (0+255),w,b
  5832   002426  6FB4               	movwf	___flmul@aexp& (0+255),b
  5833   002428                     
  5834                           ; BSR set to: 0
  5835   002428  AFAD               	btfss	(___flmul@a+2)& (0+255),7,b
  5836   00242A  EF19  F012         	goto	u8871
  5837   00242E  EF1B  F012         	goto	u8870
  5838   002432                     u8871:
  5839   002432  EF1C  F012         	goto	l6368
  5840   002436                     u8870:
  5841   002436                     
  5842                           ; BSR set to: 0
  5843   002436  81B4               	bsf	___flmul@aexp& (0+255),0,b
  5844   002438                     l6368:
  5845                           
  5846                           ; BSR set to: 0
  5847   002438  51B4               	movf	___flmul@aexp& (0+255),w,b
  5848   00243A  B4D8               	btfsc	status,2,c
  5849   00243C  EF22  F012         	goto	u8881
  5850   002440  EF24  F012         	goto	u8880
  5851   002444                     u8881:
  5852   002444  EF37  F012         	goto	l6376
  5853   002448                     u8880:
  5854   002448                     
  5855                           ; BSR set to: 0
  5856   002448  29B4               	incf	___flmul@aexp& (0+255),w,b
  5857   00244A  A4D8               	btfss	status,2,c
  5858   00244C  EF2A  F012         	goto	u8891
  5859   002450  EF2C  F012         	goto	u8890
  5860   002454                     u8891:
  5861   002454  EF34  F012         	goto	l6374
  5862   002458                     u8890:
  5863   002458                     
  5864                           ; BSR set to: 0
  5865   002458  0E00               	movlw	0
  5866   00245A  6FAB               	movwf	___flmul@a& (0+255),b
  5867   00245C  0E00               	movlw	0
  5868   00245E  6FAC               	movwf	(___flmul@a+1)& (0+255),b
  5869   002460  0E00               	movlw	0
  5870   002462  6FAD               	movwf	(___flmul@a+2)& (0+255),b
  5871   002464  0E00               	movlw	0
  5872   002466  6FAE               	movwf	(___flmul@a+3)& (0+255),b
  5873   002468                     l6374:
  5874                           
  5875                           ; BSR set to: 0
  5876   002468  8FAD               	bsf	(___flmul@a+2)& (0+255),7,b
  5877   00246A  EF3F  F012         	goto	l878
  5878   00246E                     l6376:
  5879                           
  5880                           ; BSR set to: 0
  5881   00246E  0E00               	movlw	0
  5882   002470  6FAB               	movwf	___flmul@a& (0+255),b
  5883   002472  0E00               	movlw	0
  5884   002474  6FAC               	movwf	(___flmul@a+1)& (0+255),b
  5885   002476  0E00               	movlw	0
  5886   002478  6FAD               	movwf	(___flmul@a+2)& (0+255),b
  5887   00247A  0E00               	movlw	0
  5888   00247C  6FAE               	movwf	(___flmul@a+3)& (0+255),b
  5889   00247E                     l878:
  5890                           
  5891                           ; BSR set to: 0
  5892   00247E  51B4               	movf	___flmul@aexp& (0+255),w,b
  5893   002480  B4D8               	btfsc	status,2,c
  5894   002482  EF45  F012         	goto	u8901
  5895   002486  EF47  F012         	goto	u8900
  5896   00248A                     u8901:
  5897   00248A  EF4F  F012         	goto	l6380
  5898   00248E                     u8900:
  5899   00248E                     
  5900                           ; BSR set to: 0
  5901   00248E  51B9               	movf	___flmul@bexp& (0+255),w,b
  5902   002490  A4D8               	btfss	status,2,c
  5903   002492  EF4D  F012         	goto	u8911
  5904   002496  EF4F  F012         	goto	u8910
  5905   00249A                     u8911:
  5906   00249A  EF59  F012         	goto	l6384
  5907   00249E                     u8910:
  5908   00249E                     l6380:
  5909                           
  5910                           ; BSR set to: 0
  5911   00249E  0E00               	movlw	0
  5912   0024A0  6FA7               	movwf	?___flmul& (0+255),b
  5913   0024A2  0E00               	movlw	0
  5914   0024A4  6FA8               	movwf	(?___flmul+1)& (0+255),b
  5915   0024A6  0E00               	movlw	0
  5916   0024A8  6FA9               	movwf	(?___flmul+2)& (0+255),b
  5917   0024AA  0E00               	movlw	0
  5918   0024AC  6FAA               	movwf	(?___flmul+3)& (0+255),b
  5919   0024AE  EFEF  F013         	goto	l882
  5920   0024B2                     l6384:
  5921                           
  5922                           ; BSR set to: 0
  5923   0024B2  51AD               	movf	(___flmul@a+2)& (0+255),w,b
  5924   0024B4  03A7               	mulwf	___flmul@b& (0+255),b
  5925   0024B6  CFF3 F0BE          	movff	prodl,___flmul@temp
  5926   0024BA  CFF4 F0BF          	movff	prodh,___flmul@temp+1
  5927   0024BE                     
  5928                           ; BSR set to: 0
  5929   0024BE  51BE               	movf	___flmul@temp& (0+255),w,b
  5930   0024C0  6FB5               	movwf	___flmul@grs& (0+255),b
  5931   0024C2  6BB6               	clrf	(___flmul@grs+1)& (0+255),b
  5932   0024C4  6BB7               	clrf	(___flmul@grs+2)& (0+255),b
  5933   0024C6  6BB8               	clrf	(___flmul@grs+3)& (0+255),b
  5934   0024C8                     
  5935                           ; BSR set to: 0
  5936   0024C8  51BF               	movf	(___flmul@temp+1)& (0+255),w,b
  5937   0024CA  6FBA               	movwf	___flmul@prod& (0+255),b
  5938   0024CC  6BBB               	clrf	(___flmul@prod+1)& (0+255),b
  5939   0024CE  6BBC               	clrf	(___flmul@prod+2)& (0+255),b
  5940   0024D0  6BBD               	clrf	(___flmul@prod+3)& (0+255),b
  5941   0024D2  51AC               	movf	(___flmul@a+1)& (0+255),w,b
  5942   0024D4  03A8               	mulwf	(___flmul@b+1)& (0+255),b
  5943   0024D6  CFF3 F0BE          	movff	prodl,___flmul@temp
  5944   0024DA  CFF4 F0BF          	movff	prodh,___flmul@temp+1
  5945   0024DE                     
  5946                           ; BSR set to: 0
  5947   0024DE  51BE               	movf	___flmul@temp& (0+255),w,b
  5948   0024E0  27B5               	addwf	___flmul@grs& (0+255),f,b
  5949   0024E2  0E00               	movlw	0
  5950   0024E4  23B6               	addwfc	(___flmul@grs+1)& (0+255),f,b
  5951   0024E6  23B7               	addwfc	(___flmul@grs+2)& (0+255),f,b
  5952   0024E8  23B8               	addwfc	(___flmul@grs+3)& (0+255),f,b
  5953   0024EA                     
  5954                           ; BSR set to: 0
  5955   0024EA  51BF               	movf	(___flmul@temp+1)& (0+255),w,b
  5956   0024EC  27BA               	addwf	___flmul@prod& (0+255),f,b
  5957   0024EE  0E00               	movlw	0
  5958   0024F0  23BB               	addwfc	(___flmul@prod+1)& (0+255),f,b
  5959   0024F2  23BC               	addwfc	(___flmul@prod+2)& (0+255),f,b
  5960   0024F4  23BD               	addwfc	(___flmul@prod+3)& (0+255),f,b
  5961   0024F6  51AB               	movf	___flmul@a& (0+255),w,b
  5962   0024F8  03A9               	mulwf	(___flmul@b+2)& (0+255),b
  5963   0024FA  CFF3 F0BE          	movff	prodl,___flmul@temp
  5964   0024FE  CFF4 F0BF          	movff	prodh,___flmul@temp+1
  5965   002502                     
  5966                           ; BSR set to: 0
  5967   002502  51BE               	movf	___flmul@temp& (0+255),w,b
  5968   002504  27B5               	addwf	___flmul@grs& (0+255),f,b
  5969   002506  0E00               	movlw	0
  5970   002508  23B6               	addwfc	(___flmul@grs+1)& (0+255),f,b
  5971   00250A  23B7               	addwfc	(___flmul@grs+2)& (0+255),f,b
  5972   00250C  23B8               	addwfc	(___flmul@grs+3)& (0+255),f,b
  5973   00250E                     
  5974                           ; BSR set to: 0
  5975   00250E  51BF               	movf	(___flmul@temp+1)& (0+255),w,b
  5976   002510  27BA               	addwf	___flmul@prod& (0+255),f,b
  5977   002512  0E00               	movlw	0
  5978   002514  23BB               	addwfc	(___flmul@prod+1)& (0+255),f,b
  5979   002516  23BC               	addwfc	(___flmul@prod+2)& (0+255),f,b
  5980   002518  23BD               	addwfc	(___flmul@prod+3)& (0+255),f,b
  5981   00251A                     
  5982                           ; BSR set to: 0
  5983   00251A  C0B7  F0B8         	movff	___flmul@grs+2,___flmul@grs+3
  5984   00251E  C0B6  F0B7         	movff	___flmul@grs+1,___flmul@grs+2
  5985   002522  C0B5  F0B6         	movff	___flmul@grs,___flmul@grs+1
  5986   002526  6BB5               	clrf	___flmul@grs& (0+255),b
  5987   002528                     
  5988                           ; BSR set to: 0
  5989   002528  51AB               	movf	___flmul@a& (0+255),w,b
  5990   00252A  03A8               	mulwf	(___flmul@b+1)& (0+255),b
  5991   00252C  CFF3 F0BE          	movff	prodl,___flmul@temp
  5992   002530  CFF4 F0BF          	movff	prodh,___flmul@temp+1
  5993   002534                     
  5994                           ; BSR set to: 0
  5995   002534  51BE               	movf	___flmul@temp& (0+255),w,b
  5996   002536  27B5               	addwf	___flmul@grs& (0+255),f,b
  5997   002538  51BF               	movf	(___flmul@temp+1)& (0+255),w,b
  5998   00253A  23B6               	addwfc	(___flmul@grs+1)& (0+255),f,b
  5999   00253C  0E00               	movlw	0
  6000   00253E  23B7               	addwfc	(___flmul@grs+2)& (0+255),f,b
  6001   002540  0E00               	movlw	0
  6002   002542  23B8               	addwfc	(___flmul@grs+3)& (0+255),f,b
  6003   002544                     
  6004                           ; BSR set to: 0
  6005   002544  51AC               	movf	(___flmul@a+1)& (0+255),w,b
  6006   002546  03A7               	mulwf	___flmul@b& (0+255),b
  6007   002548  CFF3 F0BE          	movff	prodl,___flmul@temp
  6008   00254C  CFF4 F0BF          	movff	prodh,___flmul@temp+1
  6009   002550                     
  6010                           ; BSR set to: 0
  6011   002550  51BE               	movf	___flmul@temp& (0+255),w,b
  6012   002552  27B5               	addwf	___flmul@grs& (0+255),f,b
  6013   002554  51BF               	movf	(___flmul@temp+1)& (0+255),w,b
  6014   002556  23B6               	addwfc	(___flmul@grs+1)& (0+255),f,b
  6015   002558  0E00               	movlw	0
  6016   00255A  23B7               	addwfc	(___flmul@grs+2)& (0+255),f,b
  6017   00255C  0E00               	movlw	0
  6018   00255E  23B8               	addwfc	(___flmul@grs+3)& (0+255),f,b
  6019   002560                     
  6020                           ; BSR set to: 0
  6021   002560  C0B7  F0B8         	movff	___flmul@grs+2,___flmul@grs+3
  6022   002564  C0B6  F0B7         	movff	___flmul@grs+1,___flmul@grs+2
  6023   002568  C0B5  F0B6         	movff	___flmul@grs,___flmul@grs+1
  6024   00256C  6BB5               	clrf	___flmul@grs& (0+255),b
  6025   00256E  51AB               	movf	___flmul@a& (0+255),w,b
  6026   002570  03A7               	mulwf	___flmul@b& (0+255),b
  6027   002572  CFF3 F0BE          	movff	prodl,___flmul@temp
  6028   002576  CFF4 F0BF          	movff	prodh,___flmul@temp+1
  6029   00257A                     
  6030                           ; BSR set to: 0
  6031   00257A  51BE               	movf	___flmul@temp& (0+255),w,b
  6032   00257C  27B5               	addwf	___flmul@grs& (0+255),f,b
  6033   00257E  51BF               	movf	(___flmul@temp+1)& (0+255),w,b
  6034   002580  23B6               	addwfc	(___flmul@grs+1)& (0+255),f,b
  6035   002582  0E00               	movlw	0
  6036   002584  23B7               	addwfc	(___flmul@grs+2)& (0+255),f,b
  6037   002586  0E00               	movlw	0
  6038   002588  23B8               	addwfc	(___flmul@grs+3)& (0+255),f,b
  6039   00258A                     
  6040                           ; BSR set to: 0
  6041   00258A  51AD               	movf	(___flmul@a+2)& (0+255),w,b
  6042   00258C  03A8               	mulwf	(___flmul@b+1)& (0+255),b
  6043   00258E  CFF3 F0BE          	movff	prodl,___flmul@temp
  6044   002592  CFF4 F0BF          	movff	prodh,___flmul@temp+1
  6045   002596  51BE               	movf	___flmul@temp& (0+255),w,b
  6046   002598  27BA               	addwf	___flmul@prod& (0+255),f,b
  6047   00259A  51BF               	movf	(___flmul@temp+1)& (0+255),w,b
  6048   00259C  23BB               	addwfc	(___flmul@prod+1)& (0+255),f,b
  6049   00259E  0E00               	movlw	0
  6050   0025A0  23BC               	addwfc	(___flmul@prod+2)& (0+255),f,b
  6051   0025A2  0E00               	movlw	0
  6052   0025A4  23BD               	addwfc	(___flmul@prod+3)& (0+255),f,b
  6053   0025A6                     
  6054                           ; BSR set to: 0
  6055   0025A6  51AC               	movf	(___flmul@a+1)& (0+255),w,b
  6056   0025A8  03A9               	mulwf	(___flmul@b+2)& (0+255),b
  6057   0025AA  CFF3 F0BE          	movff	prodl,___flmul@temp
  6058   0025AE  CFF4 F0BF          	movff	prodh,___flmul@temp+1
  6059   0025B2                     
  6060                           ; BSR set to: 0
  6061   0025B2  51BE               	movf	___flmul@temp& (0+255),w,b
  6062   0025B4  27BA               	addwf	___flmul@prod& (0+255),f,b
  6063   0025B6  51BF               	movf	(___flmul@temp+1)& (0+255),w,b
  6064   0025B8  23BB               	addwfc	(___flmul@prod+1)& (0+255),f,b
  6065   0025BA  0E00               	movlw	0
  6066   0025BC  23BC               	addwfc	(___flmul@prod+2)& (0+255),f,b
  6067   0025BE  0E00               	movlw	0
  6068   0025C0  23BD               	addwfc	(___flmul@prod+3)& (0+255),f,b
  6069   0025C2  51AD               	movf	(___flmul@a+2)& (0+255),w,b
  6070   0025C4  03A9               	mulwf	(___flmul@b+2)& (0+255),b
  6071   0025C6  CFF3 F0BE          	movff	prodl,___flmul@temp
  6072   0025CA  CFF4 F0BF          	movff	prodh,___flmul@temp+1
  6073   0025CE                     
  6074                           ; BSR set to: 0
  6075   0025CE  51BE               	movf	___flmul@temp& (0+255),w,b
  6076   0025D0  6FAF               	movwf	??___flmul& (0+255),b
  6077   0025D2  51BF               	movf	(___flmul@temp+1)& (0+255),w,b
  6078   0025D4  6FB0               	movwf	(??___flmul+1)& (0+255),b
  6079   0025D6  6BB1               	clrf	(??___flmul+2)& (0+255),b
  6080   0025D8  6BB2               	clrf	(??___flmul+3)& (0+255),b
  6081   0025DA  C0B1  F0B2         	movff	??___flmul+2,??___flmul+3
  6082   0025DE  C0B0  F0B1         	movff	??___flmul+1,??___flmul+2
  6083   0025E2  C0AF  F0B0         	movff	??___flmul,??___flmul+1
  6084   0025E6  6BAF               	clrf	??___flmul& (0+255),b
  6085   0025E8  51AF               	movf	??___flmul& (0+255),w,b
  6086   0025EA  27BA               	addwf	___flmul@prod& (0+255),f,b
  6087   0025EC  51B0               	movf	(??___flmul+1)& (0+255),w,b
  6088   0025EE  23BB               	addwfc	(___flmul@prod+1)& (0+255),f,b
  6089   0025F0  51B1               	movf	(??___flmul+2)& (0+255),w,b
  6090   0025F2  23BC               	addwfc	(___flmul@prod+2)& (0+255),f,b
  6091   0025F4  51B2               	movf	(??___flmul+3)& (0+255),w,b
  6092   0025F6  23BD               	addwfc	(___flmul@prod+3)& (0+255),f,b
  6093   0025F8                     
  6094                           ; BSR set to: 0
  6095   0025F8  C0B5  F0AF         	movff	___flmul@grs,??___flmul
  6096   0025FC  C0B6  F0B0         	movff	___flmul@grs+1,??___flmul+1
  6097   002600  C0B7  F0B1         	movff	___flmul@grs+2,??___flmul+2
  6098   002604  C0B8  F0B2         	movff	___flmul@grs+3,??___flmul+3
  6099   002608  0E19               	movlw	25
  6100   00260A  EF0C  F013         	goto	u8920
  6101   00260E                     u8925:
  6102   00260E  90D8               	bcf	status,0,c
  6103   002610  33B2               	rrcf	(??___flmul+3)& (0+255),f,b
  6104   002612  33B1               	rrcf	(??___flmul+2)& (0+255),f,b
  6105   002614  33B0               	rrcf	(??___flmul+1)& (0+255),f,b
  6106   002616  33AF               	rrcf	??___flmul& (0+255),f,b
  6107   002618                     u8920:
  6108   002618  2EE8               	decfsz	wreg,f,c
  6109   00261A  EF07  F013         	goto	u8925
  6110   00261E  51AF               	movf	??___flmul& (0+255),w,b
  6111   002620  27BA               	addwf	___flmul@prod& (0+255),f,b
  6112   002622  51B0               	movf	(??___flmul+1)& (0+255),w,b
  6113   002624  23BB               	addwfc	(___flmul@prod+1)& (0+255),f,b
  6114   002626  51B1               	movf	(??___flmul+2)& (0+255),w,b
  6115   002628  23BC               	addwfc	(___flmul@prod+2)& (0+255),f,b
  6116   00262A  51B2               	movf	(??___flmul+3)& (0+255),w,b
  6117   00262C  23BD               	addwfc	(___flmul@prod+3)& (0+255),f,b
  6118   00262E                     
  6119                           ; BSR set to: 0
  6120   00262E  C0B7  F0B8         	movff	___flmul@grs+2,___flmul@grs+3
  6121   002632  C0B6  F0B7         	movff	___flmul@grs+1,___flmul@grs+2
  6122   002636  C0B5  F0B6         	movff	___flmul@grs,___flmul@grs+1
  6123   00263A  6BB5               	clrf	___flmul@grs& (0+255),b
  6124   00263C                     
  6125                           ; BSR set to: 0
  6126   00263C  51B4               	movf	___flmul@aexp& (0+255),w,b
  6127   00263E  C0B9  F0AF         	movff	___flmul@bexp,??___flmul
  6128   002642  6BB0               	clrf	(??___flmul+1)& (0+255),b
  6129   002644  27AF               	addwf	??___flmul& (0+255),f,b
  6130   002646  0E00               	movlw	0
  6131   002648  23B0               	addwfc	(??___flmul+1)& (0+255),f,b
  6132   00264A  0E82               	movlw	130
  6133   00264C  25AF               	addwf	??___flmul& (0+255),w,b
  6134   00264E  6FBE               	movwf	___flmul@temp& (0+255),b
  6135   002650  0EFF               	movlw	255
  6136   002652  21B0               	addwfc	(??___flmul+1)& (0+255),w,b
  6137   002654  6FBF               	movwf	(___flmul@temp+1)& (0+255),b
  6138   002656  EF42  F013         	goto	l6432
  6139   00265A                     l6426:
  6140                           
  6141                           ; BSR set to: 0
  6142   00265A  90D8               	bcf	status,0,c
  6143   00265C  37BA               	rlcf	___flmul@prod& (0+255),f,b
  6144   00265E  37BB               	rlcf	(___flmul@prod+1)& (0+255),f,b
  6145   002660  37BC               	rlcf	(___flmul@prod+2)& (0+255),f,b
  6146   002662  37BD               	rlcf	(___flmul@prod+3)& (0+255),f,b
  6147   002664                     
  6148                           ; BSR set to: 0
  6149   002664  AFB8               	btfss	(___flmul@grs+3)& (0+255),7,b
  6150   002666  EF37  F013         	goto	u8931
  6151   00266A  EF39  F013         	goto	u8930
  6152   00266E                     u8931:
  6153   00266E  EF3A  F013         	goto	l885
  6154   002672                     u8930:
  6155   002672                     
  6156                           ; BSR set to: 0
  6157   002672  81BA               	bsf	___flmul@prod& (0+255),0,b
  6158   002674                     l885:
  6159                           
  6160                           ; BSR set to: 0
  6161   002674  90D8               	bcf	status,0,c
  6162   002676  37B5               	rlcf	___flmul@grs& (0+255),f,b
  6163   002678  37B6               	rlcf	(___flmul@grs+1)& (0+255),f,b
  6164   00267A  37B7               	rlcf	(___flmul@grs+2)& (0+255),f,b
  6165   00267C  37B8               	rlcf	(___flmul@grs+3)& (0+255),f,b
  6166   00267E  07BE               	decf	___flmul@temp& (0+255),f,b
  6167   002680  A0D8               	btfss	status,0,c
  6168   002682  07BF               	decf	(___flmul@temp+1)& (0+255),f,b
  6169   002684                     l6432:
  6170                           
  6171                           ; BSR set to: 0
  6172   002684  AFBC               	btfss	(___flmul@prod+2)& (0+255),7,b
  6173   002686  EF47  F013         	goto	u8941
  6174   00268A  EF49  F013         	goto	u8940
  6175   00268E                     u8941:
  6176   00268E  EF2D  F013         	goto	l6426
  6177   002692                     u8940:
  6178   002692                     
  6179                           ; BSR set to: 0
  6180   002692  6BB4               	clrf	___flmul@aexp& (0+255),b
  6181   002694  AFB8               	btfss	(___flmul@grs+3)& (0+255),7,b
  6182   002696  EF4F  F013         	goto	u8951
  6183   00269A  EF51  F013         	goto	u8950
  6184   00269E                     u8951:
  6185   00269E  EF75  F013         	goto	l887
  6186   0026A2                     u8950:
  6187   0026A2                     
  6188                           ; BSR set to: 0
  6189   0026A2  0EFF               	movlw	255
  6190   0026A4  15B5               	andwf	___flmul@grs& (0+255),w,b
  6191   0026A6  6FAF               	movwf	??___flmul& (0+255),b
  6192   0026A8  0EFF               	movlw	255
  6193   0026AA  15B6               	andwf	(___flmul@grs+1)& (0+255),w,b
  6194   0026AC  6FB0               	movwf	(??___flmul+1)& (0+255),b
  6195   0026AE  0EFF               	movlw	255
  6196   0026B0  15B7               	andwf	(___flmul@grs+2)& (0+255),w,b
  6197   0026B2  6FB1               	movwf	(??___flmul+2)& (0+255),b
  6198   0026B4  0E7F               	movlw	127
  6199   0026B6  15B8               	andwf	(___flmul@grs+3)& (0+255),w,b
  6200   0026B8  6FB2               	movwf	(??___flmul+3)& (0+255),b
  6201   0026BA  51AF               	movf	??___flmul& (0+255),w,b
  6202   0026BC  11B0               	iorwf	(??___flmul+1)& (0+255),w,b
  6203   0026BE  11B1               	iorwf	(??___flmul+2)& (0+255),w,b
  6204   0026C0  11B2               	iorwf	(??___flmul+3)& (0+255),w,b
  6205   0026C2  B4D8               	btfsc	status,2,c
  6206   0026C4  EF66  F013         	goto	u8961
  6207   0026C8  EF68  F013         	goto	u8960
  6208   0026CC                     u8961:
  6209   0026CC  EF6C  F013         	goto	l888
  6210   0026D0                     u8960:
  6211   0026D0                     l6436:
  6212                           
  6213                           ; BSR set to: 0
  6214   0026D0  0E01               	movlw	1
  6215   0026D2  6FB4               	movwf	___flmul@aexp& (0+255),b
  6216   0026D4  EF75  F013         	goto	l887
  6217   0026D8                     l888:
  6218                           
  6219                           ; BSR set to: 0
  6220   0026D8  A1BA               	btfss	___flmul@prod& (0+255),0,b
  6221   0026DA  EF71  F013         	goto	u8971
  6222   0026DE  EF73  F013         	goto	u8970
  6223   0026E2                     u8971:
  6224   0026E2  EF75  F013         	goto	l887
  6225   0026E6                     u8970:
  6226   0026E6  EF68  F013         	goto	l6436
  6227   0026EA                     l887:
  6228                           
  6229                           ; BSR set to: 0
  6230   0026EA  51B4               	movf	___flmul@aexp& (0+255),w,b
  6231   0026EC  B4D8               	btfsc	status,2,c
  6232   0026EE  EF7B  F013         	goto	u8981
  6233   0026F2  EF7D  F013         	goto	u8980
  6234   0026F6                     u8981:
  6235   0026F6  EFA1  F013         	goto	l6448
  6236   0026FA                     u8980:
  6237   0026FA                     
  6238                           ; BSR set to: 0
  6239   0026FA  0E01               	movlw	1
  6240   0026FC  27BA               	addwf	___flmul@prod& (0+255),f,b
  6241   0026FE  0E00               	movlw	0
  6242   002700  23BB               	addwfc	(___flmul@prod+1)& (0+255),f,b
  6243   002702  23BC               	addwfc	(___flmul@prod+2)& (0+255),f,b
  6244   002704  23BD               	addwfc	(___flmul@prod+3)& (0+255),f,b
  6245   002706                     
  6246                           ; BSR set to: 0
  6247   002706  A1BD               	btfss	(___flmul@prod+3)& (0+255),0,b
  6248   002708  EF88  F013         	goto	u8991
  6249   00270C  EF8A  F013         	goto	u8990
  6250   002710                     u8991:
  6251   002710  EFA1  F013         	goto	l6448
  6252   002714                     u8990:
  6253   002714                     
  6254                           ; BSR set to: 0
  6255   002714  C0BA  F0AF         	movff	___flmul@prod,??___flmul
  6256   002718  C0BB  F0B0         	movff	___flmul@prod+1,??___flmul+1
  6257   00271C  C0BC  F0B1         	movff	___flmul@prod+2,??___flmul+2
  6258   002720  C0BD  F0B2         	movff	___flmul@prod+3,??___flmul+3
  6259   002724  35B2               	rlcf	(??___flmul+3)& (0+255),w,b
  6260   002726  33B2               	rrcf	(??___flmul+3)& (0+255),f,b
  6261   002728  33B1               	rrcf	(??___flmul+2)& (0+255),f,b
  6262   00272A  33B0               	rrcf	(??___flmul+1)& (0+255),f,b
  6263   00272C  33AF               	rrcf	??___flmul& (0+255),f,b
  6264   00272E  C0AF  F0BA         	movff	??___flmul,___flmul@prod
  6265   002732  C0B0  F0BB         	movff	??___flmul+1,___flmul@prod+1
  6266   002736  C0B1  F0BC         	movff	??___flmul+2,___flmul@prod+2
  6267   00273A  C0B2  F0BD         	movff	??___flmul+3,___flmul@prod+3
  6268   00273E                     
  6269                           ; BSR set to: 0
  6270   00273E  4BBE               	infsnz	___flmul@temp& (0+255),f,b
  6271   002740  2BBF               	incf	(___flmul@temp+1)& (0+255),f,b
  6272   002742                     l6448:
  6273                           
  6274                           ; BSR set to: 0
  6275   002742  BFBF               	btfsc	(___flmul@temp+1)& (0+255),7,b
  6276   002744  EFAC  F013         	goto	u9001
  6277   002748  51BF               	movf	(___flmul@temp+1)& (0+255),w,b
  6278   00274A  E108               	bnz	u9000
  6279   00274C  29BE               	incf	___flmul@temp& (0+255),w,b
  6280   00274E  A0D8               	btfss	status,0,c
  6281   002750  EFAC  F013         	goto	u9001
  6282   002754  EFAE  F013         	goto	u9000
  6283   002758                     u9001:
  6284   002758  EFB8  F013         	goto	l6452
  6285   00275C                     u9000:
  6286   00275C                     
  6287                           ; BSR set to: 0
  6288   00275C  0E00               	movlw	0
  6289   00275E  6FBA               	movwf	___flmul@prod& (0+255),b
  6290   002760  0E00               	movlw	0
  6291   002762  6FBB               	movwf	(___flmul@prod+1)& (0+255),b
  6292   002764  0E80               	movlw	128
  6293   002766  6FBC               	movwf	(___flmul@prod+2)& (0+255),b
  6294   002768  0E7F               	movlw	127
  6295   00276A  6FBD               	movwf	(___flmul@prod+3)& (0+255),b
  6296   00276C  EFE5  F013         	goto	l6466
  6297   002770                     l6452:
  6298                           
  6299                           ; BSR set to: 0
  6300   002770  BFBF               	btfsc	(___flmul@temp+1)& (0+255),7,b
  6301   002772  EFC5  F013         	goto	u9010
  6302   002776  51BF               	movf	(___flmul@temp+1)& (0+255),w,b
  6303   002778  E106               	bnz	u9011
  6304   00277A  05BE               	decf	___flmul@temp& (0+255),w,b
  6305   00277C  B0D8               	btfsc	status,0,c
  6306   00277E  EFC3  F013         	goto	u9011
  6307   002782  EFC5  F013         	goto	u9010
  6308   002786                     u9011:
  6309   002786  EFD0  F013         	goto	l895
  6310   00278A                     u9010:
  6311   00278A                     
  6312                           ; BSR set to: 0
  6313   00278A  0E00               	movlw	0
  6314   00278C  6FBA               	movwf	___flmul@prod& (0+255),b
  6315   00278E  0E00               	movlw	0
  6316   002790  6FBB               	movwf	(___flmul@prod+1)& (0+255),b
  6317   002792  0E00               	movlw	0
  6318   002794  6FBC               	movwf	(___flmul@prod+2)& (0+255),b
  6319   002796  0E00               	movlw	0
  6320   002798  6FBD               	movwf	(___flmul@prod+3)& (0+255),b
  6321   00279A                     
  6322                           ; BSR set to: 0
  6323   00279A  6BB3               	clrf	___flmul@sign& (0+255),b
  6324   00279C  EFE5  F013         	goto	l6466
  6325   0027A0                     l895:
  6326                           
  6327                           ; BSR set to: 0
  6328   0027A0  C0BE  F0B9         	movff	___flmul@temp,___flmul@bexp
  6329   0027A4                     
  6330                           ; BSR set to: 0
  6331   0027A4  0EFF               	movlw	255
  6332   0027A6  17BA               	andwf	___flmul@prod& (0+255),f,b
  6333   0027A8  0EFF               	movlw	255
  6334   0027AA  17BB               	andwf	(___flmul@prod+1)& (0+255),f,b
  6335   0027AC  0E7F               	movlw	127
  6336   0027AE  17BC               	andwf	(___flmul@prod+2)& (0+255),f,b
  6337   0027B0  0E00               	movlw	0
  6338   0027B2  17BD               	andwf	(___flmul@prod+3)& (0+255),f,b
  6339   0027B4                     
  6340                           ; BSR set to: 0
  6341   0027B4  A1B9               	btfss	___flmul@bexp& (0+255),0,b
  6342   0027B6  EFDF  F013         	goto	u9021
  6343   0027BA  EFE1  F013         	goto	u9020
  6344   0027BE                     u9021:
  6345   0027BE  EFE2  F013         	goto	l6464
  6346   0027C2                     u9020:
  6347   0027C2                     
  6348                           ; BSR set to: 0
  6349   0027C2  8FBC               	bsf	(___flmul@prod+2)& (0+255),7,b
  6350   0027C4                     l6464:
  6351                           
  6352                           ; BSR set to: 0
  6353   0027C4  90D8               	bcf	status,0,c
  6354   0027C6  31B9               	rrcf	___flmul@bexp& (0+255),w,b
  6355   0027C8  6FBD               	movwf	(___flmul@prod+3)& (0+255),b
  6356   0027CA                     l6466:
  6357                           
  6358                           ; BSR set to: 0
  6359   0027CA  51B3               	movf	___flmul@sign& (0+255),w,b
  6360   0027CC  13BD               	iorwf	(___flmul@prod+3)& (0+255),f,b
  6361   0027CE                     
  6362                           ; BSR set to: 0
  6363   0027CE  C0BA  F0A7         	movff	___flmul@prod,?___flmul
  6364   0027D2  C0BB  F0A8         	movff	___flmul@prod+1,?___flmul+1
  6365   0027D6  C0BC  F0A9         	movff	___flmul@prod+2,?___flmul+2
  6366   0027DA  C0BD  F0AA         	movff	___flmul@prod+3,?___flmul+3
  6367   0027DE                     l882:
  6368                           
  6369                           ; BSR set to: 0
  6370   0027DE  0012               	return		;funcret
  6371   0027E0                     __end_of___flmul:
  6372                           	callstack 0
  6373                           
  6374 ;; *************** function ___flge *****************
  6375 ;; Defined at:
  6376 ;;		line 4 in file "C:\Program Files\Microchip\xc8\v3.00\pic\sources\c99\common\flge.c"
  6377 ;; Parameters:    Size  Location     Type
  6378 ;;  ff1             4    0[BANK1 ] unsigned char 
  6379 ;;  ff2             4    4[BANK1 ] unsigned char 
  6380 ;; Auto vars:     Size  Location     Type
  6381 ;;		None
  6382 ;; Return value:  Size  Location     Type
  6383 ;;		None               void
  6384 ;; Registers used:
  6385 ;;		wreg, status,2, status,0
  6386 ;; Tracked objects:
  6387 ;;		On entry : 0/0
  6388 ;;		On exit  : 0/0
  6389 ;;		Unchanged: 0/0
  6390 ;; Data sizes:     COMRAM   BANK0   BANK1   BANK2   BANK3   BANK4   BANK5
  6391 ;;      Params:         0       0       8       0       0       0       0
  6392 ;;      Locals:         0       0       0       0       0       0       0
  6393 ;;      Temps:          0       4       0       0       0       0       0
  6394 ;;      Totals:         0       4       8       0       0       0       0
  6395 ;;Total ram usage:       12 bytes
  6396 ;; Hardware stack levels used: 1
  6397 ;; Hardware stack levels required when called: 14
  6398 ;; This function calls:
  6399 ;;		Nothing
  6400 ;; This function is called by:
  6401 ;;		_efgtoa
  6402 ;;		_delay
  6403 ;; This function uses a non-reentrant model
  6404 ;;
  6405                           
  6406                           	psect	text20
  6407   003E20                     __ptext20:
  6408                           	callstack 0
  6409   003E20                     ___flge:
  6410                           	callstack 11
  6411   003E20  0E00               	movlw	0
  6412   003E22  0101               	movlb	1	; () banked
  6413   003E24  1500               	andwf	___flge@ff1& (0+255),w,b
  6414   003E26  0100               	movlb	0	; () banked
  6415   003E28  6FC0               	movwf	??___flge& (0+255),b
  6416   003E2A  0E00               	movlw	0
  6417   003E2C  0101               	movlb	1	; () banked
  6418   003E2E  1501               	andwf	(___flge@ff1+1)& (0+255),w,b
  6419   003E30  0100               	movlb	0	; () banked
  6420   003E32  6FC1               	movwf	(??___flge+1)& (0+255),b
  6421   003E34  0E80               	movlw	128
  6422   003E36  0101               	movlb	1	; () banked
  6423   003E38  1502               	andwf	(___flge@ff1+2)& (0+255),w,b
  6424   003E3A  0100               	movlb	0	; () banked
  6425   003E3C  6FC2               	movwf	(??___flge+2)& (0+255),b
  6426   003E3E  0E7F               	movlw	127
  6427   003E40  0101               	movlb	1	; () banked
  6428   003E42  1503               	andwf	(___flge@ff1+3)& (0+255),w,b
  6429   003E44  0100               	movlb	0	; () banked
  6430   003E46  6FC3               	movwf	(??___flge+3)& (0+255),b
  6431   003E48  51C0               	movf	??___flge& (0+255),w,b
  6432   003E4A  11C1               	iorwf	(??___flge+1)& (0+255),w,b
  6433   003E4C  11C2               	iorwf	(??___flge+2)& (0+255),w,b
  6434   003E4E  11C3               	iorwf	(??___flge+3)& (0+255),w,b
  6435   003E50  A4D8               	btfss	status,2,c
  6436   003E52  EF2D  F01F         	goto	u11701
  6437   003E56  EF2F  F01F         	goto	u11700
  6438   003E5A                     u11701:
  6439   003E5A  EF38  F01F         	goto	l8182
  6440   003E5E                     u11700:
  6441   003E5E                     
  6442                           ; BSR set to: 0
  6443   003E5E  0E00               	movlw	0
  6444   003E60  0101               	movlb	1	; () banked
  6445   003E62  6F00               	movwf	___flge@ff1& (0+255),b
  6446   003E64  0E00               	movlw	0
  6447   003E66  6F01               	movwf	(___flge@ff1+1)& (0+255),b
  6448   003E68  0E00               	movlw	0
  6449   003E6A  6F02               	movwf	(___flge@ff1+2)& (0+255),b
  6450   003E6C  0E00               	movlw	0
  6451   003E6E  6F03               	movwf	(___flge@ff1+3)& (0+255),b
  6452   003E70                     l8182:
  6453   003E70  0E00               	movlw	0
  6454   003E72  0101               	movlb	1	; () banked
  6455   003E74  1504               	andwf	___flge@ff2& (0+255),w,b
  6456   003E76  0100               	movlb	0	; () banked
  6457   003E78  6FC0               	movwf	??___flge& (0+255),b
  6458   003E7A  0E00               	movlw	0
  6459   003E7C  0101               	movlb	1	; () banked
  6460   003E7E  1505               	andwf	(___flge@ff2+1)& (0+255),w,b
  6461   003E80  0100               	movlb	0	; () banked
  6462   003E82  6FC1               	movwf	(??___flge+1)& (0+255),b
  6463   003E84  0E80               	movlw	128
  6464   003E86  0101               	movlb	1	; () banked
  6465   003E88  1506               	andwf	(___flge@ff2+2)& (0+255),w,b
  6466   003E8A  0100               	movlb	0	; () banked
  6467   003E8C  6FC2               	movwf	(??___flge+2)& (0+255),b
  6468   003E8E  0E7F               	movlw	127
  6469   003E90  0101               	movlb	1	; () banked
  6470   003E92  1507               	andwf	(___flge@ff2+3)& (0+255),w,b
  6471   003E94  0100               	movlb	0	; () banked
  6472   003E96  6FC3               	movwf	(??___flge+3)& (0+255),b
  6473   003E98  51C0               	movf	??___flge& (0+255),w,b
  6474   003E9A  11C1               	iorwf	(??___flge+1)& (0+255),w,b
  6475   003E9C  11C2               	iorwf	(??___flge+2)& (0+255),w,b
  6476   003E9E  11C3               	iorwf	(??___flge+3)& (0+255),w,b
  6477   003EA0  A4D8               	btfss	status,2,c
  6478   003EA2  EF55  F01F         	goto	u11711
  6479   003EA6  EF57  F01F         	goto	u11710
  6480   003EAA                     u11711:
  6481   003EAA  EF60  F01F         	goto	l8186
  6482   003EAE                     u11710:
  6483   003EAE                     
  6484                           ; BSR set to: 0
  6485   003EAE  0E00               	movlw	0
  6486   003EB0  0101               	movlb	1	; () banked
  6487   003EB2  6F04               	movwf	___flge@ff2& (0+255),b
  6488   003EB4  0E00               	movlw	0
  6489   003EB6  6F05               	movwf	(___flge@ff2+1)& (0+255),b
  6490   003EB8  0E00               	movlw	0
  6491   003EBA  6F06               	movwf	(___flge@ff2+2)& (0+255),b
  6492   003EBC  0E00               	movlw	0
  6493   003EBE  6F07               	movwf	(___flge@ff2+3)& (0+255),b
  6494   003EC0                     l8186:
  6495   003EC0  0101               	movlb	1	; () banked
  6496   003EC2  AF03               	btfss	(___flge@ff1+3)& (0+255),7,b
  6497   003EC4  EF66  F01F         	goto	u11721
  6498   003EC8  EF68  F01F         	goto	u11720
  6499   003ECC                     u11721:
  6500   003ECC  EF71  F01F         	goto	l8190
  6501   003ED0                     u11720:
  6502   003ED0                     
  6503                           ; BSR set to: 1
  6504   003ED0  6D00               	negf	___flge@ff1& (0+255),b
  6505   003ED2  1F01               	comf	(___flge@ff1+1)& (0+255),f,b
  6506   003ED4  B0D8               	btfsc	status,0,c
  6507   003ED6  2B01               	incf	(___flge@ff1+1)& (0+255),f,b
  6508   003ED8  1F02               	comf	(___flge@ff1+2)& (0+255),f,b
  6509   003EDA  B0D8               	btfsc	status,0,c
  6510   003EDC  2B02               	incf	(___flge@ff1+2)& (0+255),f,b
  6511   003EDE  0E80               	movlw	128
  6512   003EE0  5703               	subfwb	(___flge@ff1+3)& (0+255),f,b
  6513   003EE2                     l8190:
  6514                           
  6515                           ; BSR set to: 1
  6516   003EE2  AF07               	btfss	(___flge@ff2+3)& (0+255),7,b
  6517   003EE4  EF76  F01F         	goto	u11731
  6518   003EE8  EF78  F01F         	goto	u11730
  6519   003EEC                     u11731:
  6520   003EEC  EF81  F01F         	goto	l529
  6521   003EF0                     u11730:
  6522   003EF0                     
  6523                           ; BSR set to: 1
  6524   003EF0  6D04               	negf	___flge@ff2& (0+255),b
  6525   003EF2  1F05               	comf	(___flge@ff2+1)& (0+255),f,b
  6526   003EF4  B0D8               	btfsc	status,0,c
  6527   003EF6  2B05               	incf	(___flge@ff2+1)& (0+255),f,b
  6528   003EF8  1F06               	comf	(___flge@ff2+2)& (0+255),f,b
  6529   003EFA  B0D8               	btfsc	status,0,c
  6530   003EFC  2B06               	incf	(___flge@ff2+2)& (0+255),f,b
  6531   003EFE  0E80               	movlw	128
  6532   003F00  5707               	subfwb	(___flge@ff2+3)& (0+255),f,b
  6533   003F02                     l529:
  6534                           
  6535                           ; BSR set to: 1
  6536   003F02  0E00               	movlw	0
  6537   003F04  1B00               	xorwf	___flge@ff1& (0+255),f,b
  6538   003F06  0E00               	movlw	0
  6539   003F08  1B01               	xorwf	(___flge@ff1+1)& (0+255),f,b
  6540   003F0A  0E00               	movlw	0
  6541   003F0C  1B02               	xorwf	(___flge@ff1+2)& (0+255),f,b
  6542   003F0E  0E80               	movlw	128
  6543   003F10  1B03               	xorwf	(___flge@ff1+3)& (0+255),f,b
  6544   003F12  0E00               	movlw	0
  6545   003F14  1B04               	xorwf	___flge@ff2& (0+255),f,b
  6546   003F16  0E00               	movlw	0
  6547   003F18  1B05               	xorwf	(___flge@ff2+1)& (0+255),f,b
  6548   003F1A  0E00               	movlw	0
  6549   003F1C  1B06               	xorwf	(___flge@ff2+2)& (0+255),f,b
  6550   003F1E  0E80               	movlw	128
  6551   003F20  1B07               	xorwf	(___flge@ff2+3)& (0+255),f,b
  6552   003F22  5104               	movf	___flge@ff2& (0+255),w,b
  6553   003F24  5D00               	subwf	___flge@ff1& (0+255),w,b
  6554   003F26  5105               	movf	(___flge@ff2+1)& (0+255),w,b
  6555   003F28  5901               	subwfb	(___flge@ff1+1)& (0+255),w,b
  6556   003F2A  5106               	movf	(___flge@ff2+2)& (0+255),w,b
  6557   003F2C  5902               	subwfb	(___flge@ff1+2)& (0+255),w,b
  6558   003F2E  5107               	movf	(___flge@ff2+3)& (0+255),w,b
  6559   003F30  5903               	subwfb	(___flge@ff1+3)& (0+255),w,b
  6560   003F32  B0D8               	btfsc	status,0,c
  6561   003F34  EF9E  F01F         	goto	u11741
  6562   003F38  EFA0  F01F         	goto	u11740
  6563   003F3C                     u11741:
  6564   003F3C  EFA3  F01F         	goto	l8196
  6565   003F40                     u11740:
  6566   003F40                     
  6567                           ; BSR set to: 1
  6568   003F40  90D8               	bcf	status,0,c
  6569   003F42  EFA4  F01F         	goto	l534
  6570   003F46                     l8196:
  6571                           
  6572                           ; BSR set to: 1
  6573   003F46  80D8               	bsf	status,0,c
  6574   003F48                     l534:
  6575                           
  6576                           ; BSR set to: 1
  6577   003F48  0012               	return		;funcret
  6578   003F4A                     __end_of___flge:
  6579                           	callstack 0
  6580                           
  6581 ;; *************** function ___fleq *****************
  6582 ;; Defined at:
  6583 ;;		line 4 in file "C:\Program Files\Microchip\xc8\v3.00\pic\sources\c99\common\fleq.c"
  6584 ;; Parameters:    Size  Location     Type
  6585 ;;  ff1             4   39[BANK0 ] unsigned char 
  6586 ;;  ff2             4   43[BANK0 ] unsigned char 
  6587 ;; Auto vars:     Size  Location     Type
  6588 ;;		None
  6589 ;; Return value:  Size  Location     Type
  6590 ;;		None               void
  6591 ;; Registers used:
  6592 ;;		wreg, status,2, status,0
  6593 ;; Tracked objects:
  6594 ;;		On entry : 0/0
  6595 ;;		On exit  : 0/0
  6596 ;;		Unchanged: 0/0
  6597 ;; Data sizes:     COMRAM   BANK0   BANK1   BANK2   BANK3   BANK4   BANK5
  6598 ;;      Params:         0       8       0       0       0       0       0
  6599 ;;      Locals:         0       0       0       0       0       0       0
  6600 ;;      Temps:          0       4       0       0       0       0       0
  6601 ;;      Totals:         0      12       0       0       0       0       0
  6602 ;;Total ram usage:       12 bytes
  6603 ;; Hardware stack levels used: 1
  6604 ;; Hardware stack levels required when called: 14
  6605 ;; This function calls:
  6606 ;;		Nothing
  6607 ;; This function is called by:
  6608 ;;		_efgtoa
  6609 ;; This function uses a non-reentrant model
  6610 ;;
  6611                           
  6612                           	psect	text21
  6613   00470E                     __ptext21:
  6614                           	callstack 0
  6615   00470E                     ___fleq:
  6616                           	callstack 11
  6617   00470E  0E00               	movlw	0
  6618   004710  0100               	movlb	0	; () banked
  6619   004712  15A7               	andwf	___fleq@ff1& (0+255),w,b
  6620   004714  6FAF               	movwf	??___fleq& (0+255),b
  6621   004716  0E00               	movlw	0
  6622   004718  15A8               	andwf	(___fleq@ff1+1)& (0+255),w,b
  6623   00471A  6FB0               	movwf	(??___fleq+1)& (0+255),b
  6624   00471C  0E80               	movlw	128
  6625   00471E  15A9               	andwf	(___fleq@ff1+2)& (0+255),w,b
  6626   004720  6FB1               	movwf	(??___fleq+2)& (0+255),b
  6627   004722  0E7F               	movlw	127
  6628   004724  15AA               	andwf	(___fleq@ff1+3)& (0+255),w,b
  6629   004726  6FB2               	movwf	(??___fleq+3)& (0+255),b
  6630   004728  51AF               	movf	??___fleq& (0+255),w,b
  6631   00472A  11B0               	iorwf	(??___fleq+1)& (0+255),w,b
  6632   00472C  11B1               	iorwf	(??___fleq+2)& (0+255),w,b
  6633   00472E  11B2               	iorwf	(??___fleq+3)& (0+255),w,b
  6634   004730  A4D8               	btfss	status,2,c
  6635   004732  EF9D  F023         	goto	u9031
  6636   004736  EF9F  F023         	goto	u9030
  6637   00473A                     u9031:
  6638   00473A  EFA7  F023         	goto	l6482
  6639   00473E                     u9030:
  6640   00473E                     
  6641                           ; BSR set to: 0
  6642   00473E  0E00               	movlw	0
  6643   004740  6FA7               	movwf	___fleq@ff1& (0+255),b
  6644   004742  0E00               	movlw	0
  6645   004744  6FA8               	movwf	(___fleq@ff1+1)& (0+255),b
  6646   004746  0E00               	movlw	0
  6647   004748  6FA9               	movwf	(___fleq@ff1+2)& (0+255),b
  6648   00474A  0E00               	movlw	0
  6649   00474C  6FAA               	movwf	(___fleq@ff1+3)& (0+255),b
  6650   00474E                     l6482:
  6651                           
  6652                           ; BSR set to: 0
  6653   00474E  0E00               	movlw	0
  6654   004750  15AB               	andwf	___fleq@ff2& (0+255),w,b
  6655   004752  6FAF               	movwf	??___fleq& (0+255),b
  6656   004754  0E00               	movlw	0
  6657   004756  15AC               	andwf	(___fleq@ff2+1)& (0+255),w,b
  6658   004758  6FB0               	movwf	(??___fleq+1)& (0+255),b
  6659   00475A  0E80               	movlw	128
  6660   00475C  15AD               	andwf	(___fleq@ff2+2)& (0+255),w,b
  6661   00475E  6FB1               	movwf	(??___fleq+2)& (0+255),b
  6662   004760  0E7F               	movlw	127
  6663   004762  15AE               	andwf	(___fleq@ff2+3)& (0+255),w,b
  6664   004764  6FB2               	movwf	(??___fleq+3)& (0+255),b
  6665   004766  51AF               	movf	??___fleq& (0+255),w,b
  6666   004768  11B0               	iorwf	(??___fleq+1)& (0+255),w,b
  6667   00476A  11B1               	iorwf	(??___fleq+2)& (0+255),w,b
  6668   00476C  11B2               	iorwf	(??___fleq+3)& (0+255),w,b
  6669   00476E  A4D8               	btfss	status,2,c
  6670   004770  EFBC  F023         	goto	u9041
  6671   004774  EFBE  F023         	goto	u9040
  6672   004778                     u9041:
  6673   004778  EFC6  F023         	goto	l6486
  6674   00477C                     u9040:
  6675   00477C                     
  6676                           ; BSR set to: 0
  6677   00477C  0E00               	movlw	0
  6678   00477E  6FAB               	movwf	___fleq@ff2& (0+255),b
  6679   004780  0E00               	movlw	0
  6680   004782  6FAC               	movwf	(___fleq@ff2+1)& (0+255),b
  6681   004784  0E00               	movlw	0
  6682   004786  6FAD               	movwf	(___fleq@ff2+2)& (0+255),b
  6683   004788  0E00               	movlw	0
  6684   00478A  6FAE               	movwf	(___fleq@ff2+3)& (0+255),b
  6685   00478C                     l6486:
  6686                           
  6687                           ; BSR set to: 0
  6688   00478C  51AB               	movf	___fleq@ff2& (0+255),w,b
  6689   00478E  19A7               	xorwf	___fleq@ff1& (0+255),w,b
  6690   004790  E10F               	bnz	u9050
  6691   004792  51AC               	movf	(___fleq@ff2+1)& (0+255),w,b
  6692   004794  19A8               	xorwf	(___fleq@ff1+1)& (0+255),w,b
  6693   004796  E10C               	bnz	u9050
  6694   004798  51AD               	movf	(___fleq@ff2+2)& (0+255),w,b
  6695   00479A  19A9               	xorwf	(___fleq@ff1+2)& (0+255),w,b
  6696   00479C  E109               	bnz	u9050
  6697   00479E  51AE               	movf	(___fleq@ff2+3)& (0+255),w,b
  6698   0047A0  19AA               	xorwf	(___fleq@ff1+3)& (0+255),w,b
  6699   0047A2  B4D8               	btfsc	status,2,c
  6700   0047A4  EFD6  F023         	goto	u9051
  6701   0047A8  EFD8  F023         	goto	u9050
  6702   0047AC                     u9051:
  6703   0047AC  EFDB  F023         	goto	l6490
  6704   0047B0                     u9050:
  6705   0047B0                     
  6706                           ; BSR set to: 0
  6707   0047B0  90D8               	bcf	status,0,c
  6708   0047B2  EFDC  F023         	goto	l523
  6709   0047B6                     l6490:
  6710                           
  6711                           ; BSR set to: 0
  6712   0047B6  80D8               	bsf	status,0,c
  6713   0047B8                     l523:
  6714                           
  6715                           ; BSR set to: 0
  6716   0047B8  0012               	return		;funcret
  6717   0047BA                     __end_of___fleq:
  6718                           	callstack 0
  6719                           
  6720 ;; *************** function ___fldiv *****************
  6721 ;; Defined at:
  6722 ;;		line 11 in file "C:\Program Files\Microchip\xc8\v3.00\pic\sources\c99\common\sprcdiv.c"
  6723 ;; Parameters:    Size  Location     Type
  6724 ;;  b               4   39[BANK0 ] unsigned char 
  6725 ;;  a               4   43[BANK0 ] unsigned char 
  6726 ;; Auto vars:     Size  Location     Type
  6727 ;;  grs             4   58[BANK0 ] unsigned long 
  6728 ;;  rem             4   51[BANK0 ] unsigned long 
  6729 ;;  new_exp         2   56[BANK0 ] short 
  6730 ;;  aexp            1   63[BANK0 ] unsigned char 
  6731 ;;  bexp            1   62[BANK0 ] unsigned char 
  6732 ;;  sign            1   55[BANK0 ] unsigned char 
  6733 ;; Return value:  Size  Location     Type
  6734 ;;                  4   39[BANK0 ] unsigned char 
  6735 ;; Registers used:
  6736 ;;		wreg, status,2, status,0
  6737 ;; Tracked objects:
  6738 ;;		On entry : 0/0
  6739 ;;		On exit  : 0/0
  6740 ;;		Unchanged: 0/0
  6741 ;; Data sizes:     COMRAM   BANK0   BANK1   BANK2   BANK3   BANK4   BANK5
  6742 ;;      Params:         0       8       0       0       0       0       0
  6743 ;;      Locals:         0      13       0       0       0       0       0
  6744 ;;      Temps:          0       4       0       0       0       0       0
  6745 ;;      Totals:         0      25       0       0       0       0       0
  6746 ;;Total ram usage:       25 bytes
  6747 ;; Hardware stack levels used: 1
  6748 ;; Hardware stack levels required when called: 14
  6749 ;; This function calls:
  6750 ;;		Nothing
  6751 ;; This function is called by:
  6752 ;;		_keyboard_input
  6753 ;;		_efgtoa
  6754 ;;		_set_servo_angle
  6755 ;;		_VR_value_to_servo_angle
  6756 ;;		_delay
  6757 ;; This function uses a non-reentrant model
  6758 ;;
  6759                           
  6760                           	psect	text22
  6761   002C06                     __ptext22:
  6762                           	callstack 0
  6763   002C06                     ___fldiv:
  6764                           	callstack 11
  6765   002C06  0100               	movlb	0	; () banked
  6766   002C08  51AA               	movf	(___fldiv@b+3)& (0+255),w,b
  6767   002C0A  0B80               	andlw	128
  6768   002C0C  6FB7               	movwf	___fldiv@sign& (0+255),b
  6769   002C0E  51AA               	movf	(___fldiv@b+3)& (0+255),w,b
  6770   002C10  25AA               	addwf	(___fldiv@b+3)& (0+255),w,b
  6771   002C12  6FBE               	movwf	___fldiv@bexp& (0+255),b
  6772   002C14                     
  6773                           ; BSR set to: 0
  6774   002C14  AFA9               	btfss	(___fldiv@b+2)& (0+255),7,b
  6775   002C16  EF0F  F016         	goto	u8611
  6776   002C1A  EF11  F016         	goto	u8610
  6777   002C1E                     u8611:
  6778   002C1E  EF12  F016         	goto	l6214
  6779   002C22                     u8610:
  6780   002C22                     
  6781                           ; BSR set to: 0
  6782   002C22  81BE               	bsf	___fldiv@bexp& (0+255),0,b
  6783   002C24                     l6214:
  6784                           
  6785                           ; BSR set to: 0
  6786   002C24  51BE               	movf	___fldiv@bexp& (0+255),w,b
  6787   002C26  B4D8               	btfsc	status,2,c
  6788   002C28  EF18  F016         	goto	u8621
  6789   002C2C  EF1A  F016         	goto	u8620
  6790   002C30                     u8621:
  6791   002C30  EF2E  F016         	goto	l6224
  6792   002C34                     u8620:
  6793   002C34                     
  6794                           ; BSR set to: 0
  6795   002C34  29BE               	incf	___fldiv@bexp& (0+255),w,b
  6796   002C36  A4D8               	btfss	status,2,c
  6797   002C38  EF20  F016         	goto	u8631
  6798   002C3C  EF22  F016         	goto	u8630
  6799   002C40                     u8631:
  6800   002C40  EF2A  F016         	goto	l6220
  6801   002C44                     u8630:
  6802   002C44                     
  6803                           ; BSR set to: 0
  6804   002C44  0E00               	movlw	0
  6805   002C46  6FA7               	movwf	___fldiv@b& (0+255),b
  6806   002C48  0E00               	movlw	0
  6807   002C4A  6FA8               	movwf	(___fldiv@b+1)& (0+255),b
  6808   002C4C  0E00               	movlw	0
  6809   002C4E  6FA9               	movwf	(___fldiv@b+2)& (0+255),b
  6810   002C50  0E00               	movlw	0
  6811   002C52  6FAA               	movwf	(___fldiv@b+3)& (0+255),b
  6812   002C54                     l6220:
  6813                           
  6814                           ; BSR set to: 0
  6815   002C54  8FA9               	bsf	(___fldiv@b+2)& (0+255),7,b
  6816   002C56                     
  6817                           ; BSR set to: 0
  6818   002C56  6BAA               	clrf	(___fldiv@b+3)& (0+255),b
  6819   002C58  EF36  F016         	goto	l6226
  6820   002C5C                     l6224:
  6821                           
  6822                           ; BSR set to: 0
  6823   002C5C  0E00               	movlw	0
  6824   002C5E  6FA7               	movwf	___fldiv@b& (0+255),b
  6825   002C60  0E00               	movlw	0
  6826   002C62  6FA8               	movwf	(___fldiv@b+1)& (0+255),b
  6827   002C64  0E00               	movlw	0
  6828   002C66  6FA9               	movwf	(___fldiv@b+2)& (0+255),b
  6829   002C68  0E00               	movlw	0
  6830   002C6A  6FAA               	movwf	(___fldiv@b+3)& (0+255),b
  6831   002C6C                     l6226:
  6832                           
  6833                           ; BSR set to: 0
  6834   002C6C  51AE               	movf	(___fldiv@a+3)& (0+255),w,b
  6835   002C6E  0B80               	andlw	128
  6836   002C70  1BB7               	xorwf	___fldiv@sign& (0+255),f,b
  6837   002C72                     
  6838                           ; BSR set to: 0
  6839   002C72  51AE               	movf	(___fldiv@a+3)& (0+255),w,b
  6840   002C74  25AE               	addwf	(___fldiv@a+3)& (0+255),w,b
  6841   002C76  6FBF               	movwf	___fldiv@aexp& (0+255),b
  6842   002C78                     
  6843                           ; BSR set to: 0
  6844   002C78  AFAD               	btfss	(___fldiv@a+2)& (0+255),7,b
  6845   002C7A  EF41  F016         	goto	u8641
  6846   002C7E  EF43  F016         	goto	u8640
  6847   002C82                     u8641:
  6848   002C82  EF44  F016         	goto	l6234
  6849   002C86                     u8640:
  6850   002C86                     
  6851                           ; BSR set to: 0
  6852   002C86  81BF               	bsf	___fldiv@aexp& (0+255),0,b
  6853   002C88                     l6234:
  6854                           
  6855                           ; BSR set to: 0
  6856   002C88  51BF               	movf	___fldiv@aexp& (0+255),w,b
  6857   002C8A  B4D8               	btfsc	status,2,c
  6858   002C8C  EF4A  F016         	goto	u8651
  6859   002C90  EF4C  F016         	goto	u8650
  6860   002C94                     u8651:
  6861   002C94  EF60  F016         	goto	l6244
  6862   002C98                     u8650:
  6863   002C98                     
  6864                           ; BSR set to: 0
  6865   002C98  29BF               	incf	___fldiv@aexp& (0+255),w,b
  6866   002C9A  A4D8               	btfss	status,2,c
  6867   002C9C  EF52  F016         	goto	u8661
  6868   002CA0  EF54  F016         	goto	u8660
  6869   002CA4                     u8661:
  6870   002CA4  EF5C  F016         	goto	l6240
  6871   002CA8                     u8660:
  6872   002CA8                     
  6873                           ; BSR set to: 0
  6874   002CA8  0E00               	movlw	0
  6875   002CAA  6FAB               	movwf	___fldiv@a& (0+255),b
  6876   002CAC  0E00               	movlw	0
  6877   002CAE  6FAC               	movwf	(___fldiv@a+1)& (0+255),b
  6878   002CB0  0E00               	movlw	0
  6879   002CB2  6FAD               	movwf	(___fldiv@a+2)& (0+255),b
  6880   002CB4  0E00               	movlw	0
  6881   002CB6  6FAE               	movwf	(___fldiv@a+3)& (0+255),b
  6882   002CB8                     l6240:
  6883                           
  6884                           ; BSR set to: 0
  6885   002CB8  8FAD               	bsf	(___fldiv@a+2)& (0+255),7,b
  6886   002CBA                     
  6887                           ; BSR set to: 0
  6888   002CBA  6BAE               	clrf	(___fldiv@a+3)& (0+255),b
  6889   002CBC  EF68  F016         	goto	l6246
  6890   002CC0                     l6244:
  6891                           
  6892                           ; BSR set to: 0
  6893   002CC0  0E00               	movlw	0
  6894   002CC2  6FAB               	movwf	___fldiv@a& (0+255),b
  6895   002CC4  0E00               	movlw	0
  6896   002CC6  6FAC               	movwf	(___fldiv@a+1)& (0+255),b
  6897   002CC8  0E00               	movlw	0
  6898   002CCA  6FAD               	movwf	(___fldiv@a+2)& (0+255),b
  6899   002CCC  0E00               	movlw	0
  6900   002CCE  6FAE               	movwf	(___fldiv@a+3)& (0+255),b
  6901   002CD0                     l6246:
  6902                           
  6903                           ; BSR set to: 0
  6904   002CD0  51AB               	movf	___fldiv@a& (0+255),w,b
  6905   002CD2  11AC               	iorwf	(___fldiv@a+1)& (0+255),w,b
  6906   002CD4  11AD               	iorwf	(___fldiv@a+2)& (0+255),w,b
  6907   002CD6  11AE               	iorwf	(___fldiv@a+3)& (0+255),w,b
  6908   002CD8  A4D8               	btfss	status,2,c
  6909   002CDA  EF71  F016         	goto	u8671
  6910   002CDE  EF73  F016         	goto	u8670
  6911   002CE2                     u8671:
  6912   002CE2  EF8B  F016         	goto	l6258
  6913   002CE6                     u8670:
  6914   002CE6                     
  6915                           ; BSR set to: 0
  6916   002CE6  0E00               	movlw	0
  6917   002CE8  6FA7               	movwf	___fldiv@b& (0+255),b
  6918   002CEA  0E00               	movlw	0
  6919   002CEC  6FA8               	movwf	(___fldiv@b+1)& (0+255),b
  6920   002CEE  0E00               	movlw	0
  6921   002CF0  6FA9               	movwf	(___fldiv@b+2)& (0+255),b
  6922   002CF2  0E00               	movlw	0
  6923   002CF4  6FAA               	movwf	(___fldiv@b+3)& (0+255),b
  6924   002CF6                     
  6925                           ; BSR set to: 0
  6926   002CF6  0E80               	movlw	128
  6927   002CF8  13A9               	iorwf	(___fldiv@b+2)& (0+255),f,b
  6928   002CFA  0E7F               	movlw	127
  6929   002CFC  13AA               	iorwf	(___fldiv@b+3)& (0+255),f,b
  6930   002CFE                     l6252:
  6931                           
  6932                           ; BSR set to: 0
  6933   002CFE  51B7               	movf	___fldiv@sign& (0+255),w,b
  6934   002D00  13AA               	iorwf	(___fldiv@b+3)& (0+255),f,b
  6935   002D02                     
  6936                           ; BSR set to: 0
  6937   002D02  C0A7  F0A7         	movff	___fldiv@b,?___fldiv
  6938   002D06  C0A8  F0A8         	movff	___fldiv@b+1,?___fldiv+1
  6939   002D0A  C0A9  F0A9         	movff	___fldiv@b+2,?___fldiv+2
  6940   002D0E  C0AA  F0AA         	movff	___fldiv@b+3,?___fldiv+3
  6941   002D12  EFCB  F017         	goto	l846
  6942   002D16                     l6258:
  6943                           
  6944                           ; BSR set to: 0
  6945   002D16  51BE               	movf	___fldiv@bexp& (0+255),w,b
  6946   002D18  A4D8               	btfss	status,2,c
  6947   002D1A  EF91  F016         	goto	u8681
  6948   002D1E  EF93  F016         	goto	u8680
  6949   002D22                     u8681:
  6950   002D22  EF9D  F016         	goto	l6266
  6951   002D26                     u8680:
  6952   002D26                     
  6953                           ; BSR set to: 0
  6954   002D26  0E00               	movlw	0
  6955   002D28  6FA7               	movwf	?___fldiv& (0+255),b
  6956   002D2A  0E00               	movlw	0
  6957   002D2C  6FA8               	movwf	(?___fldiv+1)& (0+255),b
  6958   002D2E  0E00               	movlw	0
  6959   002D30  6FA9               	movwf	(?___fldiv+2)& (0+255),b
  6960   002D32  0E00               	movlw	0
  6961   002D34  6FAA               	movwf	(?___fldiv+3)& (0+255),b
  6962   002D36  EFCB  F017         	goto	l846
  6963   002D3A                     l6266:
  6964                           
  6965                           ; BSR set to: 0
  6966   002D3A  51BF               	movf	___fldiv@aexp& (0+255),w,b
  6967   002D3C  C0BE  F0AF         	movff	___fldiv@bexp,??___fldiv
  6968   002D40  6BB0               	clrf	(??___fldiv+1)& (0+255),b
  6969   002D42  5FAF               	subwf	??___fldiv& (0+255),f,b
  6970   002D44  0E00               	movlw	0
  6971   002D46  5BB0               	subwfb	(??___fldiv+1)& (0+255),f,b
  6972   002D48  0E7F               	movlw	127
  6973   002D4A  25AF               	addwf	??___fldiv& (0+255),w,b
  6974   002D4C  6FB8               	movwf	___fldiv@new_exp& (0+255),b
  6975   002D4E  0E00               	movlw	0
  6976   002D50  21B0               	addwfc	(??___fldiv+1)& (0+255),w,b
  6977   002D52  6FB9               	movwf	(___fldiv@new_exp+1)& (0+255),b
  6978   002D54                     
  6979                           ; BSR set to: 0
  6980   002D54  C0A7  F0B3         	movff	___fldiv@b,___fldiv@rem
  6981   002D58  C0A8  F0B4         	movff	___fldiv@b+1,___fldiv@rem+1
  6982   002D5C  C0A9  F0B5         	movff	___fldiv@b+2,___fldiv@rem+2
  6983   002D60  C0AA  F0B6         	movff	___fldiv@b+3,___fldiv@rem+3
  6984   002D64                     
  6985                           ; BSR set to: 0
  6986   002D64  0E00               	movlw	0
  6987   002D66  6FA7               	movwf	___fldiv@b& (0+255),b
  6988   002D68  0E00               	movlw	0
  6989   002D6A  6FA8               	movwf	(___fldiv@b+1)& (0+255),b
  6990   002D6C  0E00               	movlw	0
  6991   002D6E  6FA9               	movwf	(___fldiv@b+2)& (0+255),b
  6992   002D70  0E00               	movlw	0
  6993   002D72  6FAA               	movwf	(___fldiv@b+3)& (0+255),b
  6994   002D74                     
  6995                           ; BSR set to: 0
  6996   002D74  0E00               	movlw	0
  6997   002D76  6FBA               	movwf	___fldiv@grs& (0+255),b
  6998   002D78  0E00               	movlw	0
  6999   002D7A  6FBB               	movwf	(___fldiv@grs+1)& (0+255),b
  7000   002D7C  0E00               	movlw	0
  7001   002D7E  6FBC               	movwf	(___fldiv@grs+2)& (0+255),b
  7002   002D80  0E00               	movlw	0
  7003   002D82  6FBD               	movwf	(___fldiv@grs+3)& (0+255),b
  7004   002D84                     
  7005                           ; BSR set to: 0
  7006   002D84  6BBF               	clrf	___fldiv@aexp& (0+255),b
  7007   002D86  EFFD  F016         	goto	l848
  7008   002D8A                     l6276:
  7009                           
  7010                           ; BSR set to: 0
  7011   002D8A  51BF               	movf	___fldiv@aexp& (0+255),w,b
  7012   002D8C  B4D8               	btfsc	status,2,c
  7013   002D8E  EFCB  F016         	goto	u8691
  7014   002D92  EFCD  F016         	goto	u8690
  7015   002D96                     u8691:
  7016   002D96  EFE4  F016         	goto	l6284
  7017   002D9A                     u8690:
  7018   002D9A                     
  7019                           ; BSR set to: 0
  7020   002D9A  90D8               	bcf	status,0,c
  7021   002D9C  37B3               	rlcf	___fldiv@rem& (0+255),f,b
  7022   002D9E  37B4               	rlcf	(___fldiv@rem+1)& (0+255),f,b
  7023   002DA0  37B5               	rlcf	(___fldiv@rem+2)& (0+255),f,b
  7024   002DA2  37B6               	rlcf	(___fldiv@rem+3)& (0+255),f,b
  7025   002DA4  90D8               	bcf	status,0,c
  7026   002DA6  37A7               	rlcf	___fldiv@b& (0+255),f,b
  7027   002DA8  37A8               	rlcf	(___fldiv@b+1)& (0+255),f,b
  7028   002DAA  37A9               	rlcf	(___fldiv@b+2)& (0+255),f,b
  7029   002DAC  37AA               	rlcf	(___fldiv@b+3)& (0+255),f,b
  7030   002DAE                     
  7031                           ; BSR set to: 0
  7032   002DAE  AFBD               	btfss	(___fldiv@grs+3)& (0+255),7,b
  7033   002DB0  EFDC  F016         	goto	u8701
  7034   002DB4  EFDE  F016         	goto	u8700
  7035   002DB8                     u8701:
  7036   002DB8  EFDF  F016         	goto	l851
  7037   002DBC                     u8700:
  7038   002DBC                     
  7039                           ; BSR set to: 0
  7040   002DBC  81A7               	bsf	___fldiv@b& (0+255),0,b
  7041   002DBE                     l851:
  7042                           
  7043                           ; BSR set to: 0
  7044   002DBE  90D8               	bcf	status,0,c
  7045   002DC0  37BA               	rlcf	___fldiv@grs& (0+255),f,b
  7046   002DC2  37BB               	rlcf	(___fldiv@grs+1)& (0+255),f,b
  7047   002DC4  37BC               	rlcf	(___fldiv@grs+2)& (0+255),f,b
  7048   002DC6  37BD               	rlcf	(___fldiv@grs+3)& (0+255),f,b
  7049   002DC8                     l6284:
  7050                           
  7051                           ; BSR set to: 0
  7052   002DC8  51AB               	movf	___fldiv@a& (0+255),w,b
  7053   002DCA  5DB3               	subwf	___fldiv@rem& (0+255),w,b
  7054   002DCC  51AC               	movf	(___fldiv@a+1)& (0+255),w,b
  7055   002DCE  59B4               	subwfb	(___fldiv@rem+1)& (0+255),w,b
  7056   002DD0  51AD               	movf	(___fldiv@a+2)& (0+255),w,b
  7057   002DD2  59B5               	subwfb	(___fldiv@rem+2)& (0+255),w,b
  7058   002DD4  51AE               	movf	(___fldiv@a+3)& (0+255),w,b
  7059   002DD6  59B6               	subwfb	(___fldiv@rem+3)& (0+255),w,b
  7060   002DD8  A0D8               	btfss	status,0,c
  7061   002DDA  EFF1  F016         	goto	u8711
  7062   002DDE  EFF3  F016         	goto	u8710
  7063   002DE2                     u8711:
  7064   002DE2  EFFC  F016         	goto	l6290
  7065   002DE6                     u8710:
  7066   002DE6                     
  7067                           ; BSR set to: 0
  7068   002DE6  8DBD               	bsf	(___fldiv@grs+3)& (0+255),6,b
  7069   002DE8                     
  7070                           ; BSR set to: 0
  7071   002DE8  51AB               	movf	___fldiv@a& (0+255),w,b
  7072   002DEA  5FB3               	subwf	___fldiv@rem& (0+255),f,b
  7073   002DEC  51AC               	movf	(___fldiv@a+1)& (0+255),w,b
  7074   002DEE  5BB4               	subwfb	(___fldiv@rem+1)& (0+255),f,b
  7075   002DF0  51AD               	movf	(___fldiv@a+2)& (0+255),w,b
  7076   002DF2  5BB5               	subwfb	(___fldiv@rem+2)& (0+255),f,b
  7077   002DF4  51AE               	movf	(___fldiv@a+3)& (0+255),w,b
  7078   002DF6  5BB6               	subwfb	(___fldiv@rem+3)& (0+255),f,b
  7079   002DF8                     l6290:
  7080                           
  7081                           ; BSR set to: 0
  7082   002DF8  2BBF               	incf	___fldiv@aexp& (0+255),f,b
  7083   002DFA                     l848:
  7084                           
  7085                           ; BSR set to: 0
  7086   002DFA  0E19               	movlw	25
  7087   002DFC  65BF               	cpfsgt	___fldiv@aexp& (0+255),b
  7088   002DFE  EF03  F017         	goto	u8721
  7089   002E02  EF05  F017         	goto	u8720
  7090   002E06                     u8721:
  7091   002E06  EFC5  F016         	goto	l6276
  7092   002E0A                     u8720:
  7093   002E0A                     
  7094                           ; BSR set to: 0
  7095   002E0A  51B3               	movf	___fldiv@rem& (0+255),w,b
  7096   002E0C  11B4               	iorwf	(___fldiv@rem+1)& (0+255),w,b
  7097   002E0E  11B5               	iorwf	(___fldiv@rem+2)& (0+255),w,b
  7098   002E10  11B6               	iorwf	(___fldiv@rem+3)& (0+255),w,b
  7099   002E12  B4D8               	btfsc	status,2,c
  7100   002E14  EF0E  F017         	goto	u8731
  7101   002E18  EF10  F017         	goto	u8730
  7102   002E1C                     u8731:
  7103   002E1C  EF28  F017         	goto	l6302
  7104   002E20                     u8730:
  7105   002E20                     
  7106                           ; BSR set to: 0
  7107   002E20  81BA               	bsf	___fldiv@grs& (0+255),0,b
  7108   002E22  EF28  F017         	goto	l6302
  7109   002E26                     l6296:
  7110                           
  7111                           ; BSR set to: 0
  7112   002E26  90D8               	bcf	status,0,c
  7113   002E28  37A7               	rlcf	___fldiv@b& (0+255),f,b
  7114   002E2A  37A8               	rlcf	(___fldiv@b+1)& (0+255),f,b
  7115   002E2C  37A9               	rlcf	(___fldiv@b+2)& (0+255),f,b
  7116   002E2E  37AA               	rlcf	(___fldiv@b+3)& (0+255),f,b
  7117   002E30                     
  7118                           ; BSR set to: 0
  7119   002E30  AFBD               	btfss	(___fldiv@grs+3)& (0+255),7,b
  7120   002E32  EF1D  F017         	goto	u8741
  7121   002E36  EF1F  F017         	goto	u8740
  7122   002E3A                     u8741:
  7123   002E3A  EF20  F017         	goto	l857
  7124   002E3E                     u8740:
  7125   002E3E                     
  7126                           ; BSR set to: 0
  7127   002E3E  81A7               	bsf	___fldiv@b& (0+255),0,b
  7128   002E40                     l857:
  7129                           
  7130                           ; BSR set to: 0
  7131   002E40  90D8               	bcf	status,0,c
  7132   002E42  37BA               	rlcf	___fldiv@grs& (0+255),f,b
  7133   002E44  37BB               	rlcf	(___fldiv@grs+1)& (0+255),f,b
  7134   002E46  37BC               	rlcf	(___fldiv@grs+2)& (0+255),f,b
  7135   002E48  37BD               	rlcf	(___fldiv@grs+3)& (0+255),f,b
  7136   002E4A  07B8               	decf	___fldiv@new_exp& (0+255),f,b
  7137   002E4C  A0D8               	btfss	status,0,c
  7138   002E4E  07B9               	decf	(___fldiv@new_exp+1)& (0+255),f,b
  7139   002E50                     l6302:
  7140                           
  7141                           ; BSR set to: 0
  7142   002E50  AFA9               	btfss	(___fldiv@b+2)& (0+255),7,b
  7143   002E52  EF2D  F017         	goto	u8751
  7144   002E56  EF2F  F017         	goto	u8750
  7145   002E5A                     u8751:
  7146   002E5A  EF13  F017         	goto	l6296
  7147   002E5E                     u8750:
  7148   002E5E                     
  7149                           ; BSR set to: 0
  7150   002E5E  6BBF               	clrf	___fldiv@aexp& (0+255),b
  7151   002E60  AFBD               	btfss	(___fldiv@grs+3)& (0+255),7,b
  7152   002E62  EF35  F017         	goto	u8761
  7153   002E66  EF37  F017         	goto	u8760
  7154   002E6A                     u8761:
  7155   002E6A  EF5B  F017         	goto	l859
  7156   002E6E                     u8760:
  7157   002E6E                     
  7158                           ; BSR set to: 0
  7159   002E6E  0EFF               	movlw	255
  7160   002E70  15BA               	andwf	___fldiv@grs& (0+255),w,b
  7161   002E72  6FAF               	movwf	??___fldiv& (0+255),b
  7162   002E74  0EFF               	movlw	255
  7163   002E76  15BB               	andwf	(___fldiv@grs+1)& (0+255),w,b
  7164   002E78  6FB0               	movwf	(??___fldiv+1)& (0+255),b
  7165   002E7A  0EFF               	movlw	255
  7166   002E7C  15BC               	andwf	(___fldiv@grs+2)& (0+255),w,b
  7167   002E7E  6FB1               	movwf	(??___fldiv+2)& (0+255),b
  7168   002E80  0E7F               	movlw	127
  7169   002E82  15BD               	andwf	(___fldiv@grs+3)& (0+255),w,b
  7170   002E84  6FB2               	movwf	(??___fldiv+3)& (0+255),b
  7171   002E86  51AF               	movf	??___fldiv& (0+255),w,b
  7172   002E88  11B0               	iorwf	(??___fldiv+1)& (0+255),w,b
  7173   002E8A  11B1               	iorwf	(??___fldiv+2)& (0+255),w,b
  7174   002E8C  11B2               	iorwf	(??___fldiv+3)& (0+255),w,b
  7175   002E8E  B4D8               	btfsc	status,2,c
  7176   002E90  EF4C  F017         	goto	u8771
  7177   002E94  EF4E  F017         	goto	u8770
  7178   002E98                     u8771:
  7179   002E98  EF52  F017         	goto	l860
  7180   002E9C                     u8770:
  7181   002E9C                     l6306:
  7182                           
  7183                           ; BSR set to: 0
  7184   002E9C  0E01               	movlw	1
  7185   002E9E  6FBF               	movwf	___fldiv@aexp& (0+255),b
  7186   002EA0  EF5B  F017         	goto	l859
  7187   002EA4                     l860:
  7188                           
  7189                           ; BSR set to: 0
  7190   002EA4  A1A7               	btfss	___fldiv@b& (0+255),0,b
  7191   002EA6  EF57  F017         	goto	u8781
  7192   002EAA  EF59  F017         	goto	u8780
  7193   002EAE                     u8781:
  7194   002EAE  EF5B  F017         	goto	l859
  7195   002EB2                     u8780:
  7196   002EB2  EF4E  F017         	goto	l6306
  7197   002EB6                     l859:
  7198                           
  7199                           ; BSR set to: 0
  7200   002EB6  51BF               	movf	___fldiv@aexp& (0+255),w,b
  7201   002EB8  B4D8               	btfsc	status,2,c
  7202   002EBA  EF61  F017         	goto	u8791
  7203   002EBE  EF63  F017         	goto	u8790
  7204   002EC2                     u8791:
  7205   002EC2  EF87  F017         	goto	l6318
  7206   002EC6                     u8790:
  7207   002EC6                     
  7208                           ; BSR set to: 0
  7209   002EC6  0E01               	movlw	1
  7210   002EC8  27A7               	addwf	___fldiv@b& (0+255),f,b
  7211   002ECA  0E00               	movlw	0
  7212   002ECC  23A8               	addwfc	(___fldiv@b+1)& (0+255),f,b
  7213   002ECE  23A9               	addwfc	(___fldiv@b+2)& (0+255),f,b
  7214   002ED0  23AA               	addwfc	(___fldiv@b+3)& (0+255),f,b
  7215   002ED2                     
  7216                           ; BSR set to: 0
  7217   002ED2  A1AA               	btfss	(___fldiv@b+3)& (0+255),0,b
  7218   002ED4  EF6E  F017         	goto	u8801
  7219   002ED8  EF70  F017         	goto	u8800
  7220   002EDC                     u8801:
  7221   002EDC  EF87  F017         	goto	l6318
  7222   002EE0                     u8800:
  7223   002EE0                     
  7224                           ; BSR set to: 0
  7225   002EE0  C0A7  F0AF         	movff	___fldiv@b,??___fldiv
  7226   002EE4  C0A8  F0B0         	movff	___fldiv@b+1,??___fldiv+1
  7227   002EE8  C0A9  F0B1         	movff	___fldiv@b+2,??___fldiv+2
  7228   002EEC  C0AA  F0B2         	movff	___fldiv@b+3,??___fldiv+3
  7229   002EF0  35B2               	rlcf	(??___fldiv+3)& (0+255),w,b
  7230   002EF2  33B2               	rrcf	(??___fldiv+3)& (0+255),f,b
  7231   002EF4  33B1               	rrcf	(??___fldiv+2)& (0+255),f,b
  7232   002EF6  33B0               	rrcf	(??___fldiv+1)& (0+255),f,b
  7233   002EF8  33AF               	rrcf	??___fldiv& (0+255),f,b
  7234   002EFA  C0AF  F0A7         	movff	??___fldiv,___fldiv@b
  7235   002EFE  C0B0  F0A8         	movff	??___fldiv+1,___fldiv@b+1
  7236   002F02  C0B1  F0A9         	movff	??___fldiv+2,___fldiv@b+2
  7237   002F06  C0B2  F0AA         	movff	??___fldiv+3,___fldiv@b+3
  7238   002F0A                     
  7239                           ; BSR set to: 0
  7240   002F0A  4BB8               	infsnz	___fldiv@new_exp& (0+255),f,b
  7241   002F0C  2BB9               	incf	(___fldiv@new_exp+1)& (0+255),f,b
  7242   002F0E                     l6318:
  7243                           
  7244                           ; BSR set to: 0
  7245   002F0E  BFB9               	btfsc	(___fldiv@new_exp+1)& (0+255),7,b
  7246   002F10  EF92  F017         	goto	u8811
  7247   002F14  51B9               	movf	(___fldiv@new_exp+1)& (0+255),w,b
  7248   002F16  E108               	bnz	u8810
  7249   002F18  29B8               	incf	___fldiv@new_exp& (0+255),w,b
  7250   002F1A  A0D8               	btfss	status,0,c
  7251   002F1C  EF92  F017         	goto	u8811
  7252   002F20  EF94  F017         	goto	u8810
  7253   002F24                     u8811:
  7254   002F24  EF9F  F017         	goto	l6322
  7255   002F28                     u8810:
  7256   002F28                     
  7257                           ; BSR set to: 0
  7258   002F28  0E00               	movlw	0
  7259   002F2A  6FB9               	movwf	(___fldiv@new_exp+1)& (0+255),b
  7260   002F2C  69B8               	setf	___fldiv@new_exp& (0+255),b
  7261   002F2E  0E00               	movlw	0
  7262   002F30  6FA7               	movwf	___fldiv@b& (0+255),b
  7263   002F32  0E00               	movlw	0
  7264   002F34  6FA8               	movwf	(___fldiv@b+1)& (0+255),b
  7265   002F36  0E00               	movlw	0
  7266   002F38  6FA9               	movwf	(___fldiv@b+2)& (0+255),b
  7267   002F3A  0E00               	movlw	0
  7268   002F3C  6FAA               	movwf	(___fldiv@b+3)& (0+255),b
  7269   002F3E                     l6322:
  7270                           
  7271                           ; BSR set to: 0
  7272   002F3E  BFB9               	btfsc	(___fldiv@new_exp+1)& (0+255),7,b
  7273   002F40  EFAC  F017         	goto	u8820
  7274   002F44  51B9               	movf	(___fldiv@new_exp+1)& (0+255),w,b
  7275   002F46  E106               	bnz	u8821
  7276   002F48  05B8               	decf	___fldiv@new_exp& (0+255),w,b
  7277   002F4A  B0D8               	btfsc	status,0,c
  7278   002F4C  EFAA  F017         	goto	u8821
  7279   002F50  EFAC  F017         	goto	u8820
  7280   002F54                     u8821:
  7281   002F54  EFB9  F017         	goto	l6328
  7282   002F58                     u8820:
  7283   002F58                     
  7284                           ; BSR set to: 0
  7285   002F58  0E00               	movlw	0
  7286   002F5A  6FB9               	movwf	(___fldiv@new_exp+1)& (0+255),b
  7287   002F5C  0E00               	movlw	0
  7288   002F5E  6FB8               	movwf	___fldiv@new_exp& (0+255),b
  7289   002F60  0E00               	movlw	0
  7290   002F62  6FA7               	movwf	___fldiv@b& (0+255),b
  7291   002F64  0E00               	movlw	0
  7292   002F66  6FA8               	movwf	(___fldiv@b+1)& (0+255),b
  7293   002F68  0E00               	movlw	0
  7294   002F6A  6FA9               	movwf	(___fldiv@b+2)& (0+255),b
  7295   002F6C  0E00               	movlw	0
  7296   002F6E  6FAA               	movwf	(___fldiv@b+3)& (0+255),b
  7297   002F70                     
  7298                           ; BSR set to: 0
  7299   002F70  6BB7               	clrf	___fldiv@sign& (0+255),b
  7300   002F72                     l6328:
  7301                           
  7302                           ; BSR set to: 0
  7303   002F72  C0B8  F0BE         	movff	___fldiv@new_exp,___fldiv@bexp
  7304   002F76                     
  7305                           ; BSR set to: 0
  7306   002F76  A1BE               	btfss	___fldiv@bexp& (0+255),0,b
  7307   002F78  EFC0  F017         	goto	u8831
  7308   002F7C  EFC2  F017         	goto	u8830
  7309   002F80                     u8831:
  7310   002F80  EFC5  F017         	goto	l6334
  7311   002F84                     u8830:
  7312   002F84                     
  7313                           ; BSR set to: 0
  7314   002F84  8FA9               	bsf	(___fldiv@b+2)& (0+255),7,b
  7315   002F86  EFC6  F017         	goto	l6336
  7316   002F8A                     l6334:
  7317                           
  7318                           ; BSR set to: 0
  7319   002F8A  9FA9               	bcf	(___fldiv@b+2)& (0+255),7,b
  7320   002F8C                     l6336:
  7321                           
  7322                           ; BSR set to: 0
  7323   002F8C  90D8               	bcf	status,0,c
  7324   002F8E  31BE               	rrcf	___fldiv@bexp& (0+255),w,b
  7325   002F90  6FAA               	movwf	(___fldiv@b+3)& (0+255),b
  7326   002F92  EF7F  F016         	goto	l6252
  7327   002F96                     l846:
  7328                           
  7329                           ; BSR set to: 0
  7330   002F96  0012               	return		;funcret
  7331   002F98                     __end_of___fldiv:
  7332                           	callstack 0
  7333                           
  7334 ;; *************** function _atoi *****************
  7335 ;; Defined at:
  7336 ;;		line 5 in file "C:\Program Files\Microchip\xc8\v3.00\pic\sources\c99\common\atoi.c"
  7337 ;; Parameters:    Size  Location     Type
  7338 ;;  s               2   39[BANK0 ] PTR const unsigned char 
  7339 ;;		 -> main@str(100), 
  7340 ;; Auto vars:     Size  Location     Type
  7341 ;;  n               2   45[BANK0 ] int 
  7342 ;;  neg             1   44[BANK0 ] _Bool 
  7343 ;; Return value:  Size  Location     Type
  7344 ;;                  2   39[BANK0 ] int 
  7345 ;; Registers used:
  7346 ;;		wreg, fsr2l, fsr2h, status,2, status,0, prodl, prodh
  7347 ;; Tracked objects:
  7348 ;;		On entry : 0/0
  7349 ;;		On exit  : 0/0
  7350 ;;		Unchanged: 0/0
  7351 ;; Data sizes:     COMRAM   BANK0   BANK1   BANK2   BANK3   BANK4   BANK5
  7352 ;;      Params:         0       2       0       0       0       0       0
  7353 ;;      Locals:         0       3       0       0       0       0       0
  7354 ;;      Temps:          0       3       0       0       0       0       0
  7355 ;;      Totals:         0       8       0       0       0       0       0
  7356 ;;Total ram usage:        8 bytes
  7357 ;; Hardware stack levels used: 1
  7358 ;; Hardware stack levels required when called: 14
  7359 ;; This function calls:
  7360 ;;		Nothing
  7361 ;; This function is called by:
  7362 ;;		_keyboard_input
  7363 ;; This function uses a non-reentrant model
  7364 ;;
  7365                           
  7366                           	psect	text23
  7367   003F4A                     __ptext23:
  7368                           	callstack 0
  7369   003F4A                     _atoi:
  7370                           	callstack 15
  7371   003F4A  0E00               	movlw	0
  7372   003F4C  0100               	movlb	0	; () banked
  7373   003F4E  6FAE               	movwf	(atoi@n+1)& (0+255),b
  7374   003F50  0E00               	movlw	0
  7375   003F52  6FAD               	movwf	atoi@n& (0+255),b
  7376   003F54                     
  7377                           ; BSR set to: 0
  7378   003F54  6BAC               	clrf	atoi@neg& (0+255),b
  7379   003F56  EFAF  F01F         	goto	l7730
  7380   003F5A                     l7728:
  7381                           
  7382                           ; BSR set to: 0
  7383   003F5A  4BA7               	infsnz	atoi@s& (0+255),f,b
  7384   003F5C  2BA8               	incf	(atoi@s+1)& (0+255),f,b
  7385   003F5E                     l7730:
  7386                           
  7387                           ; BSR set to: 0
  7388   003F5E  C0A7  FFD9         	movff	atoi@s,fsr2l
  7389   003F62  C0A8  FFDA         	movff	atoi@s+1,fsr2h
  7390   003F66  0E20               	movlw	32
  7391   003F68  18DE               	xorwf	postinc2,w,c
  7392   003F6A  B4D8               	btfsc	status,2,c
  7393   003F6C  EFBA  F01F         	goto	u10921
  7394   003F70  EFBC  F01F         	goto	u10920
  7395   003F74                     u10921:
  7396   003F74  EFAD  F01F         	goto	l7728
  7397   003F78                     u10920:
  7398   003F78                     
  7399                           ; BSR set to: 0
  7400   003F78  C0A7  FFD9         	movff	atoi@s,fsr2l
  7401   003F7C  C0A8  FFDA         	movff	atoi@s+1,fsr2h
  7402   003F80  50DF               	movf	indf2,w,c
  7403   003F82  6FA9               	movwf	??_atoi& (0+255),b
  7404   003F84  0EF7               	movlw	247
  7405   003F86  27A9               	addwf	??_atoi& (0+255),f,b
  7406   003F88  0E04               	movlw	4
  7407   003F8A  65A9               	cpfsgt	??_atoi& (0+255),b
  7408   003F8C  EFCA  F01F         	goto	u10931
  7409   003F90  EFCC  F01F         	goto	u10930
  7410   003F94                     u10931:
  7411   003F94  EFAD  F01F         	goto	l7728
  7412   003F98                     u10930:
  7413   003F98                     
  7414                           ; BSR set to: 0
  7415   003F98  C0A7  FFD9         	movff	atoi@s,fsr2l
  7416   003F9C  C0A8  FFDA         	movff	atoi@s+1,fsr2h
  7417   003FA0  0E2D               	movlw	45
  7418   003FA2  18DE               	xorwf	postinc2,w,c
  7419   003FA4  A4D8               	btfss	status,2,c
  7420   003FA6  EFD7  F01F         	goto	u10941
  7421   003FAA  EFD9  F01F         	goto	u10940
  7422   003FAE                     u10941:
  7423   003FAE  EFDF  F01F         	goto	l7740
  7424   003FB2                     u10940:
  7425   003FB2                     
  7426                           ; BSR set to: 0
  7427   003FB2  0E01               	movlw	1
  7428   003FB4  6FAC               	movwf	atoi@neg& (0+255),b
  7429   003FB6                     l7738:
  7430                           
  7431                           ; BSR set to: 0
  7432   003FB6  4BA7               	infsnz	atoi@s& (0+255),f,b
  7433   003FB8  2BA8               	incf	(atoi@s+1)& (0+255),f,b
  7434   003FBA  EF09  F020         	goto	l7748
  7435   003FBE                     l7740:
  7436                           
  7437                           ; BSR set to: 0
  7438   003FBE  C0A7  FFD9         	movff	atoi@s,fsr2l
  7439   003FC2  C0A8  FFDA         	movff	atoi@s+1,fsr2h
  7440   003FC6  0E2B               	movlw	43
  7441   003FC8  18DE               	xorwf	postinc2,w,c
  7442   003FCA  A4D8               	btfss	status,2,c
  7443   003FCC  EFEA  F01F         	goto	u10951
  7444   003FD0  EFEC  F01F         	goto	u10950
  7445   003FD4                     u10951:
  7446   003FD4  EF09  F020         	goto	l7748
  7447   003FD8                     u10950:
  7448   003FD8  EFDB  F01F         	goto	l7738
  7449   003FDC                     l7744:
  7450                           
  7451                           ; BSR set to: 0
  7452   003FDC  0E0A               	movlw	10
  7453   003FDE  03AD               	mulwf	atoi@n& (0+255),b
  7454   003FE0  CFF3 F0A9          	movff	prodl,??_atoi
  7455   003FE4  CFF4 F0AA          	movff	prodh,??_atoi+1
  7456   003FE8  03AE               	mulwf	(atoi@n+1)& (0+255),b
  7457   003FEA  50F3               	movf	prodl,w,c
  7458   003FEC  27AA               	addwf	(??_atoi+1)& (0+255),f,b
  7459   003FEE  C0A7  FFD9         	movff	atoi@s,fsr2l
  7460   003FF2  C0A8  FFDA         	movff	atoi@s+1,fsr2h
  7461   003FF6  50DF               	movf	indf2,w,c
  7462   003FF8  6FAB               	movwf	(??_atoi+2)& (0+255),b
  7463   003FFA  51AB               	movf	(??_atoi+2)& (0+255),w,b
  7464   003FFC  5FA9               	subwf	??_atoi& (0+255),f,b
  7465   003FFE  0E00               	movlw	0
  7466   004000  5BAA               	subwfb	(??_atoi+1)& (0+255),f,b
  7467   004002  0E30               	movlw	48
  7468   004004  25A9               	addwf	??_atoi& (0+255),w,b
  7469   004006  6FAD               	movwf	atoi@n& (0+255),b
  7470   004008  0E00               	movlw	0
  7471   00400A  21AA               	addwfc	(??_atoi+1)& (0+255),w,b
  7472   00400C  6FAE               	movwf	(atoi@n+1)& (0+255),b
  7473   00400E  EFDB  F01F         	goto	l7738
  7474   004012                     l7748:
  7475                           
  7476                           ; BSR set to: 0
  7477   004012  C0A7  FFD9         	movff	atoi@s,fsr2l
  7478   004016  C0A8  FFDA         	movff	atoi@s+1,fsr2h
  7479   00401A  50DF               	movf	indf2,w,c
  7480   00401C  6FA9               	movwf	??_atoi& (0+255),b
  7481   00401E  0ED0               	movlw	208
  7482   004020  27A9               	addwf	??_atoi& (0+255),f,b
  7483   004022  0E09               	movlw	9
  7484   004024  65A9               	cpfsgt	??_atoi& (0+255),b
  7485   004026  EF17  F020         	goto	u10961
  7486   00402A  EF19  F020         	goto	u10960
  7487   00402E                     u10961:
  7488   00402E  EFEE  F01F         	goto	l7744
  7489   004032                     u10960:
  7490   004032                     
  7491                           ; BSR set to: 0
  7492   004032  51AC               	movf	atoi@neg& (0+255),w,b
  7493   004034  A4D8               	btfss	status,2,c
  7494   004036  EF1F  F020         	goto	u10971
  7495   00403A  EF21  F020         	goto	u10970
  7496   00403E                     u10971:
  7497   00403E  EF2F  F020         	goto	l948
  7498   004042                     u10970:
  7499   004042                     
  7500                           ; BSR set to: 0
  7501   004042  C0AD  F0A9         	movff	atoi@n,??_atoi
  7502   004046  C0AE  F0AA         	movff	atoi@n+1,??_atoi+1
  7503   00404A  1FA9               	comf	??_atoi& (0+255),f,b
  7504   00404C  1FAA               	comf	(??_atoi+1)& (0+255),f,b
  7505   00404E  4BA9               	infsnz	??_atoi& (0+255),f,b
  7506   004050  2BAA               	incf	(??_atoi+1)& (0+255),f,b
  7507   004052  C0A9  F0A7         	movff	??_atoi,?_atoi
  7508   004056  C0AA  F0A8         	movff	??_atoi+1,?_atoi+1
  7509   00405A  EF33  F020         	goto	l951
  7510   00405E                     l948:
  7511                           
  7512                           ; BSR set to: 0
  7513   00405E  C0AD  F0A7         	movff	atoi@n,?_atoi
  7514   004062  C0AE  F0A8         	movff	atoi@n+1,?_atoi+1
  7515   004066                     l951:
  7516                           
  7517                           ; BSR set to: 0
  7518   004066  0012               	return		;funcret
  7519   004068                     __end_of_atoi:
  7520                           	callstack 0
  7521                           
  7522 ;; *************** function ___xxtofl *****************
  7523 ;; Defined at:
  7524 ;;		line 10 in file "C:\Program Files\Microchip\xc8\v3.00\pic\sources\c99\common\xxtofl.c"
  7525 ;; Parameters:    Size  Location     Type
  7526 ;;  sign            1    wreg     unsigned char 
  7527 ;;  val             4   47[BANK0 ] long 
  7528 ;; Auto vars:     Size  Location     Type
  7529 ;;  sign            1   55[BANK0 ] unsigned char 
  7530 ;;  arg             4   57[BANK0 ] unsigned long 
  7531 ;;  exp             1   56[BANK0 ] unsigned char 
  7532 ;; Return value:  Size  Location     Type
  7533 ;;                  4   47[BANK0 ] unsigned char 
  7534 ;; Registers used:
  7535 ;;		wreg, status,2, status,0
  7536 ;; Tracked objects:
  7537 ;;		On entry : 0/0
  7538 ;;		On exit  : 0/0
  7539 ;;		Unchanged: 0/0
  7540 ;; Data sizes:     COMRAM   BANK0   BANK1   BANK2   BANK3   BANK4   BANK5
  7541 ;;      Params:         0       4       0       0       0       0       0
  7542 ;;      Locals:         0       6       0       0       0       0       0
  7543 ;;      Temps:          0       4       0       0       0       0       0
  7544 ;;      Totals:         0      14       0       0       0       0       0
  7545 ;;Total ram usage:       14 bytes
  7546 ;; Hardware stack levels used: 1
  7547 ;; Hardware stack levels required when called: 14
  7548 ;; This function calls:
  7549 ;;		Nothing
  7550 ;; This function is called by:
  7551 ;;		_keyboard_input
  7552 ;;		_set_servo_angle
  7553 ;;		_VR_value_to_servo_angle
  7554 ;;		_delay
  7555 ;; This function uses a non-reentrant model
  7556 ;;
  7557                           
  7558                           	psect	text24
  7559   003750                     __ptext24:
  7560                           	callstack 0
  7561   003750                     ___xxtofl:
  7562                           	callstack 15
  7563                           
  7564                           ; BSR set to: 0
  7565                           ;incstack = 0
  7566                           ;___xxtofl@sign stored from wreg
  7567   003750  0100               	movlb	0	; () banked
  7568   003752  6FB7               	movwf	___xxtofl@sign& (0+255),b
  7569   003754  0100               	movlb	0	; () banked
  7570   003756  51B7               	movf	___xxtofl@sign& (0+255),w,b
  7571   003758  B4D8               	btfsc	status,2,c
  7572   00375A  EFB1  F01B         	goto	u10981
  7573   00375E  EFB3  F01B         	goto	u10980
  7574   003762                     u10981:
  7575   003762  EFD5  F01B         	goto	l919
  7576   003766                     u10980:
  7577   003766                     
  7578                           ; BSR set to: 0
  7579   003766  BFB2               	btfsc	(___xxtofl@val+3)& (0+255),7,b
  7580   003768  EFBA  F01B         	goto	u10990
  7581   00376C  EFB8  F01B         	goto	u10991
  7582   003770                     u10991:
  7583   003770  EFD5  F01B         	goto	l919
  7584   003774                     u10990:
  7585   003774                     
  7586                           ; BSR set to: 0
  7587   003774  C0AF  F0B3         	movff	___xxtofl@val,??___xxtofl
  7588   003778  C0B0  F0B4         	movff	___xxtofl@val+1,??___xxtofl+1
  7589   00377C  C0B1  F0B5         	movff	___xxtofl@val+2,??___xxtofl+2
  7590   003780  C0B2  F0B6         	movff	___xxtofl@val+3,??___xxtofl+3
  7591   003784  1FB3               	comf	??___xxtofl& (0+255),f,b
  7592   003786  1FB4               	comf	(??___xxtofl+1)& (0+255),f,b
  7593   003788  1FB5               	comf	(??___xxtofl+2)& (0+255),f,b
  7594   00378A  1FB6               	comf	(??___xxtofl+3)& (0+255),f,b
  7595   00378C  2BB3               	incf	??___xxtofl& (0+255),f,b
  7596   00378E  0E00               	movlw	0
  7597   003790  23B4               	addwfc	(??___xxtofl+1)& (0+255),f,b
  7598   003792  23B5               	addwfc	(??___xxtofl+2)& (0+255),f,b
  7599   003794  23B6               	addwfc	(??___xxtofl+3)& (0+255),f,b
  7600   003796  C0B3  F0B9         	movff	??___xxtofl,___xxtofl@arg
  7601   00379A  C0B4  F0BA         	movff	??___xxtofl+1,___xxtofl@arg+1
  7602   00379E  C0B5  F0BB         	movff	??___xxtofl+2,___xxtofl@arg+2
  7603   0037A2  C0B6  F0BC         	movff	??___xxtofl+3,___xxtofl@arg+3
  7604   0037A6  EFDD  F01B         	goto	l7760
  7605   0037AA                     l919:
  7606                           
  7607                           ; BSR set to: 0
  7608   0037AA  C0AF  F0B9         	movff	___xxtofl@val,___xxtofl@arg
  7609   0037AE  C0B0  F0BA         	movff	___xxtofl@val+1,___xxtofl@arg+1
  7610   0037B2  C0B1  F0BB         	movff	___xxtofl@val+2,___xxtofl@arg+2
  7611   0037B6  C0B2  F0BC         	movff	___xxtofl@val+3,___xxtofl@arg+3
  7612   0037BA                     l7760:
  7613                           
  7614                           ; BSR set to: 0
  7615   0037BA  51AF               	movf	___xxtofl@val& (0+255),w,b
  7616   0037BC  11B0               	iorwf	(___xxtofl@val+1)& (0+255),w,b
  7617   0037BE  11B1               	iorwf	(___xxtofl@val+2)& (0+255),w,b
  7618   0037C0  11B2               	iorwf	(___xxtofl@val+3)& (0+255),w,b
  7619   0037C2  A4D8               	btfss	status,2,c
  7620   0037C4  EFE6  F01B         	goto	u11001
  7621   0037C8  EFE8  F01B         	goto	u11000
  7622   0037CC                     u11001:
  7623   0037CC  EFF2  F01B         	goto	l7766
  7624   0037D0                     u11000:
  7625   0037D0                     
  7626                           ; BSR set to: 0
  7627   0037D0  0E00               	movlw	0
  7628   0037D2  6FAF               	movwf	?___xxtofl& (0+255),b
  7629   0037D4  0E00               	movlw	0
  7630   0037D6  6FB0               	movwf	(?___xxtofl+1)& (0+255),b
  7631   0037D8  0E00               	movlw	0
  7632   0037DA  6FB1               	movwf	(?___xxtofl+2)& (0+255),b
  7633   0037DC  0E00               	movlw	0
  7634   0037DE  6FB2               	movwf	(?___xxtofl+3)& (0+255),b
  7635   0037E0  EF83  F01C         	goto	l922
  7636   0037E4                     l7766:
  7637                           
  7638                           ; BSR set to: 0
  7639   0037E4  0E96               	movlw	150
  7640   0037E6  6FB8               	movwf	___xxtofl@exp& (0+255),b
  7641   0037E8  EFFC  F01B         	goto	l7770
  7642   0037EC                     l7768:
  7643                           
  7644                           ; BSR set to: 0
  7645   0037EC  2BB8               	incf	___xxtofl@exp& (0+255),f,b
  7646   0037EE  90D8               	bcf	status,0,c
  7647   0037F0  33BC               	rrcf	(___xxtofl@arg+3)& (0+255),f,b
  7648   0037F2  33BB               	rrcf	(___xxtofl@arg+2)& (0+255),f,b
  7649   0037F4  33BA               	rrcf	(___xxtofl@arg+1)& (0+255),f,b
  7650   0037F6  33B9               	rrcf	___xxtofl@arg& (0+255),f,b
  7651   0037F8                     l7770:
  7652                           
  7653                           ; BSR set to: 0
  7654   0037F8  0E00               	movlw	0
  7655   0037FA  15B9               	andwf	___xxtofl@arg& (0+255),w,b
  7656   0037FC  6FB3               	movwf	??___xxtofl& (0+255),b
  7657   0037FE  0E00               	movlw	0
  7658   003800  15BA               	andwf	(___xxtofl@arg+1)& (0+255),w,b
  7659   003802  6FB4               	movwf	(??___xxtofl+1)& (0+255),b
  7660   003804  0E00               	movlw	0
  7661   003806  15BB               	andwf	(___xxtofl@arg+2)& (0+255),w,b
  7662   003808  6FB5               	movwf	(??___xxtofl+2)& (0+255),b
  7663   00380A  0EFE               	movlw	254
  7664   00380C  15BC               	andwf	(___xxtofl@arg+3)& (0+255),w,b
  7665   00380E  6FB6               	movwf	(??___xxtofl+3)& (0+255),b
  7666   003810  51B3               	movf	??___xxtofl& (0+255),w,b
  7667   003812  11B4               	iorwf	(??___xxtofl+1)& (0+255),w,b
  7668   003814  11B5               	iorwf	(??___xxtofl+2)& (0+255),w,b
  7669   003816  11B6               	iorwf	(??___xxtofl+3)& (0+255),w,b
  7670   003818  A4D8               	btfss	status,2,c
  7671   00381A  EF11  F01C         	goto	u11011
  7672   00381E  EF13  F01C         	goto	u11010
  7673   003822                     u11011:
  7674   003822  EFF6  F01B         	goto	l7768
  7675   003826                     u11010:
  7676   003826  EF21  F01C         	goto	l926
  7677   00382A                     l7772:
  7678                           
  7679                           ; BSR set to: 0
  7680   00382A  2BB8               	incf	___xxtofl@exp& (0+255),f,b
  7681   00382C                     
  7682                           ; BSR set to: 0
  7683   00382C  0E01               	movlw	1
  7684   00382E  27B9               	addwf	___xxtofl@arg& (0+255),f,b
  7685   003830  0E00               	movlw	0
  7686   003832  23BA               	addwfc	(___xxtofl@arg+1)& (0+255),f,b
  7687   003834  23BB               	addwfc	(___xxtofl@arg+2)& (0+255),f,b
  7688   003836  23BC               	addwfc	(___xxtofl@arg+3)& (0+255),f,b
  7689   003838                     
  7690                           ; BSR set to: 0
  7691   003838  90D8               	bcf	status,0,c
  7692   00383A  33BC               	rrcf	(___xxtofl@arg+3)& (0+255),f,b
  7693   00383C  33BB               	rrcf	(___xxtofl@arg+2)& (0+255),f,b
  7694   00383E  33BA               	rrcf	(___xxtofl@arg+1)& (0+255),f,b
  7695   003840  33B9               	rrcf	___xxtofl@arg& (0+255),f,b
  7696   003842                     l926:
  7697                           
  7698                           ; BSR set to: 0
  7699   003842  0E00               	movlw	0
  7700   003844  15B9               	andwf	___xxtofl@arg& (0+255),w,b
  7701   003846  6FB3               	movwf	??___xxtofl& (0+255),b
  7702   003848  0E00               	movlw	0
  7703   00384A  15BA               	andwf	(___xxtofl@arg+1)& (0+255),w,b
  7704   00384C  6FB4               	movwf	(??___xxtofl+1)& (0+255),b
  7705   00384E  0E00               	movlw	0
  7706   003850  15BB               	andwf	(___xxtofl@arg+2)& (0+255),w,b
  7707   003852  6FB5               	movwf	(??___xxtofl+2)& (0+255),b
  7708   003854  0EFF               	movlw	255
  7709   003856  15BC               	andwf	(___xxtofl@arg+3)& (0+255),w,b
  7710   003858  6FB6               	movwf	(??___xxtofl+3)& (0+255),b
  7711   00385A  51B3               	movf	??___xxtofl& (0+255),w,b
  7712   00385C  11B4               	iorwf	(??___xxtofl+1)& (0+255),w,b
  7713   00385E  11B5               	iorwf	(??___xxtofl+2)& (0+255),w,b
  7714   003860  11B6               	iorwf	(??___xxtofl+3)& (0+255),w,b
  7715   003862  A4D8               	btfss	status,2,c
  7716   003864  EF36  F01C         	goto	u11021
  7717   003868  EF38  F01C         	goto	u11020
  7718   00386C                     u11021:
  7719   00386C  EF15  F01C         	goto	l7772
  7720   003870                     u11020:
  7721   003870  EF40  F01C         	goto	l7780
  7722   003874                     l7778:
  7723                           
  7724                           ; BSR set to: 0
  7725   003874  07B8               	decf	___xxtofl@exp& (0+255),f,b
  7726   003876  90D8               	bcf	status,0,c
  7727   003878  37B9               	rlcf	___xxtofl@arg& (0+255),f,b
  7728   00387A  37BA               	rlcf	(___xxtofl@arg+1)& (0+255),f,b
  7729   00387C  37BB               	rlcf	(___xxtofl@arg+2)& (0+255),f,b
  7730   00387E  37BC               	rlcf	(___xxtofl@arg+3)& (0+255),f,b
  7731   003880                     l7780:
  7732                           
  7733                           ; BSR set to: 0
  7734   003880  BFBB               	btfsc	(___xxtofl@arg+2)& (0+255),7,b
  7735   003882  EF45  F01C         	goto	u11031
  7736   003886  EF47  F01C         	goto	u11030
  7737   00388A                     u11031:
  7738   00388A  EF4F  F01C         	goto	l933
  7739   00388E                     u11030:
  7740   00388E                     
  7741                           ; BSR set to: 0
  7742   00388E  0E02               	movlw	2
  7743   003890  61B8               	cpfslt	___xxtofl@exp& (0+255),b
  7744   003892  EF4D  F01C         	goto	u11041
  7745   003896  EF4F  F01C         	goto	u11040
  7746   00389A                     u11041:
  7747   00389A  EF3A  F01C         	goto	l7778
  7748   00389E                     u11040:
  7749   00389E                     l933:
  7750                           
  7751                           ; BSR set to: 0
  7752   00389E  B1B8               	btfsc	___xxtofl@exp& (0+255),0,b
  7753   0038A0  EF54  F01C         	goto	u11051
  7754   0038A4  EF56  F01C         	goto	u11050
  7755   0038A8                     u11051:
  7756   0038A8  EF57  F01C         	goto	l7786
  7757   0038AC                     u11050:
  7758   0038AC                     
  7759                           ; BSR set to: 0
  7760   0038AC  9FBB               	bcf	(___xxtofl@arg+2)& (0+255),7,b
  7761   0038AE                     l7786:
  7762                           
  7763                           ; BSR set to: 0
  7764   0038AE  90D8               	bcf	status,0,c
  7765   0038B0  33B8               	rrcf	___xxtofl@exp& (0+255),f,b
  7766   0038B2                     
  7767                           ; BSR set to: 0
  7768   0038B2  C0B8  F0B3         	movff	___xxtofl@exp,??___xxtofl
  7769   0038B6  6BB4               	clrf	(??___xxtofl+1)& (0+255),b
  7770   0038B8  6BB5               	clrf	(??___xxtofl+2)& (0+255),b
  7771   0038BA  6BB6               	clrf	(??___xxtofl+3)& (0+255),b
  7772   0038BC  C0B3  F0B6         	movff	??___xxtofl,??___xxtofl+3
  7773   0038C0  6BB5               	clrf	(??___xxtofl+2)& (0+255),b
  7774   0038C2  6BB4               	clrf	(??___xxtofl+1)& (0+255),b
  7775   0038C4  6BB3               	clrf	??___xxtofl& (0+255),b
  7776   0038C6  51B3               	movf	??___xxtofl& (0+255),w,b
  7777   0038C8  13B9               	iorwf	___xxtofl@arg& (0+255),f,b
  7778   0038CA  51B4               	movf	(??___xxtofl+1)& (0+255),w,b
  7779   0038CC  13BA               	iorwf	(___xxtofl@arg+1)& (0+255),f,b
  7780   0038CE  51B5               	movf	(??___xxtofl+2)& (0+255),w,b
  7781   0038D0  13BB               	iorwf	(___xxtofl@arg+2)& (0+255),f,b
  7782   0038D2  51B6               	movf	(??___xxtofl+3)& (0+255),w,b
  7783   0038D4  13BC               	iorwf	(___xxtofl@arg+3)& (0+255),f,b
  7784   0038D6                     
  7785                           ; BSR set to: 0
  7786   0038D6  51B7               	movf	___xxtofl@sign& (0+255),w,b
  7787   0038D8  B4D8               	btfsc	status,2,c
  7788   0038DA  EF71  F01C         	goto	u11061
  7789   0038DE  EF73  F01C         	goto	u11060
  7790   0038E2                     u11061:
  7791   0038E2  EF7B  F01C         	goto	l7796
  7792   0038E6                     u11060:
  7793   0038E6                     
  7794                           ; BSR set to: 0
  7795   0038E6  BFB2               	btfsc	(___xxtofl@val+3)& (0+255),7,b
  7796   0038E8  EF7A  F01C         	goto	u11070
  7797   0038EC  EF78  F01C         	goto	u11071
  7798   0038F0                     u11071:
  7799   0038F0  EF7B  F01C         	goto	l7796
  7800   0038F4                     u11070:
  7801   0038F4                     
  7802                           ; BSR set to: 0
  7803   0038F4  8FBC               	bsf	(___xxtofl@arg+3)& (0+255),7,b
  7804   0038F6                     l7796:
  7805                           
  7806                           ; BSR set to: 0
  7807   0038F6  C0B9  F0AF         	movff	___xxtofl@arg,?___xxtofl
  7808   0038FA  C0BA  F0B0         	movff	___xxtofl@arg+1,?___xxtofl+1
  7809   0038FE  C0BB  F0B1         	movff	___xxtofl@arg+2,?___xxtofl+2
  7810   003902  C0BC  F0B2         	movff	___xxtofl@arg+3,?___xxtofl+3
  7811   003906                     l922:
  7812                           
  7813                           ; BSR set to: 0
  7814   003906  0012               	return		;funcret
  7815   003908                     __end_of___xxtofl:
  7816                           	callstack 0
  7817                           
  7818 ;; *************** function _Initialize *****************
  7819 ;; Defined at:
  7820 ;;		line 254 in file "3b.c"
  7821 ;; Parameters:    Size  Location     Type
  7822 ;;		None
  7823 ;; Auto vars:     Size  Location     Type
  7824 ;;		None
  7825 ;; Return value:  Size  Location     Type
  7826 ;;                  1    wreg      void 
  7827 ;; Registers used:
  7828 ;;		wreg, status,2, cstack
  7829 ;; Tracked objects:
  7830 ;;		On entry : 0/0
  7831 ;;		On exit  : 0/0
  7832 ;;		Unchanged: 0/0
  7833 ;; Data sizes:     COMRAM   BANK0   BANK1   BANK2   BANK3   BANK4   BANK5
  7834 ;;      Params:         0       0       0       0       0       0       0
  7835 ;;      Locals:         0       0       0       0       0       0       0
  7836 ;;      Temps:          0       0       0       0       0       0       0
  7837 ;;      Totals:         0       0       0       0       0       0       0
  7838 ;;Total ram usage:        0 bytes
  7839 ;; Hardware stack levels used: 1
  7840 ;; Hardware stack levels required when called: 15
  7841 ;; This function calls:
  7842 ;;		_ADC_Initialize
  7843 ;;		_UART_Initialize
  7844 ;; This function is called by:
  7845 ;;		_main
  7846 ;; This function uses a non-reentrant model
  7847 ;;
  7848                           
  7849                           	psect	text25
  7850   0051C2                     __ptext25:
  7851                           	callstack 0
  7852   0051C2                     _Initialize:
  7853                           	callstack 15
  7854   0051C2  50D3               	movf	211,w,c	;volatile
  7855   0051C4  0B8F               	andlw	-113
  7856   0051C6  0960               	iorlw	96
  7857   0051C8  6ED3               	movwf	211,c	;volatile
  7858   0051CA  50C1               	movf	193,w,c	;volatile
  7859   0051CC  0BF0               	andlw	-16
  7860   0051CE  090E               	iorlw	14
  7861   0051D0  6EC1               	movwf	193,c	;volatile
  7862   0051D2  EC04  F029         	call	_ADC_Initialize	;wreg free
  7863   0051D6  ECF3  F028         	call	_UART_Initialize	;wreg free
  7864   0051DA  8CF2               	bsf	242,6,c	;volatile
  7865   0051DC  8ED0               	bsf	208,7,c	;volatile
  7866   0051DE  8EF2               	bsf	242,7,c	;volatile
  7867   0051E0  8CF2               	bsf	242,6,c	;volatile
  7868   0051E2  8EF2               	bsf	242,7,c	;volatile
  7869   0051E4  0012               	return		;funcret
  7870   0051E6                     __end_of_Initialize:
  7871                           	callstack 0
  7872                           
  7873 ;; *************** function _UART_Initialize *****************
  7874 ;; Defined at:
  7875 ;;		line 211 in file "3b.c"
  7876 ;; Parameters:    Size  Location     Type
  7877 ;;		None
  7878 ;; Auto vars:     Size  Location     Type
  7879 ;;		None
  7880 ;; Return value:  Size  Location     Type
  7881 ;;                  1    wreg      void 
  7882 ;; Registers used:
  7883 ;;		wreg, status,2
  7884 ;; Tracked objects:
  7885 ;;		On entry : 0/0
  7886 ;;		On exit  : 0/0
  7887 ;;		Unchanged: 0/0
  7888 ;; Data sizes:     COMRAM   BANK0   BANK1   BANK2   BANK3   BANK4   BANK5
  7889 ;;      Params:         0       0       0       0       0       0       0
  7890 ;;      Locals:         0       0       0       0       0       0       0
  7891 ;;      Temps:          0       0       0       0       0       0       0
  7892 ;;      Totals:         0       0       0       0       0       0       0
  7893 ;;Total ram usage:        0 bytes
  7894 ;; Hardware stack levels used: 1
  7895 ;; Hardware stack levels required when called: 14
  7896 ;; This function calls:
  7897 ;;		Nothing
  7898 ;; This function is called by:
  7899 ;;		_Initialize
  7900 ;; This function uses a non-reentrant model
  7901 ;;
  7902                           
  7903                           	psect	text26
  7904   0051E6                     __ptext26:
  7905                           	callstack 0
  7906   0051E6                     _UART_Initialize:
  7907                           	callstack 15
  7908   0051E6  8C94               	bsf	148,6,c	;volatile
  7909   0051E8  8E94               	bsf	148,7,c	;volatile
  7910   0051EA  98AC               	bcf	172,4,c	;volatile
  7911   0051EC  96B8               	bcf	184,3,c	;volatile
  7912   0051EE  94AC               	bcf	172,2,c	;volatile
  7913   0051F0  0E33               	movlw	51
  7914   0051F2  6EAF               	movwf	175,c	;volatile
  7915   0051F4  8EAB               	bsf	171,7,c	;volatile
  7916   0051F6  989E               	bcf	158,4,c	;volatile
  7917   0051F8  9A9E               	bcf	158,5,c	;volatile
  7918   0051FA  8AAC               	bsf	172,5,c	;volatile
  7919   0051FC  88AB               	bsf	171,4,c	;volatile
  7920   0051FE  989D               	bcf	157,4,c	;volatile
  7921   005200  989F               	bcf	159,4,c	;volatile
  7922   005202  8A9D               	bsf	157,5,c	;volatile
  7923   005204  8A9F               	bsf	159,5,c	;volatile
  7924   005206  0012               	return		;funcret
  7925   005208                     __end_of_UART_Initialize:
  7926                           	callstack 0
  7927                           
  7928 ;; *************** function _ADC_Initialize *****************
  7929 ;; Defined at:
  7930 ;;		line 169 in file "3b.c"
  7931 ;; Parameters:    Size  Location     Type
  7932 ;;		None
  7933 ;; Auto vars:     Size  Location     Type
  7934 ;;		None
  7935 ;; Return value:  Size  Location     Type
  7936 ;;                  1    wreg      void 
  7937 ;; Registers used:
  7938 ;;		wreg, status,2
  7939 ;; Tracked objects:
  7940 ;;		On entry : 0/0
  7941 ;;		On exit  : 0/0
  7942 ;;		Unchanged: 0/0
  7943 ;; Data sizes:     COMRAM   BANK0   BANK1   BANK2   BANK3   BANK4   BANK5
  7944 ;;      Params:         0       0       0       0       0       0       0
  7945 ;;      Locals:         0       0       0       0       0       0       0
  7946 ;;      Temps:          0       0       0       0       0       0       0
  7947 ;;      Totals:         0       0       0       0       0       0       0
  7948 ;;Total ram usage:        0 bytes
  7949 ;; Hardware stack levels used: 1
  7950 ;; Hardware stack levels required when called: 14
  7951 ;; This function calls:
  7952 ;;		Nothing
  7953 ;; This function is called by:
  7954 ;;		_Initialize
  7955 ;; This function uses a non-reentrant model
  7956 ;;
  7957                           
  7958                           	psect	text27
  7959   005208                     __ptext27:
  7960                           	callstack 0
  7961   005208                     _ADC_Initialize:
  7962                           	callstack 15
  7963   005208  8092               	bsf	146,0,c	;volatile
  7964   00520A  0EC3               	movlw	-61
  7965   00520C  16C2               	andwf	194,f,c	;volatile
  7966   00520E  98C1               	bcf	193,4,c	;volatile
  7967   005210  9AC1               	bcf	193,5,c	;volatile
  7968   005212  0EF8               	movlw	-8
  7969   005214  16C0               	andwf	192,f,c	;volatile
  7970   005216  50C0               	movf	192,w,c	;volatile
  7971   005218  0BC7               	andlw	-57
  7972   00521A  0908               	iorlw	8
  7973   00521C  6EC0               	movwf	192,c	;volatile
  7974   00521E  80C2               	bsf	194,0,c	;volatile
  7975   005220  8EC0               	bsf	192,7,c	;volatile
  7976   005222  9C9E               	bcf	158,6,c	;volatile
  7977   005224  9C9F               	bcf	159,6,c	;volatile
  7978   005226  8C9D               	bsf	157,6,c	;volatile
  7979   005228  0012               	return		;funcret
  7980   00522A                     __end_of_ADC_Initialize:
  7981                           	callstack 0
  7982                           
  7983 ;; *************** function _GetString *****************
  7984 ;; Defined at:
  7985 ;;		line 305 in file "3b.c"
  7986 ;; Parameters:    Size  Location     Type
  7987 ;;  str             2   47[BANK0 ] PTR unsigned char 
  7988 ;;		 -> main@str(100), 
  7989 ;; Auto vars:     Size  Location     Type
  7990 ;;		None
  7991 ;; Return value:  Size  Location     Type
  7992 ;;                  2   47[BANK0 ] int 
  7993 ;; Registers used:
  7994 ;;		wreg, fsr1l, fsr1h, fsr2l, fsr2h, status,2, status,0, tblptrl, tblptrh, tblptru, cstack
  7995 ;; Tracked objects:
  7996 ;;		On entry : 0/0
  7997 ;;		On exit  : 0/0
  7998 ;;		Unchanged: 0/0
  7999 ;; Data sizes:     COMRAM   BANK0   BANK1   BANK2   BANK3   BANK4   BANK5
  8000 ;;      Params:         0       2       0       0       0       0       0
  8001 ;;      Locals:         0       0       0       0       0       0       0
  8002 ;;      Temps:          0       1       0       0       0       0       0
  8003 ;;      Totals:         0       3       0       0       0       0       0
  8004 ;;Total ram usage:        3 bytes
  8005 ;; Hardware stack levels used: 1
  8006 ;; Hardware stack levels required when called: 15
  8007 ;; This function calls:
  8008 ;;		_ClearBuffer
  8009 ;;		_strcpy
  8010 ;; This function is called by:
  8011 ;;		_main
  8012 ;; This function uses a non-reentrant model
  8013 ;;
  8014                           
  8015                           	psect	text28
  8016   0049DC                     __ptext28:
  8017                           	callstack 0
  8018   0049DC                     _GetString:
  8019                           	callstack 15
  8020   0049DC  0EFF               	movlw	low (_buffer+65535)
  8021   0049DE  0100               	movlb	0	; () banked
  8022   0049E0  25D3               	addwf	_buffer_size& (0+255),w,b
  8023   0049E2  6ED9               	movwf	fsr2l,c
  8024   0049E4  0E01               	movlw	high (_buffer+65535)
  8025   0049E6  21D4               	addwfc	(_buffer_size+1)& (0+255),w,b
  8026   0049E8  6EDA               	movwf	fsr2h,c
  8027   0049EA  0E0D               	movlw	13
  8028   0049EC  18DE               	xorwf	postinc2,w,c
  8029   0049EE  A4D8               	btfss	status,2,c
  8030   0049F0  EFFC  F024         	goto	u11081
  8031   0049F4  EFFE  F024         	goto	u11080
  8032   0049F8                     u11081:
  8033   0049F8  EF1B  F025         	goto	l7832
  8034   0049FC                     u11080:
  8035   0049FC                     
  8036                           ; BSR set to: 0
  8037   0049FC  07D3               	decf	_buffer_size& (0+255),f,b
  8038   0049FE  A0D8               	btfss	status,0,c
  8039   004A00  07D4               	decf	(_buffer_size+1)& (0+255),f,b
  8040   004A02  0E00               	movlw	low _buffer
  8041   004A04  25D3               	addwf	_buffer_size& (0+255),w,b
  8042   004A06  6ED9               	movwf	fsr2l,c
  8043   004A08  0E02               	movlw	high _buffer
  8044   004A0A  21D4               	addwfc	(_buffer_size+1)& (0+255),w,b
  8045   004A0C  6EDA               	movwf	fsr2h,c
  8046   004A0E  6ADF               	clrf	indf2,c
  8047   004A10                     
  8048                           ; BSR set to: 0
  8049   004A10  C0AF  F0A7         	movff	GetString@str,strcpy@dest
  8050   004A14  C0B0  F0A8         	movff	GetString@str+1,strcpy@dest+1
  8051   004A18  0E00               	movlw	low _buffer
  8052   004A1A  6FA9               	movwf	strcpy@src& (0+255),b
  8053   004A1C  0E02               	movlw	high _buffer
  8054   004A1E  6FAA               	movwf	(strcpy@src+1)& (0+255),b
  8055   004A20  EC80  F026         	call	_strcpy	;wreg free
  8056   004A24  EC75  F028         	call	_ClearBuffer	;wreg free
  8057   004A28  0E00               	movlw	0
  8058   004A2A  0100               	movlb	0	; () banked
  8059   004A2C  6FB0               	movwf	(?_GetString+1)& (0+255),b
  8060   004A2E  0E01               	movlw	1
  8061   004A30  6FAF               	movwf	?_GetString& (0+255),b
  8062   004A32  EF24  F025         	goto	l169
  8063   004A36                     l7832:
  8064                           
  8065                           ; BSR set to: 0
  8066   004A36  C0AF  FFD9         	movff	GetString@str,fsr2l
  8067   004A3A  C0B0  FFDA         	movff	GetString@str+1,fsr2h
  8068   004A3E  6ADF               	clrf	indf2,c
  8069   004A40                     
  8070                           ; BSR set to: 0
  8071   004A40  0E00               	movlw	0
  8072   004A42  6FB0               	movwf	(?_GetString+1)& (0+255),b
  8073   004A44  0E00               	movlw	0
  8074   004A46  6FAF               	movwf	?_GetString& (0+255),b
  8075   004A48                     l169:
  8076                           
  8077                           ; BSR set to: 0
  8078   004A48  0012               	return		;funcret
  8079   004A4A                     __end_of_GetString:
  8080                           	callstack 0
  8081                           
  8082 ;; *************** function _strcpy *****************
  8083 ;; Defined at:
  8084 ;;		line 3 in file "C:\Program Files\Microchip\xc8\v3.00\pic\sources\c99\common\strcpy.c"
  8085 ;; Parameters:    Size  Location     Type
  8086 ;;  dest            2   39[BANK0 ] PTR unsigned char 
  8087 ;;		 -> dbuf(80), main@str(100), 
  8088 ;;  src             2   41[BANK0 ] PTR const unsigned char 
  8089 ;;		 -> STR_7(4), STR_4(4), buffer(100), 
  8090 ;; Auto vars:     Size  Location     Type
  8091 ;;  d               2   45[BANK0 ] PTR unsigned char 
  8092 ;;		 -> dbuf(80), main@str(100), 
  8093 ;; Return value:  Size  Location     Type
  8094 ;;                  2   39[BANK0 ] PTR unsigned char 
  8095 ;; Registers used:
  8096 ;;		wreg, fsr1l, fsr1h, fsr2l, fsr2h, status,2, status,0, tblptrl, tblptrh, tblptru
  8097 ;; Tracked objects:
  8098 ;;		On entry : 0/0
  8099 ;;		On exit  : 0/0
  8100 ;;		Unchanged: 0/0
  8101 ;; Data sizes:     COMRAM   BANK0   BANK1   BANK2   BANK3   BANK4   BANK5
  8102 ;;      Params:         0       4       0       0       0       0       0
  8103 ;;      Locals:         0       2       0       0       0       0       0
  8104 ;;      Temps:          0       2       0       0       0       0       0
  8105 ;;      Totals:         0       8       0       0       0       0       0
  8106 ;;Total ram usage:        8 bytes
  8107 ;; Hardware stack levels used: 1
  8108 ;; Hardware stack levels required when called: 14
  8109 ;; This function calls:
  8110 ;;		Nothing
  8111 ;; This function is called by:
  8112 ;;		_GetString
  8113 ;;		_efgtoa
  8114 ;; This function uses a non-reentrant model
  8115 ;;
  8116                           
  8117                           	psect	text29
  8118   004D00                     __ptext29:
  8119                           	callstack 0
  8120   004D00                     _strcpy:
  8121                           	callstack 11
  8122   004D00  C0A7  F0AD         	movff	strcpy@dest,strcpy@d
  8123   004D04  C0A8  F0AE         	movff	strcpy@dest+1,strcpy@d+1
  8124   004D08                     l6206:
  8125   004D08  0100               	movlb	0	; () banked
  8126   004D0A  51A9               	movf	strcpy@src& (0+255),w,b
  8127   004D0C  6FAB               	movwf	??_strcpy& (0+255),b
  8128   004D0E  51AA               	movf	(strcpy@src+1)& (0+255),w,b
  8129   004D10  6FAC               	movwf	(??_strcpy+1)& (0+255),b
  8130   004D12  4BA9               	infsnz	strcpy@src& (0+255),f,b
  8131   004D14  2BAA               	incf	(strcpy@src+1)& (0+255),f,b
  8132   004D16  C0AB  FFF6         	movff	??_strcpy,tblptrl
  8133   004D1A  C0AC  FFF7         	movff	??_strcpy+1,tblptrh
  8134   004D1E  6AF8               	clrf	tblptru,c
  8135   004D20  C0AD  FFD9         	movff	strcpy@d,fsr2l
  8136   004D24  C0AE  FFDA         	movff	strcpy@d+1,fsr2h
  8137   004D28  4BAD               	infsnz	strcpy@d& (0+255),f,b
  8138   004D2A  2BAE               	incf	(strcpy@d+1)& (0+255),f,b
  8139   004D2C  0E05               	movlw	(high __ramtop+-1)
  8140   004D2E  64F7               	cpfsgt	tblptrh,c
  8141   004D30  D003               	bra	u8597
  8142   004D32  0008               	tblrd		*
  8143   004D34  50F5               	movf	tablat,w,c
  8144   004D36  D005               	bra	u8590
  8145   004D38                     u8597:
  8146   004D38  CFF6 FFE1          	movff	tblptrl,fsr1l
  8147   004D3C  CFF7 FFE2          	movff	tblptrh,fsr1h
  8148   004D40  50E7               	movf	indf1,w,c
  8149   004D42                     u8590:
  8150   004D42  6EDF               	movwf	indf2,c
  8151   004D44  50DF               	movf	indf2,w,c
  8152   004D46  A4D8               	btfss	status,2,c
  8153   004D48  EFA8  F026         	goto	u8601
  8154   004D4C  EFAA  F026         	goto	u8600
  8155   004D50                     u8601:
  8156   004D50  EF84  F026         	goto	l6206
  8157   004D54                     u8600:
  8158   004D54  0012               	return		;funcret
  8159   004D56                     __end_of_strcpy:
  8160                           	callstack 0
  8161                           
  8162 ;; *************** function _ClearBuffer *****************
  8163 ;; Defined at:
  8164 ;;		line 292 in file "3b.c"
  8165 ;; Parameters:    Size  Location     Type
  8166 ;;		None
  8167 ;; Auto vars:     Size  Location     Type
  8168 ;;  i               2   39[BANK0 ] int 
  8169 ;; Return value:  Size  Location     Type
  8170 ;;                  1    wreg      void 
  8171 ;; Registers used:
  8172 ;;		wreg, fsr2l, fsr2h, status,2, status,0
  8173 ;; Tracked objects:
  8174 ;;		On entry : 0/0
  8175 ;;		On exit  : 0/0
  8176 ;;		Unchanged: 0/0
  8177 ;; Data sizes:     COMRAM   BANK0   BANK1   BANK2   BANK3   BANK4   BANK5
  8178 ;;      Params:         0       0       0       0       0       0       0
  8179 ;;      Locals:         0       2       0       0       0       0       0
  8180 ;;      Temps:          0       0       0       0       0       0       0
  8181 ;;      Totals:         0       2       0       0       0       0       0
  8182 ;;Total ram usage:        2 bytes
  8183 ;; Hardware stack levels used: 1
  8184 ;; Hardware stack levels required when called: 14
  8185 ;; This function calls:
  8186 ;;		Nothing
  8187 ;; This function is called by:
  8188 ;;		_GetString
  8189 ;; This function uses a non-reentrant model
  8190 ;;
  8191                           
  8192                           	psect	text30
  8193   0050EA                     __ptext30:
  8194                           	callstack 0
  8195   0050EA                     _ClearBuffer:
  8196                           	callstack 15
  8197   0050EA  0E00               	movlw	0
  8198   0050EC  0100               	movlb	0	; () banked
  8199   0050EE  6FA8               	movwf	(ClearBuffer@i+1)& (0+255),b
  8200   0050F0  0E00               	movlw	0
  8201   0050F2  6FA7               	movwf	ClearBuffer@i& (0+255),b
  8202   0050F4                     l7714:
  8203                           
  8204                           ; BSR set to: 0
  8205   0050F4  0E00               	movlw	low _buffer
  8206   0050F6  25A7               	addwf	ClearBuffer@i& (0+255),w,b
  8207   0050F8  6ED9               	movwf	fsr2l,c
  8208   0050FA  0E02               	movlw	high _buffer
  8209   0050FC  21A8               	addwfc	(ClearBuffer@i+1)& (0+255),w,b
  8210   0050FE  6EDA               	movwf	fsr2h,c
  8211   005100  6ADF               	clrf	indf2,c
  8212   005102                     
  8213                           ; BSR set to: 0
  8214   005102  4BA7               	infsnz	ClearBuffer@i& (0+255),f,b
  8215   005104  2BA8               	incf	(ClearBuffer@i+1)& (0+255),f,b
  8216   005106                     
  8217                           ; BSR set to: 0
  8218   005106  BFA8               	btfsc	(ClearBuffer@i+1)& (0+255),7,b
  8219   005108  EF8F  F028         	goto	u10911
  8220   00510C  51A8               	movf	(ClearBuffer@i+1)& (0+255),w,b
  8221   00510E  E109               	bnz	u10910
  8222   005110  0E64               	movlw	100
  8223   005112  5DA7               	subwf	ClearBuffer@i& (0+255),w,b
  8224   005114  A0D8               	btfss	status,0,c
  8225   005116  EF8F  F028         	goto	u10911
  8226   00511A  EF91  F028         	goto	u10910
  8227   00511E                     u10911:
  8228   00511E  EF7A  F028         	goto	l7714
  8229   005122                     u10910:
  8230   005122                     
  8231                           ; BSR set to: 0
  8232   005122  0E00               	movlw	0
  8233   005124  6FD4               	movwf	(_buffer_size+1)& (0+255),b
  8234   005126  0E00               	movlw	0
  8235   005128  6FD3               	movwf	_buffer_size& (0+255),b
  8236   00512A                     
  8237                           ; BSR set to: 0
  8238   00512A  0012               	return		;funcret
  8239   00512C                     __end_of_ClearBuffer:
  8240                           	callstack 0
  8241                           
  8242 ;; *************** function _Lo_ISR *****************
  8243 ;; Defined at:
  8244 ;;		line 408 in file "3b.c"
  8245 ;; Parameters:    Size  Location     Type
  8246 ;;		None
  8247 ;; Auto vars:     Size  Location     Type
  8248 ;;  value           2   37[BANK0 ] int 
  8249 ;; Return value:  Size  Location     Type
  8250 ;;                  1    wreg      void 
  8251 ;; Registers used:
  8252 ;;		wreg, fsr1l, fsr1h, fsr2l, fsr2h, status,2, status,0, tblptrl, tblptrh, tblptru, prodl, prodh, cstack
  8253 ;; Tracked objects:
  8254 ;;		On entry : 0/0
  8255 ;;		On exit  : 0/0
  8256 ;;		Unchanged: 0/0
  8257 ;; Data sizes:     COMRAM   BANK0   BANK1   BANK2   BANK3   BANK4   BANK5
  8258 ;;      Params:         0       0       0       0       0       0       0
  8259 ;;      Locals:         0       2       0       0       0       0       0
  8260 ;;      Temps:          0      15       0       0       0       0       0
  8261 ;;      Totals:         0      17       0       0       0       0       0
  8262 ;;Total ram usage:       17 bytes
  8263 ;; Hardware stack levels used: 1
  8264 ;; Hardware stack levels required when called: 13
  8265 ;; This function calls:
  8266 ;;		_timer0_interrupted
  8267 ;;		_timer1_interrupted
  8268 ;;		_timer2_interrupted
  8269 ;;		_timer3_interrupted
  8270 ;;		_variable_register_changed
  8271 ;; This function is called by:
  8272 ;;		Interrupt level 1
  8273 ;; This function uses a non-reentrant model
  8274 ;;
  8275                           
  8276                           	psect	intcodelo
  8277   000018                     __pintcodelo:
  8278                           	callstack 0
  8279   000018                     _Lo_ISR:
  8280                           	callstack 7
  8281                           
  8282                           ; BSR set to: 0
  8283                           ;incstack = 0
  8284   000018  8079               	bsf	int$flags,0,c	;set compiler interrupt flag (level 1)
  8285   00001A  CFD8 F098          	movff	status,??_Lo_ISR+2
  8286   00001E  CFE8 F099          	movff	wreg,??_Lo_ISR+3
  8287   000022  CFE0 F09A          	movff	bsr,??_Lo_ISR+4
  8288   000026  CFE1 F09B          	movff	fsr1l,??_Lo_ISR+5
  8289   00002A  CFE2 F09C          	movff	fsr1h,??_Lo_ISR+6
  8290   00002E  CFD9 F09D          	movff	fsr2l,??_Lo_ISR+7
  8291   000032  CFDA F09E          	movff	fsr2h,??_Lo_ISR+8
  8292   000036  CFF3 F09F          	movff	prodl,??_Lo_ISR+9
  8293   00003A  CFF4 F0A0          	movff	prodh,??_Lo_ISR+10
  8294   00003E  CFF6 F0A1          	movff	tblptrl,??_Lo_ISR+11
  8295   000042  CFF7 F0A2          	movff	tblptrh,??_Lo_ISR+12
  8296   000046  CFF8 F0A3          	movff	tblptru,??_Lo_ISR+13
  8297   00004A  CFF5 F0A4          	movff	tablat,??_Lo_ISR+14
  8298   00004E  AC9E               	btfss	158,6,c	;volatile
  8299   000050  EF2C  F000         	goto	i1u1328_21
  8300   000054  EF2E  F000         	goto	i1u1328_20
  8301   000058                     i1u1328_21:
  8302   000058  EF47  F000         	goto	i1l9260
  8303   00005C                     i1u1328_20:
  8304   00005C  50C4               	movf	196,w,c	;volatile
  8305   00005E  0100               	movlb	0	; () banked
  8306   000060  6F97               	movwf	(??_Lo_ISR+1)& (0+255),b
  8307   000062  6B96               	clrf	??_Lo_ISR& (0+255),b
  8308   000064  50C3               	movf	195,w,c	;volatile
  8309   000066  2596               	addwf	??_Lo_ISR& (0+255),w,b
  8310   000068  6FA5               	movwf	Lo_ISR@value& (0+255),b
  8311   00006A  0E00               	movlw	0
  8312   00006C  2197               	addwfc	(??_Lo_ISR+1)& (0+255),w,b
  8313   00006E  6FA6               	movwf	(Lo_ISR@value+1)& (0+255),b
  8314   000070                     
  8315                           ; BSR set to: 0
  8316   000070  C0A5  F090         	movff	Lo_ISR@value,variable_register_changed@value
  8317   000074  C0A6  F091         	movff	Lo_ISR@value+1,variable_register_changed@value+1
  8318   000078  EC77  F024         	call	_variable_register_changed	;wreg free
  8319   00007C  9C9E               	bcf	158,6,c	;volatile
  8320   00007E  0E07               	movlw	7
  8321   000080  0100               	movlb	0	; () banked
  8322   000082  6F96               	movwf	??_Lo_ISR& (0+255),b
  8323   000084  0E7D               	movlw	125
  8324   000086                     i1u1335_27:
  8325   000086  2EE8               	decfsz	wreg,f,c
  8326   000088  D7FE               	bra	i1u1335_27
  8327   00008A  2F96               	decfsz	??_Lo_ISR& (0+255),f,b
  8328   00008C  D7FC               	bra	i1u1335_27
  8329   00008E                     i1l9260:
  8330   00008E  A4F2               	btfss	242,2,c	;volatile
  8331   000090  EF4C  F000         	goto	i1u1329_21
  8332   000094  EF4E  F000         	goto	i1u1329_20
  8333   000098                     i1u1329_21:
  8334   000098  EF55  F000         	goto	i1l9268
  8335   00009C                     i1u1329_20:
  8336   00009C  EC36  F029         	call	_timer0_interrupted	;wreg free
  8337   0000A0  0ECF               	movlw	207
  8338   0000A2  6ED7               	movwf	215,c	;volatile
  8339   0000A4  0E2B               	movlw	43
  8340   0000A6  6ED6               	movwf	214,c	;volatile
  8341   0000A8  94F2               	bcf	242,2,c	;volatile
  8342   0000AA                     i1l9268:
  8343   0000AA  A09E               	btfss	158,0,c	;volatile
  8344   0000AC  EF5A  F000         	goto	i1u1330_21
  8345   0000B0  EF5C  F000         	goto	i1u1330_20
  8346   0000B4                     i1u1330_21:
  8347   0000B4  EF63  F000         	goto	i1l9276
  8348   0000B8                     i1u1330_20:
  8349   0000B8  EC35  F029         	call	_timer1_interrupted	;wreg free
  8350   0000BC  0ECF               	movlw	207
  8351   0000BE  6ECF               	movwf	207,c	;volatile
  8352   0000C0  0E2B               	movlw	43
  8353   0000C2  6ECE               	movwf	206,c	;volatile
  8354   0000C4  909E               	bcf	158,0,c	;volatile
  8355   0000C6                     i1l9276:
  8356   0000C6  A29E               	btfss	158,1,c	;volatile
  8357   0000C8  EF68  F000         	goto	i1u1331_21
  8358   0000CC  EF6A  F000         	goto	i1u1331_20
  8359   0000D0                     i1u1331_21:
  8360   0000D0  EF6D  F000         	goto	i1l9282
  8361   0000D4                     i1u1331_20:
  8362   0000D4  EC34  F029         	call	_timer2_interrupted	;wreg free
  8363   0000D8  929E               	bcf	158,1,c	;volatile
  8364   0000DA                     i1l9282:
  8365   0000DA  A2A1               	btfss	161,1,c	;volatile
  8366   0000DC  EF72  F000         	goto	i1u1332_21
  8367   0000E0  EF74  F000         	goto	i1u1332_20
  8368   0000E4                     i1u1332_21:
  8369   0000E4  EF7B  F000         	goto	i1l230
  8370   0000E8                     i1u1332_20:
  8371   0000E8  EC33  F029         	call	_timer3_interrupted	;wreg free
  8372   0000EC  0E85               	movlw	133
  8373   0000EE  6EB3               	movwf	179,c	;volatile
  8374   0000F0  0EED               	movlw	237
  8375   0000F2  6EB2               	movwf	178,c	;volatile
  8376   0000F4  92A1               	bcf	161,1,c	;volatile
  8377   0000F6                     i1l230:
  8378   0000F6  C0A4  FFF5         	movff	??_Lo_ISR+14,tablat
  8379   0000FA  C0A3  FFF8         	movff	??_Lo_ISR+13,tblptru
  8380   0000FE  C0A2  FFF7         	movff	??_Lo_ISR+12,tblptrh
  8381   000102  C0A1  FFF6         	movff	??_Lo_ISR+11,tblptrl
  8382   000106  C0A0  FFF4         	movff	??_Lo_ISR+10,prodh
  8383   00010A  C09F  FFF3         	movff	??_Lo_ISR+9,prodl
  8384   00010E  C09E  FFDA         	movff	??_Lo_ISR+8,fsr2h
  8385   000112  C09D  FFD9         	movff	??_Lo_ISR+7,fsr2l
  8386   000116  C09C  FFE2         	movff	??_Lo_ISR+6,fsr1h
  8387   00011A  C09B  FFE1         	movff	??_Lo_ISR+5,fsr1l
  8388   00011E  C09A  FFE0         	movff	??_Lo_ISR+4,bsr
  8389   000122  C099  FFE8         	movff	??_Lo_ISR+3,wreg
  8390   000126  C098  FFD8         	movff	??_Lo_ISR+2,status
  8391   00012A  9079               	bcf	int$flags,0,c	;clear compiler interrupt flag (level 1)
  8392   00012C  0010               	retfie	
  8393   00012E                     __end_of_Lo_ISR:
  8394                           	callstack 0
  8395                           
  8396 ;; *************** function _variable_register_changed *****************
  8397 ;; Defined at:
  8398 ;;		line 454 in file "3b.c"
  8399 ;; Parameters:    Size  Location     Type
  8400 ;;  value           2   16[BANK0 ] int 
  8401 ;; Auto vars:     Size  Location     Type
  8402 ;;		None
  8403 ;; Return value:  Size  Location     Type
  8404 ;;                  1    wreg      void 
  8405 ;; Registers used:
  8406 ;;		wreg, fsr1l, fsr1h, fsr2l, fsr2h, status,2, status,0, tblptrl, tblptrh, tblptru, prodl, prodh, cstack
  8407 ;; Tracked objects:
  8408 ;;		On entry : 0/0
  8409 ;;		On exit  : 0/0
  8410 ;;		Unchanged: 0/0
  8411 ;; Data sizes:     COMRAM   BANK0   BANK1   BANK2   BANK3   BANK4   BANK5
  8412 ;;      Params:         0       2       0       0       0       0       0
  8413 ;;      Locals:         0       4       0       0       0       0       0
  8414 ;;      Temps:          0       0       0       0       0       0       0
  8415 ;;      Totals:         0       6       0       0       0       0       0
  8416 ;;Total ram usage:        6 bytes
  8417 ;; Hardware stack levels used: 1
  8418 ;; Hardware stack levels required when called: 12
  8419 ;; This function calls:
  8420 ;;		i1___fldiv
  8421 ;;		i1___xxtofl
  8422 ;;		i1_clear_terminal
  8423 ;;		i1_printf
  8424 ;; This function is called by:
  8425 ;;		_Lo_ISR
  8426 ;; This function uses a non-reentrant model
  8427 ;;
  8428                           
  8429                           	psect	text32
  8430   0048EE                     __ptext32:
  8431                           	callstack 0
  8432   0048EE                     _variable_register_changed:
  8433                           	callstack 7
  8434   0048EE  C090  F007         	movff	variable_register_changed@value,i1___xxtofl@val
  8435   0048F2  C091  F008         	movff	variable_register_changed@value+1,i1___xxtofl@val+1
  8436   0048F6  0E00               	movlw	0
  8437   0048F8  BE08               	btfsc	(i1___xxtofl@val+1)^0,7,c
  8438   0048FA  0EFF               	movlw	-1
  8439   0048FC  6E09               	movwf	(i1___xxtofl@val+2)^0,c
  8440   0048FE  6E0A               	movwf	(i1___xxtofl@val+3)^0,c
  8441   004900  0E01               	movlw	1
  8442   004902  EC5E  F01D         	call	i1___xxtofl
  8443   004906  C007  F0CD         	movff	?i1___xxtofl,_g_value
  8444   00490A  C008  F0CE         	movff	?i1___xxtofl+1,_g_value+1
  8445   00490E  C009  F0CF         	movff	?i1___xxtofl+2,_g_value+2
  8446   004912  C00A  F0D0         	movff	?i1___xxtofl+3,_g_value+3
  8447   004916  C0CD  F007         	movff	_g_value,i1___fldiv@b
  8448   00491A  C0CE  F008         	movff	_g_value+1,i1___fldiv@b+1
  8449   00491E  C0CF  F009         	movff	_g_value+2,i1___fldiv@b+2
  8450   004922  C0D0  F00A         	movff	_g_value+3,i1___fldiv@b+3
  8451   004926  C0D5  F00B         	movff	_x,i1___fldiv@a
  8452   00492A  C0D6  F00C         	movff	_x+1,i1___fldiv@a+1
  8453   00492E  C0D7  F00D         	movff	_x+2,i1___fldiv@a+2
  8454   004932  C0D8  F00E         	movff	_x+3,i1___fldiv@a+3
  8455   004936  ECCC  F017         	call	i1___fldiv	;wreg free
  8456   00493A  C007  F092         	movff	?i1___fldiv,_variable_register_changed$2431
  8457   00493E  C008  F093         	movff	?i1___fldiv+1,_variable_register_changed$2431+1
  8458   004942  C009  F094         	movff	?i1___fldiv+2,_variable_register_changed$2431+2
  8459   004946  C00A  F095         	movff	?i1___fldiv+3,_variable_register_changed$2431+3
  8460   00494A  0E11               	movlw	low STR_2
  8461   00494C  0100               	movlb	0	; () banked
  8462   00494E  6F8B               	movwf	i1printf@fmt& (0+255),b
  8463   004950  C092  F08C         	movff	_variable_register_changed$2431,?i1_printf+1
  8464   004954  C093  F08D         	movff	_variable_register_changed$2431+1,?i1_printf+2
  8465   004958  C094  F08E         	movff	_variable_register_changed$2431+2,?i1_printf+3
  8466   00495C  C095  F08F         	movff	_variable_register_changed$2431+3,?i1_printf+4
  8467   004960  EC15  F029         	call	i1_printf	;wreg free
  8468   004964  EC2B  F029         	call	i1_clear_terminal	;wreg free
  8469   004968  0012               	return		;funcret
  8470   00496A                     __end_of_variable_register_changed:
  8471                           	callstack 0
  8472                           
  8473 ;; *************** function i1_clear_terminal *****************
  8474 ;; Defined at:
  8475 ;;		line 317 in file "3b.c"
  8476 ;; Parameters:    Size  Location     Type
  8477 ;;		None
  8478 ;; Auto vars:     Size  Location     Type
  8479 ;;		None
  8480 ;; Return value:  Size  Location     Type
  8481 ;;                  1    wreg      void 
  8482 ;; Registers used:
  8483 ;;		wreg, fsr1l, fsr1h, fsr2l, fsr2h, status,2, status,0, tblptrl, tblptrh, tblptru, prodl, prodh, cstack
  8484 ;; Tracked objects:
  8485 ;;		On entry : 0/0
  8486 ;;		On exit  : 0/0
  8487 ;;		Unchanged: 0/0
  8488 ;; Data sizes:     COMRAM   BANK0   BANK1   BANK2   BANK3   BANK4   BANK5
  8489 ;;      Params:         0       0       0       0       0       0       0
  8490 ;;      Locals:         0       0       0       0       0       0       0
  8491 ;;      Temps:          0       0       0       0       0       0       0
  8492 ;;      Totals:         0       0       0       0       0       0       0
  8493 ;;Total ram usage:        0 bytes
  8494 ;; Hardware stack levels used: 1
  8495 ;; Hardware stack levels required when called: 11
  8496 ;; This function calls:
  8497 ;;		i1_printf
  8498 ;; This function is called by:
  8499 ;;		_variable_register_changed
  8500 ;; This function uses a non-reentrant model
  8501 ;;
  8502                           
  8503                           	psect	text33
  8504   005256                     __ptext33:
  8505                           	callstack 0
  8506   005256                     i1_clear_terminal:
  8507                           	callstack 7
  8508   005256  0E01               	movlw	low STR_1
  8509   005258  0100               	movlb	0	; () banked
  8510   00525A  6F8B               	movwf	i1printf@fmt& (0+255),b
  8511   00525C  EC15  F029         	call	i1_printf	;wreg free
  8512   005260  0012               	return		;funcret
  8513   005262                     __end_ofi1_clear_terminal:
  8514                           	callstack 0
  8515                           
  8516 ;; *************** function i1_printf *****************
  8517 ;; Defined at:
  8518 ;;		line 5 in file "C:\Program Files\Microchip\xc8\v3.00\pic\sources\c99\common\printf.c"
  8519 ;; Parameters:    Size  Location     Type
  8520 ;;  fmt             1   11[BANK0 ] PTR const unsigned char 
  8521 ;;		 -> STR_3(4), STR_2(4), STR_1(8), 
  8522 ;; Auto vars:     Size  Location     Type
  8523 ;;  ap              2  112[COMRAM] PTR void [1]
  8524 ;;		 -> ?i1_printf(2), ?_printf(2), 
  8525 ;;  ret             2    0        int 
  8526 ;; Return value:  Size  Location     Type
  8527 ;;                  2   11[BANK0 ] int 
  8528 ;; Registers used:
  8529 ;;		wreg, fsr1l, fsr1h, fsr2l, fsr2h, status,2, status,0, tblptrl, tblptrh, tblptru, prodl, prodh, cstack
  8530 ;; Tracked objects:
  8531 ;;		On entry : 0/0
  8532 ;;		On exit  : 0/0
  8533 ;;		Unchanged: 0/0
  8534 ;; Data sizes:     COMRAM   BANK0   BANK1   BANK2   BANK3   BANK4   BANK5
  8535 ;;      Params:         0       5       0       0       0       0       0
  8536 ;;      Locals:         2       0       0       0       0       0       0
  8537 ;;      Temps:          0       0       0       0       0       0       0
  8538 ;;      Totals:         2       5       0       0       0       0       0
  8539 ;;Total ram usage:        7 bytes
  8540 ;; Hardware stack levels used: 1
  8541 ;; Hardware stack levels required when called: 10
  8542 ;; This function calls:
  8543 ;;		i1_vfprintf
  8544 ;; This function is called by:
  8545 ;;		_variable_register_changed
  8546 ;;		i1_clear_terminal
  8547 ;; This function uses a non-reentrant model
  8548 ;;
  8549                           
  8550                           	psect	text34
  8551   00522A                     __ptext34:
  8552                           	callstack 0
  8553   00522A                     i1_printf:
  8554                           	callstack 8
  8555   00522A  0E8C               	movlw	low (?i1_printf+1)
  8556   00522C  6E71               	movwf	i1printf@ap^0,c
  8557   00522E  6A72               	clrf	(i1printf@ap+1)^0,c
  8558   005230  0E00               	movlw	0
  8559   005232  0100               	movlb	0	; () banked
  8560   005234  6F86               	movwf	i1vfprintf@fp& (0+255),b
  8561   005236  0E00               	movlw	0
  8562   005238  6F87               	movwf	(i1vfprintf@fp+1)& (0+255),b
  8563   00523A  C08B  F088         	movff	i1printf@fmt,i1vfprintf@fmt
  8564   00523E  0E71               	movlw	low i1printf@ap
  8565   005240  6F89               	movwf	i1vfprintf@ap& (0+255),b
  8566   005242  6B8A               	clrf	(i1vfprintf@ap+1)& (0+255),b
  8567   005244  EC0C  F028         	call	i1_vfprintf	;wreg free
  8568   005248  0012               	return		;funcret
  8569   00524A                     __end_ofi1_printf:
  8570                           	callstack 0
  8571                           
  8572 ;; *************** function i1_vfprintf *****************
  8573 ;; Defined at:
  8574 ;;		line 1817 in file "C:\Program Files\Microchip\xc8\v3.00\pic\sources\c99\common\doprnt.c"
  8575 ;; Parameters:    Size  Location     Type
  8576 ;;  fp              2    6[BANK0 ] PTR struct _IO_FILE
  8577 ;;		 -> NULL(0), 
  8578 ;;  fmt             1    8[BANK0 ] PTR const unsigned char 
  8579 ;;		 -> STR_3(4), STR_2(4), STR_1(8), 
  8580 ;;  ap              2    9[BANK0 ] PTR PTR void 
  8581 ;;		 -> i1printf@ap(2), printf@ap(2), 
  8582 ;; Auto vars:     Size  Location     Type
  8583 ;;  cfmt            1  111[COMRAM] PTR unsigned char 
  8584 ;;		 -> STR_3(4), STR_2(4), STR_1(8), 
  8585 ;; Return value:  Size  Location     Type
  8586 ;;                  2    6[BANK0 ] int 
  8587 ;; Registers used:
  8588 ;;		wreg, fsr1l, fsr1h, fsr2l, fsr2h, status,2, status,0, tblptrl, tblptrh, tblptru, prodl, prodh, cstack
  8589 ;; Tracked objects:
  8590 ;;		On entry : 0/0
  8591 ;;		On exit  : 0/0
  8592 ;;		Unchanged: 0/0
  8593 ;; Data sizes:     COMRAM   BANK0   BANK1   BANK2   BANK3   BANK4   BANK5
  8594 ;;      Params:         0       5       0       0       0       0       0
  8595 ;;      Locals:         1       0       0       0       0       0       0
  8596 ;;      Temps:          0       0       0       0       0       0       0
  8597 ;;      Totals:         1       5       0       0       0       0       0
  8598 ;;Total ram usage:        6 bytes
  8599 ;; Hardware stack levels used: 1
  8600 ;; Hardware stack levels required when called: 9
  8601 ;; This function calls:
  8602 ;;		i1_vfpfcnvrt
  8603 ;; This function is called by:
  8604 ;;		i1_printf
  8605 ;; This function uses a non-reentrant model
  8606 ;;
  8607                           
  8608                           	psect	text35
  8609   005018                     __ptext35:
  8610                           	callstack 0
  8611   005018                     i1_vfprintf:
  8612                           	callstack 8
  8613   005018                     
  8614                           ;C:\Program Files\Microchip\xc8\v3.00\pic\sources\c99\common\doprnt.c: 1817: int vfprint
      +                          f(FILE *fp, const char *fmt, va_list ap);C:\Program Files\Microchip\xc8\v3.00\pic\source
      +                          s\c99\common\doprnt.c: 1818: {;C:\Program Files\Microchip\xc8\v3.00\pic\sources\c99\comm
      +                          on\doprnt.c: 1820:     char *cfmt;;C:\Program Files\Microchip\xc8\v3.00\pic\sources\c99\
      +                          common\doprnt.c: 1822:     cfmt = (char *)fmt;
  8615   005018  C088  F070         	movff	i1vfprintf@fmt,i1vfprintf@cfmt
  8616                           
  8617                           ;C:\Program Files\Microchip\xc8\v3.00\pic\sources\c99\common\doprnt.c: 1826:     while (
      +                          *cfmt) {
  8618   00501C  EF1C  F028         	goto	i1l9200
  8619   005020                     i1l9198:
  8620                           
  8621                           ;C:\Program Files\Microchip\xc8\v3.00\pic\sources\c99\common\doprnt.c: 1830:    vfpfcnvr
      +                          t(fp, &cfmt, ap);
  8622   005020  C086  F069         	movff	i1vfprintf@fp,i1vfpfcnvrt@fp
  8623   005024  C087  F06A         	movff	i1vfprintf@fp+1,i1vfpfcnvrt@fp+1
  8624   005028  0E70               	movlw	low i1vfprintf@cfmt
  8625   00502A  6E6B               	movwf	i1vfpfcnvrt@fmt^0,c
  8626   00502C  C089  F06C         	movff	i1vfprintf@ap,i1vfpfcnvrt@ap
  8627   005030  C08A  F06D         	movff	i1vfprintf@ap+1,i1vfpfcnvrt@ap+1
  8628   005034  EC38  F01E         	call	i1_vfpfcnvrt	;wreg free
  8629   005038                     i1l9200:
  8630                           
  8631                           ;C:\Program Files\Microchip\xc8\v3.00\pic\sources\c99\common\doprnt.c: 1826:     while (
      +                          *cfmt) {
  8632   005038  C070  FFF6         	movff	i1vfprintf@cfmt,tblptrl
  8633   00503C                     	if	1	;There is more than 1 active tblptr byte
  8634   00503C  0E06               	movlw	high __smallconst
  8635   00503E  6EF7               	movwf	tblptrh,c
  8636   005040                     	endif
  8637   005040                     	if	0	;tblptru may be non-zero
  8638   005040                     	endif
  8639   005040                     	if	0	;tblptru may be non-zero
  8640   005040                     	endif
  8641   005040  0008               	tblrd		*
  8642   005042  50F5               	movf	tablat,w,c
  8643   005044  0900               	iorlw	0
  8644   005046  A4D8               	btfss	status,2,c
  8645   005048  EF28  F028         	goto	i1u1325_21
  8646   00504C  EF2A  F028         	goto	i1u1325_20
  8647   005050                     i1u1325_21:
  8648   005050  EF10  F028         	goto	i1l9198
  8649   005054                     i1u1325_20:
  8650   005054                     
  8651                           ;C:\Program Files\Microchip\xc8\v3.00\pic\sources\c99\common\doprnt.c: 1835:  return 0;
  8652   005054  0E00               	movlw	0
  8653   005056  0100               	movlb	0	; () banked
  8654   005058  6F87               	movwf	(?i1_vfprintf+1)& (0+255),b
  8655   00505A  0E00               	movlw	0
  8656   00505C  6F86               	movwf	?i1_vfprintf& (0+255),b
  8657   00505E                     
  8658                           ; BSR set to: 0
  8659   00505E  0012               	return		;funcret
  8660   005060                     __end_ofi1_vfprintf:
  8661                           	callstack 0
  8662                           
  8663 ;; *************** function i1_vfpfcnvrt *****************
  8664 ;; Defined at:
  8665 ;;		line 1177 in file "C:\Program Files\Microchip\xc8\v3.00\pic\sources\c99\common\doprnt.c"
  8666 ;; Parameters:    Size  Location     Type
  8667 ;;  fp              2  104[COMRAM] PTR struct _IO_FILE
  8668 ;;		 -> NULL(0), 
  8669 ;;  fmt             1  106[COMRAM] PTR PTR unsigned char 
  8670 ;;		 -> i1vfprintf@cfmt(1), vfprintf@cfmt(1), 
  8671 ;;  ap              2  107[COMRAM] PTR PTR void 
  8672 ;;		 -> i1printf@ap(2), printf@ap(2), 
  8673 ;; Auto vars:     Size  Location     Type
  8674 ;;  convarg         4    0[BANK0 ] struct .
  8675 ;;  cp              1    5[BANK0 ] PTR unsigned char 
  8676 ;;		 -> STR_3(4), STR_2(4), STR_1(8), 
  8677 ;;  c               1    4[BANK0 ] unsigned char 
  8678 ;;  done            1    0        _Bool 
  8679 ;; Return value:  Size  Location     Type
  8680 ;;                  1    wreg      void 
  8681 ;; Registers used:
  8682 ;;		wreg, fsr1l, fsr1h, fsr2l, fsr2h, status,2, status,0, tblptrl, tblptrh, tblptru, prodl, prodh, cstack
  8683 ;; Tracked objects:
  8684 ;;		On entry : 0/0
  8685 ;;		On exit  : 0/0
  8686 ;;		Unchanged: 0/0
  8687 ;; Data sizes:     COMRAM   BANK0   BANK1   BANK2   BANK3   BANK4   BANK5
  8688 ;;      Params:         5       0       0       0       0       0       0
  8689 ;;      Locals:         0       6       0       0       0       0       0
  8690 ;;      Temps:          2       0       0       0       0       0       0
  8691 ;;      Totals:         7       6       0       0       0       0       0
  8692 ;;Total ram usage:       13 bytes
  8693 ;; Hardware stack levels used: 1
  8694 ;; Hardware stack levels required when called: 8
  8695 ;; This function calls:
  8696 ;;		i1_efgtoa
  8697 ;;		i1_fputc
  8698 ;; This function is called by:
  8699 ;;		i1_vfprintf
  8700 ;; This function uses a non-reentrant model
  8701 ;;
  8702                           
  8703                           	psect	text36
  8704   003C70                     __ptext36:
  8705                           	callstack 0
  8706   003C70                     i1_vfpfcnvrt:
  8707                           	callstack 8
  8708   003C70                     
  8709                           ;C:\Program Files\Microchip\xc8\v3.00\pic\sources\c99\common\doprnt.c: 1177: vfpfcnvrt(F
      +                          ILE *fp, char *fmt[], va_list ap);C:\Program Files\Microchip\xc8\v3.00\pic\sources\c99\c
      +                          ommon\doprnt.c: 1178: {;C:\Program Files\Microchip\xc8\v3.00\pic\sources\c99\common\dopr
      +                          nt.c: 1179:     char c, *cp;;C:\Program Files\Microchip\xc8\v3.00\pic\sources\c99\common
      +                          \doprnt.c: 1180:     _Bool done;;C:\Program Files\Microchip\xc8\v3.00\pic\sources\c99\co
      +                          mmon\doprnt.c: 1188:  } convarg;;C:\Program Files\Microchip\xc8\v3.00\pic\sources\c99\co
      +                          mmon\doprnt.c: 1201:     if ((*fmt)[0] == '%') {
  8710   003C70  506B               	movf	i1vfpfcnvrt@fmt^0,w,c
  8711   003C72  6ED9               	movwf	fsr2l,c
  8712   003C74  6ADA               	clrf	fsr2h,c
  8713   003C76  CFDF FFF6          	movff	indf2,tblptrl
  8714   003C7A                     	if	1	;There is more than 1 active tblptr byte
  8715   003C7A  0E06               	movlw	high __smallconst
  8716   003C7C  6EF7               	movwf	tblptrh,c
  8717   003C7E                     	endif
  8718   003C7E                     	if	0	;tblptru may be non-zero
  8719   003C7E                     	endif
  8720   003C7E                     	if	0	;tblptru may be non-zero
  8721   003C7E                     	endif
  8722   003C7E  0008               	tblrd		*
  8723   003C80  50F5               	movf	tablat,w,c
  8724   003C82  0A25               	xorlw	37
  8725   003C84  A4D8               	btfss	status,2,c
  8726   003C86  EF47  F01E         	goto	i1u1322_21
  8727   003C8A  EF49  F01E         	goto	i1u1322_20
  8728   003C8E                     i1u1322_21:
  8729   003C8E  EFFC  F01E         	goto	i1l9180
  8730   003C92                     i1u1322_20:
  8731   003C92                     
  8732                           ;C:\Program Files\Microchip\xc8\v3.00\pic\sources\c99\common\doprnt.c: 1202:         ++*
      +                          fmt;
  8733   003C92  506B               	movf	i1vfpfcnvrt@fmt^0,w,c
  8734   003C94  6ED9               	movwf	fsr2l,c
  8735   003C96  6ADA               	clrf	fsr2h,c
  8736   003C98  2ADF               	incf	indf2,f,c
  8737   003C9A                     
  8738                           ;C:\Program Files\Microchip\xc8\v3.00\pic\sources\c99\common\doprnt.c: 1204:         fla
      +                          gs = width = 0;
  8739   003C9A  0E00               	movlw	0
  8740   003C9C  6E74               	movwf	(_width+1)^0,c
  8741   003C9E  0E00               	movlw	0
  8742   003CA0  6E73               	movwf	_width^0,c
  8743   003CA2  C073  F077         	movff	_width,_flags
  8744   003CA6                     
  8745                           ;C:\Program Files\Microchip\xc8\v3.00\pic\sources\c99\common\doprnt.c: 1205:         pre
      +                          c = -1;
  8746   003CA6  6875               	setf	_prec^0,c
  8747   003CA8  6876               	setf	(_prec+1)^0,c
  8748   003CAA                     
  8749                           ;C:\Program Files\Microchip\xc8\v3.00\pic\sources\c99\common\doprnt.c: 1689:   cp = *fmt
      +                          ;
  8750   003CAA  506B               	movf	i1vfpfcnvrt@fmt^0,w,c
  8751   003CAC  6ED9               	movwf	fsr2l,c
  8752   003CAE  6ADA               	clrf	fsr2h,c
  8753   003CB0  50DF               	movf	indf2,w,c
  8754   003CB2  0100               	movlb	0	; () banked
  8755   003CB4  6F85               	movwf	i1vfpfcnvrt@cp& (0+255),b
  8756   003CB6                     
  8757                           ; BSR set to: 0
  8758                           ;C:\Program Files\Microchip\xc8\v3.00\pic\sources\c99\common\doprnt.c: 1690:   c = *cp;
  8759   003CB6  C085  FFF6         	movff	i1vfpfcnvrt@cp,tblptrl
  8760   003CBA                     	if	1	;There is more than 1 active tblptr byte
  8761   003CBA  0E06               	movlw	high __smallconst
  8762   003CBC  6EF7               	movwf	tblptrh,c
  8763   003CBE                     	endif
  8764   003CBE                     	if	0	;tblptru may be non-zero
  8765   003CBE                     	endif
  8766   003CBE                     	if	0	;tblptru may be non-zero
  8767   003CBE                     	endif
  8768   003CBE  0008               	tblrd		*
  8769   003CC0  CFF5 F084          	movff	tablat,i1vfpfcnvrt@c
  8770                           
  8771                           ;C:\Program Files\Microchip\xc8\v3.00\pic\sources\c99\common\doprnt.c: 1691:   switch(c)
      +                           {
  8772   003CC4  EF6E  F01E         	goto	i1l9154
  8773   003CC8                     i1l9148:
  8774                           
  8775                           ; BSR set to: 0
  8776                           ;C:\Program Files\Microchip\xc8\v3.00\pic\sources\c99\common\doprnt.c: 1695:     cp++;
  8777   003CC8  2B85               	incf	i1vfpfcnvrt@cp& (0+255),f,b
  8778                           
  8779                           ;C:\Program Files\Microchip\xc8\v3.00\pic\sources\c99\common\doprnt.c: 1696:     break;
  8780   003CCA  EF7D  F01E         	goto	i1l9156
  8781   003CCE                     i1l9150:
  8782                           
  8783                           ; BSR set to: 0
  8784                           ;C:\Program Files\Microchip\xc8\v3.00\pic\sources\c99\common\doprnt.c: 1721:     c = 'l'
      +                          ;
  8785   003CCE  0E6C               	movlw	108
  8786   003CD0  6F84               	movwf	i1vfpfcnvrt@c& (0+255),b
  8787                           
  8788                           ;C:\Program Files\Microchip\xc8\v3.00\pic\sources\c99\common\doprnt.c: 1722:     break;
  8789   003CD2  EF7D  F01E         	goto	i1l9156
  8790   003CD6                     i1l1050:
  8791                           
  8792                           ; BSR set to: 0
  8793                           ;C:\Program Files\Microchip\xc8\v3.00\pic\sources\c99\common\doprnt.c: 1724:     c = 0;
  8794   003CD6  6B84               	clrf	i1vfpfcnvrt@c& (0+255),b
  8795                           
  8796                           ;C:\Program Files\Microchip\xc8\v3.00\pic\sources\c99\common\doprnt.c: 1725:     break;
  8797   003CD8  EF7D  F01E         	goto	i1l9156
  8798   003CDC                     i1l9154:
  8799                           
  8800                           ; BSR set to: 0
  8801   003CDC  5184               	movf	i1vfpfcnvrt@c& (0+255),w,b
  8802                           
  8803                           ; Switch size 1, requested type "simple"
  8804                           ; Number of cases is 3, Range of values is 76 to 108
  8805                           ; switch strategies available:
  8806                           ; Name         Instructions Cycles
  8807                           ; simple_byte           10     6 (average)
  8808                           ;	Chosen strategy is simple_byte
  8809   003CDE  0A4C               	xorlw	76	; case 76
  8810   003CE0  B4D8               	btfsc	status,2,c
  8811   003CE2  EF64  F01E         	goto	i1l9148
  8812   003CE6  0A2A               	xorlw	42	; case 102
  8813   003CE8  B4D8               	btfsc	status,2,c
  8814   003CEA  EF67  F01E         	goto	i1l9150
  8815   003CEE  0A0A               	xorlw	10	; case 108
  8816   003CF0  B4D8               	btfsc	status,2,c
  8817   003CF2  EF64  F01E         	goto	i1l9148
  8818   003CF6  EF6B  F01E         	goto	i1l1050
  8819   003CFA                     i1l9156:
  8820                           
  8821                           ; BSR set to: 0
  8822   003CFA  C085  FFF6         	movff	i1vfpfcnvrt@cp,tblptrl
  8823   003CFE                     	if	1	;There is more than 1 active tblptr byte
  8824   003CFE  0E06               	movlw	high __smallconst
  8825   003D00  6EF7               	movwf	tblptrh,c
  8826   003D02                     	endif
  8827   003D02                     	if	0	;tblptru may be non-zero
  8828   003D02                     	endif
  8829   003D02                     	if	0	;tblptru may be non-zero
  8830   003D02                     	endif
  8831   003D02  0008               	tblrd		*
  8832   003D04  50F5               	movf	tablat,w,c
  8833   003D06  0A66               	xorlw	102
  8834   003D08  A4D8               	btfss	status,2,c
  8835   003D0A  EF89  F01E         	goto	i1u1323_21
  8836   003D0E  EF8B  F01E         	goto	i1u1323_20
  8837   003D12                     i1u1323_21:
  8838   003D12  EFF6  F01E         	goto	i1l9176
  8839   003D16                     i1u1323_20:
  8840   003D16  EFC1  F01E         	goto	i1l9164
  8841   003D1A                     i1l9158:
  8842                           
  8843                           ; BSR set to: 0
  8844                           ;C:\Program Files\Microchip\xc8\v3.00\pic\sources\c99\common\doprnt.c: 1756:      convar
      +                          g.f = (long double)(*(double *)__va_arg(*(double **)ap, (double)0));
  8845   003D1A  C06C  FFD9         	movff	i1vfpfcnvrt@ap,fsr2l
  8846   003D1E  C06D  FFDA         	movff	i1vfpfcnvrt@ap+1,fsr2h
  8847   003D22  CFDF F06E          	movff	indf2,??i1_vfpfcnvrt
  8848   003D26  0E04               	movlw	4
  8849   003D28  26DE               	addwf	postinc2,f,c
  8850   003D2A  CFDF F06F          	movff	indf2,??i1_vfpfcnvrt+1
  8851   003D2E  0E00               	movlw	0
  8852   003D30  22DD               	addwfc	postdec2,f,c
  8853   003D32  C06E  FFD9         	movff	??i1_vfpfcnvrt,fsr2l
  8854   003D36  C06F  FFDA         	movff	??i1_vfpfcnvrt+1,fsr2h
  8855   003D3A  CFDE F080          	movff	postinc2,i1vfpfcnvrt@convarg
  8856   003D3E  CFDE F081          	movff	postinc2,i1vfpfcnvrt@convarg+1
  8857   003D42  CFDE F082          	movff	postinc2,i1vfpfcnvrt@convarg+2
  8858   003D46  CFDE F083          	movff	postinc2,i1vfpfcnvrt@convarg+3
  8859                           
  8860                           ;C:\Program Files\Microchip\xc8\v3.00\pic\sources\c99\common\doprnt.c: 1757:      break;
  8861   003D4A  EFCC  F01E         	goto	i1l9166
  8862   003D4E                     i1l9160:
  8863                           
  8864                           ; BSR set to: 0
  8865                           ;C:\Program Files\Microchip\xc8\v3.00\pic\sources\c99\common\doprnt.c: 1759:      convar
      +                          g.f = (long double)(*(long double *)__va_arg(*(long double **)ap, (long double)0));
  8866   003D4E  C06C  FFD9         	movff	i1vfpfcnvrt@ap,fsr2l
  8867   003D52  C06D  FFDA         	movff	i1vfpfcnvrt@ap+1,fsr2h
  8868   003D56  CFDF F06E          	movff	indf2,??i1_vfpfcnvrt
  8869   003D5A  0E04               	movlw	4
  8870   003D5C  26DE               	addwf	postinc2,f,c
  8871   003D5E  CFDF F06F          	movff	indf2,??i1_vfpfcnvrt+1
  8872   003D62  0E00               	movlw	0
  8873   003D64  22DD               	addwfc	postdec2,f,c
  8874   003D66  C06E  FFD9         	movff	??i1_vfpfcnvrt,fsr2l
  8875   003D6A  C06F  FFDA         	movff	??i1_vfpfcnvrt+1,fsr2h
  8876   003D6E  CFDE F080          	movff	postinc2,i1vfpfcnvrt@convarg
  8877   003D72  CFDE F081          	movff	postinc2,i1vfpfcnvrt@convarg+1
  8878   003D76  CFDE F082          	movff	postinc2,i1vfpfcnvrt@convarg+2
  8879   003D7A  CFDE F083          	movff	postinc2,i1vfpfcnvrt@convarg+3
  8880                           
  8881                           ;C:\Program Files\Microchip\xc8\v3.00\pic\sources\c99\common\doprnt.c: 1760:      break;
  8882   003D7E  EFCC  F01E         	goto	i1l9166
  8883   003D82                     i1l9164:
  8884                           
  8885                           ; BSR set to: 0
  8886   003D82  5184               	movf	i1vfpfcnvrt@c& (0+255),w,b
  8887                           
  8888                           ; Switch size 1, requested type "simple"
  8889                           ; Number of cases is 2, Range of values is 76 to 108
  8890                           ; switch strategies available:
  8891                           ; Name         Instructions Cycles
  8892                           ; simple_byte            7     4 (average)
  8893                           ;	Chosen strategy is simple_byte
  8894   003D84  0A4C               	xorlw	76	; case 76
  8895   003D86  B4D8               	btfsc	status,2,c
  8896   003D88  EFA7  F01E         	goto	i1l9160
  8897   003D8C  0A20               	xorlw	32	; case 108
  8898   003D8E  B4D8               	btfsc	status,2,c
  8899   003D90  EF8D  F01E         	goto	i1l9158
  8900   003D94  EFCC  F01E         	goto	i1l9166
  8901   003D98                     i1l9166:
  8902                           
  8903                           ; BSR set to: 0
  8904                           ;C:\Program Files\Microchip\xc8\v3.00\pic\sources\c99\common\doprnt.c: 1762:    *fmt = c
      +                          p+1;
  8905   003D98  506B               	movf	i1vfpfcnvrt@fmt^0,w,c
  8906   003D9A  6ED9               	movwf	fsr2l,c
  8907   003D9C  6ADA               	clrf	fsr2h,c
  8908   003D9E  2985               	incf	i1vfpfcnvrt@cp& (0+255),w,b
  8909   003DA0  6EDF               	movwf	indf2,c
  8910                           
  8911                           ;C:\Program Files\Microchip\xc8\v3.00\pic\sources\c99\common\doprnt.c: 1763:    switch (
      +                          *cp) {
  8912   003DA2  EFEA  F01E         	goto	i1l9174
  8913   003DA6                     i1l9168:
  8914                           
  8915                           ; BSR set to: 0
  8916                           ;C:\Program Files\Microchip\xc8\v3.00\pic\sources\c99\common\doprnt.c: 1790:      return
      +                           (void) efgtoa(fp, convarg.f, *cp);;	Return value of i1_vfpfcnvrt is never used
  8917   003DA6  C069  F034         	movff	i1vfpfcnvrt@fp,i1efgtoa@fp
  8918   003DAA  C06A  F035         	movff	i1vfpfcnvrt@fp+1,i1efgtoa@fp+1
  8919   003DAE  C080  F036         	movff	i1vfpfcnvrt@convarg,i1efgtoa@f
  8920   003DB2  C081  F037         	movff	i1vfpfcnvrt@convarg+1,i1efgtoa@f+1
  8921   003DB6  C082  F038         	movff	i1vfpfcnvrt@convarg+2,i1efgtoa@f+2
  8922   003DBA  C083  F039         	movff	i1vfpfcnvrt@convarg+3,i1efgtoa@f+3
  8923   003DBE  C085  FFF6         	movff	i1vfpfcnvrt@cp,tblptrl
  8924   003DC2                     	if	1	;There is more than 1 active tblptr byte
  8925   003DC2  0E06               	movlw	high __smallconst
  8926   003DC4  6EF7               	movwf	tblptrh,c
  8927   003DC6                     	endif
  8928   003DC6                     	if	0	;tblptru may be non-zero
  8929   003DC6                     	endif
  8930   003DC6                     	if	0	;tblptru may be non-zero
  8931   003DC6                     	endif
  8932   003DC6  0008               	tblrd		*
  8933   003DC8  CFF5 F03A          	movff	tablat,i1efgtoa@c
  8934   003DCC  EC3C  F008         	call	i1_efgtoa	;wreg free
  8935   003DD0  EF0F  F01F         	goto	i1l1060
  8936   003DD4                     i1l9174:
  8937                           
  8938                           ; BSR set to: 0
  8939   003DD4  C085  FFF6         	movff	i1vfpfcnvrt@cp,tblptrl
  8940   003DD8                     	if	1	;There is more than 1 active tblptr byte
  8941   003DD8  0E06               	movlw	high __smallconst
  8942   003DDA  6EF7               	movwf	tblptrh,c
  8943   003DDC                     	endif
  8944   003DDC                     	if	0	;tblptru may be non-zero
  8945   003DDC                     	endif
  8946   003DDC                     	if	0	;tblptru may be non-zero
  8947   003DDC                     	endif
  8948   003DDC  0008               	tblrd		*
  8949   003DDE  50F5               	movf	tablat,w,c
  8950                           
  8951                           ; Switch size 1, requested type "simple"
  8952                           ; Number of cases is 1, Range of values is 102 to 102
  8953                           ; switch strategies available:
  8954                           ; Name         Instructions Cycles
  8955                           ; simple_byte            4     3 (average)
  8956                           ;	Chosen strategy is simple_byte
  8957   003DE0  0A66               	xorlw	102	; case 102
  8958   003DE2  B4D8               	btfsc	status,2,c
  8959   003DE4  EFD3  F01E         	goto	i1l9168
  8960   003DE8  EFF6  F01E         	goto	i1l9176
  8961   003DEC                     i1l9176:
  8962                           
  8963                           ;C:\Program Files\Microchip\xc8\v3.00\pic\sources\c99\common\doprnt.c: 1806:         ++*
      +                          fmt;
  8964   003DEC  506B               	movf	i1vfpfcnvrt@fmt^0,w,c
  8965   003DEE  6ED9               	movwf	fsr2l,c
  8966   003DF0  6ADA               	clrf	fsr2h,c
  8967   003DF2  2ADF               	incf	indf2,f,c
  8968   003DF4  EF0F  F01F         	goto	i1l1060
  8969   003DF8                     i1l9180:
  8970                           
  8971                           ;C:\Program Files\Microchip\xc8\v3.00\pic\sources\c99\common\doprnt.c: 1811:     fputc((
      +                          int)(*fmt)[0], fp);
  8972   003DF8  506B               	movf	i1vfpfcnvrt@fmt^0,w,c
  8973   003DFA  6ED9               	movwf	fsr2l,c
  8974   003DFC  6ADA               	clrf	fsr2h,c
  8975   003DFE  CFDF FFF6          	movff	indf2,tblptrl
  8976   003E02                     	if	1	;There is more than 1 active tblptr byte
  8977   003E02  0E06               	movlw	high __smallconst
  8978   003E04  6EF7               	movwf	tblptrh,c
  8979   003E06                     	endif
  8980   003E06                     	if	0	;tblptru may be non-zero
  8981   003E06                     	endif
  8982   003E06                     	if	0	;tblptru may be non-zero
  8983   003E06                     	endif
  8984   003E06  0008               	tblrd		*
  8985   003E08  50F5               	movf	tablat,w,c
  8986   003E0A  6E08               	movwf	i1fputc@c^0,c
  8987   003E0C  6A09               	clrf	(i1fputc@c+1)^0,c
  8988   003E0E  C069  F00A         	movff	i1vfpfcnvrt@fp,i1fputc@fp
  8989   003E12  C06A  F00B         	movff	i1vfpfcnvrt@fp+1,i1fputc@fp+1
  8990   003E16  EC22  F023         	call	i1_fputc	;wreg free
  8991   003E1A  EFF6  F01E         	goto	i1l9176
  8992   003E1E                     i1l1060:
  8993   003E1E  0012               	return		;funcret
  8994   003E20                     __end_ofi1_vfpfcnvrt:
  8995                           	callstack 0
  8996                           
  8997 ;; *************** function i1_efgtoa *****************
  8998 ;; Defined at:
  8999 ;;		line 587 in file "C:\Program Files\Microchip\xc8\v3.00\pic\sources\c99\common\doprnt.c"
  9000 ;; Parameters:    Size  Location     Type
  9001 ;;  fp              2   51[COMRAM] PTR struct _IO_FILE
  9002 ;;		 -> NULL(0), 
  9003 ;;  f               4   53[COMRAM] PTR struct _IO_FILE
  9004 ;;  c               1   57[COMRAM] unsigned char 
  9005 ;; Auto vars:     Size  Location     Type
  9006 ;;  u               4  100[COMRAM] struct flui
  9007 ;;  g               4   94[COMRAM] struct flui
  9008 ;;  l               4   89[COMRAM] struct flui
  9009 ;;  h               4   85[COMRAM] struct flui
  9010 ;;  ou              4   79[COMRAM] struct flui
  9011 ;;  n               2   98[COMRAM] int 
  9012 ;;  i               2   83[COMRAM] int 
  9013 ;;  w               2   77[COMRAM] int 
  9014 ;;  e               2   75[COMRAM] int 
  9015 ;;  m               2   73[COMRAM] int 
  9016 ;;  d               2   71[COMRAM] int 
  9017 ;;  t               2   64[COMRAM] int 
  9018 ;;  p               2   62[COMRAM] int 
  9019 ;;  ne              2   60[COMRAM] int 
  9020 ;;  sign            1   93[COMRAM] unsigned char 
  9021 ;;  nmode           1   70[COMRAM] unsigned char 
  9022 ;;  mode            1   69[COMRAM] unsigned char 
  9023 ;;  pp              1   68[COMRAM] unsigned char 
  9024 ;;  esign           1    0        unsigned char 
  9025 ;; Return value:  Size  Location     Type
  9026 ;;                  1    wreg      void 
  9027 ;; Registers used:
  9028 ;;		wreg, fsr1l, fsr1h, fsr2l, fsr2h, status,2, status,0, tblptrl, tblptrh, tblptru, prodl, prodh, cstack
  9029 ;; Tracked objects:
  9030 ;;		On entry : 0/0
  9031 ;;		On exit  : 0/0
  9032 ;;		Unchanged: 0/0
  9033 ;; Data sizes:     COMRAM   BANK0   BANK1   BANK2   BANK3   BANK4   BANK5
  9034 ;;      Params:         7       0       0       0       0       0       0
  9035 ;;      Locals:        44       0       0       0       0       0       0
  9036 ;;      Temps:          2       0       0       0       0       0       0
  9037 ;;      Totals:        53       0       0       0       0       0       0
  9038 ;;Total ram usage:       53 bytes
  9039 ;; Hardware stack levels used: 1
  9040 ;; Hardware stack levels required when called: 7
  9041 ;; This function calls:
  9042 ;;		i1___fladd
  9043 ;;		i1___fldiv
  9044 ;;		i1___fleq
  9045 ;;		i1___flge
  9046 ;;		i1___flmul
  9047 ;;		i1___flneg
  9048 ;;		i1___flsub
  9049 ;;		i1___fltol
  9050 ;;		i1___fpclassifyf
  9051 ;;		i1_floorf
  9052 ;;		i1_labs
  9053 ;;		i1_memcpy
  9054 ;;		i1_pad
  9055 ;;		i1_strcpy
  9056 ;; This function is called by:
  9057 ;;		i1_vfpfcnvrt
  9058 ;; This function uses a non-reentrant model
  9059 ;;
  9060                           
  9061                           	psect	text37
  9062   001078                     __ptext37:
  9063                           	callstack 0
  9064   001078                     i1_efgtoa:
  9065                           	callstack 8
  9066   001078                     
  9067                           ;C:\Program Files\Microchip\xc8\v3.00\pic\sources\c99\common\doprnt.c: 587: static void 
      +                          efgtoa(FILE *fp, long double f, char c);C:\Program Files\Microchip\xc8\v3.00\pic\sources
      +                          \c99\common\doprnt.c: 588: {;C:\Program Files\Microchip\xc8\v3.00\pic\sources\c99\common
      +                          \doprnt.c: 589:     char mode, nmode, pp, sign, esign;;C:\Program Files\Microchip\xc8\v3
      +                          .00\pic\sources\c99\common\doprnt.c: 590:     int d, e, i, m, n, ne, p, t, w;;C:\Program
      +                           Files\Microchip\xc8\v3.00\pic\sources\c99\common\doprnt.c: 591:     long double h, l;
  9068   001078  6A5E               	clrf	i1efgtoa@sign^0,c
  9069                           
  9070                           ;C:\Program Files\Microchip\xc8\v3.00\pic\sources\c99\common\doprnt.c: 596:     g.f = f;
  9071   00107A  C036  F05F         	movff	i1efgtoa@f,i1efgtoa@g
  9072   00107E  C037  F060         	movff	i1efgtoa@f+1,i1efgtoa@g+1
  9073   001082  C038  F061         	movff	i1efgtoa@f+2,i1efgtoa@g+2
  9074   001086  C039  F062         	movff	i1efgtoa@f+3,i1efgtoa@g+3
  9075   00108A                     
  9076                           ;C:\Program Files\Microchip\xc8\v3.00\pic\sources\c99\common\doprnt.c: 597:     if (g.f 
      +                          < 0.0) {
  9077   00108A  BE62               	btfsc	(i1efgtoa@g+3)^0,7,c
  9078   00108C  EF4C  F008         	goto	i1u1288_20
  9079   001090  EF4A  F008         	goto	i1u1288_21
  9080   001094                     i1u1288_21:
  9081   001094  EF60  F008         	goto	i1l8874
  9082   001098                     i1u1288_20:
  9083   001098                     
  9084                           ;C:\Program Files\Microchip\xc8\v3.00\pic\sources\c99\common\doprnt.c: 598:         sign
      +                           = 1;
  9085   001098  0E01               	movlw	1
  9086   00109A  6E5E               	movwf	i1efgtoa@sign^0,c
  9087   00109C                     
  9088                           ;C:\Program Files\Microchip\xc8\v3.00\pic\sources\c99\common\doprnt.c: 599:         g.f 
      +                          = -g.f;
  9089   00109C  C05F  F007         	movff	i1efgtoa@g,i1___flneg@f1
  9090   0010A0  C060  F008         	movff	i1efgtoa@g+1,i1___flneg@f1+1
  9091   0010A4  C061  F009         	movff	i1efgtoa@g+2,i1___flneg@f1+2
  9092   0010A8  C062  F00A         	movff	i1efgtoa@g+3,i1___flneg@f1+3
  9093   0010AC  ECB3  F028         	call	i1___flneg	;wreg free
  9094   0010B0  C007  F05F         	movff	?i1___flneg,i1efgtoa@g
  9095   0010B4  C008  F060         	movff	?i1___flneg+1,i1efgtoa@g+1
  9096   0010B8  C009  F061         	movff	?i1___flneg+2,i1efgtoa@g+2
  9097   0010BC  C00A  F062         	movff	?i1___flneg+3,i1efgtoa@g+3
  9098   0010C0                     i1l8874:
  9099                           
  9100                           ;C:\Program Files\Microchip\xc8\v3.00\pic\sources\c99\common\doprnt.c: 603:     n = 0;
  9101   0010C0  0E00               	movlw	0
  9102   0010C2  6E64               	movwf	(i1efgtoa@n+1)^0,c
  9103   0010C4  0E00               	movlw	0
  9104   0010C6  6E63               	movwf	i1efgtoa@n^0,c
  9105   0010C8                     
  9106                           ;C:\Program Files\Microchip\xc8\v3.00\pic\sources\c99\common\doprnt.c: 604:     w = widt
      +                          h;
  9107   0010C8  C073  F04E         	movff	_width,i1efgtoa@w
  9108   0010CC  C074  F04F         	movff	_width+1,i1efgtoa@w+1
  9109   0010D0                     
  9110                           ;C:\Program Files\Microchip\xc8\v3.00\pic\sources\c99\common\doprnt.c: 605:     if (sign
  9111   0010D0  505E               	movf	i1efgtoa@sign^0,w,c
  9112   0010D2  B4D8               	btfsc	status,2,c
  9113   0010D4  EF6E  F008         	goto	i1u1289_21
  9114   0010D8  EF70  F008         	goto	i1u1289_20
  9115   0010DC                     i1u1289_21:
  9116   0010DC  EF84  F008         	goto	i1l8888
  9117   0010E0                     i1u1289_20:
  9118   0010E0                     
  9119                           ;C:\Program Files\Microchip\xc8\v3.00\pic\sources\c99\common\doprnt.c: 609:    ) {;C:\Pr
      +                          ogram Files\Microchip\xc8\v3.00\pic\sources\c99\common\doprnt.c: 610:   sign = sign ? '-
      +                          ' : '+';
  9120   0010E0  505E               	movf	i1efgtoa@sign^0,w,c
  9121   0010E2  A4D8               	btfss	status,2,c
  9122   0010E4  EF76  F008         	goto	i1u1290_21
  9123   0010E8  EF78  F008         	goto	i1u1290_20
  9124   0010EC                     i1u1290_21:
  9125   0010EC  EF7E  F008         	goto	i1l8884
  9126   0010F0                     i1u1290_20:
  9127   0010F0  0E00               	movlw	0
  9128   0010F2  6E44               	movwf	(i1_efgtoa$1841+1)^0,c
  9129   0010F4  0E2B               	movlw	43
  9130   0010F6  6E43               	movwf	i1_efgtoa$1841^0,c
  9131   0010F8  EF82  F008         	goto	i1l8886
  9132   0010FC                     i1l8884:
  9133   0010FC  0E00               	movlw	0
  9134   0010FE  6E44               	movwf	(i1_efgtoa$1841+1)^0,c
  9135   001100  0E2D               	movlw	45
  9136   001102  6E43               	movwf	i1_efgtoa$1841^0,c
  9137   001104                     i1l8886:
  9138   001104  C043  F05E         	movff	i1_efgtoa$1841,i1efgtoa@sign
  9139   001108                     i1l8888:
  9140                           
  9141                           ;C:\Program Files\Microchip\xc8\v3.00\pic\sources\c99\common\doprnt.c: 619:     if (( __
      +                          fpclassifyf(g.f) == 1 )) {
  9142   001108  C05F  F007         	movff	i1efgtoa@g,i1___fpclassifyf@x
  9143   00110C  C060  F008         	movff	i1efgtoa@g+1,i1___fpclassifyf@x+1
  9144   001110  C061  F009         	movff	i1efgtoa@g+2,i1___fpclassifyf@x+2
  9145   001114  C062  F00A         	movff	i1efgtoa@g+3,i1___fpclassifyf@x+3
  9146   001118  EC3D  F022         	call	i1___fpclassifyf	;wreg free
  9147   00111C  0407               	decf	?i1___fpclassifyf^0,w,c
  9148   00111E  1008               	iorwf	(?i1___fpclassifyf+1)^0,w,c
  9149   001120  A4D8               	btfss	status,2,c
  9150   001122  EF95  F008         	goto	i1u1291_21
  9151   001126  EF97  F008         	goto	i1u1291_20
  9152   00112A                     i1u1291_21:
  9153   00112A  EFCA  F008         	goto	i1l8906
  9154   00112E                     i1u1291_20:
  9155   00112E                     
  9156                           ;C:\Program Files\Microchip\xc8\v3.00\pic\sources\c99\common\doprnt.c: 620:   if (sign) 
      +                          {
  9157   00112E  505E               	movf	i1efgtoa@sign^0,w,c
  9158   001130  B4D8               	btfsc	status,2,c
  9159   001132  EF9D  F008         	goto	i1u1292_21
  9160   001136  EF9F  F008         	goto	i1u1292_20
  9161   00113A                     i1u1292_21:
  9162   00113A  EFA8  F008         	goto	i1l8898
  9163   00113E                     i1u1292_20:
  9164   00113E                     
  9165                           ;C:\Program Files\Microchip\xc8\v3.00\pic\sources\c99\common\doprnt.c: 621:    dbuf[0] =
      +                           sign;
  9166   00113E  C05E  F164         	movff	i1efgtoa@sign,_dbuf
  9167   001142                     
  9168                           ;C:\Program Files\Microchip\xc8\v3.00\pic\sources\c99\common\doprnt.c: 622:    w--;
  9169   001142  064E               	decf	i1efgtoa@w^0,f,c
  9170   001144  A0D8               	btfss	status,0,c
  9171   001146  064F               	decf	(i1efgtoa@w+1)^0,f,c
  9172   001148                     
  9173                           ;C:\Program Files\Microchip\xc8\v3.00\pic\sources\c99\common\doprnt.c: 623:    n = 1;
  9174   001148  0E00               	movlw	0
  9175   00114A  6E64               	movwf	(i1efgtoa@n+1)^0,c
  9176   00114C  0E01               	movlw	1
  9177   00114E  6E63               	movwf	i1efgtoa@n^0,c
  9178   001150                     i1l8898:
  9179                           
  9180                           ;C:\Program Files\Microchip\xc8\v3.00\pic\sources\c99\common\doprnt.c: 631:   {;C:\Progr
      +                          am Files\Microchip\xc8\v3.00\pic\sources\c99\common\doprnt.c: 632:             strcpy(&d
      +                          buf[n], "inf");
  9181   001150  0E64               	movlw	low _dbuf
  9182   001152  2463               	addwf	i1efgtoa@n^0,w,c
  9183   001154  6E07               	movwf	i1strcpy@dest^0,c
  9184   001156  0E01               	movlw	high _dbuf
  9185   001158  2064               	addwfc	(i1efgtoa@n+1)^0,w,c
  9186   00115A  6E08               	movwf	(i1strcpy@dest+1)^0,c
  9187   00115C  0E09               	movlw	low STR_4
  9188   00115E  6E09               	movwf	i1strcpy@src^0,c
  9189   001160  5009               	movf	i1strcpy@src^0,w,c
  9190   001162  A4D8               	btfss	status,2,c
  9191   001164  0E06               	movlw	high __smallconst
  9192   001166  6E0A               	movwf	(i1strcpy@src+1)^0,c
  9193   001168  ECD6  F026         	call	i1_strcpy	;wreg free
  9194   00116C                     i1l8900:
  9195                           
  9196                           ;C:\Program Files\Microchip\xc8\v3.00\pic\sources\c99\common\doprnt.c: 633:         };C:
      +                          \Program Files\Microchip\xc8\v3.00\pic\sources\c99\common\doprnt.c: 634:         w -= ((
      +                          sizeof("inf")/sizeof("inf"[0]))-1);
  9197   00116C  0EFD               	movlw	253
  9198   00116E  264E               	addwf	i1efgtoa@w^0,f,c
  9199   001170  0EFF               	movlw	255
  9200   001172  224F               	addwfc	(i1efgtoa@w+1)^0,f,c
  9201   001174                     
  9202                           ;C:\Program Files\Microchip\xc8\v3.00\pic\sources\c99\common\doprnt.c: 635:         retu
      +                          rn (void) pad(fp, &dbuf[0], w);
  9203   001174  C034  F018         	movff	i1efgtoa@fp,i1pad@fp
  9204   001178  C035  F019         	movff	i1efgtoa@fp+1,i1pad@fp+1
  9205   00117C  0E64               	movlw	low _dbuf
  9206   00117E  6E1A               	movwf	i1pad@buf^0,c
  9207   001180  0E01               	movlw	high _dbuf
  9208   001182  6E1B               	movwf	(i1pad@buf+1)^0,c
  9209   001184  C04E  F01C         	movff	i1efgtoa@w,i1pad@p
  9210   001188  C04F  F01D         	movff	i1efgtoa@w+1,i1pad@p+1
  9211   00118C  EC25  F025         	call	i1_pad	;wreg free
  9212   001190  EF24  F00D         	goto	i1l1000
  9213   001194                     i1l8906:
  9214                           
  9215                           ;C:\Program Files\Microchip\xc8\v3.00\pic\sources\c99\common\doprnt.c: 637:     if (( __
      +                          fpclassifyf(g.f) == 0 )) {
  9216   001194  C05F  F007         	movff	i1efgtoa@g,i1___fpclassifyf@x
  9217   001198  C060  F008         	movff	i1efgtoa@g+1,i1___fpclassifyf@x+1
  9218   00119C  C061  F009         	movff	i1efgtoa@g+2,i1___fpclassifyf@x+2
  9219   0011A0  C062  F00A         	movff	i1efgtoa@g+3,i1___fpclassifyf@x+3
  9220   0011A4  EC3D  F022         	call	i1___fpclassifyf	;wreg free
  9221   0011A8  5007               	movf	?i1___fpclassifyf^0,w,c
  9222   0011AA  1008               	iorwf	(?i1___fpclassifyf+1)^0,w,c
  9223   0011AC  A4D8               	btfss	status,2,c
  9224   0011AE  EFDB  F008         	goto	i1u1293_21
  9225   0011B2  EFDD  F008         	goto	i1u1293_20
  9226   0011B6                     i1u1293_21:
  9227   0011B6  EFFE  F008         	goto	i1l8924
  9228   0011BA                     i1u1293_20:
  9229   0011BA                     
  9230                           ;C:\Program Files\Microchip\xc8\v3.00\pic\sources\c99\common\doprnt.c: 638:   if (sign) 
      +                          {
  9231   0011BA  505E               	movf	i1efgtoa@sign^0,w,c
  9232   0011BC  B4D8               	btfsc	status,2,c
  9233   0011BE  EFE3  F008         	goto	i1u1294_21
  9234   0011C2  EFE5  F008         	goto	i1u1294_20
  9235   0011C6                     i1u1294_21:
  9236   0011C6  EFEE  F008         	goto	i1l8916
  9237   0011CA                     i1u1294_20:
  9238   0011CA                     
  9239                           ;C:\Program Files\Microchip\xc8\v3.00\pic\sources\c99\common\doprnt.c: 639:    dbuf[0] =
      +                           sign;
  9240   0011CA  C05E  F164         	movff	i1efgtoa@sign,_dbuf
  9241   0011CE                     
  9242                           ;C:\Program Files\Microchip\xc8\v3.00\pic\sources\c99\common\doprnt.c: 640:    w--;
  9243   0011CE  064E               	decf	i1efgtoa@w^0,f,c
  9244   0011D0  A0D8               	btfss	status,0,c
  9245   0011D2  064F               	decf	(i1efgtoa@w+1)^0,f,c
  9246   0011D4                     
  9247                           ;C:\Program Files\Microchip\xc8\v3.00\pic\sources\c99\common\doprnt.c: 641:    n = 1;
  9248   0011D4  0E00               	movlw	0
  9249   0011D6  6E64               	movwf	(i1efgtoa@n+1)^0,c
  9250   0011D8  0E01               	movlw	1
  9251   0011DA  6E63               	movwf	i1efgtoa@n^0,c
  9252   0011DC                     i1l8916:
  9253                           
  9254                           ;C:\Program Files\Microchip\xc8\v3.00\pic\sources\c99\common\doprnt.c: 649:   {;C:\Progr
      +                          am Files\Microchip\xc8\v3.00\pic\sources\c99\common\doprnt.c: 650:             strcpy(&d
      +                          buf[n], "nan");
  9255   0011DC  0E64               	movlw	low _dbuf
  9256   0011DE  2463               	addwf	i1efgtoa@n^0,w,c
  9257   0011E0  6E07               	movwf	i1strcpy@dest^0,c
  9258   0011E2  0E01               	movlw	high _dbuf
  9259   0011E4  2064               	addwfc	(i1efgtoa@n+1)^0,w,c
  9260   0011E6  6E08               	movwf	(i1strcpy@dest+1)^0,c
  9261   0011E8  0E0D               	movlw	low STR_7
  9262   0011EA  6E09               	movwf	i1strcpy@src^0,c
  9263   0011EC  5009               	movf	i1strcpy@src^0,w,c
  9264   0011EE  A4D8               	btfss	status,2,c
  9265   0011F0  0E06               	movlw	high __smallconst
  9266   0011F2  6E0A               	movwf	(i1strcpy@src+1)^0,c
  9267   0011F4  ECD6  F026         	call	i1_strcpy	;wreg free
  9268   0011F8  EFB6  F008         	goto	i1l8900
  9269   0011FC                     i1l8924:
  9270                           
  9271                           ;C:\Program Files\Microchip\xc8\v3.00\pic\sources\c99\common\doprnt.c: 657:     u.f = 1.
      +                          0;
  9272   0011FC  0E00               	movlw	0
  9273   0011FE  6E65               	movwf	i1efgtoa@u^0,c
  9274   001200  0E00               	movlw	0
  9275   001202  6E66               	movwf	(i1efgtoa@u+1)^0,c
  9276   001204  0E80               	movlw	128
  9277   001206  6E67               	movwf	(i1efgtoa@u+2)^0,c
  9278   001208  0E3F               	movlw	63
  9279   00120A  6E68               	movwf	(i1efgtoa@u+3)^0,c
  9280                           
  9281                           ;C:\Program Files\Microchip\xc8\v3.00\pic\sources\c99\common\doprnt.c: 658:     e = 0;
  9282   00120C  0E00               	movlw	0
  9283   00120E  6E4D               	movwf	(i1efgtoa@e+1)^0,c
  9284   001210  0E00               	movlw	0
  9285   001212  6E4C               	movwf	i1efgtoa@e^0,c
  9286   001214                     
  9287                           ;C:\Program Files\Microchip\xc8\v3.00\pic\sources\c99\common\doprnt.c: 659:  if (!(g.f =
      +                          = 0.0)) {
  9288   001214  C05F  F007         	movff	i1efgtoa@g,i1___fleq@ff1
  9289   001218  C060  F008         	movff	i1efgtoa@g+1,i1___fleq@ff1+1
  9290   00121C  C061  F009         	movff	i1efgtoa@g+2,i1___fleq@ff1+2
  9291   001220  C062  F00A         	movff	i1efgtoa@g+3,i1___fleq@ff1+3
  9292   001224  0E00               	movlw	0
  9293   001226  6E0B               	movwf	i1___fleq@ff2^0,c
  9294   001228  0E00               	movlw	0
  9295   00122A  6E0C               	movwf	(i1___fleq@ff2+1)^0,c
  9296   00122C  0E00               	movlw	0
  9297   00122E  6E0D               	movwf	(i1___fleq@ff2+2)^0,c
  9298   001230  0E00               	movlw	0
  9299   001232  6E0E               	movwf	(i1___fleq@ff2+3)^0,c
  9300   001234  ECDD  F023         	call	i1___fleq	;wreg free
  9301   001238  B0D8               	btfsc	status,0,c
  9302   00123A  EF21  F009         	goto	i1u1295_21
  9303   00123E  EF23  F009         	goto	i1u1295_20
  9304   001242                     i1u1295_21:
  9305   001242  EFFE  F009         	goto	i1l1003
  9306   001246                     i1u1295_20:
  9307   001246  EF2F  F009         	goto	i1l8932
  9308   00124A                     i1l1005:
  9309                           
  9310                           ;C:\Program Files\Microchip\xc8\v3.00\pic\sources\c99\common\doprnt.c: 661:    u = ou;
  9311   00124A  C050  F065         	movff	i1efgtoa@ou,i1efgtoa@u
  9312   00124E  C051  F066         	movff	i1efgtoa@ou+1,i1efgtoa@u+1
  9313   001252  C052  F067         	movff	i1efgtoa@ou+2,i1efgtoa@u+2
  9314   001256  C053  F068         	movff	i1efgtoa@ou+3,i1efgtoa@u+3
  9315   00125A                     
  9316                           ;C:\Program Files\Microchip\xc8\v3.00\pic\sources\c99\common\doprnt.c: 662:    ++e;
  9317   00125A  4A4C               	infsnz	i1efgtoa@e^0,f,c
  9318   00125C  2A4D               	incf	(i1efgtoa@e+1)^0,f,c
  9319   00125E                     i1l8932:
  9320                           
  9321                           ;C:\Program Files\Microchip\xc8\v3.00\pic\sources\c99\common\doprnt.c: 660:   while ((la
      +                          bs((g).u-((ou.f = u.f*10.0,ou)).u) <= 1) || g.f > ou.f) {
  9322   00125E  C065  F007         	movff	i1efgtoa@u,i1___flmul@b
  9323   001262  C066  F008         	movff	i1efgtoa@u+1,i1___flmul@b+1
  9324   001266  C067  F009         	movff	i1efgtoa@u+2,i1___flmul@b+2
  9325   00126A  C068  F00A         	movff	i1efgtoa@u+3,i1___flmul@b+3
  9326   00126E  0E00               	movlw	0
  9327   001270  6E0B               	movwf	i1___flmul@a^0,c
  9328   001272  0E00               	movlw	0
  9329   001274  6E0C               	movwf	(i1___flmul@a+1)^0,c
  9330   001276  0E20               	movlw	32
  9331   001278  6E0D               	movwf	(i1___flmul@a+2)^0,c
  9332   00127A  0E41               	movlw	65
  9333   00127C  6E0E               	movwf	(i1___flmul@a+3)^0,c
  9334   00127E  ECF0  F013         	call	i1___flmul	;wreg free
  9335   001282  C007  F050         	movff	?i1___flmul,i1efgtoa@ou
  9336   001286  C008  F051         	movff	?i1___flmul+1,i1efgtoa@ou+1
  9337   00128A  C009  F052         	movff	?i1___flmul+2,i1efgtoa@ou+2
  9338   00128E  C00A  F053         	movff	?i1___flmul+3,i1efgtoa@ou+3
  9339   001292  5050               	movf	i1efgtoa@ou^0,w,c
  9340   001294  5C5F               	subwf	i1efgtoa@g^0,w,c
  9341   001296  6E07               	movwf	i1labs@a^0,c
  9342   001298  5051               	movf	(i1efgtoa@ou+1)^0,w,c
  9343   00129A  5860               	subwfb	(i1efgtoa@g+1)^0,w,c
  9344   00129C  6E08               	movwf	(i1labs@a+1)^0,c
  9345   00129E  5052               	movf	(i1efgtoa@ou+2)^0,w,c
  9346   0012A0  5861               	subwfb	(i1efgtoa@g+2)^0,w,c
  9347   0012A2  6E09               	movwf	(i1labs@a+2)^0,c
  9348   0012A4  5053               	movf	(i1efgtoa@ou+3)^0,w,c
  9349   0012A6  5862               	subwfb	(i1efgtoa@g+3)^0,w,c
  9350   0012A8  6E0A               	movwf	(i1labs@a+3)^0,c
  9351   0012AA  ECAB  F026         	call	i1_labs	;wreg free
  9352   0012AE  BE0A               	btfsc	(?i1_labs+3)^0,7,c
  9353   0012B0  EF65  F009         	goto	i1u1296_21
  9354   0012B4  500A               	movf	(?i1_labs+3)^0,w,c
  9355   0012B6  1009               	iorwf	(?i1_labs+2)^0,w,c
  9356   0012B8  1008               	iorwf	(?i1_labs+1)^0,w,c
  9357   0012BA  E109               	bnz	i1u1296_20
  9358   0012BC  0E02               	movlw	2
  9359   0012BE  5C07               	subwf	?i1_labs^0,w,c
  9360   0012C0  A0D8               	btfss	status,0,c
  9361   0012C2  EF65  F009         	goto	i1u1296_21
  9362   0012C6  EF67  F009         	goto	i1u1296_20
  9363   0012CA                     i1u1296_21:
  9364   0012CA  EF25  F009         	goto	i1l1005
  9365   0012CE                     i1u1296_20:
  9366   0012CE  C050  F020         	movff	i1efgtoa@ou,i1___flge@ff1
  9367   0012D2  C051  F021         	movff	i1efgtoa@ou+1,i1___flge@ff1+1
  9368   0012D6  C052  F022         	movff	i1efgtoa@ou+2,i1___flge@ff1+2
  9369   0012DA  C053  F023         	movff	i1efgtoa@ou+3,i1___flge@ff1+3
  9370   0012DE  C05F  F024         	movff	i1efgtoa@g,i1___flge@ff2
  9371   0012E2  C060  F025         	movff	i1efgtoa@g+1,i1___flge@ff2+1
  9372   0012E6  C061  F026         	movff	i1efgtoa@g+2,i1___flge@ff2+2
  9373   0012EA  C062  F027         	movff	i1efgtoa@g+3,i1___flge@ff2+3
  9374   0012EE  EC3B  F021         	call	i1___flge	;wreg free
  9375   0012F2  A0D8               	btfss	status,0,c
  9376   0012F4  EF7E  F009         	goto	i1u1297_21
  9377   0012F8  EF80  F009         	goto	i1u1297_20
  9378   0012FC                     i1u1297_21:
  9379   0012FC  EF25  F009         	goto	i1l1005
  9380   001300                     i1u1297_20:
  9381   001300                     
  9382                           ;C:\Program Files\Microchip\xc8\v3.00\pic\sources\c99\common\doprnt.c: 664:   if ((labs(
      +                          (g).u-(u).u) <= 1)) {
  9383   001300  5065               	movf	i1efgtoa@u^0,w,c
  9384   001302  5C5F               	subwf	i1efgtoa@g^0,w,c
  9385   001304  6E07               	movwf	i1labs@a^0,c
  9386   001306  5066               	movf	(i1efgtoa@u+1)^0,w,c
  9387   001308  5860               	subwfb	(i1efgtoa@g+1)^0,w,c
  9388   00130A  6E08               	movwf	(i1labs@a+1)^0,c
  9389   00130C  5067               	movf	(i1efgtoa@u+2)^0,w,c
  9390   00130E  5861               	subwfb	(i1efgtoa@g+2)^0,w,c
  9391   001310  6E09               	movwf	(i1labs@a+2)^0,c
  9392   001312  5068               	movf	(i1efgtoa@u+3)^0,w,c
  9393   001314  5862               	subwfb	(i1efgtoa@g+3)^0,w,c
  9394   001316  6E0A               	movwf	(i1labs@a+3)^0,c
  9395   001318  ECAB  F026         	call	i1_labs	;wreg free
  9396   00131C  BE0A               	btfsc	(?i1_labs+3)^0,7,c
  9397   00131E  EF9E  F009         	goto	i1u1298_20
  9398   001322  500A               	movf	(?i1_labs+3)^0,w,c
  9399   001324  1009               	iorwf	(?i1_labs+2)^0,w,c
  9400   001326  1008               	iorwf	(?i1_labs+1)^0,w,c
  9401   001328  E107               	bnz	i1u1298_21
  9402   00132A  0E02               	movlw	2
  9403   00132C  5C07               	subwf	?i1_labs^0,w,c
  9404   00132E  B0D8               	btfsc	status,0,c
  9405   001330  EF9C  F009         	goto	i1u1298_21
  9406   001334  EF9E  F009         	goto	i1u1298_20
  9407   001338                     i1u1298_21:
  9408   001338  EFE5  F009         	goto	i1l8950
  9409   00133C                     i1u1298_20:
  9410   00133C                     i1l8940:
  9411                           
  9412                           ;C:\Program Files\Microchip\xc8\v3.00\pic\sources\c99\common\doprnt.c: 665:    g = u;
  9413   00133C  C065  F05F         	movff	i1efgtoa@u,i1efgtoa@g
  9414   001340  C066  F060         	movff	i1efgtoa@u+1,i1efgtoa@g+1
  9415   001344  C067  F061         	movff	i1efgtoa@u+2,i1efgtoa@g+2
  9416   001348  C068  F062         	movff	i1efgtoa@u+3,i1efgtoa@g+3
  9417                           
  9418                           ;C:\Program Files\Microchip\xc8\v3.00\pic\sources\c99\common\doprnt.c: 666:   }
  9419   00134C  EFFE  F009         	goto	i1l1003
  9420   001350                     i1l8942:
  9421                           
  9422                           ;C:\Program Files\Microchip\xc8\v3.00\pic\sources\c99\common\doprnt.c: 669:     u.f = u.
      +                          f/10.0;
  9423   001350  C065  F007         	movff	i1efgtoa@u,i1___fldiv@b
  9424   001354  C066  F008         	movff	i1efgtoa@u+1,i1___fldiv@b+1
  9425   001358  C067  F009         	movff	i1efgtoa@u+2,i1___fldiv@b+2
  9426   00135C  C068  F00A         	movff	i1efgtoa@u+3,i1___fldiv@b+3
  9427   001360  0E00               	movlw	0
  9428   001362  6E0B               	movwf	i1___fldiv@a^0,c
  9429   001364  0E00               	movlw	0
  9430   001366  6E0C               	movwf	(i1___fldiv@a+1)^0,c
  9431   001368  0E20               	movlw	32
  9432   00136A  6E0D               	movwf	(i1___fldiv@a+2)^0,c
  9433   00136C  0E41               	movlw	65
  9434   00136E  6E0E               	movwf	(i1___fldiv@a+3)^0,c
  9435   001370  ECCC  F017         	call	i1___fldiv	;wreg free
  9436   001374  C007  F065         	movff	?i1___fldiv,i1efgtoa@u
  9437   001378  C008  F066         	movff	?i1___fldiv+1,i1efgtoa@u+1
  9438   00137C  C009  F067         	movff	?i1___fldiv+2,i1efgtoa@u+2
  9439   001380  C00A  F068         	movff	?i1___fldiv+3,i1efgtoa@u+3
  9440   001384                     
  9441                           ;C:\Program Files\Microchip\xc8\v3.00\pic\sources\c99\common\doprnt.c: 670:     --e;
  9442   001384  064C               	decf	i1efgtoa@e^0,f,c
  9443   001386  A0D8               	btfss	status,0,c
  9444   001388  064D               	decf	(i1efgtoa@e+1)^0,f,c
  9445   00138A                     
  9446                           ;C:\Program Files\Microchip\xc8\v3.00\pic\sources\c99\common\doprnt.c: 671:     if ((lab
      +                          s((g).u-(u).u) <= 1)) {
  9447   00138A  5065               	movf	i1efgtoa@u^0,w,c
  9448   00138C  5C5F               	subwf	i1efgtoa@g^0,w,c
  9449   00138E  6E07               	movwf	i1labs@a^0,c
  9450   001390  5066               	movf	(i1efgtoa@u+1)^0,w,c
  9451   001392  5860               	subwfb	(i1efgtoa@g+1)^0,w,c
  9452   001394  6E08               	movwf	(i1labs@a+1)^0,c
  9453   001396  5067               	movf	(i1efgtoa@u+2)^0,w,c
  9454   001398  5861               	subwfb	(i1efgtoa@g+2)^0,w,c
  9455   00139A  6E09               	movwf	(i1labs@a+2)^0,c
  9456   00139C  5068               	movf	(i1efgtoa@u+3)^0,w,c
  9457   00139E  5862               	subwfb	(i1efgtoa@g+3)^0,w,c
  9458   0013A0  6E0A               	movwf	(i1labs@a+3)^0,c
  9459   0013A2  ECAB  F026         	call	i1_labs	;wreg free
  9460   0013A6  BE0A               	btfsc	(?i1_labs+3)^0,7,c
  9461   0013A8  EFE3  F009         	goto	i1u1299_20
  9462   0013AC  500A               	movf	(?i1_labs+3)^0,w,c
  9463   0013AE  1009               	iorwf	(?i1_labs+2)^0,w,c
  9464   0013B0  1008               	iorwf	(?i1_labs+1)^0,w,c
  9465   0013B2  E107               	bnz	i1u1299_21
  9466   0013B4  0E02               	movlw	2
  9467   0013B6  5C07               	subwf	?i1_labs^0,w,c
  9468   0013B8  B0D8               	btfsc	status,0,c
  9469   0013BA  EFE1  F009         	goto	i1u1299_21
  9470   0013BE  EFE3  F009         	goto	i1u1299_20
  9471   0013C2                     i1u1299_21:
  9472   0013C2  EFE5  F009         	goto	i1l8950
  9473   0013C6                     i1u1299_20:
  9474   0013C6  EF9E  F009         	goto	i1l8940
  9475   0013CA                     i1l8950:
  9476                           
  9477                           ;C:\Program Files\Microchip\xc8\v3.00\pic\sources\c99\common\doprnt.c: 668:    while (g.
      +                          f < u.f) {
  9478   0013CA  C05F  F020         	movff	i1efgtoa@g,i1___flge@ff1
  9479   0013CE  C060  F021         	movff	i1efgtoa@g+1,i1___flge@ff1+1
  9480   0013D2  C061  F022         	movff	i1efgtoa@g+2,i1___flge@ff1+2
  9481   0013D6  C062  F023         	movff	i1efgtoa@g+3,i1___flge@ff1+3
  9482   0013DA  C065  F024         	movff	i1efgtoa@u,i1___flge@ff2
  9483   0013DE  C066  F025         	movff	i1efgtoa@u+1,i1___flge@ff2+1
  9484   0013E2  C067  F026         	movff	i1efgtoa@u+2,i1___flge@ff2+2
  9485   0013E6  C068  F027         	movff	i1efgtoa@u+3,i1___flge@ff2+3
  9486   0013EA  EC3B  F021         	call	i1___flge	;wreg free
  9487   0013EE  A0D8               	btfss	status,0,c
  9488   0013F0  EFFC  F009         	goto	i1u1300_21
  9489   0013F4  EFFE  F009         	goto	i1u1300_20
  9490   0013F8                     i1u1300_21:
  9491   0013F8  EFA8  F009         	goto	i1l8942
  9492   0013FC                     i1u1300_20:
  9493   0013FC                     i1l1003:
  9494                           
  9495                           ;C:\Program Files\Microchip\xc8\v3.00\pic\sources\c99\common\doprnt.c: 683:  mode = c;
  9496   0013FC  C03A  F046         	movff	i1efgtoa@c,i1efgtoa@mode
  9497                           
  9498                           ;C:\Program Files\Microchip\xc8\v3.00\pic\sources\c99\common\doprnt.c: 685:     nmode = 
      +                          mode;
  9499   001400  C046  F047         	movff	i1efgtoa@mode,i1efgtoa@nmode
  9500   001404                     
  9501                           ;C:\Program Files\Microchip\xc8\v3.00\pic\sources\c99\common\doprnt.c: 695:  {;C:\Progra
      +                          m Files\Microchip\xc8\v3.00\pic\sources\c99\common\doprnt.c: 696:         p = (prec < 0)
      +                           ? 6 : prec;
  9502   001404  BE76               	btfsc	(_prec+1)^0,7,c
  9503   001406  EF07  F00A         	goto	i1u1301_21
  9504   00140A  EF09  F00A         	goto	i1u1301_20
  9505   00140E                     i1u1301_21:
  9506   00140E  EF0F  F00A         	goto	i1l8956
  9507   001412                     i1u1301_20:
  9508   001412  C075  F03F         	movff	_prec,i1efgtoa@p
  9509   001416  C076  F040         	movff	_prec+1,i1efgtoa@p+1
  9510   00141A  EF13  F00A         	goto	i1l8958
  9511   00141E                     i1l8956:
  9512   00141E  0E00               	movlw	0
  9513   001420  6E40               	movwf	(i1efgtoa@p+1)^0,c
  9514   001422  0E06               	movlw	6
  9515   001424  6E3F               	movwf	i1efgtoa@p^0,c
  9516   001426                     i1l8958:
  9517                           
  9518                           ;C:\Program Files\Microchip\xc8\v3.00\pic\sources\c99\common\doprnt.c: 697:     };C:\Pro
      +                          gram Files\Microchip\xc8\v3.00\pic\sources\c99\common\doprnt.c: 711:     m = p;
  9519   001426  C03F  F04A         	movff	i1efgtoa@p,i1efgtoa@m
  9520   00142A  C040  F04B         	movff	i1efgtoa@p+1,i1efgtoa@m+1
  9521   00142E                     
  9522                           ;C:\Program Files\Microchip\xc8\v3.00\pic\sources\c99\common\doprnt.c: 715:  {;C:\Progra
      +                          m Files\Microchip\xc8\v3.00\pic\sources\c99\common\doprnt.c: 716:         ++m;
  9523   00142E  4A4A               	infsnz	i1efgtoa@m^0,f,c
  9524   001430  2A4B               	incf	(i1efgtoa@m+1)^0,f,c
  9525   001432                     
  9526                           ;C:\Program Files\Microchip\xc8\v3.00\pic\sources\c99\common\doprnt.c: 717:     };C:\Pro
      +                          gram Files\Microchip\xc8\v3.00\pic\sources\c99\common\doprnt.c: 721:     if (nmode == 'f
      +                          ') {
  9527   001432  0E66               	movlw	102
  9528   001434  1847               	xorwf	i1efgtoa@nmode^0,w,c
  9529   001436  A4D8               	btfss	status,2,c
  9530   001438  EF20  F00A         	goto	i1u1302_21
  9531   00143C  EF22  F00A         	goto	i1u1302_20
  9532   001440                     i1u1302_21:
  9533   001440  EF42  F00A         	goto	i1l8972
  9534   001444                     i1u1302_20:
  9535   001444                     
  9536                           ;C:\Program Files\Microchip\xc8\v3.00\pic\sources\c99\common\doprnt.c: 722:         if (
      +                          e < 0) {
  9537   001444  BE4D               	btfsc	(i1efgtoa@e+1)^0,7,c
  9538   001446  EF29  F00A         	goto	i1u1303_20
  9539   00144A  EF27  F00A         	goto	i1u1303_21
  9540   00144E                     i1u1303_21:
  9541   00144E  EF35  F00A         	goto	i1l8968
  9542   001452                     i1u1303_20:
  9543   001452                     
  9544                           ;C:\Program Files\Microchip\xc8\v3.00\pic\sources\c99\common\doprnt.c: 723:             
      +                          u.f = 1.0;
  9545   001452  0E00               	movlw	0
  9546   001454  6E65               	movwf	i1efgtoa@u^0,c
  9547   001456  0E00               	movlw	0
  9548   001458  6E66               	movwf	(i1efgtoa@u+1)^0,c
  9549   00145A  0E80               	movlw	128
  9550   00145C  6E67               	movwf	(i1efgtoa@u+2)^0,c
  9551   00145E  0E3F               	movlw	63
  9552   001460  6E68               	movwf	(i1efgtoa@u+3)^0,c
  9553                           
  9554                           ;C:\Program Files\Microchip\xc8\v3.00\pic\sources\c99\common\doprnt.c: 724:             
      +                          e = 0;
  9555   001462  0E00               	movlw	0
  9556   001464  6E4D               	movwf	(i1efgtoa@e+1)^0,c
  9557   001466  0E00               	movlw	0
  9558   001468  6E4C               	movwf	i1efgtoa@e^0,c
  9559   00146A                     i1l8968:
  9560                           
  9561                           ;C:\Program Files\Microchip\xc8\v3.00\pic\sources\c99\common\doprnt.c: 726:         if (
      +                          !(mode == 'g')) {
  9562   00146A  0E67               	movlw	103
  9563   00146C  1846               	xorwf	i1efgtoa@mode^0,w,c
  9564   00146E  B4D8               	btfsc	status,2,c
  9565   001470  EF3C  F00A         	goto	i1u1304_21
  9566   001474  EF3E  F00A         	goto	i1u1304_20
  9567   001478                     i1u1304_21:
  9568   001478  EF42  F00A         	goto	i1l8972
  9569   00147C                     i1u1304_20:
  9570   00147C                     
  9571                           ;C:\Program Files\Microchip\xc8\v3.00\pic\sources\c99\common\doprnt.c: 727:             
      +                          m += e;
  9572   00147C  504C               	movf	i1efgtoa@e^0,w,c
  9573   00147E  264A               	addwf	i1efgtoa@m^0,f,c
  9574   001480  504D               	movf	(i1efgtoa@e+1)^0,w,c
  9575   001482  224B               	addwfc	(i1efgtoa@m+1)^0,f,c
  9576   001484                     i1l8972:
  9577                           
  9578                           ;C:\Program Files\Microchip\xc8\v3.00\pic\sources\c99\common\doprnt.c: 733:     i = 0;
  9579   001484  0E00               	movlw	0
  9580   001486  6E55               	movwf	(i1efgtoa@i+1)^0,c
  9581   001488  0E00               	movlw	0
  9582   00148A  6E54               	movwf	i1efgtoa@i^0,c
  9583   00148C                     
  9584                           ;C:\Program Files\Microchip\xc8\v3.00\pic\sources\c99\common\doprnt.c: 734:     h = g.f;
  9585   00148C  C05F  F056         	movff	i1efgtoa@g,i1efgtoa@h
  9586   001490  C060  F057         	movff	i1efgtoa@g+1,i1efgtoa@h+1
  9587   001494  C061  F058         	movff	i1efgtoa@g+2,i1efgtoa@h+2
  9588   001498  C062  F059         	movff	i1efgtoa@g+3,i1efgtoa@h+3
  9589   00149C                     
  9590                           ;C:\Program Files\Microchip\xc8\v3.00\pic\sources\c99\common\doprnt.c: 735:     ou = u;
  9591   00149C  C065  F050         	movff	i1efgtoa@u,i1efgtoa@ou
  9592   0014A0  C066  F051         	movff	i1efgtoa@u+1,i1efgtoa@ou+1
  9593   0014A4  C067  F052         	movff	i1efgtoa@u+2,i1efgtoa@ou+2
  9594   0014A8  C068  F053         	movff	i1efgtoa@u+3,i1efgtoa@ou+3
  9595                           
  9596                           ;C:\Program Files\Microchip\xc8\v3.00\pic\sources\c99\common\doprnt.c: 736:     while (i
      +                           < m) {
  9597   0014AC  EFD2  F00A         	goto	i1l8986
  9598   0014B0                     i1l8978:
  9599                           
  9600                           ;C:\Program Files\Microchip\xc8\v3.00\pic\sources\c99\common\doprnt.c: 737:         l = 
      +                          floorf(h/u.f);
  9601   0014B0  C056  F007         	movff	i1efgtoa@h,i1___fldiv@b
  9602   0014B4  C057  F008         	movff	i1efgtoa@h+1,i1___fldiv@b+1
  9603   0014B8  C058  F009         	movff	i1efgtoa@h+2,i1___fldiv@b+2
  9604   0014BC  C059  F00A         	movff	i1efgtoa@h+3,i1___fldiv@b+3
  9605   0014C0  C065  F00B         	movff	i1efgtoa@u,i1___fldiv@a
  9606   0014C4  C066  F00C         	movff	i1efgtoa@u+1,i1___fldiv@a+1
  9607   0014C8  C067  F00D         	movff	i1efgtoa@u+2,i1___fldiv@a+2
  9608   0014CC  C068  F00E         	movff	i1efgtoa@u+3,i1___fldiv@a+3
  9609   0014D0  ECCC  F017         	call	i1___fldiv	;wreg free
  9610   0014D4  C007  F020         	movff	?i1___fldiv,i1floorf@x
  9611   0014D8  C008  F021         	movff	?i1___fldiv+1,i1floorf@x+1
  9612   0014DC  C009  F022         	movff	?i1___fldiv+2,i1floorf@x+2
  9613   0014E0  C00A  F023         	movff	?i1___fldiv+3,i1floorf@x+3
  9614   0014E4  EC9F  F01A         	call	i1_floorf	;wreg free
  9615   0014E8  C020  F05A         	movff	?i1_floorf,i1efgtoa@l
  9616   0014EC  C021  F05B         	movff	?i1_floorf+1,i1efgtoa@l+1
  9617   0014F0  C022  F05C         	movff	?i1_floorf+2,i1efgtoa@l+2
  9618   0014F4  C023  F05D         	movff	?i1_floorf+3,i1efgtoa@l+3
  9619                           
  9620                           ;C:\Program Files\Microchip\xc8\v3.00\pic\sources\c99\common\doprnt.c: 738:         d = 
      +                          (int)l;
  9621   0014F8  C05A  F007         	movff	i1efgtoa@l,i1___fltol@f1
  9622   0014FC  C05B  F008         	movff	i1efgtoa@l+1,i1___fltol@f1+1
  9623   001500  C05C  F009         	movff	i1efgtoa@l+2,i1___fltol@f1+2
  9624   001504  C05D  F00A         	movff	i1efgtoa@l+3,i1___fltol@f1+3
  9625   001508  ECB8  F020         	call	i1___fltol	;wreg free
  9626   00150C  C007  F048         	movff	?i1___fltol,i1efgtoa@d
  9627   001510  C008  F049         	movff	?i1___fltol+1,i1efgtoa@d+1
  9628   001514                     
  9629                           ;C:\Program Files\Microchip\xc8\v3.00\pic\sources\c99\common\doprnt.c: 739:         h -=
      +                           l*u.f;
  9630   001514  C056  F020         	movff	i1efgtoa@h,i1___flsub@b
  9631   001518  C057  F021         	movff	i1efgtoa@h+1,i1___flsub@b+1
  9632   00151C  C058  F022         	movff	i1efgtoa@h+2,i1___flsub@b+2
  9633   001520  C059  F023         	movff	i1efgtoa@h+3,i1___flsub@b+3
  9634   001524  C05A  F00B         	movff	i1efgtoa@l,i1___flmul@a
  9635   001528  C05B  F00C         	movff	i1efgtoa@l+1,i1___flmul@a+1
  9636   00152C  C05C  F00D         	movff	i1efgtoa@l+2,i1___flmul@a+2
  9637   001530  C05D  F00E         	movff	i1efgtoa@l+3,i1___flmul@a+3
  9638   001534  C065  F007         	movff	i1efgtoa@u,i1___flmul@b
  9639   001538  C066  F008         	movff	i1efgtoa@u+1,i1___flmul@b+1
  9640   00153C  C067  F009         	movff	i1efgtoa@u+2,i1___flmul@b+2
  9641   001540  C068  F00A         	movff	i1efgtoa@u+3,i1___flmul@b+3
  9642   001544  ECF0  F013         	call	i1___flmul	;wreg free
  9643   001548  C007  F024         	movff	?i1___flmul,i1___flsub@a
  9644   00154C  C008  F025         	movff	?i1___flmul+1,i1___flsub@a+1
  9645   001550  C009  F026         	movff	?i1___flmul+2,i1___flsub@a+2
  9646   001554  C00A  F027         	movff	?i1___flmul+3,i1___flsub@a+3
  9647   001558  EC30  F028         	call	i1___flsub	;wreg free
  9648   00155C  C020  F056         	movff	?i1___flsub,i1efgtoa@h
  9649   001560  C021  F057         	movff	?i1___flsub+1,i1efgtoa@h+1
  9650   001564  C022  F058         	movff	?i1___flsub+2,i1efgtoa@h+2
  9651   001568  C023  F059         	movff	?i1___flsub+3,i1efgtoa@h+3
  9652   00156C                     
  9653                           ;C:\Program Files\Microchip\xc8\v3.00\pic\sources\c99\common\doprnt.c: 740:         u.f 
      +                          = u.f/10.0;
  9654   00156C  C065  F007         	movff	i1efgtoa@u,i1___fldiv@b
  9655   001570  C066  F008         	movff	i1efgtoa@u+1,i1___fldiv@b+1
  9656   001574  C067  F009         	movff	i1efgtoa@u+2,i1___fldiv@b+2
  9657   001578  C068  F00A         	movff	i1efgtoa@u+3,i1___fldiv@b+3
  9658   00157C  0E00               	movlw	0
  9659   00157E  6E0B               	movwf	i1___fldiv@a^0,c
  9660   001580  0E00               	movlw	0
  9661   001582  6E0C               	movwf	(i1___fldiv@a+1)^0,c
  9662   001584  0E20               	movlw	32
  9663   001586  6E0D               	movwf	(i1___fldiv@a+2)^0,c
  9664   001588  0E41               	movlw	65
  9665   00158A  6E0E               	movwf	(i1___fldiv@a+3)^0,c
  9666   00158C  ECCC  F017         	call	i1___fldiv	;wreg free
  9667   001590  C007  F065         	movff	?i1___fldiv,i1efgtoa@u
  9668   001594  C008  F066         	movff	?i1___fldiv+1,i1efgtoa@u+1
  9669   001598  C009  F067         	movff	?i1___fldiv+2,i1efgtoa@u+2
  9670   00159C  C00A  F068         	movff	?i1___fldiv+3,i1efgtoa@u+3
  9671   0015A0                     
  9672                           ;C:\Program Files\Microchip\xc8\v3.00\pic\sources\c99\common\doprnt.c: 741:         ++i;
  9673   0015A0  4A54               	infsnz	i1efgtoa@i^0,f,c
  9674   0015A2  2A55               	incf	(i1efgtoa@i+1)^0,f,c
  9675   0015A4                     i1l8986:
  9676                           
  9677                           ;C:\Program Files\Microchip\xc8\v3.00\pic\sources\c99\common\doprnt.c: 736:     while (i
      +                           < m) {
  9678   0015A4  504A               	movf	i1efgtoa@m^0,w,c
  9679   0015A6  5C54               	subwf	i1efgtoa@i^0,w,c
  9680   0015A8  5055               	movf	(i1efgtoa@i+1)^0,w,c
  9681   0015AA  0A80               	xorlw	128
  9682   0015AC  6E3B               	movwf	??i1_efgtoa^0,c
  9683   0015AE  504B               	movf	(i1efgtoa@m+1)^0,w,c
  9684   0015B0  0A80               	xorlw	128
  9685   0015B2  583B               	subwfb	??i1_efgtoa^0,w,c
  9686   0015B4  A0D8               	btfss	status,0,c
  9687   0015B6  EFDF  F00A         	goto	i1u1305_21
  9688   0015BA  EFE1  F00A         	goto	i1u1305_20
  9689   0015BE                     i1u1305_21:
  9690   0015BE  EF58  F00A         	goto	i1l8978
  9691   0015C2                     i1u1305_20:
  9692   0015C2                     
  9693                           ;C:\Program Files\Microchip\xc8\v3.00\pic\sources\c99\common\doprnt.c: 745:     l = u.f*
      +                          5.0;
  9694   0015C2  C065  F007         	movff	i1efgtoa@u,i1___flmul@b
  9695   0015C6  C066  F008         	movff	i1efgtoa@u+1,i1___flmul@b+1
  9696   0015CA  C067  F009         	movff	i1efgtoa@u+2,i1___flmul@b+2
  9697   0015CE  C068  F00A         	movff	i1efgtoa@u+3,i1___flmul@b+3
  9698   0015D2  0E00               	movlw	0
  9699   0015D4  6E0B               	movwf	i1___flmul@a^0,c
  9700   0015D6  0E00               	movlw	0
  9701   0015D8  6E0C               	movwf	(i1___flmul@a+1)^0,c
  9702   0015DA  0EA0               	movlw	160
  9703   0015DC  6E0D               	movwf	(i1___flmul@a+2)^0,c
  9704   0015DE  0E40               	movlw	64
  9705   0015E0  6E0E               	movwf	(i1___flmul@a+3)^0,c
  9706   0015E2  ECF0  F013         	call	i1___flmul	;wreg free
  9707   0015E6  C007  F05A         	movff	?i1___flmul,i1efgtoa@l
  9708   0015EA  C008  F05B         	movff	?i1___flmul+1,i1efgtoa@l+1
  9709   0015EE  C009  F05C         	movff	?i1___flmul+2,i1efgtoa@l+2
  9710   0015F2  C00A  F05D         	movff	?i1___flmul+3,i1efgtoa@l+3
  9711   0015F6                     
  9712                           ;C:\Program Files\Microchip\xc8\v3.00\pic\sources\c99\common\doprnt.c: 746:     if (h < 
      +                          l) {
  9713   0015F6  C056  F020         	movff	i1efgtoa@h,i1___flge@ff1
  9714   0015FA  C057  F021         	movff	i1efgtoa@h+1,i1___flge@ff1+1
  9715   0015FE  C058  F022         	movff	i1efgtoa@h+2,i1___flge@ff1+2
  9716   001602  C059  F023         	movff	i1efgtoa@h+3,i1___flge@ff1+3
  9717   001606  C05A  F024         	movff	i1efgtoa@l,i1___flge@ff2
  9718   00160A  C05B  F025         	movff	i1efgtoa@l+1,i1___flge@ff2+1
  9719   00160E  C05C  F026         	movff	i1efgtoa@l+2,i1___flge@ff2+2
  9720   001612  C05D  F027         	movff	i1efgtoa@l+3,i1___flge@ff2+3
  9721   001616  EC3B  F021         	call	i1___flge	;wreg free
  9722   00161A  B0D8               	btfsc	status,0,c
  9723   00161C  EF12  F00B         	goto	i1u1306_21
  9724   001620  EF14  F00B         	goto	i1u1306_20
  9725   001624                     i1u1306_21:
  9726   001624  EF1E  F00B         	goto	i1l8994
  9727   001628                     i1u1306_20:
  9728   001628                     
  9729                           ;C:\Program Files\Microchip\xc8\v3.00\pic\sources\c99\common\doprnt.c: 747:         l = 
      +                          0.0;
  9730   001628  0E00               	movlw	0
  9731   00162A  6E5A               	movwf	i1efgtoa@l^0,c
  9732   00162C  0E00               	movlw	0
  9733   00162E  6E5B               	movwf	(i1efgtoa@l+1)^0,c
  9734   001630  0E00               	movlw	0
  9735   001632  6E5C               	movwf	(i1efgtoa@l+2)^0,c
  9736   001634  0E00               	movlw	0
  9737   001636  6E5D               	movwf	(i1efgtoa@l+3)^0,c
  9738                           
  9739                           ;C:\Program Files\Microchip\xc8\v3.00\pic\sources\c99\common\doprnt.c: 748:     } else {
  9740   001638  EF46  F00B         	goto	i1l9000
  9741   00163C                     i1l8994:
  9742                           
  9743                           ;C:\Program Files\Microchip\xc8\v3.00\pic\sources\c99\common\doprnt.c: 750:         if (
      +                          (h == l) && !(d % 2)) {
  9744   00163C  C056  F007         	movff	i1efgtoa@h,i1___fleq@ff1
  9745   001640  C057  F008         	movff	i1efgtoa@h+1,i1___fleq@ff1+1
  9746   001644  C058  F009         	movff	i1efgtoa@h+2,i1___fleq@ff1+2
  9747   001648  C059  F00A         	movff	i1efgtoa@h+3,i1___fleq@ff1+3
  9748   00164C  C05A  F00B         	movff	i1efgtoa@l,i1___fleq@ff2
  9749   001650  C05B  F00C         	movff	i1efgtoa@l+1,i1___fleq@ff2+1
  9750   001654  C05C  F00D         	movff	i1efgtoa@l+2,i1___fleq@ff2+2
  9751   001658  C05D  F00E         	movff	i1efgtoa@l+3,i1___fleq@ff2+3
  9752   00165C  ECDD  F023         	call	i1___fleq	;wreg free
  9753   001660  A0D8               	btfss	status,0,c
  9754   001662  EF35  F00B         	goto	i1u1307_21
  9755   001666  EF37  F00B         	goto	i1u1307_20
  9756   00166A                     i1u1307_21:
  9757   00166A  EF46  F00B         	goto	i1l9000
  9758   00166E                     i1u1307_20:
  9759   00166E  B048               	btfsc	i1efgtoa@d^0,0,c
  9760   001670  EF3C  F00B         	goto	i1u1308_21
  9761   001674  EF3E  F00B         	goto	i1u1308_20
  9762   001678                     i1u1308_21:
  9763   001678  EF46  F00B         	goto	i1l9000
  9764   00167C                     i1u1308_20:
  9765   00167C                     
  9766                           ;C:\Program Files\Microchip\xc8\v3.00\pic\sources\c99\common\doprnt.c: 751:             
      +                          l = 0.0;
  9767   00167C  0E00               	movlw	0
  9768   00167E  6E5A               	movwf	i1efgtoa@l^0,c
  9769   001680  0E00               	movlw	0
  9770   001682  6E5B               	movwf	(i1efgtoa@l+1)^0,c
  9771   001684  0E00               	movlw	0
  9772   001686  6E5C               	movwf	(i1efgtoa@l+2)^0,c
  9773   001688  0E00               	movlw	0
  9774   00168A  6E5D               	movwf	(i1efgtoa@l+3)^0,c
  9775   00168C                     i1l9000:
  9776                           
  9777                           ;C:\Program Files\Microchip\xc8\v3.00\pic\sources\c99\common\doprnt.c: 756:     h = g.f 
      +                          + l;
  9778   00168C  C05F  F007         	movff	i1efgtoa@g,i1___fladd@b
  9779   001690  C060  F008         	movff	i1efgtoa@g+1,i1___fladd@b+1
  9780   001694  C061  F009         	movff	i1efgtoa@g+2,i1___fladd@b+2
  9781   001698  C062  F00A         	movff	i1efgtoa@g+3,i1___fladd@b+3
  9782   00169C  C05A  F00B         	movff	i1efgtoa@l,i1___fladd@a
  9783   0016A0  C05B  F00C         	movff	i1efgtoa@l+1,i1___fladd@a+1
  9784   0016A4  C05C  F00D         	movff	i1efgtoa@l+2,i1___fladd@a+2
  9785   0016A8  C05D  F00E         	movff	i1efgtoa@l+3,i1___fladd@a+3
  9786   0016AC  EC81  F00F         	call	i1___fladd	;wreg free
  9787   0016B0  C007  F056         	movff	?i1___fladd,i1efgtoa@h
  9788   0016B4  C008  F057         	movff	?i1___fladd+1,i1efgtoa@h+1
  9789   0016B8  C009  F058         	movff	?i1___fladd+2,i1efgtoa@h+2
  9790   0016BC  C00A  F059         	movff	?i1___fladd+3,i1efgtoa@h+3
  9791   0016C0                     
  9792                           ;C:\Program Files\Microchip\xc8\v3.00\pic\sources\c99\common\doprnt.c: 758:  if (h >= (o
      +                          u.f*10.0)) {
  9793   0016C0  C056  F020         	movff	i1efgtoa@h,i1___flge@ff1
  9794   0016C4  C057  F021         	movff	i1efgtoa@h+1,i1___flge@ff1+1
  9795   0016C8  C058  F022         	movff	i1efgtoa@h+2,i1___flge@ff1+2
  9796   0016CC  C059  F023         	movff	i1efgtoa@h+3,i1___flge@ff1+3
  9797   0016D0  0E00               	movlw	0
  9798   0016D2  6E0B               	movwf	i1___flmul@a^0,c
  9799   0016D4  0E00               	movlw	0
  9800   0016D6  6E0C               	movwf	(i1___flmul@a+1)^0,c
  9801   0016D8  0E20               	movlw	32
  9802   0016DA  6E0D               	movwf	(i1___flmul@a+2)^0,c
  9803   0016DC  0E41               	movlw	65
  9804   0016DE  6E0E               	movwf	(i1___flmul@a+3)^0,c
  9805   0016E0  C050  F007         	movff	i1efgtoa@ou,i1___flmul@b
  9806   0016E4  C051  F008         	movff	i1efgtoa@ou+1,i1___flmul@b+1
  9807   0016E8  C052  F009         	movff	i1efgtoa@ou+2,i1___flmul@b+2
  9808   0016EC  C053  F00A         	movff	i1efgtoa@ou+3,i1___flmul@b+3
  9809   0016F0  ECF0  F013         	call	i1___flmul	;wreg free
  9810   0016F4  C007  F024         	movff	?i1___flmul,i1___flge@ff2
  9811   0016F8  C008  F025         	movff	?i1___flmul+1,i1___flge@ff2+1
  9812   0016FC  C009  F026         	movff	?i1___flmul+2,i1___flge@ff2+2
  9813   001700  C00A  F027         	movff	?i1___flmul+3,i1___flge@ff2+3
  9814   001704  EC3B  F021         	call	i1___flge	;wreg free
  9815   001708  A0D8               	btfss	status,0,c
  9816   00170A  EF89  F00B         	goto	i1u1309_21
  9817   00170E  EF8B  F00B         	goto	i1u1309_20
  9818   001712                     i1u1309_21:
  9819   001712  EFB2  F00B         	goto	i1l9012
  9820   001716                     i1u1309_20:
  9821   001716                     
  9822                           ;C:\Program Files\Microchip\xc8\v3.00\pic\sources\c99\common\doprnt.c: 759:   e++;
  9823   001716  4A4C               	infsnz	i1efgtoa@e^0,f,c
  9824   001718  2A4D               	incf	(i1efgtoa@e+1)^0,f,c
  9825   00171A                     
  9826                           ;C:\Program Files\Microchip\xc8\v3.00\pic\sources\c99\common\doprnt.c: 760:   ou.f *= 10
      +                          .0;
  9827   00171A  C050  F007         	movff	i1efgtoa@ou,i1___flmul@b
  9828   00171E  C051  F008         	movff	i1efgtoa@ou+1,i1___flmul@b+1
  9829   001722  C052  F009         	movff	i1efgtoa@ou+2,i1___flmul@b+2
  9830   001726  C053  F00A         	movff	i1efgtoa@ou+3,i1___flmul@b+3
  9831   00172A  0E00               	movlw	0
  9832   00172C  6E0B               	movwf	i1___flmul@a^0,c
  9833   00172E  0E00               	movlw	0
  9834   001730  6E0C               	movwf	(i1___flmul@a+1)^0,c
  9835   001732  0E20               	movlw	32
  9836   001734  6E0D               	movwf	(i1___flmul@a+2)^0,c
  9837   001736  0E41               	movlw	65
  9838   001738  6E0E               	movwf	(i1___flmul@a+3)^0,c
  9839   00173A  ECF0  F013         	call	i1___flmul	;wreg free
  9840   00173E  C007  F050         	movff	?i1___flmul,i1efgtoa@ou
  9841   001742  C008  F051         	movff	?i1___flmul+1,i1efgtoa@ou+1
  9842   001746  C009  F052         	movff	?i1___flmul+2,i1efgtoa@ou+2
  9843   00174A  C00A  F053         	movff	?i1___flmul+3,i1efgtoa@ou+3
  9844   00174E                     
  9845                           ;C:\Program Files\Microchip\xc8\v3.00\pic\sources\c99\common\doprnt.c: 762:   if (nmode 
      +                          == 'f') {
  9846   00174E  0E66               	movlw	102
  9847   001750  1847               	xorwf	i1efgtoa@nmode^0,w,c
  9848   001752  A4D8               	btfss	status,2,c
  9849   001754  EFAE  F00B         	goto	i1u1310_21
  9850   001758  EFB0  F00B         	goto	i1u1310_20
  9851   00175C                     i1u1310_21:
  9852   00175C  EFB2  F00B         	goto	i1l9012
  9853   001760                     i1u1310_20:
  9854   001760                     
  9855                           ;C:\Program Files\Microchip\xc8\v3.00\pic\sources\c99\common\doprnt.c: 764:    m++;
  9856   001760  4A4A               	infsnz	i1efgtoa@m^0,f,c
  9857   001762  2A4B               	incf	(i1efgtoa@m+1)^0,f,c
  9858   001764                     i1l9012:
  9859                           
  9860                           ;C:\Program Files\Microchip\xc8\v3.00\pic\sources\c99\common\doprnt.c: 770:     u = ou;
  9861   001764  C050  F065         	movff	i1efgtoa@ou,i1efgtoa@u
  9862   001768  C051  F066         	movff	i1efgtoa@ou+1,i1efgtoa@u+1
  9863   00176C  C052  F067         	movff	i1efgtoa@ou+2,i1efgtoa@u+2
  9864   001770  C053  F068         	movff	i1efgtoa@ou+3,i1efgtoa@u+3
  9865   001774                     
  9866                           ;C:\Program Files\Microchip\xc8\v3.00\pic\sources\c99\common\doprnt.c: 774:  ne = e;
  9867   001774  C04C  F03D         	movff	i1efgtoa@e,i1efgtoa@ne
  9868   001778  C04D  F03E         	movff	i1efgtoa@e+1,i1efgtoa@ne+1
  9869   00177C                     
  9870                           ;C:\Program Files\Microchip\xc8\v3.00\pic\sources\c99\common\doprnt.c: 776:     pp = 0;
  9871   00177C  6A45               	clrf	i1efgtoa@pp^0,c
  9872   00177E                     
  9873                           ;C:\Program Files\Microchip\xc8\v3.00\pic\sources\c99\common\doprnt.c: 777:     t = 0;
  9874   00177E  0E00               	movlw	0
  9875   001780  6E42               	movwf	(i1efgtoa@t+1)^0,c
  9876   001782  0E00               	movlw	0
  9877   001784  6E41               	movwf	i1efgtoa@t^0,c
  9878   001786                     
  9879                           ;C:\Program Files\Microchip\xc8\v3.00\pic\sources\c99\common\doprnt.c: 778:     i = 0;
  9880   001786  0E00               	movlw	0
  9881   001788  6E55               	movwf	(i1efgtoa@i+1)^0,c
  9882   00178A  0E00               	movlw	0
  9883   00178C  6E54               	movwf	i1efgtoa@i^0,c
  9884                           
  9885                           ;C:\Program Files\Microchip\xc8\v3.00\pic\sources\c99\common\doprnt.c: 779:     while ((
      +                          i < m) && (n < (80 - 5))) {
  9886   00178E  EFAB  F00C         	goto	i1l9062
  9887   001792                     i1l9022:
  9888                           
  9889                           ;C:\Program Files\Microchip\xc8\v3.00\pic\sources\c99\common\doprnt.c: 780:         l = 
      +                          floorf(h/u.f);
  9890   001792  C056  F007         	movff	i1efgtoa@h,i1___fldiv@b
  9891   001796  C057  F008         	movff	i1efgtoa@h+1,i1___fldiv@b+1
  9892   00179A  C058  F009         	movff	i1efgtoa@h+2,i1___fldiv@b+2
  9893   00179E  C059  F00A         	movff	i1efgtoa@h+3,i1___fldiv@b+3
  9894   0017A2  C065  F00B         	movff	i1efgtoa@u,i1___fldiv@a
  9895   0017A6  C066  F00C         	movff	i1efgtoa@u+1,i1___fldiv@a+1
  9896   0017AA  C067  F00D         	movff	i1efgtoa@u+2,i1___fldiv@a+2
  9897   0017AE  C068  F00E         	movff	i1efgtoa@u+3,i1___fldiv@a+3
  9898   0017B2  ECCC  F017         	call	i1___fldiv	;wreg free
  9899   0017B6  C007  F020         	movff	?i1___fldiv,i1floorf@x
  9900   0017BA  C008  F021         	movff	?i1___fldiv+1,i1floorf@x+1
  9901   0017BE  C009  F022         	movff	?i1___fldiv+2,i1floorf@x+2
  9902   0017C2  C00A  F023         	movff	?i1___fldiv+3,i1floorf@x+3
  9903   0017C6  EC9F  F01A         	call	i1_floorf	;wreg free
  9904   0017CA  C020  F05A         	movff	?i1_floorf,i1efgtoa@l
  9905   0017CE  C021  F05B         	movff	?i1_floorf+1,i1efgtoa@l+1
  9906   0017D2  C022  F05C         	movff	?i1_floorf+2,i1efgtoa@l+2
  9907   0017D6  C023  F05D         	movff	?i1_floorf+3,i1efgtoa@l+3
  9908                           
  9909                           ;C:\Program Files\Microchip\xc8\v3.00\pic\sources\c99\common\doprnt.c: 781:         d = 
      +                          (int)l > 9 ? 9 : (int)l;
  9910   0017DA  C05A  F007         	movff	i1efgtoa@l,i1___fltol@f1
  9911   0017DE  C05B  F008         	movff	i1efgtoa@l+1,i1___fltol@f1+1
  9912   0017E2  C05C  F009         	movff	i1efgtoa@l+2,i1___fltol@f1+2
  9913   0017E6  C05D  F00A         	movff	i1efgtoa@l+3,i1___fltol@f1+3
  9914   0017EA  ECB8  F020         	call	i1___fltol	;wreg free
  9915   0017EE  BE08               	btfsc	(?i1___fltol+1)^0,7,c
  9916   0017F0  EF05  F00C         	goto	i1u1311_20
  9917   0017F4  5008               	movf	(?i1___fltol+1)^0,w,c
  9918   0017F6  E107               	bnz	i1u1311_21
  9919   0017F8  0E0A               	movlw	10
  9920   0017FA  5C07               	subwf	?i1___fltol^0,w,c
  9921   0017FC  B0D8               	btfsc	status,0,c
  9922   0017FE  EF03  F00C         	goto	i1u1311_21
  9923   001802  EF05  F00C         	goto	i1u1311_20
  9924   001806                     i1u1311_21:
  9925   001806  EF15  F00C         	goto	i1l9026
  9926   00180A                     i1u1311_20:
  9927   00180A  C05A  F007         	movff	i1efgtoa@l,i1___fltol@f1
  9928   00180E  C05B  F008         	movff	i1efgtoa@l+1,i1___fltol@f1+1
  9929   001812  C05C  F009         	movff	i1efgtoa@l+2,i1___fltol@f1+2
  9930   001816  C05D  F00A         	movff	i1efgtoa@l+3,i1___fltol@f1+3
  9931   00181A  ECB8  F020         	call	i1___fltol	;wreg free
  9932   00181E  C007  F048         	movff	?i1___fltol,i1efgtoa@d
  9933   001822  C008  F049         	movff	?i1___fltol+1,i1efgtoa@d+1
  9934   001826  EF19  F00C         	goto	i1l1033
  9935   00182A                     i1l9026:
  9936   00182A  0E00               	movlw	0
  9937   00182C  6E49               	movwf	(i1efgtoa@d+1)^0,c
  9938   00182E  0E09               	movlw	9
  9939   001830  6E48               	movwf	i1efgtoa@d^0,c
  9940   001832                     i1l1033:
  9941                           
  9942                           ;C:\Program Files\Microchip\xc8\v3.00\pic\sources\c99\common\doprnt.c: 792:   {;C:\Progr
      +                          am Files\Microchip\xc8\v3.00\pic\sources\c99\common\doprnt.c: 793:             if (!pp &
      +                          & (ne < 0)) {
  9943   001832  5045               	movf	i1efgtoa@pp^0,w,c
  9944   001834  A4D8               	btfss	status,2,c
  9945   001836  EF1F  F00C         	goto	i1u1312_21
  9946   00183A  EF21  F00C         	goto	i1u1312_20
  9947   00183E                     i1u1312_21:
  9948   00183E  EF49  F00C         	goto	i1l9046
  9949   001842                     i1u1312_20:
  9950   001842  BE3E               	btfsc	(i1efgtoa@ne+1)^0,7,c
  9951   001844  EF28  F00C         	goto	i1u1313_20
  9952   001848  EF26  F00C         	goto	i1u1313_21
  9953   00184C                     i1u1313_21:
  9954   00184C  EF49  F00C         	goto	i1l9046
  9955   001850                     i1u1313_20:
  9956   001850                     
  9957                           ;C:\Program Files\Microchip\xc8\v3.00\pic\sources\c99\common\doprnt.c: 794:             
      +                              dbuf[n++] = '.';
  9958   001850  0E64               	movlw	low _dbuf
  9959   001852  2463               	addwf	i1efgtoa@n^0,w,c
  9960   001854  6ED9               	movwf	fsr2l,c
  9961   001856  0E01               	movlw	high _dbuf
  9962   001858  2064               	addwfc	(i1efgtoa@n+1)^0,w,c
  9963   00185A  6EDA               	movwf	fsr2h,c
  9964   00185C  0E2E               	movlw	46
  9965   00185E  6EDF               	movwf	indf2,c
  9966   001860  4A63               	infsnz	i1efgtoa@n^0,f,c
  9967   001862  2A64               	incf	(i1efgtoa@n+1)^0,f,c
  9968   001864                     
  9969                           ;C:\Program Files\Microchip\xc8\v3.00\pic\sources\c99\common\doprnt.c: 795:             
      +                              --w;
  9970   001864  064E               	decf	i1efgtoa@w^0,f,c
  9971   001866  A0D8               	btfss	status,0,c
  9972   001868  064F               	decf	(i1efgtoa@w+1)^0,f,c
  9973   00186A                     
  9974                           ;C:\Program Files\Microchip\xc8\v3.00\pic\sources\c99\common\doprnt.c: 796:             
      +                              pp = 1;
  9975   00186A  0E01               	movlw	1
  9976   00186C  6E45               	movwf	i1efgtoa@pp^0,c
  9977   00186E  EF49  F00C         	goto	i1l9046
  9978   001872                     i1l9038:
  9979                           
  9980                           ;C:\Program Files\Microchip\xc8\v3.00\pic\sources\c99\common\doprnt.c: 799:             
      +                              dbuf[n++] = '0';
  9981   001872  0E64               	movlw	low _dbuf
  9982   001874  2463               	addwf	i1efgtoa@n^0,w,c
  9983   001876  6ED9               	movwf	fsr2l,c
  9984   001878  0E01               	movlw	high _dbuf
  9985   00187A  2064               	addwfc	(i1efgtoa@n+1)^0,w,c
  9986   00187C  6EDA               	movwf	fsr2h,c
  9987   00187E  0E30               	movlw	48
  9988   001880  6EDF               	movwf	indf2,c
  9989   001882  4A63               	infsnz	i1efgtoa@n^0,f,c
  9990   001884  2A64               	incf	(i1efgtoa@n+1)^0,f,c
  9991   001886                     
  9992                           ;C:\Program Files\Microchip\xc8\v3.00\pic\sources\c99\common\doprnt.c: 800:             
      +                              --w;
  9993   001886  064E               	decf	i1efgtoa@w^0,f,c
  9994   001888  A0D8               	btfss	status,0,c
  9995   00188A  064F               	decf	(i1efgtoa@w+1)^0,f,c
  9996   00188C                     
  9997                           ;C:\Program Files\Microchip\xc8\v3.00\pic\sources\c99\common\doprnt.c: 801:             
      +                              --t;
  9998   00188C  0641               	decf	i1efgtoa@t^0,f,c
  9999   00188E  A0D8               	btfss	status,0,c
 10000   001890  0642               	decf	(i1efgtoa@t+1)^0,f,c
 10001   001892                     i1l9046:
 10002                           
 10003                           ;C:\Program Files\Microchip\xc8\v3.00\pic\sources\c99\common\doprnt.c: 798:             
      +                          while (t) {
 10004   001892  5041               	movf	i1efgtoa@t^0,w,c
 10005   001894  1042               	iorwf	(i1efgtoa@t+1)^0,w,c
 10006   001896  A4D8               	btfss	status,2,c
 10007   001898  EF50  F00C         	goto	i1u1314_21
 10008   00189C  EF52  F00C         	goto	i1u1314_20
 10009   0018A0                     i1u1314_21:
 10010   0018A0  EF39  F00C         	goto	i1l9038
 10011   0018A4                     i1u1314_20:
 10012   0018A4                     
 10013                           ;C:\Program Files\Microchip\xc8\v3.00\pic\sources\c99\common\doprnt.c: 803:             
      +                          dbuf[n++] = (char)((int)'0' + d);
 10014   0018A4  0E64               	movlw	low _dbuf
 10015   0018A6  2463               	addwf	i1efgtoa@n^0,w,c
 10016   0018A8  6ED9               	movwf	fsr2l,c
 10017   0018AA  0E01               	movlw	high _dbuf
 10018   0018AC  2064               	addwfc	(i1efgtoa@n+1)^0,w,c
 10019   0018AE  6EDA               	movwf	fsr2h,c
 10020   0018B0  5048               	movf	i1efgtoa@d^0,w,c
 10021   0018B2  0F30               	addlw	48
 10022   0018B4  6EDF               	movwf	indf2,c
 10023   0018B6  4A63               	infsnz	i1efgtoa@n^0,f,c
 10024   0018B8  2A64               	incf	(i1efgtoa@n+1)^0,f,c
 10025   0018BA                     
 10026                           ;C:\Program Files\Microchip\xc8\v3.00\pic\sources\c99\common\doprnt.c: 804:             
      +                          --w;
 10027   0018BA  064E               	decf	i1efgtoa@w^0,f,c
 10028   0018BC  A0D8               	btfss	status,0,c
 10029   0018BE  064F               	decf	(i1efgtoa@w+1)^0,f,c
 10030   0018C0                     
 10031                           ;C:\Program Files\Microchip\xc8\v3.00\pic\sources\c99\common\doprnt.c: 805:         };C:
      +                          \Program Files\Microchip\xc8\v3.00\pic\sources\c99\common\doprnt.c: 806:         h -= l*
      +                          u.f;
 10032   0018C0  C056  F020         	movff	i1efgtoa@h,i1___flsub@b
 10033   0018C4  C057  F021         	movff	i1efgtoa@h+1,i1___flsub@b+1
 10034   0018C8  C058  F022         	movff	i1efgtoa@h+2,i1___flsub@b+2
 10035   0018CC  C059  F023         	movff	i1efgtoa@h+3,i1___flsub@b+3
 10036   0018D0  C05A  F00B         	movff	i1efgtoa@l,i1___flmul@a
 10037   0018D4  C05B  F00C         	movff	i1efgtoa@l+1,i1___flmul@a+1
 10038   0018D8  C05C  F00D         	movff	i1efgtoa@l+2,i1___flmul@a+2
 10039   0018DC  C05D  F00E         	movff	i1efgtoa@l+3,i1___flmul@a+3
 10040   0018E0  C065  F007         	movff	i1efgtoa@u,i1___flmul@b
 10041   0018E4  C066  F008         	movff	i1efgtoa@u+1,i1___flmul@b+1
 10042   0018E8  C067  F009         	movff	i1efgtoa@u+2,i1___flmul@b+2
 10043   0018EC  C068  F00A         	movff	i1efgtoa@u+3,i1___flmul@b+3
 10044   0018F0  ECF0  F013         	call	i1___flmul	;wreg free
 10045   0018F4  C007  F024         	movff	?i1___flmul,i1___flsub@a
 10046   0018F8  C008  F025         	movff	?i1___flmul+1,i1___flsub@a+1
 10047   0018FC  C009  F026         	movff	?i1___flmul+2,i1___flsub@a+2
 10048   001900  C00A  F027         	movff	?i1___flmul+3,i1___flsub@a+3
 10049   001904  EC30  F028         	call	i1___flsub	;wreg free
 10050   001908  C020  F056         	movff	?i1___flsub,i1efgtoa@h
 10051   00190C  C021  F057         	movff	?i1___flsub+1,i1efgtoa@h+1
 10052   001910  C022  F058         	movff	?i1___flsub+2,i1efgtoa@h+2
 10053   001914  C023  F059         	movff	?i1___flsub+3,i1efgtoa@h+3
 10054   001918                     
 10055                           ;C:\Program Files\Microchip\xc8\v3.00\pic\sources\c99\common\doprnt.c: 807:         u.f 
      +                          = u.f/10.0;
 10056   001918  C065  F007         	movff	i1efgtoa@u,i1___fldiv@b
 10057   00191C  C066  F008         	movff	i1efgtoa@u+1,i1___fldiv@b+1
 10058   001920  C067  F009         	movff	i1efgtoa@u+2,i1___fldiv@b+2
 10059   001924  C068  F00A         	movff	i1efgtoa@u+3,i1___fldiv@b+3
 10060   001928  0E00               	movlw	0
 10061   00192A  6E0B               	movwf	i1___fldiv@a^0,c
 10062   00192C  0E00               	movlw	0
 10063   00192E  6E0C               	movwf	(i1___fldiv@a+1)^0,c
 10064   001930  0E20               	movlw	32
 10065   001932  6E0D               	movwf	(i1___fldiv@a+2)^0,c
 10066   001934  0E41               	movlw	65
 10067   001936  6E0E               	movwf	(i1___fldiv@a+3)^0,c
 10068   001938  ECCC  F017         	call	i1___fldiv	;wreg free
 10069   00193C  C007  F065         	movff	?i1___fldiv,i1efgtoa@u
 10070   001940  C008  F066         	movff	?i1___fldiv+1,i1efgtoa@u+1
 10071   001944  C009  F067         	movff	?i1___fldiv+2,i1efgtoa@u+2
 10072   001948  C00A  F068         	movff	?i1___fldiv+3,i1efgtoa@u+3
 10073   00194C                     
 10074                           ;C:\Program Files\Microchip\xc8\v3.00\pic\sources\c99\common\doprnt.c: 808:         --ne
      +                          ;
 10075   00194C  063D               	decf	i1efgtoa@ne^0,f,c
 10076   00194E  A0D8               	btfss	status,0,c
 10077   001950  063E               	decf	(i1efgtoa@ne+1)^0,f,c
 10078   001952                     
 10079                           ;C:\Program Files\Microchip\xc8\v3.00\pic\sources\c99\common\doprnt.c: 809:         ++i;
 10080   001952  4A54               	infsnz	i1efgtoa@i^0,f,c
 10081   001954  2A55               	incf	(i1efgtoa@i+1)^0,f,c
 10082   001956                     i1l9062:
 10083                           
 10084                           ;C:\Program Files\Microchip\xc8\v3.00\pic\sources\c99\common\doprnt.c: 779:     while ((
      +                          i < m) && (n < (80 - 5))) {
 10085   001956  504A               	movf	i1efgtoa@m^0,w,c
 10086   001958  5C54               	subwf	i1efgtoa@i^0,w,c
 10087   00195A  5055               	movf	(i1efgtoa@i+1)^0,w,c
 10088   00195C  0A80               	xorlw	128
 10089   00195E  6E3B               	movwf	??i1_efgtoa^0,c
 10090   001960  504B               	movf	(i1efgtoa@m+1)^0,w,c
 10091   001962  0A80               	xorlw	128
 10092   001964  583B               	subwfb	??i1_efgtoa^0,w,c
 10093   001966  B0D8               	btfsc	status,0,c
 10094   001968  EFB8  F00C         	goto	i1u1315_21
 10095   00196C  EFBA  F00C         	goto	i1u1315_20
 10096   001970                     i1u1315_21:
 10097   001970  EFC8  F00C         	goto	i1l9066
 10098   001974                     i1u1315_20:
 10099   001974  BE64               	btfsc	(i1efgtoa@n+1)^0,7,c
 10100   001976  EFC6  F00C         	goto	i1u1316_21
 10101   00197A  5064               	movf	(i1efgtoa@n+1)^0,w,c
 10102   00197C  E109               	bnz	i1u1316_20
 10103   00197E  0E4B               	movlw	75
 10104   001980  5C63               	subwf	i1efgtoa@n^0,w,c
 10105   001982  A0D8               	btfss	status,0,c
 10106   001984  EFC6  F00C         	goto	i1u1316_21
 10107   001988  EFC8  F00C         	goto	i1u1316_20
 10108   00198C                     i1u1316_21:
 10109   00198C  EFC9  F00B         	goto	i1l9022
 10110   001990                     i1u1316_20:
 10111   001990                     i1l9066:
 10112                           
 10113                           ;C:\Program Files\Microchip\xc8\v3.00\pic\sources\c99\common\doprnt.c: 816:  i = sizeof(
      +                          dbuf) - 1;
 10114   001990  0E00               	movlw	0
 10115   001992  6E55               	movwf	(i1efgtoa@i+1)^0,c
 10116   001994  0E4F               	movlw	79
 10117   001996  6E54               	movwf	i1efgtoa@i^0,c
 10118   001998                     
 10119                           ;C:\Program Files\Microchip\xc8\v3.00\pic\sources\c99\common\doprnt.c: 817:     dbuf[i] 
      +                          = '\0';
 10120   001998  0E64               	movlw	low _dbuf
 10121   00199A  2454               	addwf	i1efgtoa@i^0,w,c
 10122   00199C  6ED9               	movwf	fsr2l,c
 10123   00199E  0E01               	movlw	high _dbuf
 10124   0019A0  2055               	addwfc	(i1efgtoa@i+1)^0,w,c
 10125   0019A2  6EDA               	movwf	fsr2h,c
 10126   0019A4  6ADF               	clrf	indf2,c
 10127   0019A6                     
 10128                           ;C:\Program Files\Microchip\xc8\v3.00\pic\sources\c99\common\doprnt.c: 848:  memcpy(&dbu
      +                          f[i-n], &dbuf[0], (size_t)n);
 10129   0019A6  0E64               	movlw	low _dbuf
 10130   0019A8  6E3B               	movwf	??i1_efgtoa^0,c
 10131   0019AA  0E01               	movlw	high _dbuf
 10132   0019AC  6E3C               	movwf	(??i1_efgtoa+1)^0,c
 10133   0019AE  5063               	movf	i1efgtoa@n^0,w,c
 10134   0019B0  5E3B               	subwf	??i1_efgtoa^0,f,c
 10135   0019B2  5064               	movf	(i1efgtoa@n+1)^0,w,c
 10136   0019B4  5A3C               	subwfb	(??i1_efgtoa+1)^0,f,c
 10137   0019B6  5054               	movf	i1efgtoa@i^0,w,c
 10138   0019B8  243B               	addwf	??i1_efgtoa^0,w,c
 10139   0019BA  6E07               	movwf	i1memcpy@d1^0,c
 10140   0019BC  5055               	movf	(i1efgtoa@i+1)^0,w,c
 10141   0019BE  203C               	addwfc	(??i1_efgtoa+1)^0,w,c
 10142   0019C0  6E08               	movwf	(i1memcpy@d1+1)^0,c
 10143   0019C2  0E64               	movlw	low _dbuf
 10144   0019C4  6E09               	movwf	i1memcpy@s1^0,c
 10145   0019C6  0E01               	movlw	high _dbuf
 10146   0019C8  6E0A               	movwf	(i1memcpy@s1+1)^0,c
 10147   0019CA  C063  F00B         	movff	i1efgtoa@n,i1memcpy@n
 10148   0019CE  C064  F00C         	movff	i1efgtoa@n+1,i1memcpy@n+1
 10149   0019D2  EC29  F027         	call	i1_memcpy	;wreg free
 10150   0019D6                     
 10151                           ;C:\Program Files\Microchip\xc8\v3.00\pic\sources\c99\common\doprnt.c: 849:  n = i-n;
 10152   0019D6  5063               	movf	i1efgtoa@n^0,w,c
 10153   0019D8  5C54               	subwf	i1efgtoa@i^0,w,c
 10154   0019DA  6E63               	movwf	i1efgtoa@n^0,c
 10155   0019DC  5064               	movf	(i1efgtoa@n+1)^0,w,c
 10156   0019DE  5855               	subwfb	(i1efgtoa@i+1)^0,w,c
 10157   0019E0  6E64               	movwf	(i1efgtoa@n+1)^0,c
 10158   0019E2                     
 10159                           ;C:\Program Files\Microchip\xc8\v3.00\pic\sources\c99\common\doprnt.c: 850:  i = sign ==
      +                           0 ? 0 : 1;
 10160   0019E2  505E               	movf	i1efgtoa@sign^0,w,c
 10161   0019E4  A4D8               	btfss	status,2,c
 10162   0019E6  EFF7  F00C         	goto	i1u1317_21
 10163   0019EA  EFFA  F00C         	goto	i1u1317_20
 10164   0019EE                     i1u1317_21:
 10165   0019EE  0E01               	movlw	1
 10166   0019F0  EFFB  F00C         	goto	i1u1318_20
 10167   0019F4                     i1u1317_20:
 10168   0019F4  0E00               	movlw	0
 10169   0019F6                     i1u1318_20:
 10170   0019F6  6E54               	movwf	i1efgtoa@i^0,c
 10171   0019F8  6A55               	clrf	(i1efgtoa@i+1)^0,c
 10172   0019FA                     
 10173                           ;C:\Program Files\Microchip\xc8\v3.00\pic\sources\c99\common\doprnt.c: 861:  if (sign) {
 10174   0019FA  505E               	movf	i1efgtoa@sign^0,w,c
 10175   0019FC  B4D8               	btfsc	status,2,c
 10176   0019FE  EF03  F00D         	goto	i1u1319_21
 10177   001A02  EF05  F00D         	goto	i1u1319_20
 10178   001A06                     i1u1319_21:
 10179   001A06  EF10  F00D         	goto	i1l9080
 10180   001A0A                     i1u1319_20:
 10181   001A0A                     
 10182                           ;C:\Program Files\Microchip\xc8\v3.00\pic\sources\c99\common\doprnt.c: 862:   dbuf[--n] 
      +                          = sign;
 10183   001A0A  0663               	decf	i1efgtoa@n^0,f,c
 10184   001A0C  A0D8               	btfss	status,0,c
 10185   001A0E  0664               	decf	(i1efgtoa@n+1)^0,f,c
 10186   001A10  0E64               	movlw	low _dbuf
 10187   001A12  2463               	addwf	i1efgtoa@n^0,w,c
 10188   001A14  6ED9               	movwf	fsr2l,c
 10189   001A16  0E01               	movlw	high _dbuf
 10190   001A18  2064               	addwfc	(i1efgtoa@n+1)^0,w,c
 10191   001A1A  6EDA               	movwf	fsr2h,c
 10192   001A1C  C05E  FFDF         	movff	i1efgtoa@sign,indf2
 10193   001A20                     i1l9080:
 10194                           
 10195                           ;C:\Program Files\Microchip\xc8\v3.00\pic\sources\c99\common\doprnt.c: 864:  w -= i;
 10196   001A20  5054               	movf	i1efgtoa@i^0,w,c
 10197   001A22  5E4E               	subwf	i1efgtoa@w^0,f,c
 10198   001A24  5055               	movf	(i1efgtoa@i+1)^0,w,c
 10199   001A26  5A4F               	subwfb	(i1efgtoa@w+1)^0,f,c
 10200   001A28                     
 10201                           ;C:\Program Files\Microchip\xc8\v3.00\pic\sources\c99\common\doprnt.c: 867:     return (
      +                          void) pad(fp, &dbuf[n], w);
 10202   001A28  C034  F018         	movff	i1efgtoa@fp,i1pad@fp
 10203   001A2C  C035  F019         	movff	i1efgtoa@fp+1,i1pad@fp+1
 10204   001A30  0E64               	movlw	low _dbuf
 10205   001A32  2463               	addwf	i1efgtoa@n^0,w,c
 10206   001A34  6E1A               	movwf	i1pad@buf^0,c
 10207   001A36  0E01               	movlw	high _dbuf
 10208   001A38  2064               	addwfc	(i1efgtoa@n+1)^0,w,c
 10209   001A3A  6E1B               	movwf	(i1pad@buf+1)^0,c
 10210   001A3C  C04E  F01C         	movff	i1efgtoa@w,i1pad@p
 10211   001A40  C04F  F01D         	movff	i1efgtoa@w+1,i1pad@p+1
 10212   001A44  EC25  F025         	call	i1_pad	;wreg free
 10213   001A48                     i1l1000:
 10214   001A48  0012               	return		;funcret
 10215   001A4A                     __end_ofi1_efgtoa:
 10216                           	callstack 0
 10217                           
 10218 ;; *************** function i1_strcpy *****************
 10219 ;; Defined at:
 10220 ;;		line 3 in file "C:\Program Files\Microchip\xc8\v3.00\pic\sources\c99\common\strcpy.c"
 10221 ;; Parameters:    Size  Location     Type
 10222 ;;  dest            2    6[COMRAM] PTR unsigned char 
 10223 ;;		 -> dbuf(80), main@str(100), 
 10224 ;;  src             2    8[COMRAM] PTR const unsigned char 
 10225 ;;		 -> STR_7(4), STR_4(4), buffer(100), 
 10226 ;; Auto vars:     Size  Location     Type
 10227 ;;  d               2   12[COMRAM] PTR unsigned char 
 10228 ;;		 -> dbuf(80), main@str(100), 
 10229 ;; Return value:  Size  Location     Type
 10230 ;;                  2    6[COMRAM] PTR unsigned char 
 10231 ;; Registers used:
 10232 ;;		wreg, fsr1l, fsr1h, fsr2l, fsr2h, status,2, status,0, tblptrl, tblptrh, tblptru
 10233 ;; Tracked objects:
 10234 ;;		On entry : 0/0
 10235 ;;		On exit  : 0/0
 10236 ;;		Unchanged: 0/0
 10237 ;; Data sizes:     COMRAM   BANK0   BANK1   BANK2   BANK3   BANK4   BANK5
 10238 ;;      Params:         4       0       0       0       0       0       0
 10239 ;;      Locals:         2       0       0       0       0       0       0
 10240 ;;      Temps:          2       0       0       0       0       0       0
 10241 ;;      Totals:         8       0       0       0       0       0       0
 10242 ;;Total ram usage:        8 bytes
 10243 ;; Hardware stack levels used: 1
 10244 ;; Hardware stack levels required when called: 3
 10245 ;; This function calls:
 10246 ;;		Nothing
 10247 ;; This function is called by:
 10248 ;;		i1_efgtoa
 10249 ;; This function uses a non-reentrant model
 10250 ;;
 10251                           
 10252                           	psect	text38
 10253   004DAC                     __ptext38:
 10254                           	callstack 0
 10255   004DAC                     i1_strcpy:
 10256                           	callstack 11
 10257   004DAC  C007  F00D         	movff	i1strcpy@dest,i1strcpy@d
 10258   004DB0  C008  F00E         	movff	i1strcpy@dest+1,i1strcpy@d+1
 10259   004DB4                     i1l8644:
 10260   004DB4  5009               	movf	i1strcpy@src^0,w,c
 10261   004DB6  6E0B               	movwf	??i1_strcpy^0,c
 10262   004DB8  500A               	movf	(i1strcpy@src+1)^0,w,c
 10263   004DBA  6E0C               	movwf	(??i1_strcpy+1)^0,c
 10264   004DBC  4A09               	infsnz	i1strcpy@src^0,f,c
 10265   004DBE  2A0A               	incf	(i1strcpy@src+1)^0,f,c
 10266   004DC0  C00B  FFF6         	movff	??i1_strcpy,tblptrl
 10267   004DC4  C00C  FFF7         	movff	??i1_strcpy+1,tblptrh
 10268   004DC8  6AF8               	clrf	tblptru,c
 10269   004DCA  C00D  FFD9         	movff	i1strcpy@d,fsr2l
 10270   004DCE  C00E  FFDA         	movff	i1strcpy@d+1,fsr2h
 10271   004DD2  4A0D               	infsnz	i1strcpy@d^0,f,c
 10272   004DD4  2A0E               	incf	(i1strcpy@d+1)^0,f,c
 10273   004DD6  0E05               	movlw	(high __ramtop+-1)
 10274   004DD8  64F7               	cpfsgt	tblptrh,c
 10275   004DDA  D003               	bra	i1u1254_27
 10276   004DDC  0008               	tblrd		*
 10277   004DDE  50F5               	movf	tablat,w,c
 10278   004DE0  D005               	bra	i1u1254_20
 10279   004DE2                     i1u1254_27:
 10280   004DE2  CFF6 FFE1          	movff	tblptrl,fsr1l
 10281   004DE6  CFF7 FFE2          	movff	tblptrh,fsr1h
 10282   004DEA  50E7               	movf	indf1,w,c
 10283   004DEC                     i1u1254_20:
 10284   004DEC  6EDF               	movwf	indf2,c
 10285   004DEE  50DF               	movf	indf2,w,c
 10286   004DF0  A4D8               	btfss	status,2,c
 10287   004DF2  EFFD  F026         	goto	i1u1255_21
 10288   004DF6  EFFF  F026         	goto	i1u1255_20
 10289   004DFA                     i1u1255_21:
 10290   004DFA  EFDA  F026         	goto	i1l8644
 10291   004DFE                     i1u1255_20:
 10292   004DFE  0012               	return		;funcret
 10293   004E00                     __end_ofi1_strcpy:
 10294                           	callstack 0
 10295                           
 10296 ;; *************** function i1_pad *****************
 10297 ;; Defined at:
 10298 ;;		line 193 in file "C:\Program Files\Microchip\xc8\v3.00\pic\sources\c99\common\doprnt.c"
 10299 ;; Parameters:    Size  Location     Type
 10300 ;;  fp              2   23[COMRAM] PTR struct _IO_FILE
 10301 ;;		 -> NULL(0), 
 10302 ;;  buf             2   25[COMRAM] PTR unsigned char 
 10303 ;;		 -> dbuf(80), 
 10304 ;;  p               2   27[COMRAM] int 
 10305 ;; Auto vars:     Size  Location     Type
 10306 ;;  i               2   30[COMRAM] int 
 10307 ;; Return value:  Size  Location     Type
 10308 ;;                  1    wreg      void 
 10309 ;; Registers used:
 10310 ;;		wreg, fsr1l, fsr1h, fsr2l, fsr2h, status,2, status,0, cstack
 10311 ;; Tracked objects:
 10312 ;;		On entry : 0/0
 10313 ;;		On exit  : 0/0
 10314 ;;		Unchanged: 0/0
 10315 ;; Data sizes:     COMRAM   BANK0   BANK1   BANK2   BANK3   BANK4   BANK5
 10316 ;;      Params:         6       0       0       0       0       0       0
 10317 ;;      Locals:         2       0       0       0       0       0       0
 10318 ;;      Temps:          1       0       0       0       0       0       0
 10319 ;;      Totals:         9       0       0       0       0       0       0
 10320 ;;Total ram usage:        9 bytes
 10321 ;; Hardware stack levels used: 1
 10322 ;; Hardware stack levels required when called: 6
 10323 ;; This function calls:
 10324 ;;		i1_fputc
 10325 ;;		i1_fputs
 10326 ;; This function is called by:
 10327 ;;		i1_efgtoa
 10328 ;; This function uses a non-reentrant model
 10329 ;;
 10330                           
 10331                           	psect	text39
 10332   004A4A                     __ptext39:
 10333                           	callstack 0
 10334   004A4A                     i1_pad:
 10335                           	callstack 8
 10336   004A4A                     
 10337                           ;C:\Program Files\Microchip\xc8\v3.00\pic\sources\c99\common\doprnt.c: 193: static void 
      +                          pad(FILE *fp, char *buf, int p);C:\Program Files\Microchip\xc8\v3.00\pic\sources\c99\com
      +                          mon\doprnt.c: 194: {;C:\Program Files\Microchip\xc8\v3.00\pic\sources\c99\common\doprnt.
      +                          c: 195:     int i;;C:\Program Files\Microchip\xc8\v3.00\pic\sources\c99\common\doprnt.c:
      +                           205:  if (p < 0) {
 10338   004A4A  BE1D               	btfsc	(i1pad@p+1)^0,7,c
 10339   004A4C  EF2C  F025         	goto	i1u1233_20
 10340   004A50  EF2A  F025         	goto	i1u1233_21
 10341   004A54                     i1u1233_21:
 10342   004A54  EF30  F025         	goto	i1l985
 10343   004A58                     i1u1233_20:
 10344   004A58                     
 10345                           ;C:\Program Files\Microchip\xc8\v3.00\pic\sources\c99\common\doprnt.c: 206:   p = 0;
 10346   004A58  0E00               	movlw	0
 10347   004A5A  6E1D               	movwf	(i1pad@p+1)^0,c
 10348   004A5C  0E00               	movlw	0
 10349   004A5E  6E1C               	movwf	i1pad@p^0,c
 10350   004A60                     i1l985:
 10351                           
 10352                           ;C:\Program Files\Microchip\xc8\v3.00\pic\sources\c99\common\doprnt.c: 208:     i = 0;
 10353   004A60  0E00               	movlw	0
 10354   004A62  6E20               	movwf	(i1pad@i+1)^0,c
 10355   004A64  0E00               	movlw	0
 10356   004A66  6E1F               	movwf	i1pad@i^0,c
 10357                           
 10358                           ;C:\Program Files\Microchip\xc8\v3.00\pic\sources\c99\common\doprnt.c: 209:     while (i
      +                           < p) {
 10359   004A68  EF42  F025         	goto	i1l8568
 10360   004A6C                     i1l8564:
 10361                           
 10362                           ;C:\Program Files\Microchip\xc8\v3.00\pic\sources\c99\common\doprnt.c: 210:         fput
      +                          c(' ', fp);
 10363   004A6C  0E00               	movlw	0
 10364   004A6E  6E09               	movwf	(i1fputc@c+1)^0,c
 10365   004A70  0E20               	movlw	32
 10366   004A72  6E08               	movwf	i1fputc@c^0,c
 10367   004A74  C018  F00A         	movff	i1pad@fp,i1fputc@fp
 10368   004A78  C019  F00B         	movff	i1pad@fp+1,i1fputc@fp+1
 10369   004A7C  EC22  F023         	call	i1_fputc	;wreg free
 10370   004A80                     
 10371                           ;C:\Program Files\Microchip\xc8\v3.00\pic\sources\c99\common\doprnt.c: 211:         ++i;
 10372   004A80  4A1F               	infsnz	i1pad@i^0,f,c
 10373   004A82  2A20               	incf	(i1pad@i+1)^0,f,c
 10374   004A84                     i1l8568:
 10375                           
 10376                           ;C:\Program Files\Microchip\xc8\v3.00\pic\sources\c99\common\doprnt.c: 209:     while (i
      +                           < p) {
 10377   004A84  501C               	movf	i1pad@p^0,w,c
 10378   004A86  5C1F               	subwf	i1pad@i^0,w,c
 10379   004A88  5020               	movf	(i1pad@i+1)^0,w,c
 10380   004A8A  0A80               	xorlw	128
 10381   004A8C  6E1E               	movwf	??i1_pad^0,c
 10382   004A8E  501D               	movf	(i1pad@p+1)^0,w,c
 10383   004A90  0A80               	xorlw	128
 10384   004A92  581E               	subwfb	??i1_pad^0,w,c
 10385   004A94  A0D8               	btfss	status,0,c
 10386   004A96  EF4F  F025         	goto	i1u1234_21
 10387   004A9A  EF51  F025         	goto	i1u1234_20
 10388   004A9E                     i1u1234_21:
 10389   004A9E  EF36  F025         	goto	i1l8564
 10390   004AA2                     i1u1234_20:
 10391   004AA2                     
 10392                           ;C:\Program Files\Microchip\xc8\v3.00\pic\sources\c99\common\doprnt.c: 218:         fput
      +                          s((const char *)buf, fp);
 10393   004AA2  C01A  F011         	movff	i1pad@buf,i1fputs@s
 10394   004AA6  C01B  F012         	movff	i1pad@buf+1,i1fputs@s+1
 10395   004AAA  C018  F013         	movff	i1pad@fp,i1fputs@fp
 10396   004AAE  C019  F014         	movff	i1pad@fp+1,i1fputs@fp+1
 10397   004AB2  EC53  F028         	call	i1_fputs	;wreg free
 10398   004AB6  0012               	return		;funcret
 10399   004AB8                     __end_ofi1_pad:
 10400                           	callstack 0
 10401                           
 10402 ;; *************** function i1_fputs *****************
 10403 ;; Defined at:
 10404 ;;		line 8 in file "C:\Program Files\Microchip\xc8\v3.00\pic\sources\c99\common\nf_fputs.c"
 10405 ;; Parameters:    Size  Location     Type
 10406 ;;  s               2   16[COMRAM] PTR const unsigned char 
 10407 ;;		 -> dbuf(80), 
 10408 ;;  fp              2   18[COMRAM] PTR struct _IO_FILE
 10409 ;;		 -> NULL(0), 
 10410 ;; Auto vars:     Size  Location     Type
 10411 ;;  i               2   21[COMRAM] int 
 10412 ;;  c               1   20[COMRAM] unsigned char 
 10413 ;; Return value:  Size  Location     Type
 10414 ;;                  2   16[COMRAM] int 
 10415 ;; Registers used:
 10416 ;;		wreg, fsr1l, fsr1h, fsr2l, fsr2h, status,2, status,0, cstack
 10417 ;; Tracked objects:
 10418 ;;		On entry : 0/0
 10419 ;;		On exit  : 0/0
 10420 ;;		Unchanged: 0/0
 10421 ;; Data sizes:     COMRAM   BANK0   BANK1   BANK2   BANK3   BANK4   BANK5
 10422 ;;      Params:         4       0       0       0       0       0       0
 10423 ;;      Locals:         3       0       0       0       0       0       0
 10424 ;;      Temps:          0       0       0       0       0       0       0
 10425 ;;      Totals:         7       0       0       0       0       0       0
 10426 ;;Total ram usage:        7 bytes
 10427 ;; Hardware stack levels used: 1
 10428 ;; Hardware stack levels required when called: 5
 10429 ;; This function calls:
 10430 ;;		i1_fputc
 10431 ;; This function is called by:
 10432 ;;		i1_pad
 10433 ;; This function uses a non-reentrant model
 10434 ;;
 10435                           
 10436                           	psect	text40
 10437   0050A6                     __ptext40:
 10438                           	callstack 0
 10439   0050A6                     i1_fputs:
 10440                           	callstack 8
 10441   0050A6  0E00               	movlw	0
 10442   0050A8  6E17               	movwf	(i1fputs@i+1)^0,c
 10443   0050AA  0E00               	movlw	0
 10444   0050AC  6E16               	movwf	i1fputs@i^0,c
 10445   0050AE  EF64  F028         	goto	i1l8170
 10446   0050B2                     i1l8166:
 10447   0050B2  C015  F008         	movff	i1fputs@c,i1fputc@c
 10448   0050B6  6A09               	clrf	(i1fputc@c+1)^0,c
 10449   0050B8  C013  F00A         	movff	i1fputs@fp,i1fputc@fp
 10450   0050BC  C014  F00B         	movff	i1fputs@fp+1,i1fputc@fp+1
 10451   0050C0  EC22  F023         	call	i1_fputc	;wreg free
 10452   0050C4  4A16               	infsnz	i1fputs@i^0,f,c
 10453   0050C6  2A17               	incf	(i1fputs@i+1)^0,f,c
 10454   0050C8                     i1l8170:
 10455   0050C8  5016               	movf	i1fputs@i^0,w,c
 10456   0050CA  2411               	addwf	i1fputs@s^0,w,c
 10457   0050CC  6ED9               	movwf	fsr2l,c
 10458   0050CE  5017               	movf	(i1fputs@i+1)^0,w,c
 10459   0050D0  2012               	addwfc	(i1fputs@s+1)^0,w,c
 10460   0050D2  6EDA               	movwf	fsr2h,c
 10461   0050D4  50DF               	movf	indf2,w,c
 10462   0050D6  6E15               	movwf	i1fputs@c^0,c
 10463   0050D8  5015               	movf	i1fputs@c^0,w,c
 10464   0050DA  A4D8               	btfss	status,2,c
 10465   0050DC  EF72  F028         	goto	i1u1169_21
 10466   0050E0  EF74  F028         	goto	i1u1169_20
 10467   0050E4                     i1u1169_21:
 10468   0050E4  EF59  F028         	goto	i1l8166
 10469   0050E8                     i1u1169_20:
 10470   0050E8  0012               	return		;funcret
 10471   0050EA                     __end_ofi1_fputs:
 10472                           	callstack 0
 10473                           
 10474 ;; *************** function i1_fputc *****************
 10475 ;; Defined at:
 10476 ;;		line 8 in file "C:\Program Files\Microchip\xc8\v3.00\pic\sources\c99\common\nf_fputc.c"
 10477 ;; Parameters:    Size  Location     Type
 10478 ;;  c               2    7[COMRAM] int 
 10479 ;;  fp              2    9[COMRAM] PTR struct _IO_FILE
 10480 ;;		 -> NULL(0), 
 10481 ;; Auto vars:     Size  Location     Type
 10482 ;;		None
 10483 ;; Return value:  Size  Location     Type
 10484 ;;                  2    7[COMRAM] int 
 10485 ;; Registers used:
 10486 ;;		wreg, fsr1l, fsr1h, fsr2l, fsr2h, status,2, status,0, cstack
 10487 ;; Tracked objects:
 10488 ;;		On entry : 0/0
 10489 ;;		On exit  : 0/0
 10490 ;;		Unchanged: 0/0
 10491 ;; Data sizes:     COMRAM   BANK0   BANK1   BANK2   BANK3   BANK4   BANK5
 10492 ;;      Params:         4       0       0       0       0       0       0
 10493 ;;      Locals:         0       0       0       0       0       0       0
 10494 ;;      Temps:          5       0       0       0       0       0       0
 10495 ;;      Totals:         9       0       0       0       0       0       0
 10496 ;;Total ram usage:        9 bytes
 10497 ;; Hardware stack levels used: 1
 10498 ;; Hardware stack levels required when called: 4
 10499 ;; This function calls:
 10500 ;;		i1_putch
 10501 ;; This function is called by:
 10502 ;;		i1_pad
 10503 ;;		i1_vfpfcnvrt
 10504 ;;		i1_fputs
 10505 ;; This function uses a non-reentrant model
 10506 ;;
 10507                           
 10508                           	psect	text41
 10509   004644                     __ptext41:
 10510                           	callstack 0
 10511   004644                     i1_fputc:
 10512                           	callstack 11
 10513   004644  500A               	movf	i1fputc@fp^0,w,c
 10514   004646  100B               	iorwf	(i1fputc@fp+1)^0,w,c
 10515   004648  B4D8               	btfsc	status,2,c
 10516   00464A  EF29  F023         	goto	i1u1126_21
 10517   00464E  EF2B  F023         	goto	i1u1126_20
 10518   004652                     i1u1126_21:
 10519   004652  EF34  F023         	goto	i1l7960
 10520   004656                     i1u1126_20:
 10521   004656  500A               	movf	i1fputc@fp^0,w,c
 10522   004658  100B               	iorwf	(i1fputc@fp+1)^0,w,c
 10523   00465A  A4D8               	btfss	status,2,c
 10524   00465C  EF32  F023         	goto	i1u1127_21
 10525   004660  EF34  F023         	goto	i1u1127_20
 10526   004664                     i1u1127_21:
 10527   004664  EF39  F023         	goto	i1l7962
 10528   004668                     i1u1127_20:
 10529   004668                     i1l7960:
 10530   004668  5008               	movf	i1fputc@c^0,w,c
 10531   00466A  ECC3  F025         	call	i1_putch
 10532   00466E  EF86  F023         	goto	i1l1116
 10533   004672                     i1l7962:
 10534   004672  EE20 F009          	lfsr	2,9
 10535   004676  500A               	movf	i1fputc@fp^0,w,c
 10536   004678  26D9               	addwf	fsr2l,f,c
 10537   00467A  500B               	movf	(i1fputc@fp+1)^0,w,c
 10538   00467C  22DA               	addwfc	fsr2h,f,c
 10539   00467E  50DE               	movf	postinc2,w,c
 10540   004680  10DE               	iorwf	postinc2,w,c
 10541   004682  B4D8               	btfsc	status,2,c
 10542   004684  EF46  F023         	goto	i1u1128_21
 10543   004688  EF48  F023         	goto	i1u1128_20
 10544   00468C                     i1u1128_21:
 10545   00468C  EF63  F023         	goto	i1l7966
 10546   004690                     i1u1128_20:
 10547   004690  EE20 F009          	lfsr	2,9
 10548   004694  500A               	movf	i1fputc@fp^0,w,c
 10549   004696  26D9               	addwf	fsr2l,f,c
 10550   004698  500B               	movf	(i1fputc@fp+1)^0,w,c
 10551   00469A  22DA               	addwfc	fsr2h,f,c
 10552   00469C  EE10 F002          	lfsr	1,2
 10553   0046A0  500A               	movf	i1fputc@fp^0,w,c
 10554   0046A2  26E1               	addwf	fsr1l,f,c
 10555   0046A4  500B               	movf	(i1fputc@fp+1)^0,w,c
 10556   0046A6  22E2               	addwfc	fsr1h,f,c
 10557   0046A8  50DE               	movf	postinc2,w,c
 10558   0046AA  5CE6               	subwf	postinc1,w,c
 10559   0046AC  50E6               	movf	postinc1,w,c
 10560   0046AE  0A80               	xorlw	128
 10561   0046B0  6E10               	movwf	(??i1_fputc+4)^0,c
 10562   0046B2  50DE               	movf	postinc2,w,c
 10563   0046B4  0A80               	xorlw	128
 10564   0046B6  5810               	subwfb	(??i1_fputc+4)^0,w,c
 10565   0046B8  B0D8               	btfsc	status,0,c
 10566   0046BA  EF61  F023         	goto	i1u1129_21
 10567   0046BE  EF63  F023         	goto	i1u1129_20
 10568   0046C2                     i1u1129_21:
 10569   0046C2  EF86  F023         	goto	i1l1116
 10570   0046C6                     i1u1129_20:
 10571   0046C6                     i1l7966:
 10572   0046C6  EE20 F002          	lfsr	2,2
 10573   0046CA  500A               	movf	i1fputc@fp^0,w,c
 10574   0046CC  26D9               	addwf	fsr2l,f,c
 10575   0046CE  500B               	movf	(i1fputc@fp+1)^0,w,c
 10576   0046D0  22DA               	addwfc	fsr2h,f,c
 10577   0046D2  CFDE F00C          	movff	postinc2,??i1_fputc
 10578   0046D6  CFDD F00D          	movff	postdec2,??i1_fputc+1
 10579   0046DA  C00A  FFD9         	movff	i1fputc@fp,fsr2l
 10580   0046DE  C00B  FFDA         	movff	i1fputc@fp+1,fsr2h
 10581   0046E2  CFDE F00E          	movff	postinc2,??i1_fputc+2
 10582   0046E6  CFDD F00F          	movff	postdec2,??i1_fputc+3
 10583   0046EA  500C               	movf	??i1_fputc^0,w,c
 10584   0046EC  240E               	addwf	(??i1_fputc+2)^0,w,c
 10585   0046EE  6ED9               	movwf	fsr2l,c
 10586   0046F0  500D               	movf	(??i1_fputc+1)^0,w,c
 10587   0046F2  200F               	addwfc	(??i1_fputc+3)^0,w,c
 10588   0046F4  6EDA               	movwf	fsr2h,c
 10589   0046F6  C008  FFDF         	movff	i1fputc@c,indf2
 10590   0046FA  EE20 F002          	lfsr	2,2
 10591   0046FE  500A               	movf	i1fputc@fp^0,w,c
 10592   004700  26D9               	addwf	fsr2l,f,c
 10593   004702  500B               	movf	(i1fputc@fp+1)^0,w,c
 10594   004704  22DA               	addwfc	fsr2h,f,c
 10595   004706  2ADE               	incf	postinc2,f,c
 10596   004708  0E00               	movlw	0
 10597   00470A  22DD               	addwfc	postdec2,f,c
 10598   00470C                     i1l1116:
 10599   00470C  0012               	return		;funcret
 10600   00470E                     __end_ofi1_fputc:
 10601                           	callstack 0
 10602                           
 10603 ;; *************** function i1_putch *****************
 10604 ;; Defined at:
 10605 ;;		line 280 in file "3b.c"
 10606 ;; Parameters:    Size  Location     Type
 10607 ;;  data            1    wreg     unsigned char 
 10608 ;; Auto vars:     Size  Location     Type
 10609 ;;  data            1    6[COMRAM] unsigned char 
 10610 ;; Return value:  Size  Location     Type
 10611 ;;                  1    wreg      void 
 10612 ;; Registers used:
 10613 ;;		wreg, status,2, status,0
 10614 ;; Tracked objects:
 10615 ;;		On entry : 0/0
 10616 ;;		On exit  : 0/0
 10617 ;;		Unchanged: 0/0
 10618 ;; Data sizes:     COMRAM   BANK0   BANK1   BANK2   BANK3   BANK4   BANK5
 10619 ;;      Params:         0       0       0       0       0       0       0
 10620 ;;      Locals:         1       0       0       0       0       0       0
 10621 ;;      Temps:          0       0       0       0       0       0       0
 10622 ;;      Totals:         1       0       0       0       0       0       0
 10623 ;;Total ram usage:        1 bytes
 10624 ;; Hardware stack levels used: 1
 10625 ;; Hardware stack levels required when called: 3
 10626 ;; This function calls:
 10627 ;;		Nothing
 10628 ;; This function is called by:
 10629 ;;		i1_fputc
 10630 ;; This function uses a non-reentrant model
 10631 ;;
 10632                           
 10633                           	psect	text42
 10634   004B86                     __ptext42:
 10635                           	callstack 0
 10636   004B86                     i1_putch:
 10637                           	callstack 11
 10638                           
 10639                           ;incstack = 0
 10640                           ;i1putch@data stored from wreg
 10641   004B86  6E07               	movwf	i1putch@data^0,c
 10642   004B88  0E0A               	movlw	10
 10643   004B8A  1807               	xorwf	i1putch@data^0,w,c
 10644   004B8C  B4D8               	btfsc	status,2,c
 10645   004B8E  EFCB  F025         	goto	i1u1121_21
 10646   004B92  EFCD  F025         	goto	i1u1121_20
 10647   004B96                     i1u1121_21:
 10648   004B96  EFD6  F025         	goto	i1l146
 10649   004B9A                     i1u1121_20:
 10650   004B9A  0E0D               	movlw	13
 10651   004B9C  1807               	xorwf	i1putch@data^0,w,c
 10652   004B9E  A4D8               	btfss	status,2,c
 10653   004BA0  EFD4  F025         	goto	i1u1122_21
 10654   004BA4  EFD6  F025         	goto	i1u1122_20
 10655   004BA8                     i1u1122_21:
 10656   004BA8  EFEA  F025         	goto	i1l153
 10657   004BAC                     i1u1122_20:
 10658   004BAC                     i1l146:
 10659   004BAC  A2AC               	btfss	172,1,c	;volatile
 10660   004BAE  EFDB  F025         	goto	i1u1123_21
 10661   004BB2  EFDD  F025         	goto	i1u1123_20
 10662   004BB6                     i1u1123_21:
 10663   004BB6  EFD6  F025         	goto	i1l146
 10664   004BBA                     i1u1123_20:
 10665   004BBA  0E0D               	movlw	13
 10666   004BBC  6EAD               	movwf	173,c	;volatile
 10667   004BBE                     i1l149:
 10668   004BBE  A2AC               	btfss	172,1,c	;volatile
 10669   004BC0  EFE4  F025         	goto	i1u1124_21
 10670   004BC4  EFE6  F025         	goto	i1u1124_20
 10671   004BC8                     i1u1124_21:
 10672   004BC8  EFDF  F025         	goto	i1l149
 10673   004BCC                     i1u1124_20:
 10674   004BCC  0E0A               	movlw	10
 10675   004BCE  6EAD               	movwf	173,c	;volatile
 10676   004BD0  EFF3  F025         	goto	i1l156
 10677   004BD4                     i1l153:
 10678   004BD4  A2AC               	btfss	172,1,c	;volatile
 10679   004BD6  EFEF  F025         	goto	i1u1125_21
 10680   004BDA  EFF1  F025         	goto	i1u1125_20
 10681   004BDE                     i1u1125_21:
 10682   004BDE  EFEA  F025         	goto	i1l153
 10683   004BE2                     i1u1125_20:
 10684   004BE2  C007  FFAD         	movff	i1putch@data,4013	;volatile
 10685   004BE6                     i1l156:
 10686   004BE6  0012               	return		;funcret
 10687   004BE8                     __end_ofi1_putch:
 10688                           	callstack 0
 10689                           
 10690 ;; *************** function i1_memcpy *****************
 10691 ;; Defined at:
 10692 ;;		line 4 in file "C:\Program Files\Microchip\xc8\v3.00\pic\sources\c99\common\memcpy.c"
 10693 ;; Parameters:    Size  Location     Type
 10694 ;;  d1              2    6[COMRAM] PTR void 
 10695 ;;		 -> dbuf(80), 
 10696 ;;  s1              2    8[COMRAM] PTR const void 
 10697 ;;		 -> dbuf(80), 
 10698 ;;  n               2   10[COMRAM] unsigned int 
 10699 ;; Auto vars:     Size  Location     Type
 10700 ;;  s               2   15[COMRAM] PTR const unsigned char 
 10701 ;;		 -> dbuf(80), 
 10702 ;;  d               2   13[COMRAM] PTR unsigned char 
 10703 ;;		 -> dbuf(80), 
 10704 ;;  tmp             1   12[COMRAM] unsigned char 
 10705 ;; Return value:  Size  Location     Type
 10706 ;;                  2    6[COMRAM] PTR void 
 10707 ;; Registers used:
 10708 ;;		wreg, fsr2l, fsr2h, status,2, status,0
 10709 ;; Tracked objects:
 10710 ;;		On entry : 0/0
 10711 ;;		On exit  : 0/0
 10712 ;;		Unchanged: 0/0
 10713 ;; Data sizes:     COMRAM   BANK0   BANK1   BANK2   BANK3   BANK4   BANK5
 10714 ;;      Params:         6       0       0       0       0       0       0
 10715 ;;      Locals:         5       0       0       0       0       0       0
 10716 ;;      Temps:          0       0       0       0       0       0       0
 10717 ;;      Totals:        11       0       0       0       0       0       0
 10718 ;;Total ram usage:       11 bytes
 10719 ;; Hardware stack levels used: 1
 10720 ;; Hardware stack levels required when called: 3
 10721 ;; This function calls:
 10722 ;;		Nothing
 10723 ;; This function is called by:
 10724 ;;		i1_efgtoa
 10725 ;; This function uses a non-reentrant model
 10726 ;;
 10727                           
 10728                           	psect	text43
 10729   004E52                     __ptext43:
 10730                           	callstack 0
 10731   004E52                     i1_memcpy:
 10732                           	callstack 11
 10733   004E52  C009  F010         	movff	i1memcpy@s1,i1memcpy@s
 10734   004E56  C00A  F011         	movff	i1memcpy@s1+1,i1memcpy@s+1
 10735   004E5A  C007  F00E         	movff	i1memcpy@d1,i1memcpy@d
 10736   004E5E  C008  F00F         	movff	i1memcpy@d1+1,i1memcpy@d+1
 10737   004E62  EF43  F027         	goto	i1l8640
 10738   004E66                     i1l8632:
 10739   004E66  C010  FFD9         	movff	i1memcpy@s,fsr2l
 10740   004E6A  C011  FFDA         	movff	i1memcpy@s+1,fsr2h
 10741   004E6E  50DF               	movf	indf2,w,c
 10742   004E70  6E0D               	movwf	i1memcpy@tmp^0,c
 10743   004E72  4A10               	infsnz	i1memcpy@s^0,f,c
 10744   004E74  2A11               	incf	(i1memcpy@s+1)^0,f,c
 10745   004E76  C00E  FFD9         	movff	i1memcpy@d,fsr2l
 10746   004E7A  C00F  FFDA         	movff	i1memcpy@d+1,fsr2h
 10747   004E7E  C00D  FFDF         	movff	i1memcpy@tmp,indf2
 10748   004E82  4A0E               	infsnz	i1memcpy@d^0,f,c
 10749   004E84  2A0F               	incf	(i1memcpy@d+1)^0,f,c
 10750   004E86                     i1l8640:
 10751   004E86  060B               	decf	i1memcpy@n^0,f,c
 10752   004E88  A0D8               	btfss	status,0,c
 10753   004E8A  060C               	decf	(i1memcpy@n+1)^0,f,c
 10754   004E8C  280B               	incf	i1memcpy@n^0,w,c
 10755   004E8E  E106               	bnz	i1u1253_21
 10756   004E90  280C               	incf	(i1memcpy@n+1)^0,w,c
 10757   004E92  A4D8               	btfss	status,2,c
 10758   004E94  EF4E  F027         	goto	i1u1253_21
 10759   004E98  EF50  F027         	goto	i1u1253_20
 10760   004E9C                     i1u1253_21:
 10761   004E9C  EF33  F027         	goto	i1l8632
 10762   004EA0                     i1u1253_20:
 10763   004EA0  0012               	return		;funcret
 10764   004EA2                     __end_ofi1_memcpy:
 10765                           	callstack 0
 10766                           
 10767 ;; *************** function i1_labs *****************
 10768 ;; Defined at:
 10769 ;;		line 1 in file "C:\Program Files\Microchip\xc8\v3.00\pic\sources\c99\common\labs.c"
 10770 ;; Parameters:    Size  Location     Type
 10771 ;;  a               4    6[COMRAM] long 
 10772 ;; Auto vars:     Size  Location     Type
 10773 ;;		None
 10774 ;; Return value:  Size  Location     Type
 10775 ;;                  4    6[COMRAM] long 
 10776 ;; Registers used:
 10777 ;;		wreg, status,2, status,0
 10778 ;; Tracked objects:
 10779 ;;		On entry : 0/0
 10780 ;;		On exit  : 0/0
 10781 ;;		Unchanged: 0/0
 10782 ;; Data sizes:     COMRAM   BANK0   BANK1   BANK2   BANK3   BANK4   BANK5
 10783 ;;      Params:         4       0       0       0       0       0       0
 10784 ;;      Locals:         0       0       0       0       0       0       0
 10785 ;;      Temps:          4       0       0       0       0       0       0
 10786 ;;      Totals:         8       0       0       0       0       0       0
 10787 ;;Total ram usage:        8 bytes
 10788 ;; Hardware stack levels used: 1
 10789 ;; Hardware stack levels required when called: 3
 10790 ;; This function calls:
 10791 ;;		Nothing
 10792 ;; This function is called by:
 10793 ;;		i1_efgtoa
 10794 ;; This function uses a non-reentrant model
 10795 ;;
 10796                           
 10797                           	psect	text44
 10798   004D56                     __ptext44:
 10799                           	callstack 0
 10800   004D56                     i1_labs:
 10801                           	callstack 11
 10802   004D56  BE0A               	btfsc	(i1labs@a+3)^0,7,c
 10803   004D58  EFB0  F026         	goto	i1u1252_21
 10804   004D5C  EFB2  F026         	goto	i1u1252_20
 10805   004D60                     i1u1252_21:
 10806   004D60  EFBC  F026         	goto	i1l8626
 10807   004D64                     i1u1252_20:
 10808   004D64  C007  F007         	movff	i1labs@a,?i1_labs
 10809   004D68  C008  F008         	movff	i1labs@a+1,?i1_labs+1
 10810   004D6C  C009  F009         	movff	i1labs@a+2,?i1_labs+2
 10811   004D70  C00A  F00A         	movff	i1labs@a+3,?i1_labs+3
 10812   004D74  EFD5  F026         	goto	i1l1098
 10813   004D78                     i1l8626:
 10814   004D78  C007  F00B         	movff	i1labs@a,??i1_labs
 10815   004D7C  C008  F00C         	movff	i1labs@a+1,??i1_labs+1
 10816   004D80  C009  F00D         	movff	i1labs@a+2,??i1_labs+2
 10817   004D84  C00A  F00E         	movff	i1labs@a+3,??i1_labs+3
 10818   004D88  1E0B               	comf	??i1_labs^0,f,c
 10819   004D8A  1E0C               	comf	(??i1_labs+1)^0,f,c
 10820   004D8C  1E0D               	comf	(??i1_labs+2)^0,f,c
 10821   004D8E  1E0E               	comf	(??i1_labs+3)^0,f,c
 10822   004D90  2A0B               	incf	??i1_labs^0,f,c
 10823   004D92  0E00               	movlw	0
 10824   004D94  220C               	addwfc	(??i1_labs+1)^0,f,c
 10825   004D96  220D               	addwfc	(??i1_labs+2)^0,f,c
 10826   004D98  220E               	addwfc	(??i1_labs+3)^0,f,c
 10827   004D9A  C00B  F007         	movff	??i1_labs,?i1_labs
 10828   004D9E  C00C  F008         	movff	??i1_labs+1,?i1_labs+1
 10829   004DA2  C00D  F009         	movff	??i1_labs+2,?i1_labs+2
 10830   004DA6  C00E  F00A         	movff	??i1_labs+3,?i1_labs+3
 10831   004DAA                     i1l1098:
 10832   004DAA  0012               	return		;funcret
 10833   004DAC                     __end_ofi1_labs:
 10834                           	callstack 0
 10835                           
 10836 ;; *************** function i1_floorf *****************
 10837 ;; Defined at:
 10838 ;;		line 3 in file "C:\Program Files\Microchip\xc8\v3.00\pic\sources\c99\common\floorf.c"
 10839 ;; Parameters:    Size  Location     Type
 10840 ;;  x               4   31[COMRAM] float 
 10841 ;; Auto vars:     Size  Location     Type
 10842 ;;  u               4   47[COMRAM] struct .
 10843 ;;  m               4   41[COMRAM] unsigned long 
 10844 ;;  e               2   45[COMRAM] int 
 10845 ;; Return value:  Size  Location     Type
 10846 ;;                  4   31[COMRAM] float 
 10847 ;; Registers used:
 10848 ;;		wreg, status,2, status,0
 10849 ;; Tracked objects:
 10850 ;;		On entry : 0/0
 10851 ;;		On exit  : 0/0
 10852 ;;		Unchanged: 0/0
 10853 ;; Data sizes:     COMRAM   BANK0   BANK1   BANK2   BANK3   BANK4   BANK5
 10854 ;;      Params:         4       0       0       0       0       0       0
 10855 ;;      Locals:        10       0       0       0       0       0       0
 10856 ;;      Temps:          6       0       0       0       0       0       0
 10857 ;;      Totals:        20       0       0       0       0       0       0
 10858 ;;Total ram usage:       20 bytes
 10859 ;; Hardware stack levels used: 1
 10860 ;; Hardware stack levels required when called: 3
 10861 ;; This function calls:
 10862 ;;		Nothing
 10863 ;; This function is called by:
 10864 ;;		i1_efgtoa
 10865 ;; This function uses a non-reentrant model
 10866 ;;
 10867                           
 10868                           	psect	text45
 10869   00353E                     __ptext45:
 10870                           	callstack 0
 10871   00353E                     i1_floorf:
 10872                           	callstack 11
 10873   00353E  C0C5  F030         	movff	floorf@F521,i1floorf@u
 10874   003542  C0C6  F031         	movff	floorf@F521+1,i1floorf@u+1
 10875   003546  C0C7  F032         	movff	floorf@F521+2,i1floorf@u+2
 10876   00354A  C0C8  F033         	movff	floorf@F521+3,i1floorf@u+3
 10877   00354E  C020  F030         	movff	i1floorf@x,i1floorf@u
 10878   003552  C021  F031         	movff	i1floorf@x+1,i1floorf@u+1
 10879   003556  C022  F032         	movff	i1floorf@x+2,i1floorf@u+2
 10880   00355A  C023  F033         	movff	i1floorf@x+3,i1floorf@u+3
 10881   00355E  0E81               	movlw	129
 10882   003560  6E24               	movwf	??i1_floorf^0,c
 10883   003562  0EFF               	movlw	255
 10884   003564  6E25               	movwf	(??i1_floorf+1)^0,c
 10885   003566  C030  F026         	movff	i1floorf@u,??i1_floorf+2
 10886   00356A  C031  F027         	movff	i1floorf@u+1,??i1_floorf+3
 10887   00356E  C032  F028         	movff	i1floorf@u+2,??i1_floorf+4
 10888   003572  C033  F029         	movff	i1floorf@u+3,??i1_floorf+5
 10889   003576  0E18               	movlw	24
 10890   003578  EFC3  F01A         	goto	i1u1242_20
 10891   00357C                     i1u1242_25:
 10892   00357C  90D8               	bcf	status,0,c
 10893   00357E  3229               	rrcf	(??i1_floorf+5)^0,f,c
 10894   003580  3228               	rrcf	(??i1_floorf+4)^0,f,c
 10895   003582  3227               	rrcf	(??i1_floorf+3)^0,f,c
 10896   003584  3226               	rrcf	(??i1_floorf+2)^0,f,c
 10897   003586                     i1u1242_20:
 10898   003586  2EE8               	decfsz	wreg,f,c
 10899   003588  EFBE  F01A         	goto	i1u1242_25
 10900   00358C  5026               	movf	(??i1_floorf+2)^0,w,c
 10901   00358E  2424               	addwf	??i1_floorf^0,w,c
 10902   003590  6E2E               	movwf	i1floorf@e^0,c
 10903   003592  0E00               	movlw	0
 10904   003594  2025               	addwfc	(??i1_floorf+1)^0,w,c
 10905   003596  6E2F               	movwf	(i1floorf@e+1)^0,c
 10906   003598  BE2F               	btfsc	(i1floorf@e+1)^0,7,c
 10907   00359A  EFD8  F01A         	goto	i1u1243_21
 10908   00359E  502F               	movf	(i1floorf@e+1)^0,w,c
 10909   0035A0  E109               	bnz	i1u1243_20
 10910   0035A2  0E17               	movlw	23
 10911   0035A4  5C2E               	subwf	i1floorf@e^0,w,c
 10912   0035A6  A0D8               	btfss	status,0,c
 10913   0035A8  EFD8  F01A         	goto	i1u1243_21
 10914   0035AC  EFDA  F01A         	goto	i1u1243_20
 10915   0035B0                     i1u1243_21:
 10916   0035B0  EFE4  F01A         	goto	i1l8600
 10917   0035B4                     i1u1243_20:
 10918   0035B4                     i1l8598:
 10919   0035B4  C020  F020         	movff	i1floorf@x,?i1_floorf
 10920   0035B8  C021  F021         	movff	i1floorf@x+1,?i1_floorf+1
 10921   0035BC  C022  F022         	movff	i1floorf@x+2,?i1_floorf+2
 10922   0035C0  C023  F023         	movff	i1floorf@x+3,?i1_floorf+3
 10923   0035C4  EFA7  F01B         	goto	i1l1084
 10924   0035C8                     i1l8600:
 10925   0035C8  BE2F               	btfsc	(i1floorf@e+1)^0,7,c
 10926   0035CA  EFE9  F01A         	goto	i1u1244_21
 10927   0035CE  EFEB  F01A         	goto	i1u1244_20
 10928   0035D2                     i1u1244_21:
 10929   0035D2  EF5B  F01B         	goto	i1l8610
 10930   0035D6                     i1u1244_20:
 10931   0035D6  C02E  F024         	movff	i1floorf@e,??i1_floorf
 10932   0035DA  0EFF               	movlw	255
 10933   0035DC  6E25               	movwf	(??i1_floorf+1)^0,c
 10934   0035DE  0EFF               	movlw	255
 10935   0035E0  6E26               	movwf	(??i1_floorf+2)^0,c
 10936   0035E2  0E7F               	movlw	127
 10937   0035E4  6E27               	movwf	(??i1_floorf+3)^0,c
 10938   0035E6  0E00               	movlw	0
 10939   0035E8  6E28               	movwf	(??i1_floorf+4)^0,c
 10940   0035EA                     i1u1245_25:
 10941   0035EA  6624               	tstfsz	??i1_floorf^0,c
 10942   0035EC  EFFA  F01A         	goto	i1u1245_26
 10943   0035F0  EF02  F01B         	goto	i1u1245_27
 10944   0035F4                     i1u1245_26:
 10945   0035F4  3428               	rlcf	(??i1_floorf+4)^0,w,c
 10946   0035F6  3228               	rrcf	(??i1_floorf+4)^0,f,c
 10947   0035F8  3227               	rrcf	(??i1_floorf+3)^0,f,c
 10948   0035FA  3226               	rrcf	(??i1_floorf+2)^0,f,c
 10949   0035FC  3225               	rrcf	(??i1_floorf+1)^0,f,c
 10950   0035FE  2E24               	decfsz	??i1_floorf^0,f,c
 10951   003600  EFF5  F01A         	goto	i1u1245_25
 10952   003604                     i1u1245_27:
 10953   003604  C025  F02A         	movff	??i1_floorf+1,i1floorf@m
 10954   003608  C026  F02B         	movff	??i1_floorf+2,i1floorf@m+1
 10955   00360C  C027  F02C         	movff	??i1_floorf+3,i1floorf@m+2
 10956   003610  C028  F02D         	movff	??i1_floorf+4,i1floorf@m+3
 10957   003614  502A               	movf	i1floorf@m^0,w,c
 10958   003616  1430               	andwf	i1floorf@u^0,w,c
 10959   003618  6E24               	movwf	??i1_floorf^0,c
 10960   00361A  502B               	movf	(i1floorf@m+1)^0,w,c
 10961   00361C  1431               	andwf	(i1floorf@u+1)^0,w,c
 10962   00361E  6E25               	movwf	(??i1_floorf+1)^0,c
 10963   003620  502C               	movf	(i1floorf@m+2)^0,w,c
 10964   003622  1432               	andwf	(i1floorf@u+2)^0,w,c
 10965   003624  6E26               	movwf	(??i1_floorf+2)^0,c
 10966   003626  502D               	movf	(i1floorf@m+3)^0,w,c
 10967   003628  1433               	andwf	(i1floorf@u+3)^0,w,c
 10968   00362A  6E27               	movwf	(??i1_floorf+3)^0,c
 10969   00362C  5024               	movf	??i1_floorf^0,w,c
 10970   00362E  1025               	iorwf	(??i1_floorf+1)^0,w,c
 10971   003630  1026               	iorwf	(??i1_floorf+2)^0,w,c
 10972   003632  1027               	iorwf	(??i1_floorf+3)^0,w,c
 10973   003634  A4D8               	btfss	status,2,c
 10974   003636  EF1F  F01B         	goto	i1u1246_21
 10975   00363A  EF21  F01B         	goto	i1u1246_20
 10976   00363E                     i1u1246_21:
 10977   00363E  EF23  F01B         	goto	i1l8606
 10978   003642                     i1u1246_20:
 10979   003642  EFDA  F01A         	goto	i1l8598
 10980   003646                     i1l8606:
 10981   003646  C030  F024         	movff	i1floorf@u,??i1_floorf
 10982   00364A  C031  F025         	movff	i1floorf@u+1,??i1_floorf+1
 10983   00364E  C032  F026         	movff	i1floorf@u+2,??i1_floorf+2
 10984   003652  C033  F027         	movff	i1floorf@u+3,??i1_floorf+3
 10985   003656  0E20               	movlw	32
 10986   003658  EF33  F01B         	goto	i1u1247_20
 10987   00365C                     i1u1247_25:
 10988   00365C  90D8               	bcf	status,0,c
 10989   00365E  3227               	rrcf	(??i1_floorf+3)^0,f,c
 10990   003660  3226               	rrcf	(??i1_floorf+2)^0,f,c
 10991   003662  3225               	rrcf	(??i1_floorf+1)^0,f,c
 10992   003664  3224               	rrcf	??i1_floorf^0,f,c
 10993   003666                     i1u1247_20:
 10994   003666  2EE8               	decfsz	wreg,f,c
 10995   003668  EF2E  F01B         	goto	i1u1247_25
 10996   00366C  5024               	movf	??i1_floorf^0,w,c
 10997   00366E  1025               	iorwf	(??i1_floorf+1)^0,w,c
 10998   003670  1026               	iorwf	(??i1_floorf+2)^0,w,c
 10999   003672  1027               	iorwf	(??i1_floorf+3)^0,w,c
 11000   003674  B4D8               	btfsc	status,2,c
 11001   003676  EF3F  F01B         	goto	i1u1248_21
 11002   00367A  EF41  F01B         	goto	i1u1248_20
 11003   00367E                     i1u1248_21:
 11004   00367E  EF49  F01B         	goto	i1l1087
 11005   003682                     i1u1248_20:
 11006   003682  502A               	movf	i1floorf@m^0,w,c
 11007   003684  2630               	addwf	i1floorf@u^0,f,c
 11008   003686  502B               	movf	(i1floorf@m+1)^0,w,c
 11009   003688  2231               	addwfc	(i1floorf@u+1)^0,f,c
 11010   00368A  502C               	movf	(i1floorf@m+2)^0,w,c
 11011   00368C  2232               	addwfc	(i1floorf@u+2)^0,f,c
 11012   00368E  502D               	movf	(i1floorf@m+3)^0,w,c
 11013   003690  2233               	addwfc	(i1floorf@u+3)^0,f,c
 11014   003692                     i1l1087:
 11015   003692  1C2A               	comf	i1floorf@m^0,w,c
 11016   003694  6E24               	movwf	??i1_floorf^0,c
 11017   003696  1C2B               	comf	(i1floorf@m+1)^0,w,c
 11018   003698  6E25               	movwf	(??i1_floorf+1)^0,c
 11019   00369A  1C2C               	comf	(i1floorf@m+2)^0,w,c
 11020   00369C  6E26               	movwf	(??i1_floorf+2)^0,c
 11021   00369E  1C2D               	comf	(i1floorf@m+3)^0,w,c
 11022   0036A0  6E27               	movwf	(??i1_floorf+3)^0,c
 11023   0036A2  5024               	movf	??i1_floorf^0,w,c
 11024   0036A4  1630               	andwf	i1floorf@u^0,f,c
 11025   0036A6  5025               	movf	(??i1_floorf+1)^0,w,c
 11026   0036A8  1631               	andwf	(i1floorf@u+1)^0,f,c
 11027   0036AA  5026               	movf	(??i1_floorf+2)^0,w,c
 11028   0036AC  1632               	andwf	(i1floorf@u+2)^0,f,c
 11029   0036AE  5027               	movf	(??i1_floorf+3)^0,w,c
 11030   0036B0  1633               	andwf	(i1floorf@u+3)^0,f,c
 11031   0036B2  EF9F  F01B         	goto	i1l8618
 11032   0036B6                     i1l8610:
 11033   0036B6  C030  F024         	movff	i1floorf@u,??i1_floorf
 11034   0036BA  C031  F025         	movff	i1floorf@u+1,??i1_floorf+1
 11035   0036BE  C032  F026         	movff	i1floorf@u+2,??i1_floorf+2
 11036   0036C2  C033  F027         	movff	i1floorf@u+3,??i1_floorf+3
 11037   0036C6  0E20               	movlw	32
 11038   0036C8  EF6B  F01B         	goto	i1u1249_20
 11039   0036CC                     i1u1249_25:
 11040   0036CC  90D8               	bcf	status,0,c
 11041   0036CE  3227               	rrcf	(??i1_floorf+3)^0,f,c
 11042   0036D0  3226               	rrcf	(??i1_floorf+2)^0,f,c
 11043   0036D2  3225               	rrcf	(??i1_floorf+1)^0,f,c
 11044   0036D4  3224               	rrcf	??i1_floorf^0,f,c
 11045   0036D6                     i1u1249_20:
 11046   0036D6  2EE8               	decfsz	wreg,f,c
 11047   0036D8  EF66  F01B         	goto	i1u1249_25
 11048   0036DC  5024               	movf	??i1_floorf^0,w,c
 11049   0036DE  1025               	iorwf	(??i1_floorf+1)^0,w,c
 11050   0036E0  1026               	iorwf	(??i1_floorf+2)^0,w,c
 11051   0036E2  1027               	iorwf	(??i1_floorf+3)^0,w,c
 11052   0036E4  A4D8               	btfss	status,2,c
 11053   0036E6  EF77  F01B         	goto	i1u1250_21
 11054   0036EA  EF79  F01B         	goto	i1u1250_20
 11055   0036EE                     i1u1250_21:
 11056   0036EE  EF83  F01B         	goto	i1l8614
 11057   0036F2                     i1u1250_20:
 11058   0036F2  0E00               	movlw	0
 11059   0036F4  6E30               	movwf	i1floorf@u^0,c
 11060   0036F6  0E00               	movlw	0
 11061   0036F8  6E31               	movwf	(i1floorf@u+1)^0,c
 11062   0036FA  0E00               	movlw	0
 11063   0036FC  6E32               	movwf	(i1floorf@u+2)^0,c
 11064   0036FE  0E00               	movlw	0
 11065   003700  6E33               	movwf	(i1floorf@u+3)^0,c
 11066   003702  EF9F  F01B         	goto	i1l8618
 11067   003706                     i1l8614:
 11068   003706  90D8               	bcf	status,0,c
 11069   003708  3430               	rlcf	i1floorf@u^0,w,c
 11070   00370A  6E24               	movwf	??i1_floorf^0,c
 11071   00370C  3431               	rlcf	(i1floorf@u+1)^0,w,c
 11072   00370E  6E25               	movwf	(??i1_floorf+1)^0,c
 11073   003710  3432               	rlcf	(i1floorf@u+2)^0,w,c
 11074   003712  6E26               	movwf	(??i1_floorf+2)^0,c
 11075   003714  3433               	rlcf	(i1floorf@u+3)^0,w,c
 11076   003716  6E27               	movwf	(??i1_floorf+3)^0,c
 11077   003718  5024               	movf	??i1_floorf^0,w,c
 11078   00371A  1025               	iorwf	(??i1_floorf+1)^0,w,c
 11079   00371C  1026               	iorwf	(??i1_floorf+2)^0,w,c
 11080   00371E  1027               	iorwf	(??i1_floorf+3)^0,w,c
 11081   003720  B4D8               	btfsc	status,2,c
 11082   003722  EF95  F01B         	goto	i1u1251_21
 11083   003726  EF97  F01B         	goto	i1u1251_20
 11084   00372A                     i1u1251_21:
 11085   00372A  EF9F  F01B         	goto	i1l8618
 11086   00372E                     i1u1251_20:
 11087   00372E  0E00               	movlw	0
 11088   003730  6E30               	movwf	i1floorf@u^0,c
 11089   003732  0E00               	movlw	0
 11090   003734  6E31               	movwf	(i1floorf@u+1)^0,c
 11091   003736  0E80               	movlw	128
 11092   003738  6E32               	movwf	(i1floorf@u+2)^0,c
 11093   00373A  0EBF               	movlw	191
 11094   00373C  6E33               	movwf	(i1floorf@u+3)^0,c
 11095   00373E                     i1l8618:
 11096   00373E  C030  F020         	movff	i1floorf@u,?i1_floorf
 11097   003742  C031  F021         	movff	i1floorf@u+1,?i1_floorf+1
 11098   003746  C032  F022         	movff	i1floorf@u+2,?i1_floorf+2
 11099   00374A  C033  F023         	movff	i1floorf@u+3,?i1_floorf+3
 11100   00374E                     i1l1084:
 11101   00374E  0012               	return		;funcret
 11102   003750                     __end_ofi1_floorf:
 11103                           	callstack 0
 11104                           
 11105 ;; *************** function i1___fpclassifyf *****************
 11106 ;; Defined at:
 11107 ;;		line 4 in file "C:\Program Files\Microchip\xc8\v3.00\pic\sources\c99\common\__fpclassifyf.c"
 11108 ;; Parameters:    Size  Location     Type
 11109 ;;  x               4    6[COMRAM] float 
 11110 ;; Auto vars:     Size  Location     Type
 11111 ;;  u               4   16[COMRAM] struct .
 11112 ;;  e               2   14[COMRAM] int 
 11113 ;; Return value:  Size  Location     Type
 11114 ;;                  2    6[COMRAM] int 
 11115 ;; Registers used:
 11116 ;;		wreg, status,2, status,0
 11117 ;; Tracked objects:
 11118 ;;		On entry : 0/0
 11119 ;;		On exit  : 0/0
 11120 ;;		Unchanged: 0/0
 11121 ;; Data sizes:     COMRAM   BANK0   BANK1   BANK2   BANK3   BANK4   BANK5
 11122 ;;      Params:         4       0       0       0       0       0       0
 11123 ;;      Locals:         6       0       0       0       0       0       0
 11124 ;;      Temps:          4       0       0       0       0       0       0
 11125 ;;      Totals:        14       0       0       0       0       0       0
 11126 ;;Total ram usage:       14 bytes
 11127 ;; Hardware stack levels used: 1
 11128 ;; Hardware stack levels required when called: 3
 11129 ;; This function calls:
 11130 ;;		Nothing
 11131 ;; This function is called by:
 11132 ;;		i1_efgtoa
 11133 ;; This function uses a non-reentrant model
 11134 ;;
 11135                           
 11136                           	psect	text46
 11137   00447A                     __ptext46:
 11138                           	callstack 0
 11139   00447A                     i1___fpclassifyf:
 11140                           	callstack 11
 11141   00447A  C0C9  F011         	movff	___fpclassifyf@F465,i1___fpclassifyf@u
 11142   00447E  C0CA  F012         	movff	___fpclassifyf@F465+1,i1___fpclassifyf@u+1
 11143   004482  C0CB  F013         	movff	___fpclassifyf@F465+2,i1___fpclassifyf@u+2
 11144   004486  C0CC  F014         	movff	___fpclassifyf@F465+3,i1___fpclassifyf@u+3
 11145   00448A  C007  F011         	movff	i1___fpclassifyf@x,i1___fpclassifyf@u
 11146   00448E  C008  F012         	movff	i1___fpclassifyf@x+1,i1___fpclassifyf@u+1
 11147   004492  C009  F013         	movff	i1___fpclassifyf@x+2,i1___fpclassifyf@u+2
 11148   004496  C00A  F014         	movff	i1___fpclassifyf@x+3,i1___fpclassifyf@u+3
 11149   00449A  C011  F00B         	movff	i1___fpclassifyf@u,??i1___fpclassifyf
 11150   00449E  C012  F00C         	movff	i1___fpclassifyf@u+1,??i1___fpclassifyf+1
 11151   0044A2  C013  F00D         	movff	i1___fpclassifyf@u+2,??i1___fpclassifyf+2
 11152   0044A6  C014  F00E         	movff	i1___fpclassifyf@u+3,??i1___fpclassifyf+3
 11153   0044AA  0E18               	movlw	24
 11154   0044AC  EF5D  F022         	goto	i1u1235_20
 11155   0044B0                     i1u1235_25:
 11156   0044B0  90D8               	bcf	status,0,c
 11157   0044B2  320E               	rrcf	(??i1___fpclassifyf+3)^0,f,c
 11158   0044B4  320D               	rrcf	(??i1___fpclassifyf+2)^0,f,c
 11159   0044B6  320C               	rrcf	(??i1___fpclassifyf+1)^0,f,c
 11160   0044B8  320B               	rrcf	??i1___fpclassifyf^0,f,c
 11161   0044BA                     i1u1235_20:
 11162   0044BA  2EE8               	decfsz	wreg,f,c
 11163   0044BC  EF58  F022         	goto	i1u1235_25
 11164   0044C0  500B               	movf	??i1___fpclassifyf^0,w,c
 11165   0044C2  6E0F               	movwf	i1___fpclassifyf@e^0,c
 11166   0044C4  6A10               	clrf	(i1___fpclassifyf@e+1)^0,c
 11167   0044C6  500F               	movf	i1___fpclassifyf@e^0,w,c
 11168   0044C8  1010               	iorwf	(i1___fpclassifyf@e+1)^0,w,c
 11169   0044CA  A4D8               	btfss	status,2,c
 11170   0044CC  EF6A  F022         	goto	i1u1236_21
 11171   0044D0  EF6C  F022         	goto	i1u1236_20
 11172   0044D4                     i1u1236_21:
 11173   0044D4  EF8C  F022         	goto	i1l8584
 11174   0044D8                     i1u1236_20:
 11175   0044D8  90D8               	bcf	status,0,c
 11176   0044DA  3411               	rlcf	i1___fpclassifyf@u^0,w,c
 11177   0044DC  6E0B               	movwf	??i1___fpclassifyf^0,c
 11178   0044DE  3412               	rlcf	(i1___fpclassifyf@u+1)^0,w,c
 11179   0044E0  6E0C               	movwf	(??i1___fpclassifyf+1)^0,c
 11180   0044E2  3413               	rlcf	(i1___fpclassifyf@u+2)^0,w,c
 11181   0044E4  6E0D               	movwf	(??i1___fpclassifyf+2)^0,c
 11182   0044E6  3414               	rlcf	(i1___fpclassifyf@u+3)^0,w,c
 11183   0044E8  6E0E               	movwf	(??i1___fpclassifyf+3)^0,c
 11184   0044EA  500B               	movf	??i1___fpclassifyf^0,w,c
 11185   0044EC  100C               	iorwf	(??i1___fpclassifyf+1)^0,w,c
 11186   0044EE  100D               	iorwf	(??i1___fpclassifyf+2)^0,w,c
 11187   0044F0  100E               	iorwf	(??i1___fpclassifyf+3)^0,w,c
 11188   0044F2  A4D8               	btfss	status,2,c
 11189   0044F4  EF7E  F022         	goto	i1u1237_21
 11190   0044F8  EF80  F022         	goto	i1u1237_20
 11191   0044FC                     i1u1237_21:
 11192   0044FC  EF86  F022         	goto	i1l8580
 11193   004500                     i1u1237_20:
 11194   004500  0E00               	movlw	0
 11195   004502  6E08               	movwf	(?i1___fpclassifyf+1)^0,c
 11196   004504  0E02               	movlw	2
 11197   004506  6E07               	movwf	?i1___fpclassifyf^0,c
 11198   004508  EFBB  F022         	goto	i1l1077
 11199   00450C                     i1l8580:
 11200   00450C  0E00               	movlw	0
 11201   00450E  6E08               	movwf	(?i1___fpclassifyf+1)^0,c
 11202   004510  0E03               	movlw	3
 11203   004512  6E07               	movwf	?i1___fpclassifyf^0,c
 11204   004514  EFBB  F022         	goto	i1l1077
 11205   004518                     i1l8584:
 11206   004518  280F               	incf	i1___fpclassifyf@e^0,w,c
 11207   00451A  1010               	iorwf	(i1___fpclassifyf@e+1)^0,w,c
 11208   00451C  A4D8               	btfss	status,2,c
 11209   00451E  EF93  F022         	goto	i1u1238_21
 11210   004522  EF95  F022         	goto	i1u1238_20
 11211   004526                     i1u1238_21:
 11212   004526  EFB7  F022         	goto	i1l8590
 11213   00452A                     i1u1238_20:
 11214   00452A  C011  F00B         	movff	i1___fpclassifyf@u,??i1___fpclassifyf
 11215   00452E  C012  F00C         	movff	i1___fpclassifyf@u+1,??i1___fpclassifyf+1
 11216   004532  C013  F00D         	movff	i1___fpclassifyf@u+2,??i1___fpclassifyf+2
 11217   004536  C014  F00E         	movff	i1___fpclassifyf@u+3,??i1___fpclassifyf+3
 11218   00453A  0E09               	movlw	9
 11219   00453C                     i1u1239_25:
 11220   00453C  90D8               	bcf	status,0,c
 11221   00453E  360B               	rlcf	??i1___fpclassifyf^0,f,c
 11222   004540  360C               	rlcf	(??i1___fpclassifyf+1)^0,f,c
 11223   004542  360D               	rlcf	(??i1___fpclassifyf+2)^0,f,c
 11224   004544  360E               	rlcf	(??i1___fpclassifyf+3)^0,f,c
 11225   004546  2EE8               	decfsz	wreg,f,c
 11226   004548  EF9E  F022         	goto	i1u1239_25
 11227   00454C  500B               	movf	??i1___fpclassifyf^0,w,c
 11228   00454E  100C               	iorwf	(??i1___fpclassifyf+1)^0,w,c
 11229   004550  100D               	iorwf	(??i1___fpclassifyf+2)^0,w,c
 11230   004552  100E               	iorwf	(??i1___fpclassifyf+3)^0,w,c
 11231   004554  B4D8               	btfsc	status,2,c
 11232   004556  EFAF  F022         	goto	i1u1240_21
 11233   00455A  EFB2  F022         	goto	i1u1240_20
 11234   00455E                     i1u1240_21:
 11235   00455E  0E01               	movlw	1
 11236   004560  EFB3  F022         	goto	i1u1241_20
 11237   004564                     i1u1240_20:
 11238   004564  0E00               	movlw	0
 11239   004566                     i1u1241_20:
 11240   004566  6E07               	movwf	?i1___fpclassifyf^0,c
 11241   004568  6A08               	clrf	(?i1___fpclassifyf+1)^0,c
 11242   00456A  EFBB  F022         	goto	i1l1077
 11243   00456E                     i1l8590:
 11244   00456E  0E00               	movlw	0
 11245   004570  6E08               	movwf	(?i1___fpclassifyf+1)^0,c
 11246   004572  0E04               	movlw	4
 11247   004574  6E07               	movwf	?i1___fpclassifyf^0,c
 11248   004576                     i1l1077:
 11249   004576  0012               	return		;funcret
 11250   004578                     __end_ofi1___fpclassifyf:
 11251                           	callstack 0
 11252                           
 11253 ;; *************** function i1___fltol *****************
 11254 ;; Defined at:
 11255 ;;		line 43 in file "C:\Program Files\Microchip\xc8\v3.00\pic\sources\c99\common\fltol.c"
 11256 ;; Parameters:    Size  Location     Type
 11257 ;;  f1              4    6[COMRAM] int 
 11258 ;; Auto vars:     Size  Location     Type
 11259 ;;  exp1            1   15[COMRAM] unsigned char 
 11260 ;;  sign1           1   14[COMRAM] unsigned char 
 11261 ;; Return value:  Size  Location     Type
 11262 ;;                  4    6[COMRAM] long 
 11263 ;; Registers used:
 11264 ;;		wreg, status,2, status,0
 11265 ;; Tracked objects:
 11266 ;;		On entry : 0/0
 11267 ;;		On exit  : 0/0
 11268 ;;		Unchanged: 0/0
 11269 ;; Data sizes:     COMRAM   BANK0   BANK1   BANK2   BANK3   BANK4   BANK5
 11270 ;;      Params:         4       0       0       0       0       0       0
 11271 ;;      Locals:         2       0       0       0       0       0       0
 11272 ;;      Temps:          4       0       0       0       0       0       0
 11273 ;;      Totals:        10       0       0       0       0       0       0
 11274 ;;Total ram usage:       10 bytes
 11275 ;; Hardware stack levels used: 1
 11276 ;; Hardware stack levels required when called: 3
 11277 ;; This function calls:
 11278 ;;		Nothing
 11279 ;; This function is called by:
 11280 ;;		i1_efgtoa
 11281 ;; This function uses a non-reentrant model
 11282 ;;
 11283                           
 11284                           	psect	text47
 11285   004170                     __ptext47:
 11286                           	callstack 0
 11287   004170                     i1___fltol:
 11288                           	callstack 11
 11289   004170  3409               	rlcf	(i1___fltol@f1+2)^0,w,c
 11290   004172  340A               	rlcf	(i1___fltol@f1+3)^0,w,c
 11291   004174  6E10               	movwf	i1___fltol@exp1^0,c
 11292   004176  5010               	movf	i1___fltol@exp1^0,w,c
 11293   004178  A4D8               	btfss	status,2,c
 11294   00417A  EFC1  F020         	goto	i1u1184_21
 11295   00417E  EFC3  F020         	goto	i1u1184_20
 11296   004182                     i1u1184_21:
 11297   004182  EFCD  F020         	goto	i1l8252
 11298   004186                     i1u1184_20:
 11299   004186                     i1l8248:
 11300   004186  0E00               	movlw	0
 11301   004188  6E07               	movwf	?i1___fltol^0,c
 11302   00418A  0E00               	movlw	0
 11303   00418C  6E08               	movwf	(?i1___fltol+1)^0,c
 11304   00418E  0E00               	movlw	0
 11305   004190  6E09               	movwf	(?i1___fltol+2)^0,c
 11306   004192  0E00               	movlw	0
 11307   004194  6E0A               	movwf	(?i1___fltol+3)^0,c
 11308   004196  EF3A  F021         	goto	i1l561
 11309   00419A                     i1l8252:
 11310   00419A  C007  F00B         	movff	i1___fltol@f1,??i1___fltol
 11311   00419E  C008  F00C         	movff	i1___fltol@f1+1,??i1___fltol+1
 11312   0041A2  C009  F00D         	movff	i1___fltol@f1+2,??i1___fltol+2
 11313   0041A6  C00A  F00E         	movff	i1___fltol@f1+3,??i1___fltol+3
 11314   0041AA  0E20               	movlw	32
 11315   0041AC  EFDD  F020         	goto	i1u1185_20
 11316   0041B0                     i1u1185_25:
 11317   0041B0  90D8               	bcf	status,0,c
 11318   0041B2  320E               	rrcf	(??i1___fltol+3)^0,f,c
 11319   0041B4  320D               	rrcf	(??i1___fltol+2)^0,f,c
 11320   0041B6  320C               	rrcf	(??i1___fltol+1)^0,f,c
 11321   0041B8  320B               	rrcf	??i1___fltol^0,f,c
 11322   0041BA                     i1u1185_20:
 11323   0041BA  2EE8               	decfsz	wreg,f,c
 11324   0041BC  EFD8  F020         	goto	i1u1185_25
 11325   0041C0  500B               	movf	??i1___fltol^0,w,c
 11326   0041C2  6E0F               	movwf	i1___fltol@sign1^0,c
 11327   0041C4  8E09               	bsf	(i1___fltol@f1+2)^0,7,c
 11328   0041C6  0EFF               	movlw	255
 11329   0041C8  1607               	andwf	i1___fltol@f1^0,f,c
 11330   0041CA  0EFF               	movlw	255
 11331   0041CC  1608               	andwf	(i1___fltol@f1+1)^0,f,c
 11332   0041CE  0EFF               	movlw	255
 11333   0041D0  1609               	andwf	(i1___fltol@f1+2)^0,f,c
 11334   0041D2  0E00               	movlw	0
 11335   0041D4  160A               	andwf	(i1___fltol@f1+3)^0,f,c
 11336   0041D6  0E96               	movlw	150
 11337   0041D8  5E10               	subwf	i1___fltol@exp1^0,f,c
 11338   0041DA  BE10               	btfsc	i1___fltol@exp1^0,7,c
 11339   0041DC  EFF4  F020         	goto	i1u1186_20
 11340   0041E0  EFF2  F020         	goto	i1u1186_21
 11341   0041E4                     i1u1186_21:
 11342   0041E4  EF0A  F021         	goto	i1l8272
 11343   0041E8                     i1u1186_20:
 11344   0041E8  5010               	movf	i1___fltol@exp1^0,w,c
 11345   0041EA  0A80               	xorlw	128
 11346   0041EC  0F97               	addlw	151
 11347   0041EE  B0D8               	btfsc	status,0,c
 11348   0041F0  EFFC  F020         	goto	i1u1187_21
 11349   0041F4  EFFE  F020         	goto	i1u1187_20
 11350   0041F8                     i1u1187_21:
 11351   0041F8  EF00  F021         	goto	i1l8268
 11352   0041FC                     i1u1187_20:
 11353   0041FC  EFC3  F020         	goto	i1l8248
 11354   004200                     i1l8268:
 11355   004200  90D8               	bcf	status,0,c
 11356   004202  320A               	rrcf	(i1___fltol@f1+3)^0,f,c
 11357   004204  3209               	rrcf	(i1___fltol@f1+2)^0,f,c
 11358   004206  3208               	rrcf	(i1___fltol@f1+1)^0,f,c
 11359   004208  3207               	rrcf	i1___fltol@f1^0,f,c
 11360   00420A  3E10               	incfsz	i1___fltol@exp1^0,f,c
 11361   00420C  EF00  F021         	goto	i1l8268
 11362   004210  EF22  F021         	goto	i1l8282
 11363   004214                     i1l8272:
 11364   004214  0E1F               	movlw	31
 11365   004216  6410               	cpfsgt	i1___fltol@exp1^0,c
 11366   004218  EF10  F021         	goto	i1u1188_21
 11367   00421C  EF12  F021         	goto	i1u1188_20
 11368   004220                     i1u1188_21:
 11369   004220  EF1A  F021         	goto	i1l8280
 11370   004224                     i1u1188_20:
 11371   004224  EFC3  F020         	goto	i1l8248
 11372   004228                     i1l8278:
 11373   004228  90D8               	bcf	status,0,c
 11374   00422A  3607               	rlcf	i1___fltol@f1^0,f,c
 11375   00422C  3608               	rlcf	(i1___fltol@f1+1)^0,f,c
 11376   00422E  3609               	rlcf	(i1___fltol@f1+2)^0,f,c
 11377   004230  360A               	rlcf	(i1___fltol@f1+3)^0,f,c
 11378   004232  0610               	decf	i1___fltol@exp1^0,f,c
 11379   004234                     i1l8280:
 11380   004234  5010               	movf	i1___fltol@exp1^0,w,c
 11381   004236  A4D8               	btfss	status,2,c
 11382   004238  EF20  F021         	goto	i1u1189_21
 11383   00423C  EF22  F021         	goto	i1u1189_20
 11384   004240                     i1u1189_21:
 11385   004240  EF14  F021         	goto	i1l8278
 11386   004244                     i1u1189_20:
 11387   004244                     i1l8282:
 11388   004244  500F               	movf	i1___fltol@sign1^0,w,c
 11389   004246  B4D8               	btfsc	status,2,c
 11390   004248  EF28  F021         	goto	i1u1190_21
 11391   00424C  EF2A  F021         	goto	i1u1190_20
 11392   004250                     i1u1190_21:
 11393   004250  EF32  F021         	goto	i1l8286
 11394   004254                     i1u1190_20:
 11395   004254  1E0A               	comf	(i1___fltol@f1+3)^0,f,c
 11396   004256  1E09               	comf	(i1___fltol@f1+2)^0,f,c
 11397   004258  1E08               	comf	(i1___fltol@f1+1)^0,f,c
 11398   00425A  6C07               	negf	i1___fltol@f1^0,c
 11399   00425C  0E00               	movlw	0
 11400   00425E  2208               	addwfc	(i1___fltol@f1+1)^0,f,c
 11401   004260  2209               	addwfc	(i1___fltol@f1+2)^0,f,c
 11402   004262  220A               	addwfc	(i1___fltol@f1+3)^0,f,c
 11403   004264                     i1l8286:
 11404   004264  C007  F007         	movff	i1___fltol@f1,?i1___fltol
 11405   004268  C008  F008         	movff	i1___fltol@f1+1,?i1___fltol+1
 11406   00426C  C009  F009         	movff	i1___fltol@f1+2,?i1___fltol+2
 11407   004270  C00A  F00A         	movff	i1___fltol@f1+3,?i1___fltol+3
 11408   004274                     i1l561:
 11409   004274  0012               	return		;funcret
 11410   004276                     __end_ofi1___fltol:
 11411                           	callstack 0
 11412                           
 11413 ;; *************** function i1___flsub *****************
 11414 ;; Defined at:
 11415 ;;		line 245 in file "C:\Program Files\Microchip\xc8\v3.00\pic\sources\c99\common\sprcadd.c"
 11416 ;; Parameters:    Size  Location     Type
 11417 ;;  b               4   31[COMRAM] long 
 11418 ;;  a               4   35[COMRAM] long 
 11419 ;; Auto vars:     Size  Location     Type
 11420 ;;		None
 11421 ;; Return value:  Size  Location     Type
 11422 ;;                  4   31[COMRAM] long 
 11423 ;; Registers used:
 11424 ;;		wreg, status,2, status,0, cstack
 11425 ;; Tracked objects:
 11426 ;;		On entry : 0/0
 11427 ;;		On exit  : 0/0
 11428 ;;		Unchanged: 0/0
 11429 ;; Data sizes:     COMRAM   BANK0   BANK1   BANK2   BANK3   BANK4   BANK5
 11430 ;;      Params:         8       0       0       0       0       0       0
 11431 ;;      Locals:         0       0       0       0       0       0       0
 11432 ;;      Temps:          0       0       0       0       0       0       0
 11433 ;;      Totals:         8       0       0       0       0       0       0
 11434 ;;Total ram usage:        8 bytes
 11435 ;; Hardware stack levels used: 1
 11436 ;; Hardware stack levels required when called: 4
 11437 ;; This function calls:
 11438 ;;		i1___fladd
 11439 ;; This function is called by:
 11440 ;;		i1_efgtoa
 11441 ;; This function uses a non-reentrant model
 11442 ;;
 11443                           
 11444                           	psect	text48
 11445   005060                     __ptext48:
 11446                           	callstack 0
 11447   005060                     i1___flsub:
 11448                           	callstack 10
 11449   005060  0E00               	movlw	0
 11450   005062  1A24               	xorwf	i1___flsub@a^0,f,c
 11451   005064  0E00               	movlw	0
 11452   005066  1A25               	xorwf	(i1___flsub@a+1)^0,f,c
 11453   005068  0E00               	movlw	0
 11454   00506A  1A26               	xorwf	(i1___flsub@a+2)^0,f,c
 11455   00506C  0E80               	movlw	128
 11456   00506E  1A27               	xorwf	(i1___flsub@a+3)^0,f,c
 11457   005070  C020  F007         	movff	i1___flsub@b,i1___fladd@b
 11458   005074  C021  F008         	movff	i1___flsub@b+1,i1___fladd@b+1
 11459   005078  C022  F009         	movff	i1___flsub@b+2,i1___fladd@b+2
 11460   00507C  C023  F00A         	movff	i1___flsub@b+3,i1___fladd@b+3
 11461   005080  C024  F00B         	movff	i1___flsub@a,i1___fladd@a
 11462   005084  C025  F00C         	movff	i1___flsub@a+1,i1___fladd@a+1
 11463   005088  C026  F00D         	movff	i1___flsub@a+2,i1___fladd@a+2
 11464   00508C  C027  F00E         	movff	i1___flsub@a+3,i1___fladd@a+3
 11465   005090  EC81  F00F         	call	i1___fladd	;wreg free
 11466   005094  C007  F020         	movff	?i1___fladd,?i1___flsub
 11467   005098  C008  F021         	movff	?i1___fladd+1,?i1___flsub+1
 11468   00509C  C009  F022         	movff	?i1___fladd+2,?i1___flsub+2
 11469   0050A0  C00A  F023         	movff	?i1___fladd+3,?i1___flsub+3
 11470   0050A4  0012               	return		;funcret
 11471   0050A6                     __end_ofi1___flsub:
 11472                           	callstack 0
 11473                           
 11474 ;; *************** function i1___fladd *****************
 11475 ;; Defined at:
 11476 ;;		line 10 in file "C:\Program Files\Microchip\xc8\v3.00\pic\sources\c99\common\sprcadd.c"
 11477 ;; Parameters:    Size  Location     Type
 11478 ;;  b               4    6[COMRAM] long 
 11479 ;;  a               4   10[COMRAM] long 
 11480 ;; Auto vars:     Size  Location     Type
 11481 ;;  grs             1   21[COMRAM] unsigned char 
 11482 ;;  bexp            1   20[COMRAM] unsigned char 
 11483 ;;  aexp            1   19[COMRAM] unsigned char 
 11484 ;;  signs           1   18[COMRAM] unsigned char 
 11485 ;; Return value:  Size  Location     Type
 11486 ;;                  4    6[COMRAM] unsigned char 
 11487 ;; Registers used:
 11488 ;;		wreg, status,2, status,0
 11489 ;; Tracked objects:
 11490 ;;		On entry : 0/0
 11491 ;;		On exit  : 0/0
 11492 ;;		Unchanged: 0/0
 11493 ;; Data sizes:     COMRAM   BANK0   BANK1   BANK2   BANK3   BANK4   BANK5
 11494 ;;      Params:         8       0       0       0       0       0       0
 11495 ;;      Locals:         4       0       0       0       0       0       0
 11496 ;;      Temps:          4       0       0       0       0       0       0
 11497 ;;      Totals:        16       0       0       0       0       0       0
 11498 ;;Total ram usage:       16 bytes
 11499 ;; Hardware stack levels used: 1
 11500 ;; Hardware stack levels required when called: 3
 11501 ;; This function calls:
 11502 ;;		Nothing
 11503 ;; This function is called by:
 11504 ;;		i1___flsub
 11505 ;;		i1_efgtoa
 11506 ;; This function uses a non-reentrant model
 11507 ;;
 11508                           
 11509                           	psect	text49
 11510   001F02                     __ptext49:
 11511                           	callstack 0
 11512   001F02                     i1___fladd:
 11513                           	callstack 10
 11514   001F02  500A               	movf	(i1___fladd@b+3)^0,w,c
 11515   001F04  0B80               	andlw	128
 11516   001F06  6E13               	movwf	i1___fladd@signs^0,c
 11517   001F08  500A               	movf	(i1___fladd@b+3)^0,w,c
 11518   001F0A  240A               	addwf	(i1___fladd@b+3)^0,w,c
 11519   001F0C  6E15               	movwf	i1___fladd@bexp^0,c
 11520   001F0E  AE09               	btfss	(i1___fladd@b+2)^0,7,c
 11521   001F10  EF8C  F00F         	goto	i1u1130_21
 11522   001F14  EF8E  F00F         	goto	i1u1130_20
 11523   001F18                     i1u1130_21:
 11524   001F18  EF8F  F00F         	goto	i1l7976
 11525   001F1C                     i1u1130_20:
 11526   001F1C  8015               	bsf	i1___fladd@bexp^0,0,c
 11527   001F1E                     i1l7976:
 11528   001F1E  5015               	movf	i1___fladd@bexp^0,w,c
 11529   001F20  B4D8               	btfsc	status,2,c
 11530   001F22  EF95  F00F         	goto	i1u1131_21
 11531   001F26  EF97  F00F         	goto	i1u1131_20
 11532   001F2A                     i1u1131_21:
 11533   001F2A  EFAB  F00F         	goto	i1l7986
 11534   001F2E                     i1u1131_20:
 11535   001F2E  2815               	incf	i1___fladd@bexp^0,w,c
 11536   001F30  A4D8               	btfss	status,2,c
 11537   001F32  EF9D  F00F         	goto	i1u1132_21
 11538   001F36  EF9F  F00F         	goto	i1u1132_20
 11539   001F3A                     i1u1132_21:
 11540   001F3A  EFA7  F00F         	goto	i1l7982
 11541   001F3E                     i1u1132_20:
 11542   001F3E  0E00               	movlw	0
 11543   001F40  6E07               	movwf	i1___fladd@b^0,c
 11544   001F42  0E00               	movlw	0
 11545   001F44  6E08               	movwf	(i1___fladd@b+1)^0,c
 11546   001F46  0E00               	movlw	0
 11547   001F48  6E09               	movwf	(i1___fladd@b+2)^0,c
 11548   001F4A  0E00               	movlw	0
 11549   001F4C  6E0A               	movwf	(i1___fladd@b+3)^0,c
 11550   001F4E                     i1l7982:
 11551   001F4E  8E09               	bsf	(i1___fladd@b+2)^0,7,c
 11552   001F50  6A0A               	clrf	(i1___fladd@b+3)^0,c
 11553   001F52  EFB3  F00F         	goto	i1l7988
 11554   001F56                     i1l7986:
 11555   001F56  0E00               	movlw	0
 11556   001F58  6E07               	movwf	i1___fladd@b^0,c
 11557   001F5A  0E00               	movlw	0
 11558   001F5C  6E08               	movwf	(i1___fladd@b+1)^0,c
 11559   001F5E  0E00               	movlw	0
 11560   001F60  6E09               	movwf	(i1___fladd@b+2)^0,c
 11561   001F62  0E00               	movlw	0
 11562   001F64  6E0A               	movwf	(i1___fladd@b+3)^0,c
 11563   001F66                     i1l7988:
 11564   001F66  500E               	movf	(i1___fladd@a+3)^0,w,c
 11565   001F68  0B80               	andlw	128
 11566   001F6A  6E14               	movwf	i1___fladd@aexp^0,c
 11567   001F6C  5013               	movf	i1___fladd@signs^0,w,c
 11568   001F6E  1814               	xorwf	i1___fladd@aexp^0,w,c
 11569   001F70  B4D8               	btfsc	status,2,c
 11570   001F72  EFBD  F00F         	goto	i1u1133_21
 11571   001F76  EFBF  F00F         	goto	i1u1133_20
 11572   001F7A                     i1u1133_21:
 11573   001F7A  EFC0  F00F         	goto	i1l7994
 11574   001F7E                     i1u1133_20:
 11575   001F7E  8C13               	bsf	i1___fladd@signs^0,6,c
 11576   001F80                     i1l7994:
 11577   001F80  500E               	movf	(i1___fladd@a+3)^0,w,c
 11578   001F82  240E               	addwf	(i1___fladd@a+3)^0,w,c
 11579   001F84  6E14               	movwf	i1___fladd@aexp^0,c
 11580   001F86  AE0D               	btfss	(i1___fladd@a+2)^0,7,c
 11581   001F88  EFC8  F00F         	goto	i1u1134_21
 11582   001F8C  EFCA  F00F         	goto	i1u1134_20
 11583   001F90                     i1u1134_21:
 11584   001F90  EFCB  F00F         	goto	i1l8000
 11585   001F94                     i1u1134_20:
 11586   001F94  8014               	bsf	i1___fladd@aexp^0,0,c
 11587   001F96                     i1l8000:
 11588   001F96  5014               	movf	i1___fladd@aexp^0,w,c
 11589   001F98  B4D8               	btfsc	status,2,c
 11590   001F9A  EFD1  F00F         	goto	i1u1135_21
 11591   001F9E  EFD3  F00F         	goto	i1u1135_20
 11592   001FA2                     i1u1135_21:
 11593   001FA2  EFE7  F00F         	goto	i1l8010
 11594   001FA6                     i1u1135_20:
 11595   001FA6  2814               	incf	i1___fladd@aexp^0,w,c
 11596   001FA8  A4D8               	btfss	status,2,c
 11597   001FAA  EFD9  F00F         	goto	i1u1136_21
 11598   001FAE  EFDB  F00F         	goto	i1u1136_20
 11599   001FB2                     i1u1136_21:
 11600   001FB2  EFE3  F00F         	goto	i1l8006
 11601   001FB6                     i1u1136_20:
 11602   001FB6  0E00               	movlw	0
 11603   001FB8  6E0B               	movwf	i1___fladd@a^0,c
 11604   001FBA  0E00               	movlw	0
 11605   001FBC  6E0C               	movwf	(i1___fladd@a+1)^0,c
 11606   001FBE  0E00               	movlw	0
 11607   001FC0  6E0D               	movwf	(i1___fladd@a+2)^0,c
 11608   001FC2  0E00               	movlw	0
 11609   001FC4  6E0E               	movwf	(i1___fladd@a+3)^0,c
 11610   001FC6                     i1l8006:
 11611   001FC6  8E0D               	bsf	(i1___fladd@a+2)^0,7,c
 11612   001FC8  6A0E               	clrf	(i1___fladd@a+3)^0,c
 11613   001FCA  EFEF  F00F         	goto	i1l8012
 11614   001FCE                     i1l8010:
 11615   001FCE  0E00               	movlw	0
 11616   001FD0  6E0B               	movwf	i1___fladd@a^0,c
 11617   001FD2  0E00               	movlw	0
 11618   001FD4  6E0C               	movwf	(i1___fladd@a+1)^0,c
 11619   001FD6  0E00               	movlw	0
 11620   001FD8  6E0D               	movwf	(i1___fladd@a+2)^0,c
 11621   001FDA  0E00               	movlw	0
 11622   001FDC  6E0E               	movwf	(i1___fladd@a+3)^0,c
 11623   001FDE                     i1l8012:
 11624   001FDE  5015               	movf	i1___fladd@bexp^0,w,c
 11625   001FE0  5C14               	subwf	i1___fladd@aexp^0,w,c
 11626   001FE2  B0D8               	btfsc	status,0,c
 11627   001FE4  EFF6  F00F         	goto	i1u1137_21
 11628   001FE8  EFF8  F00F         	goto	i1u1137_20
 11629   001FEC                     i1u1137_21:
 11630   001FEC  EF1F  F010         	goto	i1l8048
 11631   001FF0                     i1u1137_20:
 11632   001FF0  AC13               	btfss	i1___fladd@signs^0,6,c
 11633   001FF2  EFFD  F00F         	goto	i1u1138_21
 11634   001FF6  EFFF  F00F         	goto	i1u1138_20
 11635   001FFA                     i1u1138_21:
 11636   001FFA  EF01  F010         	goto	i1l8018
 11637   001FFE                     i1u1138_20:
 11638   001FFE  0E80               	movlw	128
 11639   002000  1A13               	xorwf	i1___fladd@signs^0,f,c
 11640   002002                     i1l8018:
 11641   002002  C015  F016         	movff	i1___fladd@bexp,i1___fladd@grs
 11642   002006  C014  F015         	movff	i1___fladd@aexp,i1___fladd@bexp
 11643   00200A  C016  F014         	movff	i1___fladd@grs,i1___fladd@aexp
 11644   00200E  C007  F016         	movff	i1___fladd@b,i1___fladd@grs
 11645   002012  C00B  F007         	movff	i1___fladd@a,i1___fladd@b
 11646   002016  C016  F00B         	movff	i1___fladd@grs,i1___fladd@a
 11647   00201A  C008  F016         	movff	i1___fladd@b+1,i1___fladd@grs
 11648   00201E  C00C  F008         	movff	i1___fladd@a+1,i1___fladd@b+1
 11649   002022  C016  F00C         	movff	i1___fladd@grs,i1___fladd@a+1
 11650   002026  C009  F016         	movff	i1___fladd@b+2,i1___fladd@grs
 11651   00202A  C00D  F009         	movff	i1___fladd@a+2,i1___fladd@b+2
 11652   00202E  C016  F00D         	movff	i1___fladd@grs,i1___fladd@a+2
 11653   002032  C00A  F016         	movff	i1___fladd@b+3,i1___fladd@grs
 11654   002036  C00E  F00A         	movff	i1___fladd@a+3,i1___fladd@b+3
 11655   00203A  C016  F00E         	movff	i1___fladd@grs,i1___fladd@a+3
 11656   00203E                     i1l8048:
 11657   00203E  6A16               	clrf	i1___fladd@grs^0,c
 11658   002040  5015               	movf	i1___fladd@bexp^0,w,c
 11659   002042  C014  F00F         	movff	i1___fladd@aexp,??i1___fladd
 11660   002046  6A10               	clrf	(??i1___fladd+1)^0,c
 11661   002048  5E0F               	subwf	??i1___fladd^0,f,c
 11662   00204A  0E00               	movlw	0
 11663   00204C  5A10               	subwfb	(??i1___fladd+1)^0,f,c
 11664   00204E  BE10               	btfsc	(??i1___fladd+1)^0,7,c
 11665   002050  EF33  F010         	goto	i1u1139_21
 11666   002054  5010               	movf	(??i1___fladd+1)^0,w,c
 11667   002056  E109               	bnz	i1u1139_20
 11668   002058  0E1A               	movlw	26
 11669   00205A  5C0F               	subwf	??i1___fladd^0,w,c
 11670   00205C  A0D8               	btfss	status,0,c
 11671   00205E  EF33  F010         	goto	i1u1139_21
 11672   002062  EF35  F010         	goto	i1u1139_20
 11673   002066                     i1u1139_21:
 11674   002066  EF6C  F010         	goto	i1l793
 11675   00206A                     i1u1139_20:
 11676   00206A  5007               	movf	i1___fladd@b^0,w,c
 11677   00206C  1008               	iorwf	(i1___fladd@b+1)^0,w,c
 11678   00206E  1009               	iorwf	(i1___fladd@b+2)^0,w,c
 11679   002070  100A               	iorwf	(i1___fladd@b+3)^0,w,c
 11680   002072  A4D8               	btfss	status,2,c
 11681   002074  EF3E  F010         	goto	i1u1140_21
 11682   002078  EF41  F010         	goto	i1u1140_20
 11683   00207C                     i1u1140_21:
 11684   00207C  0E01               	movlw	1
 11685   00207E  EF42  F010         	goto	i1u1141_20
 11686   002082                     i1u1140_20:
 11687   002082  0E00               	movlw	0
 11688   002084                     i1u1141_20:
 11689   002084  6E16               	movwf	i1___fladd@grs^0,c
 11690   002086  0E00               	movlw	0
 11691   002088  6E07               	movwf	i1___fladd@b^0,c
 11692   00208A  0E00               	movlw	0
 11693   00208C  6E08               	movwf	(i1___fladd@b+1)^0,c
 11694   00208E  0E00               	movlw	0
 11695   002090  6E09               	movwf	(i1___fladd@b+2)^0,c
 11696   002092  0E00               	movlw	0
 11697   002094  6E0A               	movwf	(i1___fladd@b+3)^0,c
 11698   002096  C014  F015         	movff	i1___fladd@aexp,i1___fladd@bexp
 11699   00209A  EF75  F010         	goto	i1l792
 11700   00209E                     i1l794:
 11701   00209E  A016               	btfss	i1___fladd@grs^0,0,c
 11702   0020A0  EF54  F010         	goto	i1u1142_21
 11703   0020A4  EF56  F010         	goto	i1u1142_20
 11704   0020A8                     i1u1142_21:
 11705   0020A8  EF5C  F010         	goto	i1l8058
 11706   0020AC                     i1u1142_20:
 11707   0020AC  90D8               	bcf	status,0,c
 11708   0020AE  3016               	rrcf	i1___fladd@grs^0,w,c
 11709   0020B0  0901               	iorlw	1
 11710   0020B2  6E16               	movwf	i1___fladd@grs^0,c
 11711   0020B4  EF5E  F010         	goto	i1l8060
 11712   0020B8                     i1l8058:
 11713   0020B8  90D8               	bcf	status,0,c
 11714   0020BA  3216               	rrcf	i1___fladd@grs^0,f,c
 11715   0020BC                     i1l8060:
 11716   0020BC  A007               	btfss	i1___fladd@b^0,0,c
 11717   0020BE  EF63  F010         	goto	i1u1143_21
 11718   0020C2  EF65  F010         	goto	i1u1143_20
 11719   0020C6                     i1u1143_21:
 11720   0020C6  EF66  F010         	goto	i1l8064
 11721   0020CA                     i1u1143_20:
 11722   0020CA  8E16               	bsf	i1___fladd@grs^0,7,c
 11723   0020CC                     i1l8064:
 11724   0020CC  340A               	rlcf	(i1___fladd@b+3)^0,w,c
 11725   0020CE  320A               	rrcf	(i1___fladd@b+3)^0,f,c
 11726   0020D0  3209               	rrcf	(i1___fladd@b+2)^0,f,c
 11727   0020D2  3208               	rrcf	(i1___fladd@b+1)^0,f,c
 11728   0020D4  3207               	rrcf	i1___fladd@b^0,f,c
 11729   0020D6  2A15               	incf	i1___fladd@bexp^0,f,c
 11730   0020D8                     i1l793:
 11731   0020D8  5014               	movf	i1___fladd@aexp^0,w,c
 11732   0020DA  5C15               	subwf	i1___fladd@bexp^0,w,c
 11733   0020DC  A0D8               	btfss	status,0,c
 11734   0020DE  EF73  F010         	goto	i1u1144_21
 11735   0020E2  EF75  F010         	goto	i1u1144_20
 11736   0020E6                     i1u1144_21:
 11737   0020E6  EF4F  F010         	goto	i1l794
 11738   0020EA                     i1u1144_20:
 11739   0020EA                     i1l792:
 11740   0020EA  BC13               	btfsc	i1___fladd@signs^0,6,c
 11741   0020EC  EF7A  F010         	goto	i1u1145_21
 11742   0020F0  EF7C  F010         	goto	i1u1145_20
 11743   0020F4                     i1u1145_21:
 11744   0020F4  EFBC  F010         	goto	i1l8092
 11745   0020F8                     i1u1145_20:
 11746   0020F8  5015               	movf	i1___fladd@bexp^0,w,c
 11747   0020FA  A4D8               	btfss	status,2,c
 11748   0020FC  EF82  F010         	goto	i1u1146_21
 11749   002100  EF84  F010         	goto	i1u1146_20
 11750   002104                     i1u1146_21:
 11751   002104  EF8E  F010         	goto	i1l8074
 11752   002108                     i1u1146_20:
 11753   002108  0E00               	movlw	0
 11754   00210A  6E07               	movwf	?i1___fladd^0,c
 11755   00210C  0E00               	movlw	0
 11756   00210E  6E08               	movwf	(?i1___fladd+1)^0,c
 11757   002110  0E00               	movlw	0
 11758   002112  6E09               	movwf	(?i1___fladd+2)^0,c
 11759   002114  0E00               	movlw	0
 11760   002116  6E0A               	movwf	(?i1___fladd+3)^0,c
 11761   002118  EFDB  F011         	goto	i1l801
 11762   00211C                     i1l8074:
 11763   00211C  500B               	movf	i1___fladd@a^0,w,c
 11764   00211E  2607               	addwf	i1___fladd@b^0,f,c
 11765   002120  500C               	movf	(i1___fladd@a+1)^0,w,c
 11766   002122  2208               	addwfc	(i1___fladd@b+1)^0,f,c
 11767   002124  500D               	movf	(i1___fladd@a+2)^0,w,c
 11768   002126  2209               	addwfc	(i1___fladd@b+2)^0,f,c
 11769   002128  500E               	movf	(i1___fladd@a+3)^0,w,c
 11770   00212A  220A               	addwfc	(i1___fladd@b+3)^0,f,c
 11771   00212C  A00A               	btfss	(i1___fladd@b+3)^0,0,c
 11772   00212E  EF9B  F010         	goto	i1u1147_21
 11773   002132  EF9D  F010         	goto	i1u1147_20
 11774   002136                     i1u1147_21:
 11775   002136  EF49  F011         	goto	i1l806
 11776   00213A                     i1u1147_20:
 11777   00213A  A016               	btfss	i1___fladd@grs^0,0,c
 11778   00213C  EFA2  F010         	goto	i1u1148_21
 11779   002140  EFA4  F010         	goto	i1u1148_20
 11780   002144                     i1u1148_21:
 11781   002144  EFAA  F010         	goto	i1l8082
 11782   002148                     i1u1148_20:
 11783   002148  90D8               	bcf	status,0,c
 11784   00214A  3016               	rrcf	i1___fladd@grs^0,w,c
 11785   00214C  0901               	iorlw	1
 11786   00214E  6E16               	movwf	i1___fladd@grs^0,c
 11787   002150  EFAC  F010         	goto	i1l8084
 11788   002154                     i1l8082:
 11789   002154  90D8               	bcf	status,0,c
 11790   002156  3216               	rrcf	i1___fladd@grs^0,f,c
 11791   002158                     i1l8084:
 11792   002158  A007               	btfss	i1___fladd@b^0,0,c
 11793   00215A  EFB1  F010         	goto	i1u1149_21
 11794   00215E  EFB3  F010         	goto	i1u1149_20
 11795   002162                     i1u1149_21:
 11796   002162  EFB4  F010         	goto	i1l8088
 11797   002166                     i1u1149_20:
 11798   002166  8E16               	bsf	i1___fladd@grs^0,7,c
 11799   002168                     i1l8088:
 11800   002168  340A               	rlcf	(i1___fladd@b+3)^0,w,c
 11801   00216A  320A               	rrcf	(i1___fladd@b+3)^0,f,c
 11802   00216C  3209               	rrcf	(i1___fladd@b+2)^0,f,c
 11803   00216E  3208               	rrcf	(i1___fladd@b+1)^0,f,c
 11804   002170  3207               	rrcf	i1___fladd@b^0,f,c
 11805   002172  2A15               	incf	i1___fladd@bexp^0,f,c
 11806   002174  EF49  F011         	goto	i1l806
 11807   002178                     i1l8092:
 11808   002178  500B               	movf	i1___fladd@a^0,w,c
 11809   00217A  5C07               	subwf	i1___fladd@b^0,w,c
 11810   00217C  500C               	movf	(i1___fladd@a+1)^0,w,c
 11811   00217E  5808               	subwfb	(i1___fladd@b+1)^0,w,c
 11812   002180  500D               	movf	(i1___fladd@a+2)^0,w,c
 11813   002182  5809               	subwfb	(i1___fladd@b+2)^0,w,c
 11814   002184  500A               	movf	(i1___fladd@b+3)^0,w,c
 11815   002186  0A80               	xorlw	128
 11816   002188  6E0F               	movwf	??i1___fladd^0,c
 11817   00218A  500E               	movf	(i1___fladd@a+3)^0,w,c
 11818   00218C  0A80               	xorlw	128
 11819   00218E  580F               	subwfb	??i1___fladd^0,w,c
 11820   002190  B0D8               	btfsc	status,0,c
 11821   002192  EFCD  F010         	goto	i1u1150_21
 11822   002196  EFCF  F010         	goto	i1u1150_20
 11823   00219A                     i1u1150_21:
 11824   00219A  EFFA  F010         	goto	i1l8102
 11825   00219E                     i1u1150_20:
 11826   00219E  5007               	movf	i1___fladd@b^0,w,c
 11827   0021A0  5C0B               	subwf	i1___fladd@a^0,w,c
 11828   0021A2  6E0F               	movwf	??i1___fladd^0,c
 11829   0021A4  5008               	movf	(i1___fladd@b+1)^0,w,c
 11830   0021A6  580C               	subwfb	(i1___fladd@a+1)^0,w,c
 11831   0021A8  6E10               	movwf	(??i1___fladd+1)^0,c
 11832   0021AA  5009               	movf	(i1___fladd@b+2)^0,w,c
 11833   0021AC  580D               	subwfb	(i1___fladd@a+2)^0,w,c
 11834   0021AE  6E11               	movwf	(??i1___fladd+2)^0,c
 11835   0021B0  500A               	movf	(i1___fladd@b+3)^0,w,c
 11836   0021B2  580E               	subwfb	(i1___fladd@a+3)^0,w,c
 11837   0021B4  6E12               	movwf	(??i1___fladd+3)^0,c
 11838   0021B6  0EFF               	movlw	255
 11839   0021B8  240F               	addwf	??i1___fladd^0,w,c
 11840   0021BA  6E07               	movwf	i1___fladd@b^0,c
 11841   0021BC  0EFF               	movlw	255
 11842   0021BE  2010               	addwfc	(??i1___fladd+1)^0,w,c
 11843   0021C0  6E08               	movwf	(i1___fladd@b+1)^0,c
 11844   0021C2  0EFF               	movlw	255
 11845   0021C4  2011               	addwfc	(??i1___fladd+2)^0,w,c
 11846   0021C6  6E09               	movwf	(i1___fladd@b+2)^0,c
 11847   0021C8  0EFF               	movlw	255
 11848   0021CA  2012               	addwfc	(??i1___fladd+3)^0,w,c
 11849   0021CC  6E0A               	movwf	(i1___fladd@b+3)^0,c
 11850   0021CE  0E80               	movlw	128
 11851   0021D0  1A13               	xorwf	i1___fladd@signs^0,f,c
 11852   0021D2  6C16               	negf	i1___fladd@grs^0,c
 11853   0021D4  5016               	movf	i1___fladd@grs^0,w,c
 11854   0021D6  A4D8               	btfss	status,2,c
 11855   0021D8  EFF0  F010         	goto	i1u1151_21
 11856   0021DC  EFF2  F010         	goto	i1u1151_20
 11857   0021E0                     i1u1151_21:
 11858   0021E0  EF02  F011         	goto	i1l809
 11859   0021E4                     i1u1151_20:
 11860   0021E4  0E01               	movlw	1
 11861   0021E6  2607               	addwf	i1___fladd@b^0,f,c
 11862   0021E8  0E00               	movlw	0
 11863   0021EA  2208               	addwfc	(i1___fladd@b+1)^0,f,c
 11864   0021EC  2209               	addwfc	(i1___fladd@b+2)^0,f,c
 11865   0021EE  220A               	addwfc	(i1___fladd@b+3)^0,f,c
 11866   0021F0  EF02  F011         	goto	i1l809
 11867   0021F4                     i1l8102:
 11868   0021F4  500B               	movf	i1___fladd@a^0,w,c
 11869   0021F6  5E07               	subwf	i1___fladd@b^0,f,c
 11870   0021F8  500C               	movf	(i1___fladd@a+1)^0,w,c
 11871   0021FA  5A08               	subwfb	(i1___fladd@b+1)^0,f,c
 11872   0021FC  500D               	movf	(i1___fladd@a+2)^0,w,c
 11873   0021FE  5A09               	subwfb	(i1___fladd@b+2)^0,f,c
 11874   002200  500E               	movf	(i1___fladd@a+3)^0,w,c
 11875   002202  5A0A               	subwfb	(i1___fladd@b+3)^0,f,c
 11876   002204                     i1l809:
 11877   002204  5007               	movf	i1___fladd@b^0,w,c
 11878   002206  1008               	iorwf	(i1___fladd@b+1)^0,w,c
 11879   002208  1009               	iorwf	(i1___fladd@b+2)^0,w,c
 11880   00220A  100A               	iorwf	(i1___fladd@b+3)^0,w,c
 11881   00220C  A4D8               	btfss	status,2,c
 11882   00220E  EF0B  F011         	goto	i1u1152_21
 11883   002212  EF0D  F011         	goto	i1u1152_20
 11884   002216                     i1u1152_21:
 11885   002216  EF42  F011         	goto	i1l8126
 11886   00221A                     i1u1152_20:
 11887   00221A  5016               	movf	i1___fladd@grs^0,w,c
 11888   00221C  A4D8               	btfss	status,2,c
 11889   00221E  EF13  F011         	goto	i1u1153_21
 11890   002222  EF15  F011         	goto	i1u1153_20
 11891   002226                     i1u1153_21:
 11892   002226  EF42  F011         	goto	i1l8126
 11893   00222A                     i1u1153_20:
 11894   00222A  0E00               	movlw	0
 11895   00222C  6E07               	movwf	?i1___fladd^0,c
 11896   00222E  0E00               	movlw	0
 11897   002230  6E08               	movwf	(?i1___fladd+1)^0,c
 11898   002232  0E00               	movlw	0
 11899   002234  6E09               	movwf	(?i1___fladd+2)^0,c
 11900   002236  0E00               	movlw	0
 11901   002238  6E0A               	movwf	(?i1___fladd+3)^0,c
 11902   00223A  EFDB  F011         	goto	i1l801
 11903   00223E                     i1l8110:
 11904   00223E  90D8               	bcf	status,0,c
 11905   002240  3607               	rlcf	i1___fladd@b^0,f,c
 11906   002242  3608               	rlcf	(i1___fladd@b+1)^0,f,c
 11907   002244  3609               	rlcf	(i1___fladd@b+2)^0,f,c
 11908   002246  360A               	rlcf	(i1___fladd@b+3)^0,f,c
 11909   002248  AE16               	btfss	i1___fladd@grs^0,7,c
 11910   00224A  EF29  F011         	goto	i1u1154_21
 11911   00224E  EF2B  F011         	goto	i1u1154_20
 11912   002252                     i1u1154_21:
 11913   002252  EF2C  F011         	goto	i1l8116
 11914   002256                     i1u1154_20:
 11915   002256  8007               	bsf	i1___fladd@b^0,0,c
 11916   002258                     i1l8116:
 11917   002258  A016               	btfss	i1___fladd@grs^0,0,c
 11918   00225A  EF31  F011         	goto	i1u1155_21
 11919   00225E  EF33  F011         	goto	i1u1155_20
 11920   002262                     i1u1155_21:
 11921   002262  EF37  F011         	goto	i1l8120
 11922   002266                     i1u1155_20:
 11923   002266  80D8               	bsf	status,0,c
 11924   002268  3616               	rlcf	i1___fladd@grs^0,f,c
 11925   00226A  EF39  F011         	goto	i1l8122
 11926   00226E                     i1l8120:
 11927   00226E  90D8               	bcf	status,0,c
 11928   002270  3616               	rlcf	i1___fladd@grs^0,f,c
 11929   002272                     i1l8122:
 11930   002272  5015               	movf	i1___fladd@bexp^0,w,c
 11931   002274  B4D8               	btfsc	status,2,c
 11932   002276  EF3F  F011         	goto	i1u1156_21
 11933   00227A  EF41  F011         	goto	i1u1156_20
 11934   00227E                     i1u1156_21:
 11935   00227E  EF42  F011         	goto	i1l8126
 11936   002282                     i1u1156_20:
 11937   002282  0615               	decf	i1___fladd@bexp^0,f,c
 11938   002284                     i1l8126:
 11939   002284  AE09               	btfss	(i1___fladd@b+2)^0,7,c
 11940   002286  EF47  F011         	goto	i1u1157_21
 11941   00228A  EF49  F011         	goto	i1u1157_20
 11942   00228E                     i1u1157_21:
 11943   00228E  EF1F  F011         	goto	i1l8110
 11944   002292                     i1u1157_20:
 11945   002292                     i1l806:
 11946   002292  6A14               	clrf	i1___fladd@aexp^0,c
 11947   002294  AE16               	btfss	i1___fladd@grs^0,7,c
 11948   002296  EF4F  F011         	goto	i1u1158_21
 11949   00229A  EF51  F011         	goto	i1u1158_20
 11950   00229E                     i1u1158_21:
 11951   00229E  EF69  F011         	goto	i1l818
 11952   0022A2                     i1u1158_20:
 11953   0022A2  C016  F00F         	movff	i1___fladd@grs,??i1___fladd
 11954   0022A6  0E7F               	movlw	127
 11955   0022A8  160F               	andwf	??i1___fladd^0,f,c
 11956   0022AA  B4D8               	btfsc	status,2,c
 11957   0022AC  EF5A  F011         	goto	i1u1159_21
 11958   0022B0  EF5C  F011         	goto	i1u1159_20
 11959   0022B4                     i1u1159_21:
 11960   0022B4  EF60  F011         	goto	i1l819
 11961   0022B8                     i1u1159_20:
 11962   0022B8                     i1l8130:
 11963   0022B8  0E01               	movlw	1
 11964   0022BA  6E14               	movwf	i1___fladd@aexp^0,c
 11965   0022BC  EF69  F011         	goto	i1l818
 11966   0022C0                     i1l819:
 11967   0022C0  A007               	btfss	i1___fladd@b^0,0,c
 11968   0022C2  EF65  F011         	goto	i1u1160_21
 11969   0022C6  EF67  F011         	goto	i1u1160_20
 11970   0022CA                     i1u1160_21:
 11971   0022CA  EF69  F011         	goto	i1l818
 11972   0022CE                     i1u1160_20:
 11973   0022CE  EF5C  F011         	goto	i1l8130
 11974   0022D2                     i1l818:
 11975   0022D2  5014               	movf	i1___fladd@aexp^0,w,c
 11976   0022D4  B4D8               	btfsc	status,2,c
 11977   0022D6  EF6F  F011         	goto	i1u1161_21
 11978   0022DA  EF71  F011         	goto	i1u1161_20
 11979   0022DE                     i1u1161_21:
 11980   0022DE  EF9C  F011         	goto	i1l8142
 11981   0022E2                     i1u1161_20:
 11982   0022E2  0E01               	movlw	1
 11983   0022E4  2607               	addwf	i1___fladd@b^0,f,c
 11984   0022E6  0E00               	movlw	0
 11985   0022E8  2208               	addwfc	(i1___fladd@b+1)^0,f,c
 11986   0022EA  2209               	addwfc	(i1___fladd@b+2)^0,f,c
 11987   0022EC  220A               	addwfc	(i1___fladd@b+3)^0,f,c
 11988   0022EE  A00A               	btfss	(i1___fladd@b+3)^0,0,c
 11989   0022F0  EF7C  F011         	goto	i1u1162_21
 11990   0022F4  EF7E  F011         	goto	i1u1162_20
 11991   0022F8                     i1u1162_21:
 11992   0022F8  EF9C  F011         	goto	i1l8142
 11993   0022FC                     i1u1162_20:
 11994   0022FC  C007  F00F         	movff	i1___fladd@b,??i1___fladd
 11995   002300  C008  F010         	movff	i1___fladd@b+1,??i1___fladd+1
 11996   002304  C009  F011         	movff	i1___fladd@b+2,??i1___fladd+2
 11997   002308  C00A  F012         	movff	i1___fladd@b+3,??i1___fladd+3
 11998   00230C  3412               	rlcf	(??i1___fladd+3)^0,w,c
 11999   00230E  3212               	rrcf	(??i1___fladd+3)^0,f,c
 12000   002310  3211               	rrcf	(??i1___fladd+2)^0,f,c
 12001   002312  3210               	rrcf	(??i1___fladd+1)^0,f,c
 12002   002314  320F               	rrcf	??i1___fladd^0,f,c
 12003   002316  C00F  F007         	movff	??i1___fladd,i1___fladd@b
 12004   00231A  C010  F008         	movff	??i1___fladd+1,i1___fladd@b+1
 12005   00231E  C011  F009         	movff	??i1___fladd+2,i1___fladd@b+2
 12006   002322  C012  F00A         	movff	??i1___fladd+3,i1___fladd@b+3
 12007   002326  2815               	incf	i1___fladd@bexp^0,w,c
 12008   002328  B4D8               	btfsc	status,2,c
 12009   00232A  EF99  F011         	goto	i1u1163_21
 12010   00232E  EF9B  F011         	goto	i1u1163_20
 12011   002332                     i1u1163_21:
 12012   002332  EF9C  F011         	goto	i1l8142
 12013   002336                     i1u1163_20:
 12014   002336  2A15               	incf	i1___fladd@bexp^0,f,c
 12015   002338                     i1l8142:
 12016   002338  2815               	incf	i1___fladd@bexp^0,w,c
 12017   00233A  B4D8               	btfsc	status,2,c
 12018   00233C  EFA2  F011         	goto	i1u1164_21
 12019   002340  EFA4  F011         	goto	i1u1164_20
 12020   002344                     i1u1164_21:
 12021   002344  EFAC  F011         	goto	i1l8146
 12022   002348                     i1u1164_20:
 12023   002348  5015               	movf	i1___fladd@bexp^0,w,c
 12024   00234A  A4D8               	btfss	status,2,c
 12025   00234C  EFAA  F011         	goto	i1u1165_21
 12026   002350  EFAC  F011         	goto	i1u1165_20
 12027   002354                     i1u1165_21:
 12028   002354  EFBD  F011         	goto	i1l825
 12029   002358                     i1u1165_20:
 12030   002358                     i1l8146:
 12031   002358  0E00               	movlw	0
 12032   00235A  6E07               	movwf	i1___fladd@b^0,c
 12033   00235C  0E00               	movlw	0
 12034   00235E  6E08               	movwf	(i1___fladd@b+1)^0,c
 12035   002360  0E00               	movlw	0
 12036   002362  6E09               	movwf	(i1___fladd@b+2)^0,c
 12037   002364  0E00               	movlw	0
 12038   002366  6E0A               	movwf	(i1___fladd@b+3)^0,c
 12039   002368  5015               	movf	i1___fladd@bexp^0,w,c
 12040   00236A  A4D8               	btfss	status,2,c
 12041   00236C  EFBA  F011         	goto	i1u1166_21
 12042   002370  EFBC  F011         	goto	i1u1166_20
 12043   002374                     i1u1166_21:
 12044   002374  EFBD  F011         	goto	i1l825
 12045   002378                     i1u1166_20:
 12046   002378  6A13               	clrf	i1___fladd@signs^0,c
 12047   00237A                     i1l825:
 12048   00237A  A015               	btfss	i1___fladd@bexp^0,0,c
 12049   00237C  EFC2  F011         	goto	i1u1167_21
 12050   002380  EFC4  F011         	goto	i1u1167_20
 12051   002384                     i1u1167_21:
 12052   002384  EFC7  F011         	goto	i1l8152
 12053   002388                     i1u1167_20:
 12054   002388  8E09               	bsf	(i1___fladd@b+2)^0,7,c
 12055   00238A  EFC8  F011         	goto	i1l8154
 12056   00238E                     i1l8152:
 12057   00238E  9E09               	bcf	(i1___fladd@b+2)^0,7,c
 12058   002390                     i1l8154:
 12059   002390  90D8               	bcf	status,0,c
 12060   002392  3015               	rrcf	i1___fladd@bexp^0,w,c
 12061   002394  6E0A               	movwf	(i1___fladd@b+3)^0,c
 12062   002396  AE13               	btfss	i1___fladd@signs^0,7,c
 12063   002398  EFD0  F011         	goto	i1u1168_21
 12064   00239C  EFD2  F011         	goto	i1u1168_20
 12065   0023A0                     i1u1168_21:
 12066   0023A0  EFD3  F011         	goto	i1l8160
 12067   0023A4                     i1u1168_20:
 12068   0023A4  8E0A               	bsf	(i1___fladd@b+3)^0,7,c
 12069   0023A6                     i1l8160:
 12070   0023A6  C007  F007         	movff	i1___fladd@b,?i1___fladd
 12071   0023AA  C008  F008         	movff	i1___fladd@b+1,?i1___fladd+1
 12072   0023AE  C009  F009         	movff	i1___fladd@b+2,?i1___fladd+2
 12073   0023B2  C00A  F00A         	movff	i1___fladd@b+3,?i1___fladd+3
 12074   0023B6                     i1l801:
 12075   0023B6  0012               	return		;funcret
 12076   0023B8                     __end_ofi1___fladd:
 12077                           	callstack 0
 12078                           
 12079 ;; *************** function i1___flneg *****************
 12080 ;; Defined at:
 12081 ;;		line 15 in file "C:\Program Files\Microchip\xc8\v3.00\pic\sources\c99\common\flneg.c"
 12082 ;; Parameters:    Size  Location     Type
 12083 ;;  f1              4    6[COMRAM] unsigned char 
 12084 ;; Auto vars:     Size  Location     Type
 12085 ;;		None
 12086 ;; Return value:  Size  Location     Type
 12087 ;;                  4    6[COMRAM] unsigned char 
 12088 ;; Registers used:
 12089 ;;		wreg, status,2, status,0
 12090 ;; Tracked objects:
 12091 ;;		On entry : 0/0
 12092 ;;		On exit  : 0/0
 12093 ;;		Unchanged: 0/0
 12094 ;; Data sizes:     COMRAM   BANK0   BANK1   BANK2   BANK3   BANK4   BANK5
 12095 ;;      Params:         4       0       0       0       0       0       0
 12096 ;;      Locals:         0       0       0       0       0       0       0
 12097 ;;      Temps:          0       0       0       0       0       0       0
 12098 ;;      Totals:         4       0       0       0       0       0       0
 12099 ;;Total ram usage:        4 bytes
 12100 ;; Hardware stack levels used: 1
 12101 ;; Hardware stack levels required when called: 3
 12102 ;; This function calls:
 12103 ;;		Nothing
 12104 ;; This function is called by:
 12105 ;;		i1_efgtoa
 12106 ;; This function uses a non-reentrant model
 12107 ;;
 12108                           
 12109                           	psect	text50
 12110   005166                     __ptext50:
 12111                           	callstack 0
 12112   005166                     i1___flneg:
 12113                           	callstack 11
 12114   005166  5007               	movf	i1___flneg@f1^0,w,c
 12115   005168  1008               	iorwf	(i1___flneg@f1+1)^0,w,c
 12116   00516A  1009               	iorwf	(i1___flneg@f1+2)^0,w,c
 12117   00516C  100A               	iorwf	(i1___flneg@f1+3)^0,w,c
 12118   00516E  B4D8               	btfsc	status,2,c
 12119   005170  EFBC  F028         	goto	i1u1183_21
 12120   005174  EFBE  F028         	goto	i1u1183_20
 12121   005178                     i1u1183_21:
 12122   005178  EFC6  F028         	goto	i1l8242
 12123   00517C                     i1u1183_20:
 12124   00517C  0E00               	movlw	0
 12125   00517E  1A07               	xorwf	i1___flneg@f1^0,f,c
 12126   005180  0E00               	movlw	0
 12127   005182  1A08               	xorwf	(i1___flneg@f1+1)^0,f,c
 12128   005184  0E00               	movlw	0
 12129   005186  1A09               	xorwf	(i1___flneg@f1+2)^0,f,c
 12130   005188  0E80               	movlw	128
 12131   00518A  1A0A               	xorwf	(i1___flneg@f1+3)^0,f,c
 12132   00518C                     i1l8242:
 12133   00518C  C007  F007         	movff	i1___flneg@f1,?i1___flneg
 12134   005190  C008  F008         	movff	i1___flneg@f1+1,?i1___flneg+1
 12135   005194  C009  F009         	movff	i1___flneg@f1+2,?i1___flneg+2
 12136   005198  C00A  F00A         	movff	i1___flneg@f1+3,?i1___flneg+3
 12137   00519C  0012               	return		;funcret
 12138   00519E                     __end_ofi1___flneg:
 12139                           	callstack 0
 12140                           
 12141 ;; *************** function i1___flmul *****************
 12142 ;; Defined at:
 12143 ;;		line 8 in file "C:\Program Files\Microchip\xc8\v3.00\pic\sources\c99\common\sprcmul.c"
 12144 ;; Parameters:    Size  Location     Type
 12145 ;;  b               4    6[COMRAM] unsigned char 
 12146 ;;  a               4   10[COMRAM] unsigned char 
 12147 ;; Auto vars:     Size  Location     Type
 12148 ;;  prod            4   25[COMRAM] struct .
 12149 ;;  grs             4   21[COMRAM] unsigned long 
 12150 ;;  temp            2   29[COMRAM] struct .
 12151 ;;  bexp            1   20[COMRAM] unsigned char 
 12152 ;;  aexp            1   19[COMRAM] unsigned char 
 12153 ;;  sign            1   18[COMRAM] unsigned char 
 12154 ;; Return value:  Size  Location     Type
 12155 ;;                  4    6[COMRAM] unsigned char 
 12156 ;; Registers used:
 12157 ;;		wreg, status,2, status,0, prodl, prodh
 12158 ;; Tracked objects:
 12159 ;;		On entry : 0/0
 12160 ;;		On exit  : 0/0
 12161 ;;		Unchanged: 0/0
 12162 ;; Data sizes:     COMRAM   BANK0   BANK1   BANK2   BANK3   BANK4   BANK5
 12163 ;;      Params:         8       0       0       0       0       0       0
 12164 ;;      Locals:        13       0       0       0       0       0       0
 12165 ;;      Temps:          4       0       0       0       0       0       0
 12166 ;;      Totals:        25       0       0       0       0       0       0
 12167 ;;Total ram usage:       25 bytes
 12168 ;; Hardware stack levels used: 1
 12169 ;; Hardware stack levels required when called: 3
 12170 ;; This function calls:
 12171 ;;		Nothing
 12172 ;; This function is called by:
 12173 ;;		i1_efgtoa
 12174 ;; This function uses a non-reentrant model
 12175 ;;
 12176                           
 12177                           	psect	text51
 12178   0027E0                     __ptext51:
 12179                           	callstack 0
 12180   0027E0                     i1___flmul:
 12181                           	callstack 11
 12182   0027E0  500A               	movf	(i1___flmul@b+3)^0,w,c
 12183   0027E2  0B80               	andlw	128
 12184   0027E4  6E13               	movwf	i1___flmul@sign^0,c
 12185   0027E6  500A               	movf	(i1___flmul@b+3)^0,w,c
 12186   0027E8  240A               	addwf	(i1___flmul@b+3)^0,w,c
 12187   0027EA  6E15               	movwf	i1___flmul@bexp^0,c
 12188   0027EC  AE09               	btfss	(i1___flmul@b+2)^0,7,c
 12189   0027EE  EFFB  F013         	goto	i1u1214_21
 12190   0027F2  EFFD  F013         	goto	i1u1214_20
 12191   0027F6                     i1u1214_21:
 12192   0027F6  EFFE  F013         	goto	i1l8438
 12193   0027FA                     i1u1214_20:
 12194   0027FA  8015               	bsf	i1___flmul@bexp^0,0,c
 12195   0027FC                     i1l8438:
 12196   0027FC  5015               	movf	i1___flmul@bexp^0,w,c
 12197   0027FE  B4D8               	btfsc	status,2,c
 12198   002800  EF04  F014         	goto	i1u1215_21
 12199   002804  EF06  F014         	goto	i1u1215_20
 12200   002808                     i1u1215_21:
 12201   002808  EF19  F014         	goto	i1l8446
 12202   00280C                     i1u1215_20:
 12203   00280C  2815               	incf	i1___flmul@bexp^0,w,c
 12204   00280E  A4D8               	btfss	status,2,c
 12205   002810  EF0C  F014         	goto	i1u1216_21
 12206   002814  EF0E  F014         	goto	i1u1216_20
 12207   002818                     i1u1216_21:
 12208   002818  EF16  F014         	goto	i1l8444
 12209   00281C                     i1u1216_20:
 12210   00281C  0E00               	movlw	0
 12211   00281E  6E07               	movwf	i1___flmul@b^0,c
 12212   002820  0E00               	movlw	0
 12213   002822  6E08               	movwf	(i1___flmul@b+1)^0,c
 12214   002824  0E00               	movlw	0
 12215   002826  6E09               	movwf	(i1___flmul@b+2)^0,c
 12216   002828  0E00               	movlw	0
 12217   00282A  6E0A               	movwf	(i1___flmul@b+3)^0,c
 12218   00282C                     i1l8444:
 12219   00282C  8E09               	bsf	(i1___flmul@b+2)^0,7,c
 12220   00282E  EF21  F014         	goto	i1l8448
 12221   002832                     i1l8446:
 12222   002832  0E00               	movlw	0
 12223   002834  6E07               	movwf	i1___flmul@b^0,c
 12224   002836  0E00               	movlw	0
 12225   002838  6E08               	movwf	(i1___flmul@b+1)^0,c
 12226   00283A  0E00               	movlw	0
 12227   00283C  6E09               	movwf	(i1___flmul@b+2)^0,c
 12228   00283E  0E00               	movlw	0
 12229   002840  6E0A               	movwf	(i1___flmul@b+3)^0,c
 12230   002842                     i1l8448:
 12231   002842  500E               	movf	(i1___flmul@a+3)^0,w,c
 12232   002844  0B80               	andlw	128
 12233   002846  1A13               	xorwf	i1___flmul@sign^0,f,c
 12234   002848  500E               	movf	(i1___flmul@a+3)^0,w,c
 12235   00284A  240E               	addwf	(i1___flmul@a+3)^0,w,c
 12236   00284C  6E14               	movwf	i1___flmul@aexp^0,c
 12237   00284E  AE0D               	btfss	(i1___flmul@a+2)^0,7,c
 12238   002850  EF2C  F014         	goto	i1u1217_21
 12239   002854  EF2E  F014         	goto	i1u1217_20
 12240   002858                     i1u1217_21:
 12241   002858  EF2F  F014         	goto	i1l8456
 12242   00285C                     i1u1217_20:
 12243   00285C  8014               	bsf	i1___flmul@aexp^0,0,c
 12244   00285E                     i1l8456:
 12245   00285E  5014               	movf	i1___flmul@aexp^0,w,c
 12246   002860  B4D8               	btfsc	status,2,c
 12247   002862  EF35  F014         	goto	i1u1218_21
 12248   002866  EF37  F014         	goto	i1u1218_20
 12249   00286A                     i1u1218_21:
 12250   00286A  EF4A  F014         	goto	i1l8464
 12251   00286E                     i1u1218_20:
 12252   00286E  2814               	incf	i1___flmul@aexp^0,w,c
 12253   002870  A4D8               	btfss	status,2,c
 12254   002872  EF3D  F014         	goto	i1u1219_21
 12255   002876  EF3F  F014         	goto	i1u1219_20
 12256   00287A                     i1u1219_21:
 12257   00287A  EF47  F014         	goto	i1l8462
 12258   00287E                     i1u1219_20:
 12259   00287E  0E00               	movlw	0
 12260   002880  6E0B               	movwf	i1___flmul@a^0,c
 12261   002882  0E00               	movlw	0
 12262   002884  6E0C               	movwf	(i1___flmul@a+1)^0,c
 12263   002886  0E00               	movlw	0
 12264   002888  6E0D               	movwf	(i1___flmul@a+2)^0,c
 12265   00288A  0E00               	movlw	0
 12266   00288C  6E0E               	movwf	(i1___flmul@a+3)^0,c
 12267   00288E                     i1l8462:
 12268   00288E  8E0D               	bsf	(i1___flmul@a+2)^0,7,c
 12269   002890  EF52  F014         	goto	i1l878
 12270   002894                     i1l8464:
 12271   002894  0E00               	movlw	0
 12272   002896  6E0B               	movwf	i1___flmul@a^0,c
 12273   002898  0E00               	movlw	0
 12274   00289A  6E0C               	movwf	(i1___flmul@a+1)^0,c
 12275   00289C  0E00               	movlw	0
 12276   00289E  6E0D               	movwf	(i1___flmul@a+2)^0,c
 12277   0028A0  0E00               	movlw	0
 12278   0028A2  6E0E               	movwf	(i1___flmul@a+3)^0,c
 12279   0028A4                     i1l878:
 12280   0028A4  5014               	movf	i1___flmul@aexp^0,w,c
 12281   0028A6  B4D8               	btfsc	status,2,c
 12282   0028A8  EF58  F014         	goto	i1u1220_21
 12283   0028AC  EF5A  F014         	goto	i1u1220_20
 12284   0028B0                     i1u1220_21:
 12285   0028B0  EF62  F014         	goto	i1l8468
 12286   0028B4                     i1u1220_20:
 12287   0028B4  5015               	movf	i1___flmul@bexp^0,w,c
 12288   0028B6  A4D8               	btfss	status,2,c
 12289   0028B8  EF60  F014         	goto	i1u1221_21
 12290   0028BC  EF62  F014         	goto	i1u1221_20
 12291   0028C0                     i1u1221_21:
 12292   0028C0  EF6C  F014         	goto	i1l8472
 12293   0028C4                     i1u1221_20:
 12294   0028C4                     i1l8468:
 12295   0028C4  0E00               	movlw	0
 12296   0028C6  6E07               	movwf	?i1___flmul^0,c
 12297   0028C8  0E00               	movlw	0
 12298   0028CA  6E08               	movwf	(?i1___flmul+1)^0,c
 12299   0028CC  0E00               	movlw	0
 12300   0028CE  6E09               	movwf	(?i1___flmul+2)^0,c
 12301   0028D0  0E00               	movlw	0
 12302   0028D2  6E0A               	movwf	(?i1___flmul+3)^0,c
 12303   0028D4  EF02  F016         	goto	i1l882
 12304   0028D8                     i1l8472:
 12305   0028D8  500D               	movf	(i1___flmul@a+2)^0,w,c
 12306   0028DA  0207               	mulwf	i1___flmul@b^0,c
 12307   0028DC  CFF3 F01E          	movff	prodl,i1___flmul@temp
 12308   0028E0  CFF4 F01F          	movff	prodh,i1___flmul@temp+1
 12309   0028E4  501E               	movf	i1___flmul@temp^0,w,c
 12310   0028E6  6E16               	movwf	i1___flmul@grs^0,c
 12311   0028E8  6A17               	clrf	(i1___flmul@grs+1)^0,c
 12312   0028EA  6A18               	clrf	(i1___flmul@grs+2)^0,c
 12313   0028EC  6A19               	clrf	(i1___flmul@grs+3)^0,c
 12314   0028EE  501F               	movf	(i1___flmul@temp+1)^0,w,c
 12315   0028F0  6E1A               	movwf	i1___flmul@prod^0,c
 12316   0028F2  6A1B               	clrf	(i1___flmul@prod+1)^0,c
 12317   0028F4  6A1C               	clrf	(i1___flmul@prod+2)^0,c
 12318   0028F6  6A1D               	clrf	(i1___flmul@prod+3)^0,c
 12319   0028F8  500C               	movf	(i1___flmul@a+1)^0,w,c
 12320   0028FA  0208               	mulwf	(i1___flmul@b+1)^0,c
 12321   0028FC  CFF3 F01E          	movff	prodl,i1___flmul@temp
 12322   002900  CFF4 F01F          	movff	prodh,i1___flmul@temp+1
 12323   002904  501E               	movf	i1___flmul@temp^0,w,c
 12324   002906  2616               	addwf	i1___flmul@grs^0,f,c
 12325   002908  0E00               	movlw	0
 12326   00290A  2217               	addwfc	(i1___flmul@grs+1)^0,f,c
 12327   00290C  2218               	addwfc	(i1___flmul@grs+2)^0,f,c
 12328   00290E  2219               	addwfc	(i1___flmul@grs+3)^0,f,c
 12329   002910  501F               	movf	(i1___flmul@temp+1)^0,w,c
 12330   002912  261A               	addwf	i1___flmul@prod^0,f,c
 12331   002914  0E00               	movlw	0
 12332   002916  221B               	addwfc	(i1___flmul@prod+1)^0,f,c
 12333   002918  221C               	addwfc	(i1___flmul@prod+2)^0,f,c
 12334   00291A  221D               	addwfc	(i1___flmul@prod+3)^0,f,c
 12335   00291C  500B               	movf	i1___flmul@a^0,w,c
 12336   00291E  0209               	mulwf	(i1___flmul@b+2)^0,c
 12337   002920  CFF3 F01E          	movff	prodl,i1___flmul@temp
 12338   002924  CFF4 F01F          	movff	prodh,i1___flmul@temp+1
 12339   002928  501E               	movf	i1___flmul@temp^0,w,c
 12340   00292A  2616               	addwf	i1___flmul@grs^0,f,c
 12341   00292C  0E00               	movlw	0
 12342   00292E  2217               	addwfc	(i1___flmul@grs+1)^0,f,c
 12343   002930  2218               	addwfc	(i1___flmul@grs+2)^0,f,c
 12344   002932  2219               	addwfc	(i1___flmul@grs+3)^0,f,c
 12345   002934  501F               	movf	(i1___flmul@temp+1)^0,w,c
 12346   002936  261A               	addwf	i1___flmul@prod^0,f,c
 12347   002938  0E00               	movlw	0
 12348   00293A  221B               	addwfc	(i1___flmul@prod+1)^0,f,c
 12349   00293C  221C               	addwfc	(i1___flmul@prod+2)^0,f,c
 12350   00293E  221D               	addwfc	(i1___flmul@prod+3)^0,f,c
 12351   002940  C018  F019         	movff	i1___flmul@grs+2,i1___flmul@grs+3
 12352   002944  C017  F018         	movff	i1___flmul@grs+1,i1___flmul@grs+2
 12353   002948  C016  F017         	movff	i1___flmul@grs,i1___flmul@grs+1
 12354   00294C  6A16               	clrf	i1___flmul@grs^0,c
 12355   00294E  500B               	movf	i1___flmul@a^0,w,c
 12356   002950  0208               	mulwf	(i1___flmul@b+1)^0,c
 12357   002952  CFF3 F01E          	movff	prodl,i1___flmul@temp
 12358   002956  CFF4 F01F          	movff	prodh,i1___flmul@temp+1
 12359   00295A  501E               	movf	i1___flmul@temp^0,w,c
 12360   00295C  2616               	addwf	i1___flmul@grs^0,f,c
 12361   00295E  501F               	movf	(i1___flmul@temp+1)^0,w,c
 12362   002960  2217               	addwfc	(i1___flmul@grs+1)^0,f,c
 12363   002962  0E00               	movlw	0
 12364   002964  2218               	addwfc	(i1___flmul@grs+2)^0,f,c
 12365   002966  0E00               	movlw	0
 12366   002968  2219               	addwfc	(i1___flmul@grs+3)^0,f,c
 12367   00296A  500C               	movf	(i1___flmul@a+1)^0,w,c
 12368   00296C  0207               	mulwf	i1___flmul@b^0,c
 12369   00296E  CFF3 F01E          	movff	prodl,i1___flmul@temp
 12370   002972  CFF4 F01F          	movff	prodh,i1___flmul@temp+1
 12371   002976  501E               	movf	i1___flmul@temp^0,w,c
 12372   002978  2616               	addwf	i1___flmul@grs^0,f,c
 12373   00297A  501F               	movf	(i1___flmul@temp+1)^0,w,c
 12374   00297C  2217               	addwfc	(i1___flmul@grs+1)^0,f,c
 12375   00297E  0E00               	movlw	0
 12376   002980  2218               	addwfc	(i1___flmul@grs+2)^0,f,c
 12377   002982  0E00               	movlw	0
 12378   002984  2219               	addwfc	(i1___flmul@grs+3)^0,f,c
 12379   002986  C018  F019         	movff	i1___flmul@grs+2,i1___flmul@grs+3
 12380   00298A  C017  F018         	movff	i1___flmul@grs+1,i1___flmul@grs+2
 12381   00298E  C016  F017         	movff	i1___flmul@grs,i1___flmul@grs+1
 12382   002992  6A16               	clrf	i1___flmul@grs^0,c
 12383   002994  500B               	movf	i1___flmul@a^0,w,c
 12384   002996  0207               	mulwf	i1___flmul@b^0,c
 12385   002998  CFF3 F01E          	movff	prodl,i1___flmul@temp
 12386   00299C  CFF4 F01F          	movff	prodh,i1___flmul@temp+1
 12387   0029A0  501E               	movf	i1___flmul@temp^0,w,c
 12388   0029A2  2616               	addwf	i1___flmul@grs^0,f,c
 12389   0029A4  501F               	movf	(i1___flmul@temp+1)^0,w,c
 12390   0029A6  2217               	addwfc	(i1___flmul@grs+1)^0,f,c
 12391   0029A8  0E00               	movlw	0
 12392   0029AA  2218               	addwfc	(i1___flmul@grs+2)^0,f,c
 12393   0029AC  0E00               	movlw	0
 12394   0029AE  2219               	addwfc	(i1___flmul@grs+3)^0,f,c
 12395   0029B0  500D               	movf	(i1___flmul@a+2)^0,w,c
 12396   0029B2  0208               	mulwf	(i1___flmul@b+1)^0,c
 12397   0029B4  CFF3 F01E          	movff	prodl,i1___flmul@temp
 12398   0029B8  CFF4 F01F          	movff	prodh,i1___flmul@temp+1
 12399   0029BC  501E               	movf	i1___flmul@temp^0,w,c
 12400   0029BE  261A               	addwf	i1___flmul@prod^0,f,c
 12401   0029C0  501F               	movf	(i1___flmul@temp+1)^0,w,c
 12402   0029C2  221B               	addwfc	(i1___flmul@prod+1)^0,f,c
 12403   0029C4  0E00               	movlw	0
 12404   0029C6  221C               	addwfc	(i1___flmul@prod+2)^0,f,c
 12405   0029C8  0E00               	movlw	0
 12406   0029CA  221D               	addwfc	(i1___flmul@prod+3)^0,f,c
 12407   0029CC  500C               	movf	(i1___flmul@a+1)^0,w,c
 12408   0029CE  0209               	mulwf	(i1___flmul@b+2)^0,c
 12409   0029D0  CFF3 F01E          	movff	prodl,i1___flmul@temp
 12410   0029D4  CFF4 F01F          	movff	prodh,i1___flmul@temp+1
 12411   0029D8  501E               	movf	i1___flmul@temp^0,w,c
 12412   0029DA  261A               	addwf	i1___flmul@prod^0,f,c
 12413   0029DC  501F               	movf	(i1___flmul@temp+1)^0,w,c
 12414   0029DE  221B               	addwfc	(i1___flmul@prod+1)^0,f,c
 12415   0029E0  0E00               	movlw	0
 12416   0029E2  221C               	addwfc	(i1___flmul@prod+2)^0,f,c
 12417   0029E4  0E00               	movlw	0
 12418   0029E6  221D               	addwfc	(i1___flmul@prod+3)^0,f,c
 12419   0029E8  500D               	movf	(i1___flmul@a+2)^0,w,c
 12420   0029EA  0209               	mulwf	(i1___flmul@b+2)^0,c
 12421   0029EC  CFF3 F01E          	movff	prodl,i1___flmul@temp
 12422   0029F0  CFF4 F01F          	movff	prodh,i1___flmul@temp+1
 12423   0029F4  501E               	movf	i1___flmul@temp^0,w,c
 12424   0029F6  6E0F               	movwf	??i1___flmul^0,c
 12425   0029F8  501F               	movf	(i1___flmul@temp+1)^0,w,c
 12426   0029FA  6E10               	movwf	(??i1___flmul+1)^0,c
 12427   0029FC  6A11               	clrf	(??i1___flmul+2)^0,c
 12428   0029FE  6A12               	clrf	(??i1___flmul+3)^0,c
 12429   002A00  C011  F012         	movff	??i1___flmul+2,??i1___flmul+3
 12430   002A04  C010  F011         	movff	??i1___flmul+1,??i1___flmul+2
 12431   002A08  C00F  F010         	movff	??i1___flmul,??i1___flmul+1
 12432   002A0C  6A0F               	clrf	??i1___flmul^0,c
 12433   002A0E  500F               	movf	??i1___flmul^0,w,c
 12434   002A10  261A               	addwf	i1___flmul@prod^0,f,c
 12435   002A12  5010               	movf	(??i1___flmul+1)^0,w,c
 12436   002A14  221B               	addwfc	(i1___flmul@prod+1)^0,f,c
 12437   002A16  5011               	movf	(??i1___flmul+2)^0,w,c
 12438   002A18  221C               	addwfc	(i1___flmul@prod+2)^0,f,c
 12439   002A1A  5012               	movf	(??i1___flmul+3)^0,w,c
 12440   002A1C  221D               	addwfc	(i1___flmul@prod+3)^0,f,c
 12441   002A1E  C016  F00F         	movff	i1___flmul@grs,??i1___flmul
 12442   002A22  C017  F010         	movff	i1___flmul@grs+1,??i1___flmul+1
 12443   002A26  C018  F011         	movff	i1___flmul@grs+2,??i1___flmul+2
 12444   002A2A  C019  F012         	movff	i1___flmul@grs+3,??i1___flmul+3
 12445   002A2E  0E19               	movlw	25
 12446   002A30  EF1F  F015         	goto	i1u1222_20
 12447   002A34                     i1u1222_25:
 12448   002A34  90D8               	bcf	status,0,c
 12449   002A36  3212               	rrcf	(??i1___flmul+3)^0,f,c
 12450   002A38  3211               	rrcf	(??i1___flmul+2)^0,f,c
 12451   002A3A  3210               	rrcf	(??i1___flmul+1)^0,f,c
 12452   002A3C  320F               	rrcf	??i1___flmul^0,f,c
 12453   002A3E                     i1u1222_20:
 12454   002A3E  2EE8               	decfsz	wreg,f,c
 12455   002A40  EF1A  F015         	goto	i1u1222_25
 12456   002A44  500F               	movf	??i1___flmul^0,w,c
 12457   002A46  261A               	addwf	i1___flmul@prod^0,f,c
 12458   002A48  5010               	movf	(??i1___flmul+1)^0,w,c
 12459   002A4A  221B               	addwfc	(i1___flmul@prod+1)^0,f,c
 12460   002A4C  5011               	movf	(??i1___flmul+2)^0,w,c
 12461   002A4E  221C               	addwfc	(i1___flmul@prod+2)^0,f,c
 12462   002A50  5012               	movf	(??i1___flmul+3)^0,w,c
 12463   002A52  221D               	addwfc	(i1___flmul@prod+3)^0,f,c
 12464   002A54  C018  F019         	movff	i1___flmul@grs+2,i1___flmul@grs+3
 12465   002A58  C017  F018         	movff	i1___flmul@grs+1,i1___flmul@grs+2
 12466   002A5C  C016  F017         	movff	i1___flmul@grs,i1___flmul@grs+1
 12467   002A60  6A16               	clrf	i1___flmul@grs^0,c
 12468   002A62  5014               	movf	i1___flmul@aexp^0,w,c
 12469   002A64  C015  F00F         	movff	i1___flmul@bexp,??i1___flmul
 12470   002A68  6A10               	clrf	(??i1___flmul+1)^0,c
 12471   002A6A  260F               	addwf	??i1___flmul^0,f,c
 12472   002A6C  0E00               	movlw	0
 12473   002A6E  2210               	addwfc	(??i1___flmul+1)^0,f,c
 12474   002A70  0E82               	movlw	130
 12475   002A72  240F               	addwf	??i1___flmul^0,w,c
 12476   002A74  6E1E               	movwf	i1___flmul@temp^0,c
 12477   002A76  0EFF               	movlw	255
 12478   002A78  2010               	addwfc	(??i1___flmul+1)^0,w,c
 12479   002A7A  6E1F               	movwf	(i1___flmul@temp+1)^0,c
 12480   002A7C  EF55  F015         	goto	i1l8520
 12481   002A80                     i1l8514:
 12482   002A80  90D8               	bcf	status,0,c
 12483   002A82  361A               	rlcf	i1___flmul@prod^0,f,c
 12484   002A84  361B               	rlcf	(i1___flmul@prod+1)^0,f,c
 12485   002A86  361C               	rlcf	(i1___flmul@prod+2)^0,f,c
 12486   002A88  361D               	rlcf	(i1___flmul@prod+3)^0,f,c
 12487   002A8A  AE19               	btfss	(i1___flmul@grs+3)^0,7,c
 12488   002A8C  EF4A  F015         	goto	i1u1223_21
 12489   002A90  EF4C  F015         	goto	i1u1223_20
 12490   002A94                     i1u1223_21:
 12491   002A94  EF4D  F015         	goto	i1l885
 12492   002A98                     i1u1223_20:
 12493   002A98  801A               	bsf	i1___flmul@prod^0,0,c
 12494   002A9A                     i1l885:
 12495   002A9A  90D8               	bcf	status,0,c
 12496   002A9C  3616               	rlcf	i1___flmul@grs^0,f,c
 12497   002A9E  3617               	rlcf	(i1___flmul@grs+1)^0,f,c
 12498   002AA0  3618               	rlcf	(i1___flmul@grs+2)^0,f,c
 12499   002AA2  3619               	rlcf	(i1___flmul@grs+3)^0,f,c
 12500   002AA4  061E               	decf	i1___flmul@temp^0,f,c
 12501   002AA6  A0D8               	btfss	status,0,c
 12502   002AA8  061F               	decf	(i1___flmul@temp+1)^0,f,c
 12503   002AAA                     i1l8520:
 12504   002AAA  AE1C               	btfss	(i1___flmul@prod+2)^0,7,c
 12505   002AAC  EF5A  F015         	goto	i1u1224_21
 12506   002AB0  EF5C  F015         	goto	i1u1224_20
 12507   002AB4                     i1u1224_21:
 12508   002AB4  EF40  F015         	goto	i1l8514
 12509   002AB8                     i1u1224_20:
 12510   002AB8  6A14               	clrf	i1___flmul@aexp^0,c
 12511   002ABA  AE19               	btfss	(i1___flmul@grs+3)^0,7,c
 12512   002ABC  EF62  F015         	goto	i1u1225_21
 12513   002AC0  EF64  F015         	goto	i1u1225_20
 12514   002AC4                     i1u1225_21:
 12515   002AC4  EF88  F015         	goto	i1l887
 12516   002AC8                     i1u1225_20:
 12517   002AC8  0EFF               	movlw	255
 12518   002ACA  1416               	andwf	i1___flmul@grs^0,w,c
 12519   002ACC  6E0F               	movwf	??i1___flmul^0,c
 12520   002ACE  0EFF               	movlw	255
 12521   002AD0  1417               	andwf	(i1___flmul@grs+1)^0,w,c
 12522   002AD2  6E10               	movwf	(??i1___flmul+1)^0,c
 12523   002AD4  0EFF               	movlw	255
 12524   002AD6  1418               	andwf	(i1___flmul@grs+2)^0,w,c
 12525   002AD8  6E11               	movwf	(??i1___flmul+2)^0,c
 12526   002ADA  0E7F               	movlw	127
 12527   002ADC  1419               	andwf	(i1___flmul@grs+3)^0,w,c
 12528   002ADE  6E12               	movwf	(??i1___flmul+3)^0,c
 12529   002AE0  500F               	movf	??i1___flmul^0,w,c
 12530   002AE2  1010               	iorwf	(??i1___flmul+1)^0,w,c
 12531   002AE4  1011               	iorwf	(??i1___flmul+2)^0,w,c
 12532   002AE6  1012               	iorwf	(??i1___flmul+3)^0,w,c
 12533   002AE8  B4D8               	btfsc	status,2,c
 12534   002AEA  EF79  F015         	goto	i1u1226_21
 12535   002AEE  EF7B  F015         	goto	i1u1226_20
 12536   002AF2                     i1u1226_21:
 12537   002AF2  EF7F  F015         	goto	i1l888
 12538   002AF6                     i1u1226_20:
 12539   002AF6                     i1l8524:
 12540   002AF6  0E01               	movlw	1
 12541   002AF8  6E14               	movwf	i1___flmul@aexp^0,c
 12542   002AFA  EF88  F015         	goto	i1l887
 12543   002AFE                     i1l888:
 12544   002AFE  A01A               	btfss	i1___flmul@prod^0,0,c
 12545   002B00  EF84  F015         	goto	i1u1227_21
 12546   002B04  EF86  F015         	goto	i1u1227_20
 12547   002B08                     i1u1227_21:
 12548   002B08  EF88  F015         	goto	i1l887
 12549   002B0C                     i1u1227_20:
 12550   002B0C  EF7B  F015         	goto	i1l8524
 12551   002B10                     i1l887:
 12552   002B10  5014               	movf	i1___flmul@aexp^0,w,c
 12553   002B12  B4D8               	btfsc	status,2,c
 12554   002B14  EF8E  F015         	goto	i1u1228_21
 12555   002B18  EF90  F015         	goto	i1u1228_20
 12556   002B1C                     i1u1228_21:
 12557   002B1C  EFB4  F015         	goto	i1l8536
 12558   002B20                     i1u1228_20:
 12559   002B20  0E01               	movlw	1
 12560   002B22  261A               	addwf	i1___flmul@prod^0,f,c
 12561   002B24  0E00               	movlw	0
 12562   002B26  221B               	addwfc	(i1___flmul@prod+1)^0,f,c
 12563   002B28  221C               	addwfc	(i1___flmul@prod+2)^0,f,c
 12564   002B2A  221D               	addwfc	(i1___flmul@prod+3)^0,f,c
 12565   002B2C  A01D               	btfss	(i1___flmul@prod+3)^0,0,c
 12566   002B2E  EF9B  F015         	goto	i1u1229_21
 12567   002B32  EF9D  F015         	goto	i1u1229_20
 12568   002B36                     i1u1229_21:
 12569   002B36  EFB4  F015         	goto	i1l8536
 12570   002B3A                     i1u1229_20:
 12571   002B3A  C01A  F00F         	movff	i1___flmul@prod,??i1___flmul
 12572   002B3E  C01B  F010         	movff	i1___flmul@prod+1,??i1___flmul+1
 12573   002B42  C01C  F011         	movff	i1___flmul@prod+2,??i1___flmul+2
 12574   002B46  C01D  F012         	movff	i1___flmul@prod+3,??i1___flmul+3
 12575   002B4A  3412               	rlcf	(??i1___flmul+3)^0,w,c
 12576   002B4C  3212               	rrcf	(??i1___flmul+3)^0,f,c
 12577   002B4E  3211               	rrcf	(??i1___flmul+2)^0,f,c
 12578   002B50  3210               	rrcf	(??i1___flmul+1)^0,f,c
 12579   002B52  320F               	rrcf	??i1___flmul^0,f,c
 12580   002B54  C00F  F01A         	movff	??i1___flmul,i1___flmul@prod
 12581   002B58  C010  F01B         	movff	??i1___flmul+1,i1___flmul@prod+1
 12582   002B5C  C011  F01C         	movff	??i1___flmul+2,i1___flmul@prod+2
 12583   002B60  C012  F01D         	movff	??i1___flmul+3,i1___flmul@prod+3
 12584   002B64  4A1E               	infsnz	i1___flmul@temp^0,f,c
 12585   002B66  2A1F               	incf	(i1___flmul@temp+1)^0,f,c
 12586   002B68                     i1l8536:
 12587   002B68  BE1F               	btfsc	(i1___flmul@temp+1)^0,7,c
 12588   002B6A  EFBF  F015         	goto	i1u1230_21
 12589   002B6E  501F               	movf	(i1___flmul@temp+1)^0,w,c
 12590   002B70  E108               	bnz	i1u1230_20
 12591   002B72  281E               	incf	i1___flmul@temp^0,w,c
 12592   002B74  A0D8               	btfss	status,0,c
 12593   002B76  EFBF  F015         	goto	i1u1230_21
 12594   002B7A  EFC1  F015         	goto	i1u1230_20
 12595   002B7E                     i1u1230_21:
 12596   002B7E  EFCB  F015         	goto	i1l8540
 12597   002B82                     i1u1230_20:
 12598   002B82  0E00               	movlw	0
 12599   002B84  6E1A               	movwf	i1___flmul@prod^0,c
 12600   002B86  0E00               	movlw	0
 12601   002B88  6E1B               	movwf	(i1___flmul@prod+1)^0,c
 12602   002B8A  0E80               	movlw	128
 12603   002B8C  6E1C               	movwf	(i1___flmul@prod+2)^0,c
 12604   002B8E  0E7F               	movlw	127
 12605   002B90  6E1D               	movwf	(i1___flmul@prod+3)^0,c
 12606   002B92  EFF8  F015         	goto	i1l8554
 12607   002B96                     i1l8540:
 12608   002B96  BE1F               	btfsc	(i1___flmul@temp+1)^0,7,c
 12609   002B98  EFD8  F015         	goto	i1u1231_20
 12610   002B9C  501F               	movf	(i1___flmul@temp+1)^0,w,c
 12611   002B9E  E106               	bnz	i1u1231_21
 12612   002BA0  041E               	decf	i1___flmul@temp^0,w,c
 12613   002BA2  B0D8               	btfsc	status,0,c
 12614   002BA4  EFD6  F015         	goto	i1u1231_21
 12615   002BA8  EFD8  F015         	goto	i1u1231_20
 12616   002BAC                     i1u1231_21:
 12617   002BAC  EFE3  F015         	goto	i1l895
 12618   002BB0                     i1u1231_20:
 12619   002BB0  0E00               	movlw	0
 12620   002BB2  6E1A               	movwf	i1___flmul@prod^0,c
 12621   002BB4  0E00               	movlw	0
 12622   002BB6  6E1B               	movwf	(i1___flmul@prod+1)^0,c
 12623   002BB8  0E00               	movlw	0
 12624   002BBA  6E1C               	movwf	(i1___flmul@prod+2)^0,c
 12625   002BBC  0E00               	movlw	0
 12626   002BBE  6E1D               	movwf	(i1___flmul@prod+3)^0,c
 12627   002BC0  6A13               	clrf	i1___flmul@sign^0,c
 12628   002BC2  EFF8  F015         	goto	i1l8554
 12629   002BC6                     i1l895:
 12630   002BC6  C01E  F015         	movff	i1___flmul@temp,i1___flmul@bexp
 12631   002BCA  0EFF               	movlw	255
 12632   002BCC  161A               	andwf	i1___flmul@prod^0,f,c
 12633   002BCE  0EFF               	movlw	255
 12634   002BD0  161B               	andwf	(i1___flmul@prod+1)^0,f,c
 12635   002BD2  0E7F               	movlw	127
 12636   002BD4  161C               	andwf	(i1___flmul@prod+2)^0,f,c
 12637   002BD6  0E00               	movlw	0
 12638   002BD8  161D               	andwf	(i1___flmul@prod+3)^0,f,c
 12639   002BDA  A015               	btfss	i1___flmul@bexp^0,0,c
 12640   002BDC  EFF2  F015         	goto	i1u1232_21
 12641   002BE0  EFF4  F015         	goto	i1u1232_20
 12642   002BE4                     i1u1232_21:
 12643   002BE4  EFF5  F015         	goto	i1l8552
 12644   002BE8                     i1u1232_20:
 12645   002BE8  8E1C               	bsf	(i1___flmul@prod+2)^0,7,c
 12646   002BEA                     i1l8552:
 12647   002BEA  90D8               	bcf	status,0,c
 12648   002BEC  3015               	rrcf	i1___flmul@bexp^0,w,c
 12649   002BEE  6E1D               	movwf	(i1___flmul@prod+3)^0,c
 12650   002BF0                     i1l8554:
 12651   002BF0  5013               	movf	i1___flmul@sign^0,w,c
 12652   002BF2  121D               	iorwf	(i1___flmul@prod+3)^0,f,c
 12653   002BF4  C01A  F007         	movff	i1___flmul@prod,?i1___flmul
 12654   002BF8  C01B  F008         	movff	i1___flmul@prod+1,?i1___flmul+1
 12655   002BFC  C01C  F009         	movff	i1___flmul@prod+2,?i1___flmul+2
 12656   002C00  C01D  F00A         	movff	i1___flmul@prod+3,?i1___flmul+3
 12657   002C04                     i1l882:
 12658   002C04  0012               	return		;funcret
 12659   002C06                     __end_ofi1___flmul:
 12660                           	callstack 0
 12661                           
 12662 ;; *************** function i1___flge *****************
 12663 ;; Defined at:
 12664 ;;		line 4 in file "C:\Program Files\Microchip\xc8\v3.00\pic\sources\c99\common\flge.c"
 12665 ;; Parameters:    Size  Location     Type
 12666 ;;  ff1             4   31[COMRAM] unsigned char 
 12667 ;;  ff2             4   35[COMRAM] unsigned char 
 12668 ;; Auto vars:     Size  Location     Type
 12669 ;;		None
 12670 ;; Return value:  Size  Location     Type
 12671 ;;		None               void
 12672 ;; Registers used:
 12673 ;;		wreg, status,2, status,0
 12674 ;; Tracked objects:
 12675 ;;		On entry : 0/0
 12676 ;;		On exit  : 0/0
 12677 ;;		Unchanged: 0/0
 12678 ;; Data sizes:     COMRAM   BANK0   BANK1   BANK2   BANK3   BANK4   BANK5
 12679 ;;      Params:         8       0       0       0       0       0       0
 12680 ;;      Locals:         0       0       0       0       0       0       0
 12681 ;;      Temps:          4       0       0       0       0       0       0
 12682 ;;      Totals:        12       0       0       0       0       0       0
 12683 ;;Total ram usage:       12 bytes
 12684 ;; Hardware stack levels used: 1
 12685 ;; Hardware stack levels required when called: 3
 12686 ;; This function calls:
 12687 ;;		Nothing
 12688 ;; This function is called by:
 12689 ;;		i1_efgtoa
 12690 ;; This function uses a non-reentrant model
 12691 ;;
 12692                           
 12693                           	psect	text52
 12694   004276                     __ptext52:
 12695                           	callstack 0
 12696   004276                     i1___flge:
 12697                           	callstack 11
 12698   004276  0E00               	movlw	0
 12699   004278  1420               	andwf	i1___flge@ff1^0,w,c
 12700   00427A  6E28               	movwf	??i1___flge^0,c
 12701   00427C  0E00               	movlw	0
 12702   00427E  1421               	andwf	(i1___flge@ff1+1)^0,w,c
 12703   004280  6E29               	movwf	(??i1___flge+1)^0,c
 12704   004282  0E80               	movlw	128
 12705   004284  1422               	andwf	(i1___flge@ff1+2)^0,w,c
 12706   004286  6E2A               	movwf	(??i1___flge+2)^0,c
 12707   004288  0E7F               	movlw	127
 12708   00428A  1423               	andwf	(i1___flge@ff1+3)^0,w,c
 12709   00428C  6E2B               	movwf	(??i1___flge+3)^0,c
 12710   00428E  5028               	movf	??i1___flge^0,w,c
 12711   004290  1029               	iorwf	(??i1___flge+1)^0,w,c
 12712   004292  102A               	iorwf	(??i1___flge+2)^0,w,c
 12713   004294  102B               	iorwf	(??i1___flge+3)^0,w,c
 12714   004296  A4D8               	btfss	status,2,c
 12715   004298  EF50  F021         	goto	i1u1178_21
 12716   00429C  EF52  F021         	goto	i1u1178_20
 12717   0042A0                     i1u1178_21:
 12718   0042A0  EF5A  F021         	goto	i1l8220
 12719   0042A4                     i1u1178_20:
 12720   0042A4  0E00               	movlw	0
 12721   0042A6  6E20               	movwf	i1___flge@ff1^0,c
 12722   0042A8  0E00               	movlw	0
 12723   0042AA  6E21               	movwf	(i1___flge@ff1+1)^0,c
 12724   0042AC  0E00               	movlw	0
 12725   0042AE  6E22               	movwf	(i1___flge@ff1+2)^0,c
 12726   0042B0  0E00               	movlw	0
 12727   0042B2  6E23               	movwf	(i1___flge@ff1+3)^0,c
 12728   0042B4                     i1l8220:
 12729   0042B4  0E00               	movlw	0
 12730   0042B6  1424               	andwf	i1___flge@ff2^0,w,c
 12731   0042B8  6E28               	movwf	??i1___flge^0,c
 12732   0042BA  0E00               	movlw	0
 12733   0042BC  1425               	andwf	(i1___flge@ff2+1)^0,w,c
 12734   0042BE  6E29               	movwf	(??i1___flge+1)^0,c
 12735   0042C0  0E80               	movlw	128
 12736   0042C2  1426               	andwf	(i1___flge@ff2+2)^0,w,c
 12737   0042C4  6E2A               	movwf	(??i1___flge+2)^0,c
 12738   0042C6  0E7F               	movlw	127
 12739   0042C8  1427               	andwf	(i1___flge@ff2+3)^0,w,c
 12740   0042CA  6E2B               	movwf	(??i1___flge+3)^0,c
 12741   0042CC  5028               	movf	??i1___flge^0,w,c
 12742   0042CE  1029               	iorwf	(??i1___flge+1)^0,w,c
 12743   0042D0  102A               	iorwf	(??i1___flge+2)^0,w,c
 12744   0042D2  102B               	iorwf	(??i1___flge+3)^0,w,c
 12745   0042D4  A4D8               	btfss	status,2,c
 12746   0042D6  EF6F  F021         	goto	i1u1179_21
 12747   0042DA  EF71  F021         	goto	i1u1179_20
 12748   0042DE                     i1u1179_21:
 12749   0042DE  EF79  F021         	goto	i1l8224
 12750   0042E2                     i1u1179_20:
 12751   0042E2  0E00               	movlw	0
 12752   0042E4  6E24               	movwf	i1___flge@ff2^0,c
 12753   0042E6  0E00               	movlw	0
 12754   0042E8  6E25               	movwf	(i1___flge@ff2+1)^0,c
 12755   0042EA  0E00               	movlw	0
 12756   0042EC  6E26               	movwf	(i1___flge@ff2+2)^0,c
 12757   0042EE  0E00               	movlw	0
 12758   0042F0  6E27               	movwf	(i1___flge@ff2+3)^0,c
 12759   0042F2                     i1l8224:
 12760   0042F2  AE23               	btfss	(i1___flge@ff1+3)^0,7,c
 12761   0042F4  EF7E  F021         	goto	i1u1180_21
 12762   0042F8  EF80  F021         	goto	i1u1180_20
 12763   0042FC                     i1u1180_21:
 12764   0042FC  EF89  F021         	goto	i1l8228
 12765   004300                     i1u1180_20:
 12766   004300  6C20               	negf	i1___flge@ff1^0,c
 12767   004302  1E21               	comf	(i1___flge@ff1+1)^0,f,c
 12768   004304  B0D8               	btfsc	status,0,c
 12769   004306  2A21               	incf	(i1___flge@ff1+1)^0,f,c
 12770   004308  1E22               	comf	(i1___flge@ff1+2)^0,f,c
 12771   00430A  B0D8               	btfsc	status,0,c
 12772   00430C  2A22               	incf	(i1___flge@ff1+2)^0,f,c
 12773   00430E  0E80               	movlw	128
 12774   004310  5623               	subfwb	(i1___flge@ff1+3)^0,f,c
 12775   004312                     i1l8228:
 12776   004312  AE27               	btfss	(i1___flge@ff2+3)^0,7,c
 12777   004314  EF8E  F021         	goto	i1u1181_21
 12778   004318  EF90  F021         	goto	i1u1181_20
 12779   00431C                     i1u1181_21:
 12780   00431C  EF99  F021         	goto	i1l529
 12781   004320                     i1u1181_20:
 12782   004320  6C24               	negf	i1___flge@ff2^0,c
 12783   004322  1E25               	comf	(i1___flge@ff2+1)^0,f,c
 12784   004324  B0D8               	btfsc	status,0,c
 12785   004326  2A25               	incf	(i1___flge@ff2+1)^0,f,c
 12786   004328  1E26               	comf	(i1___flge@ff2+2)^0,f,c
 12787   00432A  B0D8               	btfsc	status,0,c
 12788   00432C  2A26               	incf	(i1___flge@ff2+2)^0,f,c
 12789   00432E  0E80               	movlw	128
 12790   004330  5627               	subfwb	(i1___flge@ff2+3)^0,f,c
 12791   004332                     i1l529:
 12792   004332  0E00               	movlw	0
 12793   004334  1A20               	xorwf	i1___flge@ff1^0,f,c
 12794   004336  0E00               	movlw	0
 12795   004338  1A21               	xorwf	(i1___flge@ff1+1)^0,f,c
 12796   00433A  0E00               	movlw	0
 12797   00433C  1A22               	xorwf	(i1___flge@ff1+2)^0,f,c
 12798   00433E  0E80               	movlw	128
 12799   004340  1A23               	xorwf	(i1___flge@ff1+3)^0,f,c
 12800   004342  0E00               	movlw	0
 12801   004344  1A24               	xorwf	i1___flge@ff2^0,f,c
 12802   004346  0E00               	movlw	0
 12803   004348  1A25               	xorwf	(i1___flge@ff2+1)^0,f,c
 12804   00434A  0E00               	movlw	0
 12805   00434C  1A26               	xorwf	(i1___flge@ff2+2)^0,f,c
 12806   00434E  0E80               	movlw	128
 12807   004350  1A27               	xorwf	(i1___flge@ff2+3)^0,f,c
 12808   004352  5024               	movf	i1___flge@ff2^0,w,c
 12809   004354  5C20               	subwf	i1___flge@ff1^0,w,c
 12810   004356  5025               	movf	(i1___flge@ff2+1)^0,w,c
 12811   004358  5821               	subwfb	(i1___flge@ff1+1)^0,w,c
 12812   00435A  5026               	movf	(i1___flge@ff2+2)^0,w,c
 12813   00435C  5822               	subwfb	(i1___flge@ff1+2)^0,w,c
 12814   00435E  5027               	movf	(i1___flge@ff2+3)^0,w,c
 12815   004360  5823               	subwfb	(i1___flge@ff1+3)^0,w,c
 12816   004362  B0D8               	btfsc	status,0,c
 12817   004364  EFB6  F021         	goto	i1u1182_21
 12818   004368  EFB8  F021         	goto	i1u1182_20
 12819   00436C                     i1u1182_21:
 12820   00436C  EFBB  F021         	goto	i1l8234
 12821   004370                     i1u1182_20:
 12822   004370  90D8               	bcf	status,0,c
 12823   004372  EFBC  F021         	goto	i1l534
 12824   004376                     i1l8234:
 12825   004376  80D8               	bsf	status,0,c
 12826   004378                     i1l534:
 12827   004378  0012               	return		;funcret
 12828   00437A                     __end_ofi1___flge:
 12829                           	callstack 0
 12830                           
 12831 ;; *************** function i1___fleq *****************
 12832 ;; Defined at:
 12833 ;;		line 4 in file "C:\Program Files\Microchip\xc8\v3.00\pic\sources\c99\common\fleq.c"
 12834 ;; Parameters:    Size  Location     Type
 12835 ;;  ff1             4    6[COMRAM] unsigned char 
 12836 ;;  ff2             4   10[COMRAM] unsigned char 
 12837 ;; Auto vars:     Size  Location     Type
 12838 ;;		None
 12839 ;; Return value:  Size  Location     Type
 12840 ;;		None               void
 12841 ;; Registers used:
 12842 ;;		wreg, status,2, status,0
 12843 ;; Tracked objects:
 12844 ;;		On entry : 0/0
 12845 ;;		On exit  : 0/0
 12846 ;;		Unchanged: 0/0
 12847 ;; Data sizes:     COMRAM   BANK0   BANK1   BANK2   BANK3   BANK4   BANK5
 12848 ;;      Params:         8       0       0       0       0       0       0
 12849 ;;      Locals:         0       0       0       0       0       0       0
 12850 ;;      Temps:          4       0       0       0       0       0       0
 12851 ;;      Totals:        12       0       0       0       0       0       0
 12852 ;;Total ram usage:       12 bytes
 12853 ;; Hardware stack levels used: 1
 12854 ;; Hardware stack levels required when called: 3
 12855 ;; This function calls:
 12856 ;;		Nothing
 12857 ;; This function is called by:
 12858 ;;		i1_efgtoa
 12859 ;; This function uses a non-reentrant model
 12860 ;;
 12861                           
 12862                           	psect	text53
 12863   0047BA                     __ptext53:
 12864                           	callstack 0
 12865   0047BA                     i1___fleq:
 12866                           	callstack 11
 12867   0047BA  0E00               	movlw	0
 12868   0047BC  1407               	andwf	i1___fleq@ff1^0,w,c
 12869   0047BE  6E0F               	movwf	??i1___fleq^0,c
 12870   0047C0  0E00               	movlw	0
 12871   0047C2  1408               	andwf	(i1___fleq@ff1+1)^0,w,c
 12872   0047C4  6E10               	movwf	(??i1___fleq+1)^0,c
 12873   0047C6  0E80               	movlw	128
 12874   0047C8  1409               	andwf	(i1___fleq@ff1+2)^0,w,c
 12875   0047CA  6E11               	movwf	(??i1___fleq+2)^0,c
 12876   0047CC  0E7F               	movlw	127
 12877   0047CE  140A               	andwf	(i1___fleq@ff1+3)^0,w,c
 12878   0047D0  6E12               	movwf	(??i1___fleq+3)^0,c
 12879   0047D2  500F               	movf	??i1___fleq^0,w,c
 12880   0047D4  1010               	iorwf	(??i1___fleq+1)^0,w,c
 12881   0047D6  1011               	iorwf	(??i1___fleq+2)^0,w,c
 12882   0047D8  1012               	iorwf	(??i1___fleq+3)^0,w,c
 12883   0047DA  A4D8               	btfss	status,2,c
 12884   0047DC  EFF2  F023         	goto	i1u1175_21
 12885   0047E0  EFF4  F023         	goto	i1u1175_20
 12886   0047E4                     i1u1175_21:
 12887   0047E4  EFFC  F023         	goto	i1l8204
 12888   0047E8                     i1u1175_20:
 12889   0047E8  0E00               	movlw	0
 12890   0047EA  6E07               	movwf	i1___fleq@ff1^0,c
 12891   0047EC  0E00               	movlw	0
 12892   0047EE  6E08               	movwf	(i1___fleq@ff1+1)^0,c
 12893   0047F0  0E00               	movlw	0
 12894   0047F2  6E09               	movwf	(i1___fleq@ff1+2)^0,c
 12895   0047F4  0E00               	movlw	0
 12896   0047F6  6E0A               	movwf	(i1___fleq@ff1+3)^0,c
 12897   0047F8                     i1l8204:
 12898   0047F8  0E00               	movlw	0
 12899   0047FA  140B               	andwf	i1___fleq@ff2^0,w,c
 12900   0047FC  6E0F               	movwf	??i1___fleq^0,c
 12901   0047FE  0E00               	movlw	0
 12902   004800  140C               	andwf	(i1___fleq@ff2+1)^0,w,c
 12903   004802  6E10               	movwf	(??i1___fleq+1)^0,c
 12904   004804  0E80               	movlw	128
 12905   004806  140D               	andwf	(i1___fleq@ff2+2)^0,w,c
 12906   004808  6E11               	movwf	(??i1___fleq+2)^0,c
 12907   00480A  0E7F               	movlw	127
 12908   00480C  140E               	andwf	(i1___fleq@ff2+3)^0,w,c
 12909   00480E  6E12               	movwf	(??i1___fleq+3)^0,c
 12910   004810  500F               	movf	??i1___fleq^0,w,c
 12911   004812  1010               	iorwf	(??i1___fleq+1)^0,w,c
 12912   004814  1011               	iorwf	(??i1___fleq+2)^0,w,c
 12913   004816  1012               	iorwf	(??i1___fleq+3)^0,w,c
 12914   004818  A4D8               	btfss	status,2,c
 12915   00481A  EF11  F024         	goto	i1u1176_21
 12916   00481E  EF13  F024         	goto	i1u1176_20
 12917   004822                     i1u1176_21:
 12918   004822  EF1B  F024         	goto	i1l8208
 12919   004826                     i1u1176_20:
 12920   004826  0E00               	movlw	0
 12921   004828  6E0B               	movwf	i1___fleq@ff2^0,c
 12922   00482A  0E00               	movlw	0
 12923   00482C  6E0C               	movwf	(i1___fleq@ff2+1)^0,c
 12924   00482E  0E00               	movlw	0
 12925   004830  6E0D               	movwf	(i1___fleq@ff2+2)^0,c
 12926   004832  0E00               	movlw	0
 12927   004834  6E0E               	movwf	(i1___fleq@ff2+3)^0,c
 12928   004836                     i1l8208:
 12929   004836  500B               	movf	i1___fleq@ff2^0,w,c
 12930   004838  1807               	xorwf	i1___fleq@ff1^0,w,c
 12931   00483A  E10F               	bnz	i1u1177_20
 12932   00483C  500C               	movf	(i1___fleq@ff2+1)^0,w,c
 12933   00483E  1808               	xorwf	(i1___fleq@ff1+1)^0,w,c
 12934   004840  E10C               	bnz	i1u1177_20
 12935   004842  500D               	movf	(i1___fleq@ff2+2)^0,w,c
 12936   004844  1809               	xorwf	(i1___fleq@ff1+2)^0,w,c
 12937   004846  E109               	bnz	i1u1177_20
 12938   004848  500E               	movf	(i1___fleq@ff2+3)^0,w,c
 12939   00484A  180A               	xorwf	(i1___fleq@ff1+3)^0,w,c
 12940   00484C  B4D8               	btfsc	status,2,c
 12941   00484E  EF2B  F024         	goto	i1u1177_21
 12942   004852  EF2D  F024         	goto	i1u1177_20
 12943   004856                     i1u1177_21:
 12944   004856  EF30  F024         	goto	i1l8212
 12945   00485A                     i1u1177_20:
 12946   00485A  90D8               	bcf	status,0,c
 12947   00485C  EF31  F024         	goto	i1l523
 12948   004860                     i1l8212:
 12949   004860  80D8               	bsf	status,0,c
 12950   004862                     i1l523:
 12951   004862  0012               	return		;funcret
 12952   004864                     __end_ofi1___fleq:
 12953                           	callstack 0
 12954                           
 12955 ;; *************** function i1___fldiv *****************
 12956 ;; Defined at:
 12957 ;;		line 11 in file "C:\Program Files\Microchip\xc8\v3.00\pic\sources\c99\common\sprcdiv.c"
 12958 ;; Parameters:    Size  Location     Type
 12959 ;;  b               4    6[COMRAM] unsigned char 
 12960 ;;  a               4   10[COMRAM] unsigned char 
 12961 ;; Auto vars:     Size  Location     Type
 12962 ;;  grs             4   25[COMRAM] unsigned long 
 12963 ;;  rem             4   18[COMRAM] unsigned long 
 12964 ;;  new_exp         2   23[COMRAM] short 
 12965 ;;  aexp            1   30[COMRAM] unsigned char 
 12966 ;;  bexp            1   29[COMRAM] unsigned char 
 12967 ;;  sign            1   22[COMRAM] unsigned char 
 12968 ;; Return value:  Size  Location     Type
 12969 ;;                  4    6[COMRAM] unsigned char 
 12970 ;; Registers used:
 12971 ;;		wreg, status,2, status,0
 12972 ;; Tracked objects:
 12973 ;;		On entry : 0/0
 12974 ;;		On exit  : 0/0
 12975 ;;		Unchanged: 0/0
 12976 ;; Data sizes:     COMRAM   BANK0   BANK1   BANK2   BANK3   BANK4   BANK5
 12977 ;;      Params:         8       0       0       0       0       0       0
 12978 ;;      Locals:        13       0       0       0       0       0       0
 12979 ;;      Temps:          4       0       0       0       0       0       0
 12980 ;;      Totals:        25       0       0       0       0       0       0
 12981 ;;Total ram usage:       25 bytes
 12982 ;; Hardware stack levels used: 1
 12983 ;; Hardware stack levels required when called: 3
 12984 ;; This function calls:
 12985 ;;		Nothing
 12986 ;; This function is called by:
 12987 ;;		_variable_register_changed
 12988 ;;		i1_efgtoa
 12989 ;; This function uses a non-reentrant model
 12990 ;;
 12991                           
 12992                           	psect	text54
 12993   002F98                     __ptext54:
 12994                           	callstack 0
 12995   002F98                     i1___fldiv:
 12996                           	callstack 11
 12997   002F98  500A               	movf	(i1___fldiv@b+3)^0,w,c
 12998   002F9A  0B80               	andlw	128
 12999   002F9C  6E17               	movwf	i1___fldiv@sign^0,c
 13000   002F9E  500A               	movf	(i1___fldiv@b+3)^0,w,c
 13001   002FA0  240A               	addwf	(i1___fldiv@b+3)^0,w,c
 13002   002FA2  6E1E               	movwf	i1___fldiv@bexp^0,c
 13003   002FA4  AE09               	btfss	(i1___fldiv@b+2)^0,7,c
 13004   002FA6  EFD7  F017         	goto	i1u1191_21
 13005   002FAA  EFD9  F017         	goto	i1u1191_20
 13006   002FAE                     i1u1191_21:
 13007   002FAE  EFDA  F017         	goto	i1l8302
 13008   002FB2                     i1u1191_20:
 13009   002FB2  801E               	bsf	i1___fldiv@bexp^0,0,c
 13010   002FB4                     i1l8302:
 13011   002FB4  501E               	movf	i1___fldiv@bexp^0,w,c
 13012   002FB6  B4D8               	btfsc	status,2,c
 13013   002FB8  EFE0  F017         	goto	i1u1192_21
 13014   002FBC  EFE2  F017         	goto	i1u1192_20
 13015   002FC0                     i1u1192_21:
 13016   002FC0  EFF6  F017         	goto	i1l8312
 13017   002FC4                     i1u1192_20:
 13018   002FC4  281E               	incf	i1___fldiv@bexp^0,w,c
 13019   002FC6  A4D8               	btfss	status,2,c
 13020   002FC8  EFE8  F017         	goto	i1u1193_21
 13021   002FCC  EFEA  F017         	goto	i1u1193_20
 13022   002FD0                     i1u1193_21:
 13023   002FD0  EFF2  F017         	goto	i1l8308
 13024   002FD4                     i1u1193_20:
 13025   002FD4  0E00               	movlw	0
 13026   002FD6  6E07               	movwf	i1___fldiv@b^0,c
 13027   002FD8  0E00               	movlw	0
 13028   002FDA  6E08               	movwf	(i1___fldiv@b+1)^0,c
 13029   002FDC  0E00               	movlw	0
 13030   002FDE  6E09               	movwf	(i1___fldiv@b+2)^0,c
 13031   002FE0  0E00               	movlw	0
 13032   002FE2  6E0A               	movwf	(i1___fldiv@b+3)^0,c
 13033   002FE4                     i1l8308:
 13034   002FE4  8E09               	bsf	(i1___fldiv@b+2)^0,7,c
 13035   002FE6  6A0A               	clrf	(i1___fldiv@b+3)^0,c
 13036   002FE8  EFFE  F017         	goto	i1l8314
 13037   002FEC                     i1l8312:
 13038   002FEC  0E00               	movlw	0
 13039   002FEE  6E07               	movwf	i1___fldiv@b^0,c
 13040   002FF0  0E00               	movlw	0
 13041   002FF2  6E08               	movwf	(i1___fldiv@b+1)^0,c
 13042   002FF4  0E00               	movlw	0
 13043   002FF6  6E09               	movwf	(i1___fldiv@b+2)^0,c
 13044   002FF8  0E00               	movlw	0
 13045   002FFA  6E0A               	movwf	(i1___fldiv@b+3)^0,c
 13046   002FFC                     i1l8314:
 13047   002FFC  500E               	movf	(i1___fldiv@a+3)^0,w,c
 13048   002FFE  0B80               	andlw	128
 13049   003000  1A17               	xorwf	i1___fldiv@sign^0,f,c
 13050   003002  500E               	movf	(i1___fldiv@a+3)^0,w,c
 13051   003004  240E               	addwf	(i1___fldiv@a+3)^0,w,c
 13052   003006  6E1F               	movwf	i1___fldiv@aexp^0,c
 13053   003008  AE0D               	btfss	(i1___fldiv@a+2)^0,7,c
 13054   00300A  EF09  F018         	goto	i1u1194_21
 13055   00300E  EF0B  F018         	goto	i1u1194_20
 13056   003012                     i1u1194_21:
 13057   003012  EF0C  F018         	goto	i1l8322
 13058   003016                     i1u1194_20:
 13059   003016  801F               	bsf	i1___fldiv@aexp^0,0,c
 13060   003018                     i1l8322:
 13061   003018  501F               	movf	i1___fldiv@aexp^0,w,c
 13062   00301A  B4D8               	btfsc	status,2,c
 13063   00301C  EF12  F018         	goto	i1u1195_21
 13064   003020  EF14  F018         	goto	i1u1195_20
 13065   003024                     i1u1195_21:
 13066   003024  EF28  F018         	goto	i1l8332
 13067   003028                     i1u1195_20:
 13068   003028  281F               	incf	i1___fldiv@aexp^0,w,c
 13069   00302A  A4D8               	btfss	status,2,c
 13070   00302C  EF1A  F018         	goto	i1u1196_21
 13071   003030  EF1C  F018         	goto	i1u1196_20
 13072   003034                     i1u1196_21:
 13073   003034  EF24  F018         	goto	i1l8328
 13074   003038                     i1u1196_20:
 13075   003038  0E00               	movlw	0
 13076   00303A  6E0B               	movwf	i1___fldiv@a^0,c
 13077   00303C  0E00               	movlw	0
 13078   00303E  6E0C               	movwf	(i1___fldiv@a+1)^0,c
 13079   003040  0E00               	movlw	0
 13080   003042  6E0D               	movwf	(i1___fldiv@a+2)^0,c
 13081   003044  0E00               	movlw	0
 13082   003046  6E0E               	movwf	(i1___fldiv@a+3)^0,c
 13083   003048                     i1l8328:
 13084   003048  8E0D               	bsf	(i1___fldiv@a+2)^0,7,c
 13085   00304A  6A0E               	clrf	(i1___fldiv@a+3)^0,c
 13086   00304C  EF30  F018         	goto	i1l8334
 13087   003050                     i1l8332:
 13088   003050  0E00               	movlw	0
 13089   003052  6E0B               	movwf	i1___fldiv@a^0,c
 13090   003054  0E00               	movlw	0
 13091   003056  6E0C               	movwf	(i1___fldiv@a+1)^0,c
 13092   003058  0E00               	movlw	0
 13093   00305A  6E0D               	movwf	(i1___fldiv@a+2)^0,c
 13094   00305C  0E00               	movlw	0
 13095   00305E  6E0E               	movwf	(i1___fldiv@a+3)^0,c
 13096   003060                     i1l8334:
 13097   003060  500B               	movf	i1___fldiv@a^0,w,c
 13098   003062  100C               	iorwf	(i1___fldiv@a+1)^0,w,c
 13099   003064  100D               	iorwf	(i1___fldiv@a+2)^0,w,c
 13100   003066  100E               	iorwf	(i1___fldiv@a+3)^0,w,c
 13101   003068  A4D8               	btfss	status,2,c
 13102   00306A  EF39  F018         	goto	i1u1197_21
 13103   00306E  EF3B  F018         	goto	i1u1197_20
 13104   003072                     i1u1197_21:
 13105   003072  EF53  F018         	goto	i1l8346
 13106   003076                     i1u1197_20:
 13107   003076  0E00               	movlw	0
 13108   003078  6E07               	movwf	i1___fldiv@b^0,c
 13109   00307A  0E00               	movlw	0
 13110   00307C  6E08               	movwf	(i1___fldiv@b+1)^0,c
 13111   00307E  0E00               	movlw	0
 13112   003080  6E09               	movwf	(i1___fldiv@b+2)^0,c
 13113   003082  0E00               	movlw	0
 13114   003084  6E0A               	movwf	(i1___fldiv@b+3)^0,c
 13115   003086  0E80               	movlw	128
 13116   003088  1209               	iorwf	(i1___fldiv@b+2)^0,f,c
 13117   00308A  0E7F               	movlw	127
 13118   00308C  120A               	iorwf	(i1___fldiv@b+3)^0,f,c
 13119   00308E                     i1l8340:
 13120   00308E  5017               	movf	i1___fldiv@sign^0,w,c
 13121   003090  120A               	iorwf	(i1___fldiv@b+3)^0,f,c
 13122   003092  C007  F007         	movff	i1___fldiv@b,?i1___fldiv
 13123   003096  C008  F008         	movff	i1___fldiv@b+1,?i1___fldiv+1
 13124   00309A  C009  F009         	movff	i1___fldiv@b+2,?i1___fldiv+2
 13125   00309E  C00A  F00A         	movff	i1___fldiv@b+3,?i1___fldiv+3
 13126   0030A2  EF93  F019         	goto	i1l846
 13127   0030A6                     i1l8346:
 13128   0030A6  501E               	movf	i1___fldiv@bexp^0,w,c
 13129   0030A8  A4D8               	btfss	status,2,c
 13130   0030AA  EF59  F018         	goto	i1u1198_21
 13131   0030AE  EF5B  F018         	goto	i1u1198_20
 13132   0030B2                     i1u1198_21:
 13133   0030B2  EF65  F018         	goto	i1l8354
 13134   0030B6                     i1u1198_20:
 13135   0030B6  0E00               	movlw	0
 13136   0030B8  6E07               	movwf	?i1___fldiv^0,c
 13137   0030BA  0E00               	movlw	0
 13138   0030BC  6E08               	movwf	(?i1___fldiv+1)^0,c
 13139   0030BE  0E00               	movlw	0
 13140   0030C0  6E09               	movwf	(?i1___fldiv+2)^0,c
 13141   0030C2  0E00               	movlw	0
 13142   0030C4  6E0A               	movwf	(?i1___fldiv+3)^0,c
 13143   0030C6  EF93  F019         	goto	i1l846
 13144   0030CA                     i1l8354:
 13145   0030CA  501F               	movf	i1___fldiv@aexp^0,w,c
 13146   0030CC  C01E  F00F         	movff	i1___fldiv@bexp,??i1___fldiv
 13147   0030D0  6A10               	clrf	(??i1___fldiv+1)^0,c
 13148   0030D2  5E0F               	subwf	??i1___fldiv^0,f,c
 13149   0030D4  0E00               	movlw	0
 13150   0030D6  5A10               	subwfb	(??i1___fldiv+1)^0,f,c
 13151   0030D8  0E7F               	movlw	127
 13152   0030DA  240F               	addwf	??i1___fldiv^0,w,c
 13153   0030DC  6E18               	movwf	i1___fldiv@new_exp^0,c
 13154   0030DE  0E00               	movlw	0
 13155   0030E0  2010               	addwfc	(??i1___fldiv+1)^0,w,c
 13156   0030E2  6E19               	movwf	(i1___fldiv@new_exp+1)^0,c
 13157   0030E4  C007  F013         	movff	i1___fldiv@b,i1___fldiv@rem
 13158   0030E8  C008  F014         	movff	i1___fldiv@b+1,i1___fldiv@rem+1
 13159   0030EC  C009  F015         	movff	i1___fldiv@b+2,i1___fldiv@rem+2
 13160   0030F0  C00A  F016         	movff	i1___fldiv@b+3,i1___fldiv@rem+3
 13161   0030F4  0E00               	movlw	0
 13162   0030F6  6E07               	movwf	i1___fldiv@b^0,c
 13163   0030F8  0E00               	movlw	0
 13164   0030FA  6E08               	movwf	(i1___fldiv@b+1)^0,c
 13165   0030FC  0E00               	movlw	0
 13166   0030FE  6E09               	movwf	(i1___fldiv@b+2)^0,c
 13167   003100  0E00               	movlw	0
 13168   003102  6E0A               	movwf	(i1___fldiv@b+3)^0,c
 13169   003104  0E00               	movlw	0
 13170   003106  6E1A               	movwf	i1___fldiv@grs^0,c
 13171   003108  0E00               	movlw	0
 13172   00310A  6E1B               	movwf	(i1___fldiv@grs+1)^0,c
 13173   00310C  0E00               	movlw	0
 13174   00310E  6E1C               	movwf	(i1___fldiv@grs+2)^0,c
 13175   003110  0E00               	movlw	0
 13176   003112  6E1D               	movwf	(i1___fldiv@grs+3)^0,c
 13177   003114  6A1F               	clrf	i1___fldiv@aexp^0,c
 13178   003116  EFC5  F018         	goto	i1l848
 13179   00311A                     i1l8364:
 13180   00311A  501F               	movf	i1___fldiv@aexp^0,w,c
 13181   00311C  B4D8               	btfsc	status,2,c
 13182   00311E  EF93  F018         	goto	i1u1199_21
 13183   003122  EF95  F018         	goto	i1u1199_20
 13184   003126                     i1u1199_21:
 13185   003126  EFAC  F018         	goto	i1l8372
 13186   00312A                     i1u1199_20:
 13187   00312A  90D8               	bcf	status,0,c
 13188   00312C  3613               	rlcf	i1___fldiv@rem^0,f,c
 13189   00312E  3614               	rlcf	(i1___fldiv@rem+1)^0,f,c
 13190   003130  3615               	rlcf	(i1___fldiv@rem+2)^0,f,c
 13191   003132  3616               	rlcf	(i1___fldiv@rem+3)^0,f,c
 13192   003134  90D8               	bcf	status,0,c
 13193   003136  3607               	rlcf	i1___fldiv@b^0,f,c
 13194   003138  3608               	rlcf	(i1___fldiv@b+1)^0,f,c
 13195   00313A  3609               	rlcf	(i1___fldiv@b+2)^0,f,c
 13196   00313C  360A               	rlcf	(i1___fldiv@b+3)^0,f,c
 13197   00313E  AE1D               	btfss	(i1___fldiv@grs+3)^0,7,c
 13198   003140  EFA4  F018         	goto	i1u1200_21
 13199   003144  EFA6  F018         	goto	i1u1200_20
 13200   003148                     i1u1200_21:
 13201   003148  EFA7  F018         	goto	i1l851
 13202   00314C                     i1u1200_20:
 13203   00314C  8007               	bsf	i1___fldiv@b^0,0,c
 13204   00314E                     i1l851:
 13205   00314E  90D8               	bcf	status,0,c
 13206   003150  361A               	rlcf	i1___fldiv@grs^0,f,c
 13207   003152  361B               	rlcf	(i1___fldiv@grs+1)^0,f,c
 13208   003154  361C               	rlcf	(i1___fldiv@grs+2)^0,f,c
 13209   003156  361D               	rlcf	(i1___fldiv@grs+3)^0,f,c
 13210   003158                     i1l8372:
 13211   003158  500B               	movf	i1___fldiv@a^0,w,c
 13212   00315A  5C13               	subwf	i1___fldiv@rem^0,w,c
 13213   00315C  500C               	movf	(i1___fldiv@a+1)^0,w,c
 13214   00315E  5814               	subwfb	(i1___fldiv@rem+1)^0,w,c
 13215   003160  500D               	movf	(i1___fldiv@a+2)^0,w,c
 13216   003162  5815               	subwfb	(i1___fldiv@rem+2)^0,w,c
 13217   003164  500E               	movf	(i1___fldiv@a+3)^0,w,c
 13218   003166  5816               	subwfb	(i1___fldiv@rem+3)^0,w,c
 13219   003168  A0D8               	btfss	status,0,c
 13220   00316A  EFB9  F018         	goto	i1u1201_21
 13221   00316E  EFBB  F018         	goto	i1u1201_20
 13222   003172                     i1u1201_21:
 13223   003172  EFC4  F018         	goto	i1l8378
 13224   003176                     i1u1201_20:
 13225   003176  8C1D               	bsf	(i1___fldiv@grs+3)^0,6,c
 13226   003178  500B               	movf	i1___fldiv@a^0,w,c
 13227   00317A  5E13               	subwf	i1___fldiv@rem^0,f,c
 13228   00317C  500C               	movf	(i1___fldiv@a+1)^0,w,c
 13229   00317E  5A14               	subwfb	(i1___fldiv@rem+1)^0,f,c
 13230   003180  500D               	movf	(i1___fldiv@a+2)^0,w,c
 13231   003182  5A15               	subwfb	(i1___fldiv@rem+2)^0,f,c
 13232   003184  500E               	movf	(i1___fldiv@a+3)^0,w,c
 13233   003186  5A16               	subwfb	(i1___fldiv@rem+3)^0,f,c
 13234   003188                     i1l8378:
 13235   003188  2A1F               	incf	i1___fldiv@aexp^0,f,c
 13236   00318A                     i1l848:
 13237   00318A  0E19               	movlw	25
 13238   00318C  641F               	cpfsgt	i1___fldiv@aexp^0,c
 13239   00318E  EFCB  F018         	goto	i1u1202_21
 13240   003192  EFCD  F018         	goto	i1u1202_20
 13241   003196                     i1u1202_21:
 13242   003196  EF8D  F018         	goto	i1l8364
 13243   00319A                     i1u1202_20:
 13244   00319A  5013               	movf	i1___fldiv@rem^0,w,c
 13245   00319C  1014               	iorwf	(i1___fldiv@rem+1)^0,w,c
 13246   00319E  1015               	iorwf	(i1___fldiv@rem+2)^0,w,c
 13247   0031A0  1016               	iorwf	(i1___fldiv@rem+3)^0,w,c
 13248   0031A2  B4D8               	btfsc	status,2,c
 13249   0031A4  EFD6  F018         	goto	i1u1203_21
 13250   0031A8  EFD8  F018         	goto	i1u1203_20
 13251   0031AC                     i1u1203_21:
 13252   0031AC  EFF0  F018         	goto	i1l8390
 13253   0031B0                     i1u1203_20:
 13254   0031B0  801A               	bsf	i1___fldiv@grs^0,0,c
 13255   0031B2  EFF0  F018         	goto	i1l8390
 13256   0031B6                     i1l8384:
 13257   0031B6  90D8               	bcf	status,0,c
 13258   0031B8  3607               	rlcf	i1___fldiv@b^0,f,c
 13259   0031BA  3608               	rlcf	(i1___fldiv@b+1)^0,f,c
 13260   0031BC  3609               	rlcf	(i1___fldiv@b+2)^0,f,c
 13261   0031BE  360A               	rlcf	(i1___fldiv@b+3)^0,f,c
 13262   0031C0  AE1D               	btfss	(i1___fldiv@grs+3)^0,7,c
 13263   0031C2  EFE5  F018         	goto	i1u1204_21
 13264   0031C6  EFE7  F018         	goto	i1u1204_20
 13265   0031CA                     i1u1204_21:
 13266   0031CA  EFE8  F018         	goto	i1l857
 13267   0031CE                     i1u1204_20:
 13268   0031CE  8007               	bsf	i1___fldiv@b^0,0,c
 13269   0031D0                     i1l857:
 13270   0031D0  90D8               	bcf	status,0,c
 13271   0031D2  361A               	rlcf	i1___fldiv@grs^0,f,c
 13272   0031D4  361B               	rlcf	(i1___fldiv@grs+1)^0,f,c
 13273   0031D6  361C               	rlcf	(i1___fldiv@grs+2)^0,f,c
 13274   0031D8  361D               	rlcf	(i1___fldiv@grs+3)^0,f,c
 13275   0031DA  0618               	decf	i1___fldiv@new_exp^0,f,c
 13276   0031DC  A0D8               	btfss	status,0,c
 13277   0031DE  0619               	decf	(i1___fldiv@new_exp+1)^0,f,c
 13278   0031E0                     i1l8390:
 13279   0031E0  AE09               	btfss	(i1___fldiv@b+2)^0,7,c
 13280   0031E2  EFF5  F018         	goto	i1u1205_21
 13281   0031E6  EFF7  F018         	goto	i1u1205_20
 13282   0031EA                     i1u1205_21:
 13283   0031EA  EFDB  F018         	goto	i1l8384
 13284   0031EE                     i1u1205_20:
 13285   0031EE  6A1F               	clrf	i1___fldiv@aexp^0,c
 13286   0031F0  AE1D               	btfss	(i1___fldiv@grs+3)^0,7,c
 13287   0031F2  EFFD  F018         	goto	i1u1206_21
 13288   0031F6  EFFF  F018         	goto	i1u1206_20
 13289   0031FA                     i1u1206_21:
 13290   0031FA  EF23  F019         	goto	i1l859
 13291   0031FE                     i1u1206_20:
 13292   0031FE  0EFF               	movlw	255
 13293   003200  141A               	andwf	i1___fldiv@grs^0,w,c
 13294   003202  6E0F               	movwf	??i1___fldiv^0,c
 13295   003204  0EFF               	movlw	255
 13296   003206  141B               	andwf	(i1___fldiv@grs+1)^0,w,c
 13297   003208  6E10               	movwf	(??i1___fldiv+1)^0,c
 13298   00320A  0EFF               	movlw	255
 13299   00320C  141C               	andwf	(i1___fldiv@grs+2)^0,w,c
 13300   00320E  6E11               	movwf	(??i1___fldiv+2)^0,c
 13301   003210  0E7F               	movlw	127
 13302   003212  141D               	andwf	(i1___fldiv@grs+3)^0,w,c
 13303   003214  6E12               	movwf	(??i1___fldiv+3)^0,c
 13304   003216  500F               	movf	??i1___fldiv^0,w,c
 13305   003218  1010               	iorwf	(??i1___fldiv+1)^0,w,c
 13306   00321A  1011               	iorwf	(??i1___fldiv+2)^0,w,c
 13307   00321C  1012               	iorwf	(??i1___fldiv+3)^0,w,c
 13308   00321E  B4D8               	btfsc	status,2,c
 13309   003220  EF14  F019         	goto	i1u1207_21
 13310   003224  EF16  F019         	goto	i1u1207_20
 13311   003228                     i1u1207_21:
 13312   003228  EF1A  F019         	goto	i1l860
 13313   00322C                     i1u1207_20:
 13314   00322C                     i1l8394:
 13315   00322C  0E01               	movlw	1
 13316   00322E  6E1F               	movwf	i1___fldiv@aexp^0,c
 13317   003230  EF23  F019         	goto	i1l859
 13318   003234                     i1l860:
 13319   003234  A007               	btfss	i1___fldiv@b^0,0,c
 13320   003236  EF1F  F019         	goto	i1u1208_21
 13321   00323A  EF21  F019         	goto	i1u1208_20
 13322   00323E                     i1u1208_21:
 13323   00323E  EF23  F019         	goto	i1l859
 13324   003242                     i1u1208_20:
 13325   003242  EF16  F019         	goto	i1l8394
 13326   003246                     i1l859:
 13327   003246  501F               	movf	i1___fldiv@aexp^0,w,c
 13328   003248  B4D8               	btfsc	status,2,c
 13329   00324A  EF29  F019         	goto	i1u1209_21
 13330   00324E  EF2B  F019         	goto	i1u1209_20
 13331   003252                     i1u1209_21:
 13332   003252  EF4F  F019         	goto	i1l8406
 13333   003256                     i1u1209_20:
 13334   003256  0E01               	movlw	1
 13335   003258  2607               	addwf	i1___fldiv@b^0,f,c
 13336   00325A  0E00               	movlw	0
 13337   00325C  2208               	addwfc	(i1___fldiv@b+1)^0,f,c
 13338   00325E  2209               	addwfc	(i1___fldiv@b+2)^0,f,c
 13339   003260  220A               	addwfc	(i1___fldiv@b+3)^0,f,c
 13340   003262  A00A               	btfss	(i1___fldiv@b+3)^0,0,c
 13341   003264  EF36  F019         	goto	i1u1210_21
 13342   003268  EF38  F019         	goto	i1u1210_20
 13343   00326C                     i1u1210_21:
 13344   00326C  EF4F  F019         	goto	i1l8406
 13345   003270                     i1u1210_20:
 13346   003270  C007  F00F         	movff	i1___fldiv@b,??i1___fldiv
 13347   003274  C008  F010         	movff	i1___fldiv@b+1,??i1___fldiv+1
 13348   003278  C009  F011         	movff	i1___fldiv@b+2,??i1___fldiv+2
 13349   00327C  C00A  F012         	movff	i1___fldiv@b+3,??i1___fldiv+3
 13350   003280  3412               	rlcf	(??i1___fldiv+3)^0,w,c
 13351   003282  3212               	rrcf	(??i1___fldiv+3)^0,f,c
 13352   003284  3211               	rrcf	(??i1___fldiv+2)^0,f,c
 13353   003286  3210               	rrcf	(??i1___fldiv+1)^0,f,c
 13354   003288  320F               	rrcf	??i1___fldiv^0,f,c
 13355   00328A  C00F  F007         	movff	??i1___fldiv,i1___fldiv@b
 13356   00328E  C010  F008         	movff	??i1___fldiv+1,i1___fldiv@b+1
 13357   003292  C011  F009         	movff	??i1___fldiv+2,i1___fldiv@b+2
 13358   003296  C012  F00A         	movff	??i1___fldiv+3,i1___fldiv@b+3
 13359   00329A  4A18               	infsnz	i1___fldiv@new_exp^0,f,c
 13360   00329C  2A19               	incf	(i1___fldiv@new_exp+1)^0,f,c
 13361   00329E                     i1l8406:
 13362   00329E  BE19               	btfsc	(i1___fldiv@new_exp+1)^0,7,c
 13363   0032A0  EF5A  F019         	goto	i1u1211_21
 13364   0032A4  5019               	movf	(i1___fldiv@new_exp+1)^0,w,c
 13365   0032A6  E108               	bnz	i1u1211_20
 13366   0032A8  2818               	incf	i1___fldiv@new_exp^0,w,c
 13367   0032AA  A0D8               	btfss	status,0,c
 13368   0032AC  EF5A  F019         	goto	i1u1211_21
 13369   0032B0  EF5C  F019         	goto	i1u1211_20
 13370   0032B4                     i1u1211_21:
 13371   0032B4  EF67  F019         	goto	i1l8410
 13372   0032B8                     i1u1211_20:
 13373   0032B8  0E00               	movlw	0
 13374   0032BA  6E19               	movwf	(i1___fldiv@new_exp+1)^0,c
 13375   0032BC  6818               	setf	i1___fldiv@new_exp^0,c
 13376   0032BE  0E00               	movlw	0
 13377   0032C0  6E07               	movwf	i1___fldiv@b^0,c
 13378   0032C2  0E00               	movlw	0
 13379   0032C4  6E08               	movwf	(i1___fldiv@b+1)^0,c
 13380   0032C6  0E00               	movlw	0
 13381   0032C8  6E09               	movwf	(i1___fldiv@b+2)^0,c
 13382   0032CA  0E00               	movlw	0
 13383   0032CC  6E0A               	movwf	(i1___fldiv@b+3)^0,c
 13384   0032CE                     i1l8410:
 13385   0032CE  BE19               	btfsc	(i1___fldiv@new_exp+1)^0,7,c
 13386   0032D0  EF74  F019         	goto	i1u1212_20
 13387   0032D4  5019               	movf	(i1___fldiv@new_exp+1)^0,w,c
 13388   0032D6  E106               	bnz	i1u1212_21
 13389   0032D8  0418               	decf	i1___fldiv@new_exp^0,w,c
 13390   0032DA  B0D8               	btfsc	status,0,c
 13391   0032DC  EF72  F019         	goto	i1u1212_21
 13392   0032E0  EF74  F019         	goto	i1u1212_20
 13393   0032E4                     i1u1212_21:
 13394   0032E4  EF81  F019         	goto	i1l8416
 13395   0032E8                     i1u1212_20:
 13396   0032E8  0E00               	movlw	0
 13397   0032EA  6E19               	movwf	(i1___fldiv@new_exp+1)^0,c
 13398   0032EC  0E00               	movlw	0
 13399   0032EE  6E18               	movwf	i1___fldiv@new_exp^0,c
 13400   0032F0  0E00               	movlw	0
 13401   0032F2  6E07               	movwf	i1___fldiv@b^0,c
 13402   0032F4  0E00               	movlw	0
 13403   0032F6  6E08               	movwf	(i1___fldiv@b+1)^0,c
 13404   0032F8  0E00               	movlw	0
 13405   0032FA  6E09               	movwf	(i1___fldiv@b+2)^0,c
 13406   0032FC  0E00               	movlw	0
 13407   0032FE  6E0A               	movwf	(i1___fldiv@b+3)^0,c
 13408   003300  6A17               	clrf	i1___fldiv@sign^0,c
 13409   003302                     i1l8416:
 13410   003302  C018  F01E         	movff	i1___fldiv@new_exp,i1___fldiv@bexp
 13411   003306  A01E               	btfss	i1___fldiv@bexp^0,0,c
 13412   003308  EF88  F019         	goto	i1u1213_21
 13413   00330C  EF8A  F019         	goto	i1u1213_20
 13414   003310                     i1u1213_21:
 13415   003310  EF8D  F019         	goto	i1l8422
 13416   003314                     i1u1213_20:
 13417   003314  8E09               	bsf	(i1___fldiv@b+2)^0,7,c
 13418   003316  EF8E  F019         	goto	i1l8424
 13419   00331A                     i1l8422:
 13420   00331A  9E09               	bcf	(i1___fldiv@b+2)^0,7,c
 13421   00331C                     i1l8424:
 13422   00331C  90D8               	bcf	status,0,c
 13423   00331E  301E               	rrcf	i1___fldiv@bexp^0,w,c
 13424   003320  6E0A               	movwf	(i1___fldiv@b+3)^0,c
 13425   003322  EF47  F018         	goto	i1l8340
 13426   003326                     i1l846:
 13427   003326  0012               	return		;funcret
 13428   003328                     __end_ofi1___fldiv:
 13429                           	callstack 0
 13430                           
 13431 ;; *************** function i1___xxtofl *****************
 13432 ;; Defined at:
 13433 ;;		line 10 in file "C:\Program Files\Microchip\xc8\v3.00\pic\sources\c99\common\xxtofl.c"
 13434 ;; Parameters:    Size  Location     Type
 13435 ;;  sign            1    wreg     unsigned char 
 13436 ;;  val             4    6[COMRAM] long 
 13437 ;; Auto vars:     Size  Location     Type
 13438 ;;  sign            1   14[COMRAM] unsigned char 
 13439 ;;  arg             4   16[COMRAM] unsigned long 
 13440 ;;  exp             1   15[COMRAM] unsigned char 
 13441 ;; Return value:  Size  Location     Type
 13442 ;;                  4    6[COMRAM] unsigned char 
 13443 ;; Registers used:
 13444 ;;		wreg, status,2, status,0
 13445 ;; Tracked objects:
 13446 ;;		On entry : 0/0
 13447 ;;		On exit  : 0/0
 13448 ;;		Unchanged: 0/0
 13449 ;; Data sizes:     COMRAM   BANK0   BANK1   BANK2   BANK3   BANK4   BANK5
 13450 ;;      Params:         4       0       0       0       0       0       0
 13451 ;;      Locals:         6       0       0       0       0       0       0
 13452 ;;      Temps:          4       0       0       0       0       0       0
 13453 ;;      Totals:        14       0       0       0       0       0       0
 13454 ;;Total ram usage:       14 bytes
 13455 ;; Hardware stack levels used: 1
 13456 ;; Hardware stack levels required when called: 3
 13457 ;; This function calls:
 13458 ;;		Nothing
 13459 ;; This function is called by:
 13460 ;;		_variable_register_changed
 13461 ;; This function uses a non-reentrant model
 13462 ;;
 13463                           
 13464                           	psect	text55
 13465   003ABC                     __ptext55:
 13466                           	callstack 0
 13467   003ABC                     i1___xxtofl:
 13468                           	callstack 15
 13469                           
 13470                           ;incstack = 0
 13471                           ;i1___xxtofl@sign stored from wreg
 13472   003ABC  6E0F               	movwf	i1___xxtofl@sign^0,c
 13473   003ABE  500F               	movf	i1___xxtofl@sign^0,w,c
 13474   003AC0  B4D8               	btfsc	status,2,c
 13475   003AC2  EF65  F01D         	goto	i1u733_21
 13476   003AC6  EF67  F01D         	goto	i1u733_20
 13477   003ACA                     i1u733_21:
 13478   003ACA  EF89  F01D         	goto	i1l919
 13479   003ACE                     i1u733_20:
 13480   003ACE  BE0A               	btfsc	(i1___xxtofl@val+3)^0,7,c
 13481   003AD0  EF6E  F01D         	goto	i1u734_20
 13482   003AD4  EF6C  F01D         	goto	i1u734_21
 13483   003AD8                     i1u734_21:
 13484   003AD8  EF89  F01D         	goto	i1l919
 13485   003ADC                     i1u734_20:
 13486   003ADC  C007  F00B         	movff	i1___xxtofl@val,??i1___xxtofl
 13487   003AE0  C008  F00C         	movff	i1___xxtofl@val+1,??i1___xxtofl+1
 13488   003AE4  C009  F00D         	movff	i1___xxtofl@val+2,??i1___xxtofl+2
 13489   003AE8  C00A  F00E         	movff	i1___xxtofl@val+3,??i1___xxtofl+3
 13490   003AEC  1E0B               	comf	??i1___xxtofl^0,f,c
 13491   003AEE  1E0C               	comf	(??i1___xxtofl+1)^0,f,c
 13492   003AF0  1E0D               	comf	(??i1___xxtofl+2)^0,f,c
 13493   003AF2  1E0E               	comf	(??i1___xxtofl+3)^0,f,c
 13494   003AF4  2A0B               	incf	??i1___xxtofl^0,f,c
 13495   003AF6  0E00               	movlw	0
 13496   003AF8  220C               	addwfc	(??i1___xxtofl+1)^0,f,c
 13497   003AFA  220D               	addwfc	(??i1___xxtofl+2)^0,f,c
 13498   003AFC  220E               	addwfc	(??i1___xxtofl+3)^0,f,c
 13499   003AFE  C00B  F011         	movff	??i1___xxtofl,i1___xxtofl@arg
 13500   003B02  C00C  F012         	movff	??i1___xxtofl+1,i1___xxtofl@arg+1
 13501   003B06  C00D  F013         	movff	??i1___xxtofl+2,i1___xxtofl@arg+2
 13502   003B0A  C00E  F014         	movff	??i1___xxtofl+3,i1___xxtofl@arg+3
 13503   003B0E  EF91  F01D         	goto	i1l5534
 13504   003B12                     i1l919:
 13505   003B12  C007  F011         	movff	i1___xxtofl@val,i1___xxtofl@arg
 13506   003B16  C008  F012         	movff	i1___xxtofl@val+1,i1___xxtofl@arg+1
 13507   003B1A  C009  F013         	movff	i1___xxtofl@val+2,i1___xxtofl@arg+2
 13508   003B1E  C00A  F014         	movff	i1___xxtofl@val+3,i1___xxtofl@arg+3
 13509   003B22                     i1l5534:
 13510   003B22  5007               	movf	i1___xxtofl@val^0,w,c
 13511   003B24  1008               	iorwf	(i1___xxtofl@val+1)^0,w,c
 13512   003B26  1009               	iorwf	(i1___xxtofl@val+2)^0,w,c
 13513   003B28  100A               	iorwf	(i1___xxtofl@val+3)^0,w,c
 13514   003B2A  A4D8               	btfss	status,2,c
 13515   003B2C  EF9A  F01D         	goto	i1u735_21
 13516   003B30  EF9C  F01D         	goto	i1u735_20
 13517   003B34                     i1u735_21:
 13518   003B34  EFA6  F01D         	goto	i1l5540
 13519   003B38                     i1u735_20:
 13520   003B38  0E00               	movlw	0
 13521   003B3A  6E07               	movwf	?i1___xxtofl^0,c
 13522   003B3C  0E00               	movlw	0
 13523   003B3E  6E08               	movwf	(?i1___xxtofl+1)^0,c
 13524   003B40  0E00               	movlw	0
 13525   003B42  6E09               	movwf	(?i1___xxtofl+2)^0,c
 13526   003B44  0E00               	movlw	0
 13527   003B46  6E0A               	movwf	(?i1___xxtofl+3)^0,c
 13528   003B48  EF37  F01E         	goto	i1l922
 13529   003B4C                     i1l5540:
 13530   003B4C  0E96               	movlw	150
 13531   003B4E  6E10               	movwf	i1___xxtofl@exp^0,c
 13532   003B50  EFB0  F01D         	goto	i1l5544
 13533   003B54                     i1l5542:
 13534   003B54  2A10               	incf	i1___xxtofl@exp^0,f,c
 13535   003B56  90D8               	bcf	status,0,c
 13536   003B58  3214               	rrcf	(i1___xxtofl@arg+3)^0,f,c
 13537   003B5A  3213               	rrcf	(i1___xxtofl@arg+2)^0,f,c
 13538   003B5C  3212               	rrcf	(i1___xxtofl@arg+1)^0,f,c
 13539   003B5E  3211               	rrcf	i1___xxtofl@arg^0,f,c
 13540   003B60                     i1l5544:
 13541   003B60  0E00               	movlw	0
 13542   003B62  1411               	andwf	i1___xxtofl@arg^0,w,c
 13543   003B64  6E0B               	movwf	??i1___xxtofl^0,c
 13544   003B66  0E00               	movlw	0
 13545   003B68  1412               	andwf	(i1___xxtofl@arg+1)^0,w,c
 13546   003B6A  6E0C               	movwf	(??i1___xxtofl+1)^0,c
 13547   003B6C  0E00               	movlw	0
 13548   003B6E  1413               	andwf	(i1___xxtofl@arg+2)^0,w,c
 13549   003B70  6E0D               	movwf	(??i1___xxtofl+2)^0,c
 13550   003B72  0EFE               	movlw	254
 13551   003B74  1414               	andwf	(i1___xxtofl@arg+3)^0,w,c
 13552   003B76  6E0E               	movwf	(??i1___xxtofl+3)^0,c
 13553   003B78  500B               	movf	??i1___xxtofl^0,w,c
 13554   003B7A  100C               	iorwf	(??i1___xxtofl+1)^0,w,c
 13555   003B7C  100D               	iorwf	(??i1___xxtofl+2)^0,w,c
 13556   003B7E  100E               	iorwf	(??i1___xxtofl+3)^0,w,c
 13557   003B80  A4D8               	btfss	status,2,c
 13558   003B82  EFC5  F01D         	goto	i1u736_21
 13559   003B86  EFC7  F01D         	goto	i1u736_20
 13560   003B8A                     i1u736_21:
 13561   003B8A  EFAA  F01D         	goto	i1l5542
 13562   003B8E                     i1u736_20:
 13563   003B8E  EFD5  F01D         	goto	i1l926
 13564   003B92                     i1l5546:
 13565   003B92  2A10               	incf	i1___xxtofl@exp^0,f,c
 13566   003B94  0E01               	movlw	1
 13567   003B96  2611               	addwf	i1___xxtofl@arg^0,f,c
 13568   003B98  0E00               	movlw	0
 13569   003B9A  2212               	addwfc	(i1___xxtofl@arg+1)^0,f,c
 13570   003B9C  2213               	addwfc	(i1___xxtofl@arg+2)^0,f,c
 13571   003B9E  2214               	addwfc	(i1___xxtofl@arg+3)^0,f,c
 13572   003BA0  90D8               	bcf	status,0,c
 13573   003BA2  3214               	rrcf	(i1___xxtofl@arg+3)^0,f,c
 13574   003BA4  3213               	rrcf	(i1___xxtofl@arg+2)^0,f,c
 13575   003BA6  3212               	rrcf	(i1___xxtofl@arg+1)^0,f,c
 13576   003BA8  3211               	rrcf	i1___xxtofl@arg^0,f,c
 13577   003BAA                     i1l926:
 13578   003BAA  0E00               	movlw	0
 13579   003BAC  1411               	andwf	i1___xxtofl@arg^0,w,c
 13580   003BAE  6E0B               	movwf	??i1___xxtofl^0,c
 13581   003BB0  0E00               	movlw	0
 13582   003BB2  1412               	andwf	(i1___xxtofl@arg+1)^0,w,c
 13583   003BB4  6E0C               	movwf	(??i1___xxtofl+1)^0,c
 13584   003BB6  0E00               	movlw	0
 13585   003BB8  1413               	andwf	(i1___xxtofl@arg+2)^0,w,c
 13586   003BBA  6E0D               	movwf	(??i1___xxtofl+2)^0,c
 13587   003BBC  0EFF               	movlw	255
 13588   003BBE  1414               	andwf	(i1___xxtofl@arg+3)^0,w,c
 13589   003BC0  6E0E               	movwf	(??i1___xxtofl+3)^0,c
 13590   003BC2  500B               	movf	??i1___xxtofl^0,w,c
 13591   003BC4  100C               	iorwf	(??i1___xxtofl+1)^0,w,c
 13592   003BC6  100D               	iorwf	(??i1___xxtofl+2)^0,w,c
 13593   003BC8  100E               	iorwf	(??i1___xxtofl+3)^0,w,c
 13594   003BCA  A4D8               	btfss	status,2,c
 13595   003BCC  EFEA  F01D         	goto	i1u737_21
 13596   003BD0  EFEC  F01D         	goto	i1u737_20
 13597   003BD4                     i1u737_21:
 13598   003BD4  EFC9  F01D         	goto	i1l5546
 13599   003BD8                     i1u737_20:
 13600   003BD8  EFF4  F01D         	goto	i1l5554
 13601   003BDC                     i1l5552:
 13602   003BDC  0610               	decf	i1___xxtofl@exp^0,f,c
 13603   003BDE  90D8               	bcf	status,0,c
 13604   003BE0  3611               	rlcf	i1___xxtofl@arg^0,f,c
 13605   003BE2  3612               	rlcf	(i1___xxtofl@arg+1)^0,f,c
 13606   003BE4  3613               	rlcf	(i1___xxtofl@arg+2)^0,f,c
 13607   003BE6  3614               	rlcf	(i1___xxtofl@arg+3)^0,f,c
 13608   003BE8                     i1l5554:
 13609   003BE8  BE13               	btfsc	(i1___xxtofl@arg+2)^0,7,c
 13610   003BEA  EFF9  F01D         	goto	i1u738_21
 13611   003BEE  EFFB  F01D         	goto	i1u738_20
 13612   003BF2                     i1u738_21:
 13613   003BF2  EF03  F01E         	goto	i1l933
 13614   003BF6                     i1u738_20:
 13615   003BF6  0E02               	movlw	2
 13616   003BF8  6010               	cpfslt	i1___xxtofl@exp^0,c
 13617   003BFA  EF01  F01E         	goto	i1u739_21
 13618   003BFE  EF03  F01E         	goto	i1u739_20
 13619   003C02                     i1u739_21:
 13620   003C02  EFEE  F01D         	goto	i1l5552
 13621   003C06                     i1u739_20:
 13622   003C06                     i1l933:
 13623   003C06  B010               	btfsc	i1___xxtofl@exp^0,0,c
 13624   003C08  EF08  F01E         	goto	i1u740_21
 13625   003C0C  EF0A  F01E         	goto	i1u740_20
 13626   003C10                     i1u740_21:
 13627   003C10  EF0B  F01E         	goto	i1l5560
 13628   003C14                     i1u740_20:
 13629   003C14  9E13               	bcf	(i1___xxtofl@arg+2)^0,7,c
 13630   003C16                     i1l5560:
 13631   003C16  90D8               	bcf	status,0,c
 13632   003C18  3210               	rrcf	i1___xxtofl@exp^0,f,c
 13633   003C1A  C010  F00B         	movff	i1___xxtofl@exp,??i1___xxtofl
 13634   003C1E  6A0C               	clrf	(??i1___xxtofl+1)^0,c
 13635   003C20  6A0D               	clrf	(??i1___xxtofl+2)^0,c
 13636   003C22  6A0E               	clrf	(??i1___xxtofl+3)^0,c
 13637   003C24  C00B  F00E         	movff	??i1___xxtofl,??i1___xxtofl+3
 13638   003C28  6A0D               	clrf	(??i1___xxtofl+2)^0,c
 13639   003C2A  6A0C               	clrf	(??i1___xxtofl+1)^0,c
 13640   003C2C  6A0B               	clrf	??i1___xxtofl^0,c
 13641   003C2E  500B               	movf	??i1___xxtofl^0,w,c
 13642   003C30  1211               	iorwf	i1___xxtofl@arg^0,f,c
 13643   003C32  500C               	movf	(??i1___xxtofl+1)^0,w,c
 13644   003C34  1212               	iorwf	(i1___xxtofl@arg+1)^0,f,c
 13645   003C36  500D               	movf	(??i1___xxtofl+2)^0,w,c
 13646   003C38  1213               	iorwf	(i1___xxtofl@arg+2)^0,f,c
 13647   003C3A  500E               	movf	(??i1___xxtofl+3)^0,w,c
 13648   003C3C  1214               	iorwf	(i1___xxtofl@arg+3)^0,f,c
 13649   003C3E  500F               	movf	i1___xxtofl@sign^0,w,c
 13650   003C40  B4D8               	btfsc	status,2,c
 13651   003C42  EF25  F01E         	goto	i1u741_21
 13652   003C46  EF27  F01E         	goto	i1u741_20
 13653   003C4A                     i1u741_21:
 13654   003C4A  EF2F  F01E         	goto	i1l5570
 13655   003C4E                     i1u741_20:
 13656   003C4E  BE0A               	btfsc	(i1___xxtofl@val+3)^0,7,c
 13657   003C50  EF2E  F01E         	goto	i1u742_20
 13658   003C54  EF2C  F01E         	goto	i1u742_21
 13659   003C58                     i1u742_21:
 13660   003C58  EF2F  F01E         	goto	i1l5570
 13661   003C5C                     i1u742_20:
 13662   003C5C  8E14               	bsf	(i1___xxtofl@arg+3)^0,7,c
 13663   003C5E                     i1l5570:
 13664   003C5E  C011  F007         	movff	i1___xxtofl@arg,?i1___xxtofl
 13665   003C62  C012  F008         	movff	i1___xxtofl@arg+1,?i1___xxtofl+1
 13666   003C66  C013  F009         	movff	i1___xxtofl@arg+2,?i1___xxtofl+2
 13667   003C6A  C014  F00A         	movff	i1___xxtofl@arg+3,?i1___xxtofl+3
 13668   003C6E                     i1l922:
 13669   003C6E  0012               	return		;funcret
 13670   003C70                     __end_ofi1___xxtofl:
 13671                           	callstack 0
 13672                           
 13673 ;; *************** function _timer3_interrupted *****************
 13674 ;; Defined at:
 13675 ;;		line 494 in file "3b.c"
 13676 ;; Parameters:    Size  Location     Type
 13677 ;;		None
 13678 ;; Auto vars:     Size  Location     Type
 13679 ;;		None
 13680 ;; Return value:  Size  Location     Type
 13681 ;;                  1    wreg      void 
 13682 ;; Registers used:
 13683 ;;		None
 13684 ;; Tracked objects:
 13685 ;;		On entry : 0/0
 13686 ;;		On exit  : 0/0
 13687 ;;		Unchanged: 0/0
 13688 ;; Data sizes:     COMRAM   BANK0   BANK1   BANK2   BANK3   BANK4   BANK5
 13689 ;;      Params:         0       0       0       0       0       0       0
 13690 ;;      Locals:         0       0       0       0       0       0       0
 13691 ;;      Temps:          0       0       0       0       0       0       0
 13692 ;;      Totals:         0       0       0       0       0       0       0
 13693 ;;Total ram usage:        0 bytes
 13694 ;; Hardware stack levels used: 1
 13695 ;; Hardware stack levels required when called: 3
 13696 ;; This function calls:
 13697 ;;		Nothing
 13698 ;; This function is called by:
 13699 ;;		_Lo_ISR
 13700 ;; This function uses a non-reentrant model
 13701 ;;
 13702                           
 13703                           	psect	text56
 13704   005266                     __ptext56:
 13705                           	callstack 0
 13706   005266                     _timer3_interrupted:
 13707                           	callstack 16
 13708   005266  0012               	return		;funcret
 13709   005268                     __end_of_timer3_interrupted:
 13710                           	callstack 0
 13711                           
 13712 ;; *************** function _timer2_interrupted *****************
 13713 ;; Defined at:
 13714 ;;		line 490 in file "3b.c"
 13715 ;; Parameters:    Size  Location     Type
 13716 ;;		None
 13717 ;; Auto vars:     Size  Location     Type
 13718 ;;		None
 13719 ;; Return value:  Size  Location     Type
 13720 ;;                  1    wreg      void 
 13721 ;; Registers used:
 13722 ;;		None
 13723 ;; Tracked objects:
 13724 ;;		On entry : 0/0
 13725 ;;		On exit  : 0/0
 13726 ;;		Unchanged: 0/0
 13727 ;; Data sizes:     COMRAM   BANK0   BANK1   BANK2   BANK3   BANK4   BANK5
 13728 ;;      Params:         0       0       0       0       0       0       0
 13729 ;;      Locals:         0       0       0       0       0       0       0
 13730 ;;      Temps:          0       0       0       0       0       0       0
 13731 ;;      Totals:         0       0       0       0       0       0       0
 13732 ;;Total ram usage:        0 bytes
 13733 ;; Hardware stack levels used: 1
 13734 ;; Hardware stack levels required when called: 3
 13735 ;; This function calls:
 13736 ;;		Nothing
 13737 ;; This function is called by:
 13738 ;;		_Lo_ISR
 13739 ;; This function uses a non-reentrant model
 13740 ;;
 13741                           
 13742                           	psect	text57
 13743   005268                     __ptext57:
 13744                           	callstack 0
 13745   005268                     _timer2_interrupted:
 13746                           	callstack 16
 13747   005268  0012               	return		;funcret
 13748   00526A                     __end_of_timer2_interrupted:
 13749                           	callstack 0
 13750                           
 13751 ;; *************** function _timer1_interrupted *****************
 13752 ;; Defined at:
 13753 ;;		line 486 in file "3b.c"
 13754 ;; Parameters:    Size  Location     Type
 13755 ;;		None
 13756 ;; Auto vars:     Size  Location     Type
 13757 ;;		None
 13758 ;; Return value:  Size  Location     Type
 13759 ;;                  1    wreg      void 
 13760 ;; Registers used:
 13761 ;;		None
 13762 ;; Tracked objects:
 13763 ;;		On entry : 0/0
 13764 ;;		On exit  : 0/0
 13765 ;;		Unchanged: 0/0
 13766 ;; Data sizes:     COMRAM   BANK0   BANK1   BANK2   BANK3   BANK4   BANK5
 13767 ;;      Params:         0       0       0       0       0       0       0
 13768 ;;      Locals:         0       0       0       0       0       0       0
 13769 ;;      Temps:          0       0       0       0       0       0       0
 13770 ;;      Totals:         0       0       0       0       0       0       0
 13771 ;;Total ram usage:        0 bytes
 13772 ;; Hardware stack levels used: 1
 13773 ;; Hardware stack levels required when called: 3
 13774 ;; This function calls:
 13775 ;;		Nothing
 13776 ;; This function is called by:
 13777 ;;		_Lo_ISR
 13778 ;; This function uses a non-reentrant model
 13779 ;;
 13780                           
 13781                           	psect	text58
 13782   00526A                     __ptext58:
 13783                           	callstack 0
 13784   00526A                     _timer1_interrupted:
 13785                           	callstack 16
 13786   00526A  0012               	return		;funcret
 13787   00526C                     __end_of_timer1_interrupted:
 13788                           	callstack 0
 13789                           
 13790 ;; *************** function _timer0_interrupted *****************
 13791 ;; Defined at:
 13792 ;;		line 482 in file "3b.c"
 13793 ;; Parameters:    Size  Location     Type
 13794 ;;		None
 13795 ;; Auto vars:     Size  Location     Type
 13796 ;;		None
 13797 ;; Return value:  Size  Location     Type
 13798 ;;                  1    wreg      void 
 13799 ;; Registers used:
 13800 ;;		None
 13801 ;; Tracked objects:
 13802 ;;		On entry : 0/0
 13803 ;;		On exit  : 0/0
 13804 ;;		Unchanged: 0/0
 13805 ;; Data sizes:     COMRAM   BANK0   BANK1   BANK2   BANK3   BANK4   BANK5
 13806 ;;      Params:         0       0       0       0       0       0       0
 13807 ;;      Locals:         0       0       0       0       0       0       0
 13808 ;;      Temps:          0       0       0       0       0       0       0
 13809 ;;      Totals:         0       0       0       0       0       0       0
 13810 ;;Total ram usage:        0 bytes
 13811 ;; Hardware stack levels used: 1
 13812 ;; Hardware stack levels required when called: 3
 13813 ;; This function calls:
 13814 ;;		Nothing
 13815 ;; This function is called by:
 13816 ;;		_Lo_ISR
 13817 ;; This function uses a non-reentrant model
 13818 ;;
 13819                           
 13820                           	psect	text59
 13821   00526C                     __ptext59:
 13822                           	callstack 0
 13823   00526C                     _timer0_interrupted:
 13824                           	callstack 16
 13825   00526C  0012               	return		;funcret
 13826   00526E                     __end_of_timer0_interrupted:
 13827                           	callstack 0
 13828                           
 13829 ;; *************** function _H_ISR *****************
 13830 ;; Defined at:
 13831 ;;		line 386 in file "3b.c"
 13832 ;; Parameters:    Size  Location     Type
 13833 ;;		None
 13834 ;; Auto vars:     Size  Location     Type
 13835 ;;		None
 13836 ;; Return value:  Size  Location     Type
 13837 ;;                  1    wreg      void 
 13838 ;; Registers used:
 13839 ;;		wreg, fsr2l, fsr2h, status,2, status,0, cstack
 13840 ;; Tracked objects:
 13841 ;;		On entry : 0/0
 13842 ;;		On exit  : 0/0
 13843 ;;		Unchanged: 0/0
 13844 ;; Data sizes:     COMRAM   BANK0   BANK1   BANK2   BANK3   BANK4   BANK5
 13845 ;;      Params:         0       0       0       0       0       0       0
 13846 ;;      Locals:         0       0       0       0       0       0       0
 13847 ;;      Temps:          3       0       0       0       0       0       0
 13848 ;;      Totals:         3       0       0       0       0       0       0
 13849 ;;Total ram usage:        3 bytes
 13850 ;; Hardware stack levels used: 1
 13851 ;; Hardware stack levels required when called: 2
 13852 ;; This function calls:
 13853 ;;		_MyusartRead
 13854 ;;		_button_pressed
 13855 ;; This function is called by:
 13856 ;;		Interrupt level 2
 13857 ;; This function uses a non-reentrant model
 13858 ;;
 13859                           
 13860                           	psect	intcode
 13861   000008                     __pintcode:
 13862                           	callstack 0
 13863   000008                     _H_ISR:
 13864                           	callstack 7
 13865                           
 13866                           ;incstack = 0
 13867   000008  8279               	bsf	int$flags,1,c	;set compiler interrupt flag (level 2)
 13868   00000A  ED5C  F025         	call	int_func,f	;refresh shadow registers
 13869                           
 13870                           	psect	intcode_body
 13871   004AB8                     __pintcode_body:
 13872                           	callstack 7
 13873   004AB8                     int_func:
 13874                           	callstack 7
 13875   004AB8  0006               	pop		; remove dummy address from shadow register refresh
 13876   004ABA  CFD9 F005          	movff	fsr2l,??_H_ISR+1
 13877   004ABE  CFDA F006          	movff	fsr2h,??_H_ISR+2
 13878   004AC2  A2F2               	btfss	242,1,c	;volatile
 13879   004AC4  EF66  F025         	goto	i2u751_41
 13880   004AC8  EF68  F025         	goto	i2u751_40
 13881   004ACC                     i2u751_41:
 13882   004ACC  EF77  F025         	goto	i2l5696
 13883   004AD0                     i2u751_40:
 13884   004AD0  98F2               	bcf	242,4,c	;volatile
 13885   004AD2  EC37  F029         	call	_button_pressed	;wreg free
 13886   004AD6  0E41               	movlw	65
 13887   004AD8  6E04               	movwf	??_H_ISR^0,c
 13888   004ADA  0EEE               	movlw	238
 13889   004ADC                     i2u1336_47:
 13890   004ADC  2EE8               	decfsz	wreg,f,c
 13891   004ADE  D7FE               	bra	i2u1336_47
 13892   004AE0  2E04               	decfsz	??_H_ISR^0,f,c
 13893   004AE2  D7FC               	bra	i2u1336_47
 13894   004AE4  D000               	nop2	
 13895   004AE6  0E01               	movlw	1
 13896   004AE8  6E78               	movwf	_btn_interr^0,c
 13897   004AEA  92F2               	bcf	242,1,c	;volatile
 13898   004AEC  88F2               	bsf	242,4,c	;volatile
 13899   004AEE                     i2l5696:
 13900   004AEE  AA9E               	btfss	3998,5,c	;volatile
 13901   004AF0  EF7C  F025         	goto	i2u752_41
 13902   004AF4  EF7E  F025         	goto	i2u752_40
 13903   004AF8                     i2u752_41:
 13904   004AF8  EF8A  F025         	goto	i2l220
 13905   004AFC                     i2u752_40:
 13906   004AFC  A2AB               	btfss	171,1,c	;volatile
 13907   004AFE  EF83  F025         	goto	i2u753_41
 13908   004B02  EF85  F025         	goto	i2u753_40
 13909   004B06                     i2u753_41:
 13910   004B06  EF88  F025         	goto	i2l5702
 13911   004B0A                     i2u753_40:
 13912   004B0A  98AB               	bcf	4011,4,c	;volatile
 13913   004B0C  0000               	nop	
 13914   004B0E  88AB               	bsf	4011,4,c	;volatile
 13915   004B10                     i2l5702:
 13916   004B10  EC51  F027         	call	_MyusartRead	;wreg free
 13917   004B14                     i2l220:
 13918   004B14  C006  FFDA         	movff	??_H_ISR+2,fsr2h
 13919   004B18  C005  FFD9         	movff	??_H_ISR+1,fsr2l
 13920   004B1C  9279               	bcf	int$flags,1,c	;clear compiler interrupt flag (level 2)
 13921   004B1E  0011               	retfie		f
 13922   004B20                     __end_of_H_ISR:
 13923                           	callstack 0
 13924                           
 13925 ;; *************** function _button_pressed *****************
 13926 ;; Defined at:
 13927 ;;		line 445 in file "3b.c"
 13928 ;; Parameters:    Size  Location     Type
 13929 ;;		None
 13930 ;; Auto vars:     Size  Location     Type
 13931 ;;		None
 13932 ;; Return value:  Size  Location     Type
 13933 ;;                  1    wreg      void 
 13934 ;; Registers used:
 13935 ;;		None
 13936 ;; Tracked objects:
 13937 ;;		On entry : 0/0
 13938 ;;		On exit  : 0/0
 13939 ;;		Unchanged: 0/0
 13940 ;; Data sizes:     COMRAM   BANK0   BANK1   BANK2   BANK3   BANK4   BANK5
 13941 ;;      Params:         0       0       0       0       0       0       0
 13942 ;;      Locals:         0       0       0       0       0       0       0
 13943 ;;      Temps:          0       0       0       0       0       0       0
 13944 ;;      Totals:         0       0       0       0       0       0       0
 13945 ;;Total ram usage:        0 bytes
 13946 ;; Hardware stack levels used: 1
 13947 ;; This function calls:
 13948 ;;		Nothing
 13949 ;; This function is called by:
 13950 ;;		_H_ISR
 13951 ;; This function uses a non-reentrant model
 13952 ;;
 13953                           
 13954                           	psect	text61
 13955   00526E                     __ptext61:
 13956                           	callstack 0
 13957   00526E                     _button_pressed:
 13958                           	callstack 8
 13959   00526E  0012               	return		;funcret
 13960   005270                     __end_of_button_pressed:
 13961                           	callstack 0
 13962                           
 13963 ;; *************** function _MyusartRead *****************
 13964 ;; Defined at:
 13965 ;;		line 298 in file "3b.c"
 13966 ;; Parameters:    Size  Location     Type
 13967 ;;		None
 13968 ;; Auto vars:     Size  Location     Type
 13969 ;;  data            1    2[COMRAM] unsigned char 
 13970 ;; Return value:  Size  Location     Type
 13971 ;;                  1    wreg      void 
 13972 ;; Registers used:
 13973 ;;		wreg, fsr2l, fsr2h, status,2, status,0, cstack
 13974 ;; Tracked objects:
 13975 ;;		On entry : 0/0
 13976 ;;		On exit  : 0/0
 13977 ;;		Unchanged: 0/0
 13978 ;; Data sizes:     COMRAM   BANK0   BANK1   BANK2   BANK3   BANK4   BANK5
 13979 ;;      Params:         0       0       0       0       0       0       0
 13980 ;;      Locals:         1       0       0       0       0       0       0
 13981 ;;      Temps:          1       0       0       0       0       0       0
 13982 ;;      Totals:         2       0       0       0       0       0       0
 13983 ;;Total ram usage:        2 bytes
 13984 ;; Hardware stack levels used: 1
 13985 ;; Hardware stack levels required when called: 1
 13986 ;; This function calls:
 13987 ;;		i2_putch
 13988 ;; This function is called by:
 13989 ;;		_H_ISR
 13990 ;; This function uses a non-reentrant model
 13991 ;;
 13992                           
 13993                           	psect	text62
 13994   004EA2                     __ptext62:
 13995                           	callstack 0
 13996   004EA2                     _MyusartRead:
 13997                           	callstack 7
 13998   004EA2  CFAE F003          	movff	4014,MyusartRead@data	;volatile
 13999   004EA6  C003  F002         	movff	MyusartRead@data,??_MyusartRead
 14000   004EAA  0EE0               	movlw	224
 14001   004EAC  2602               	addwf	??_MyusartRead^0,f,c
 14002   004EAE  0E5E               	movlw	94
 14003   004EB0  6402               	cpfsgt	??_MyusartRead^0,c
 14004   004EB2  EF5D  F027         	goto	i2u743_41
 14005   004EB6  EF5F  F027         	goto	i2u743_40
 14006   004EBA                     i2u743_41:
 14007   004EBA  EF6A  F027         	goto	i2l5598
 14008   004EBE                     i2u743_40:
 14009   004EBE  0E0D               	movlw	13
 14010   004EC0  1803               	xorwf	MyusartRead@data^0,w,c
 14011   004EC2  B4D8               	btfsc	status,2,c
 14012   004EC4  EF66  F027         	goto	i2u744_41
 14013   004EC8  EF68  F027         	goto	i2u744_40
 14014   004ECC                     i2u744_41:
 14015   004ECC  EF6A  F027         	goto	i2l5598
 14016   004ED0                     i2u744_40:
 14017   004ED0  EF78  F027         	goto	i2l165
 14018   004ED4                     i2l5598:
 14019   004ED4  0E00               	movlw	low _buffer
 14020   004ED6  0100               	movlb	0	; () banked
 14021   004ED8  25D3               	addwf	_buffer_size& (0+255),w,b
 14022   004EDA  6ED9               	movwf	fsr2l,c
 14023   004EDC  0E02               	movlw	high _buffer
 14024   004EDE  21D4               	addwfc	(_buffer_size+1)& (0+255),w,b
 14025   004EE0  6EDA               	movwf	fsr2h,c
 14026   004EE2  C003  FFDF         	movff	MyusartRead@data,indf2
 14027   004EE6                     
 14028                           ; BSR set to: 0
 14029   004EE6  4BD3               	infsnz	_buffer_size& (0+255),f,b
 14030   004EE8  2BD4               	incf	(_buffer_size+1)& (0+255),f,b
 14031   004EEA                     
 14032                           ; BSR set to: 0
 14033   004EEA  5003               	movf	MyusartRead@data^0,w,c
 14034   004EEC  ECF4  F025         	call	i2_putch
 14035   004EF0                     i2l165:
 14036   004EF0  0012               	return		;funcret
 14037   004EF2                     __end_of_MyusartRead:
 14038                           	callstack 0
 14039                           
 14040 ;; *************** function i2_putch *****************
 14041 ;; Defined at:
 14042 ;;		line 280 in file "3b.c"
 14043 ;; Parameters:    Size  Location     Type
 14044 ;;  data            1    wreg     unsigned char 
 14045 ;; Auto vars:     Size  Location     Type
 14046 ;;  data            1    0[COMRAM] unsigned char 
 14047 ;; Return value:  Size  Location     Type
 14048 ;;                  1    wreg      void 
 14049 ;; Registers used:
 14050 ;;		wreg, status,2, status,0
 14051 ;; Tracked objects:
 14052 ;;		On entry : 0/0
 14053 ;;		On exit  : 0/0
 14054 ;;		Unchanged: 0/0
 14055 ;; Data sizes:     COMRAM   BANK0   BANK1   BANK2   BANK3   BANK4   BANK5
 14056 ;;      Params:         0       0       0       0       0       0       0
 14057 ;;      Locals:         1       0       0       0       0       0       0
 14058 ;;      Temps:          0       0       0       0       0       0       0
 14059 ;;      Totals:         1       0       0       0       0       0       0
 14060 ;;Total ram usage:        1 bytes
 14061 ;; Hardware stack levels used: 1
 14062 ;; This function calls:
 14063 ;;		Nothing
 14064 ;; This function is called by:
 14065 ;;		_MyusartRead
 14066 ;; This function uses a non-reentrant model
 14067 ;;
 14068                           
 14069                           	psect	text63
 14070   004BE8                     __ptext63:
 14071                           	callstack 0
 14072   004BE8                     i2_putch:
 14073                           	callstack 7
 14074                           
 14075                           ;incstack = 0
 14076                           ;i2putch@data stored from wreg
 14077   004BE8  6E01               	movwf	i2putch@data^0,c
 14078   004BEA  0E0A               	movlw	10
 14079   004BEC  1801               	xorwf	i2putch@data^0,w,c
 14080   004BEE  B4D8               	btfsc	status,2,c
 14081   004BF0  EFFC  F025         	goto	i2u728_41
 14082   004BF4  EFFE  F025         	goto	i2u728_40
 14083   004BF8                     i2u728_41:
 14084   004BF8  EF07  F026         	goto	i2l146
 14085   004BFC                     i2u728_40:
 14086   004BFC  0E0D               	movlw	13
 14087   004BFE  1801               	xorwf	i2putch@data^0,w,c
 14088   004C00  A4D8               	btfss	status,2,c
 14089   004C02  EF05  F026         	goto	i2u729_41
 14090   004C06  EF07  F026         	goto	i2u729_40
 14091   004C0A                     i2u729_41:
 14092   004C0A  EF1B  F026         	goto	i2l153
 14093   004C0E                     i2u729_40:
 14094   004C0E                     i2l146:
 14095   004C0E  A2AC               	btfss	172,1,c	;volatile
 14096   004C10  EF0C  F026         	goto	i2u730_41
 14097   004C14  EF0E  F026         	goto	i2u730_40
 14098   004C18                     i2u730_41:
 14099   004C18  EF07  F026         	goto	i2l146
 14100   004C1C                     i2u730_40:
 14101   004C1C  0E0D               	movlw	13
 14102   004C1E  6EAD               	movwf	173,c	;volatile
 14103   004C20                     i2l149:
 14104   004C20  A2AC               	btfss	172,1,c	;volatile
 14105   004C22  EF15  F026         	goto	i2u731_41
 14106   004C26  EF17  F026         	goto	i2u731_40
 14107   004C2A                     i2u731_41:
 14108   004C2A  EF10  F026         	goto	i2l149
 14109   004C2E                     i2u731_40:
 14110   004C2E  0E0A               	movlw	10
 14111   004C30  6EAD               	movwf	173,c	;volatile
 14112   004C32  EF24  F026         	goto	i2l156
 14113   004C36                     i2l153:
 14114   004C36  A2AC               	btfss	172,1,c	;volatile
 14115   004C38  EF20  F026         	goto	i2u732_41
 14116   004C3C  EF22  F026         	goto	i2u732_40
 14117   004C40                     i2u732_41:
 14118   004C40  EF1B  F026         	goto	i2l153
 14119   004C44                     i2u732_40:
 14120   004C44  C001  FFAD         	movff	i2putch@data,4013	;volatile
 14121   004C48                     i2l156:
 14122   004C48  0012               	return		;funcret
 14123   004C4A                     __end_ofi2_putch:
 14124                           	callstack 0
 14125                           
 14126                           	psect	rparam
 14127   000001                     ___rparam_used  equ	1
 14128   000000                     ___param_bank   equ	0
 14129   000000                     __Lparam        equ	__Lrparam
 14130   000000                     __Hparam        equ	__Hrparam
 14131                           
 14132                           	psect	temp
 14133   000079                     btemp:
 14134                           	callstack 0
 14135   000079                     	ds	1
 14136   000079                     int$flags       set	btemp
 14137   00007A                     wtemp8          set	btemp+1
 14138   00007A                     ttemp5          set	btemp+1
 14139   00007D                     ttemp6          set	btemp+4
 14140   000081                     ttemp7          set	btemp+8
 14141                           
 14142                           	psect	idloc
 14143                           
 14144                           ;Config register IDLOC0 @ 0x200000
 14145                           ;	unspecified, using default values
 14146   200000                     	org	2097152
 14147   200000  FF                 	db	255
 14148                           
 14149                           ;Config register IDLOC1 @ 0x200001
 14150                           ;	unspecified, using default values
 14151   200001                     	org	2097153
 14152   200001  FF                 	db	255
 14153                           
 14154                           ;Config register IDLOC2 @ 0x200002
 14155                           ;	unspecified, using default values
 14156   200002                     	org	2097154
 14157   200002  FF                 	db	255
 14158                           
 14159                           ;Config register IDLOC3 @ 0x200003
 14160                           ;	unspecified, using default values
 14161   200003                     	org	2097155
 14162   200003  FF                 	db	255
 14163                           
 14164                           ;Config register IDLOC4 @ 0x200004
 14165                           ;	unspecified, using default values
 14166   200004                     	org	2097156
 14167   200004  FF                 	db	255
 14168                           
 14169                           ;Config register IDLOC5 @ 0x200005
 14170                           ;	unspecified, using default values
 14171   200005                     	org	2097157
 14172   200005  FF                 	db	255
 14173                           
 14174                           ;Config register IDLOC6 @ 0x200006
 14175                           ;	unspecified, using default values
 14176   200006                     	org	2097158
 14177   200006  FF                 	db	255
 14178                           
 14179                           ;Config register IDLOC7 @ 0x200007
 14180                           ;	unspecified, using default values
 14181   200007                     	org	2097159
 14182   200007  FF                 	db	255
 14183                           
 14184                           	psect	config
 14185                           
 14186                           ; Padding undefined space
 14187   300000                     	org	3145728
 14188   300000  FF                 	db	255
 14189                           
 14190                           ;Config register CONFIG1H @ 0x300001
 14191                           ;	Oscillator Selection bits
 14192                           ;	OSC = INTIO67, Internal oscillator block, port function on RA6 and RA7
 14193                           ;	Fail-Safe Clock Monitor Enable bit
 14194                           ;	FCMEN = OFF, Fail-Safe Clock Monitor disabled
 14195                           ;	Internal/External Oscillator Switchover bit
 14196                           ;	IESO = ON, Oscillator Switchover mode enabled
 14197   300001                     	org	3145729
 14198   300001  88                 	db	136
 14199                           
 14200                           ;Config register CONFIG2L @ 0x300002
 14201                           ;	Power-up Timer Enable bit
 14202                           ;	PWRT = OFF, PWRT disabled
 14203                           ;	Brown-out Reset Enable bits
 14204                           ;	BOREN = SBORDIS, Brown-out Reset enabled in hardware only (SBOREN is disabled)
 14205                           ;	Brown Out Reset Voltage bits
 14206                           ;	BORV = 3, Minimum setting
 14207   300002                     	org	3145730
 14208   300002  1F                 	db	31
 14209                           
 14210                           ;Config register CONFIG2H @ 0x300003
 14211                           ;	Watchdog Timer Enable bit
 14212                           ;	WDT = OFF, WDT disabled (control is placed on the SWDTEN bit)
 14213                           ;	Watchdog Timer Postscale Select bits
 14214                           ;	WDTPS = 1, 1:1
 14215   300003                     	org	3145731
 14216   300003  00                 	db	0
 14217                           
 14218                           ; Padding undefined space
 14219   300004                     	org	3145732
 14220   300004  FF                 	db	255
 14221                           
 14222                           ;Config register CONFIG3H @ 0x300005
 14223                           ;	CCP2 MUX bit
 14224                           ;	CCP2MX = PORTC, CCP2 input/output is multiplexed with RC1
 14225                           ;	PORTB A/D Enable bit
 14226                           ;	PBADEN = ON, PORTB<4:0> pins are configured as analog input channels on Reset
 14227                           ;	Low-Power Timer1 Oscillator Enable bit
 14228                           ;	LPT1OSC = OFF, Timer1 configured for higher power operation
 14229                           ;	MCLR Pin Enable bit
 14230                           ;	MCLRE = ON, MCLR pin enabled; RE3 input pin disabled
 14231   300005                     	org	3145733
 14232   300005  83                 	db	131
 14233                           
 14234                           ;Config register CONFIG4L @ 0x300006
 14235                           ;	Stack Full/Underflow Reset Enable bit
 14236                           ;	STVREN = ON, Stack full/underflow will cause Reset
 14237                           ;	Single-Supply ICSP Enable bit
 14238                           ;	LVP = OFF, Single-Supply ICSP disabled
 14239                           ;	Extended Instruction Set Enable bit
 14240                           ;	XINST = OFF, Instruction set extension and Indexed Addressing mode disabled (Legacy mo
      +                          de)
 14241                           ;	Background Debugger Enable bit
 14242                           ;	DEBUG = 0x1, unprogrammed default
 14243   300006                     	org	3145734
 14244   300006  81                 	db	129
 14245                           
 14246                           ; Padding undefined space
 14247   300007                     	org	3145735
 14248   300007  FF                 	db	255
 14249                           
 14250                           ;Config register CONFIG5L @ 0x300008
 14251                           ;	Code Protection bit
 14252                           ;	CP0 = OFF, Block 0 (000800-001FFFh) not code-protected
 14253                           ;	Code Protection bit
 14254                           ;	CP1 = OFF, Block 1 (002000-003FFFh) not code-protected
 14255                           ;	Code Protection bit
 14256                           ;	CP2 = OFF, Block 2 (004000-005FFFh) not code-protected
 14257                           ;	Code Protection bit
 14258                           ;	CP3 = OFF, Block 3 (006000-007FFFh) not code-protected
 14259   300008                     	org	3145736
 14260   300008  0F                 	db	15
 14261                           
 14262                           ;Config register CONFIG5H @ 0x300009
 14263                           ;	Boot Block Code Protection bit
 14264                           ;	CPB = OFF, Boot block (000000-0007FFh) not code-protected
 14265                           ;	Data EEPROM Code Protection bit
 14266                           ;	CPD = OFF, Data EEPROM not code-protected
 14267   300009                     	org	3145737
 14268   300009  C0                 	db	192
 14269                           
 14270                           ;Config register CONFIG6L @ 0x30000A
 14271                           ;	Write Protection bit
 14272                           ;	WRT0 = OFF, Block 0 (000800-001FFFh) not write-protected
 14273                           ;	Write Protection bit
 14274                           ;	WRT1 = OFF, Block 1 (002000-003FFFh) not write-protected
 14275                           ;	Write Protection bit
 14276                           ;	WRT2 = OFF, Block 2 (004000-005FFFh) not write-protected
 14277                           ;	Write Protection bit
 14278                           ;	WRT3 = OFF, Block 3 (006000-007FFFh) not write-protected
 14279   30000A                     	org	3145738
 14280   30000A  0F                 	db	15
 14281                           
 14282                           ;Config register CONFIG6H @ 0x30000B
 14283                           ;	Configuration Register Write Protection bit
 14284                           ;	WRTC = OFF, Configuration registers (300000-3000FFh) not write-protected
 14285                           ;	Boot Block Write Protection bit
 14286                           ;	WRTB = OFF, Boot block (000000-0007FFh) not write-protected
 14287                           ;	Data EEPROM Write Protection bit
 14288                           ;	WRTD = OFF, Data EEPROM not write-protected
 14289   30000B                     	org	3145739
 14290   30000B  E0                 	db	224
 14291                           
 14292                           ;Config register CONFIG7L @ 0x30000C
 14293                           ;	Table Read Protection bit
 14294                           ;	EBTR0 = OFF, Block 0 (000800-001FFFh) not protected from table reads executed in other
      +                           blocks
 14295                           ;	Table Read Protection bit
 14296                           ;	EBTR1 = OFF, Block 1 (002000-003FFFh) not protected from table reads executed in other
      +                           blocks
 14297                           ;	Table Read Protection bit
 14298                           ;	EBTR2 = OFF, Block 2 (004000-005FFFh) not protected from table reads executed in other
      +                           blocks
 14299                           ;	Table Read Protection bit
 14300                           ;	EBTR3 = OFF, Block 3 (006000-007FFFh) not protected from table reads executed in other
      +                           blocks
 14301   30000C                     	org	3145740
 14302   30000C  0F                 	db	15
 14303                           
 14304                           ;Config register CONFIG7H @ 0x30000D
 14305                           ;	Boot Block Table Read Protection bit
 14306                           ;	EBTRB = OFF, Boot block (000000-0007FFh) not protected from table reads executed in ot
      +                          her blocks
 14307   30000D                     	org	3145741
 14308   30000D  40                 	db	64
 14309                           tosu	equ	0xFFF
 14310                           tosh	equ	0xFFE
 14311                           tosl	equ	0xFFD
 14312                           stkptr	equ	0xFFC
 14313                           pclatu	equ	0xFFB
 14314                           pclath	equ	0xFFA
 14315                           pcl	equ	0xFF9
 14316                           tblptru	equ	0xFF8
 14317                           tblptrh	equ	0xFF7
 14318                           tblptrl	equ	0xFF6
 14319                           tablat	equ	0xFF5
 14320                           prodh	equ	0xFF4
 14321                           prodl	equ	0xFF3
 14322                           indf0	equ	0xFEF
 14323                           postinc0	equ	0xFEE
 14324                           postdec0	equ	0xFED
 14325                           preinc0	equ	0xFEC
 14326                           plusw0	equ	0xFEB
 14327                           fsr0h	equ	0xFEA
 14328                           fsr0l	equ	0xFE9
 14329                           wreg	equ	0xFE8
 14330                           indf1	equ	0xFE7
 14331                           postinc1	equ	0xFE6
 14332                           postdec1	equ	0xFE5
 14333                           preinc1	equ	0xFE4
 14334                           plusw1	equ	0xFE3
 14335                           fsr1h	equ	0xFE2
 14336                           fsr1l	equ	0xFE1
 14337                           bsr	equ	0xFE0
 14338                           indf2	equ	0xFDF
 14339                           postinc2	equ	0xFDE
 14340                           postdec2	equ	0xFDD
 14341                           preinc2	equ	0xFDC
 14342                           plusw2	equ	0xFDB
 14343                           fsr2h	equ	0xFDA
 14344                           fsr2l	equ	0xFD9
 14345                           status	equ	0xFD8

Data Sizes:
    Strings     20
    Constant    0
    Data        4
    BSS         202
    Persistent  0
    Stack       0

Auto Spaces:
    Space          Size  Autos    Used
    COMRAM          126    114     120
    BANK0           128     69      89
    BANK1           256    100     180
    BANK2           256    100     200
    BANK3           256      0       0
    BANK4           256      0       0
    BANK5           244      0       0

Pointer List with Targets:

    atoi@s	PTR const unsigned char  size(2) Largest target is 100
		 -> main@str(BANK2[100]), 

    efgtoa@fp	PTR struct _IO_FILE size(2) Largest target is 0
		 -> NULL(NULL[0]), 

    fputc@fp	PTR struct _IO_FILE size(2) Largest target is 0
		 -> NULL(NULL[0]), 

    fputc@fp$.$buffer	PTR unsigned char  size(2) Largest target is 0

    fputc@fp$.$source	PTR const unsigned char  size(2) Largest target is 0

    fputs@fp	PTR struct _IO_FILE size(2) Largest target is 0
		 -> NULL(NULL[0]), 

    fputs@s	PTR const unsigned char  size(2) Largest target is 80
		 -> dbuf(BANK1[80]), 

    GetString@str	PTR unsigned char  size(2) Largest target is 100
		 -> main@str(BANK2[100]), 

    keyboard_input@str	PTR unsigned char  size(2) Largest target is 100
		 -> main@str(BANK2[100]), 

    memcpy@d	PTR unsigned char  size(2) Largest target is 80
		 -> dbuf(BANK1[80]), 

    memcpy@d1	PTR void  size(2) Largest target is 80
		 -> dbuf(BANK1[80]), 

    memcpy@s	PTR const unsigned char  size(2) Largest target is 80
		 -> dbuf(BANK1[80]), 

    memcpy@s1	PTR const void  size(2) Largest target is 80
		 -> dbuf(BANK1[80]), 

    pad@buf	PTR unsigned char  size(2) Largest target is 80
		 -> dbuf(BANK1[80]), 

    pad@fp	PTR struct _IO_FILE size(2) Largest target is 0
		 -> NULL(NULL[0]), 

    printf@ap	PTR void [1] size(2) Largest target is 2
		 -> ?_printf(BANK1[2]), 

    printf@fmt	PTR const unsigned char  size(1) Largest target is 8
		 -> STR_1(CODE[8]), STR_2(CODE[4]), STR_3(CODE[4]), 

    S1735$buffer	PTR unsigned char  size(2) Largest target is 0

    S1735$source	PTR const unsigned char  size(2) Largest target is 0

    sp__memcpy	PTR void  size(2) Largest target is 80
		 -> dbuf(BANK1[80]), 

    sp__strcpy	PTR unsigned char  size(2) Largest target is 100
		 -> dbuf(BANK1[80]), main@str(BANK2[100]), 

    strcpy@d	PTR unsigned char  size(2) Largest target is 100
		 -> dbuf(BANK1[80]), main@str(BANK2[100]), 

    strcpy@dest	PTR unsigned char  size(2) Largest target is 100
		 -> dbuf(BANK1[80]), main@str(BANK2[100]), 

    strcpy@src	PTR const unsigned char  size(2) Largest target is 100
		 -> buffer(BANK2[100]), STR_4(CODE[4]), STR_7(CODE[4]), 

    vfpfcnvrt@ap	PTR PTR void  size(2) Largest target is 2
		 -> printf@ap(BANK1[2]), 

    vfpfcnvrt@cp	PTR unsigned char  size(1) Largest target is 8
		 -> STR_1(CODE[8]), STR_2(CODE[4]), STR_3(CODE[4]), 

    vfpfcnvrt@fmt	PTR PTR unsigned char  size(1) Largest target is 1
		 -> vfprintf@cfmt(BANK0[1]), 

    vfpfcnvrt@fp	PTR struct _IO_FILE size(2) Largest target is 0
		 -> NULL(NULL[0]), 

    vfprintf@ap	PTR PTR void  size(2) Largest target is 2
		 -> printf@ap(BANK1[2]), 

    vfprintf@cfmt	PTR unsigned char  size(1) Largest target is 8
		 -> STR_1(CODE[8]), STR_2(CODE[4]), STR_3(CODE[4]), 

    vfprintf@fmt	PTR const unsigned char  size(1) Largest target is 8
		 -> STR_1(CODE[8]), STR_2(CODE[4]), STR_3(CODE[4]), 

    vfprintf@fp	PTR struct _IO_FILE size(2) Largest target is 0
		 -> NULL(NULL[0]), 


Critical Paths under _main in COMRAM

    None.

Critical Paths under _Lo_ISR in COMRAM

    _variable_register_changed->i1_printf
    i1_clear_terminal->i1_printf
    i1_printf->i1_vfprintf
    i1_vfprintf->i1_vfpfcnvrt
    i1_vfpfcnvrt->i1_efgtoa
    i1_efgtoa->i1_floorf
    i1_pad->i1_fputs
    i1_fputs->i1_fputc
    i1_fputc->i1_putch
    i1_floorf->i1___fldiv
    i1___flsub->i1___flmul
    i1___flge->i1___flmul

Critical Paths under _H_ISR in COMRAM

    _H_ISR->_MyusartRead
    _MyusartRead->i2_putch

Critical Paths under _main in BANK0

    _printf->_vfprintf
    _efgtoa->___flge
    _efgtoa->_floorf
    _pad->_fputs
    _fputs->_fputc
    _fputc->_putch
    _floorf->___fldiv
    ___flsub->___flmul
    ___flge->___flmul
    ___xxtofl->_atoi
    _GetString->_strcpy

Critical Paths under _Lo_ISR in BANK0

    _Lo_ISR->_variable_register_changed
    _variable_register_changed->i1_printf
    i1_clear_terminal->i1_printf
    i1_printf->i1_vfprintf
    i1_vfprintf->i1_vfpfcnvrt

Critical Paths under _H_ISR in BANK0

    None.

Critical Paths under _main in BANK1

    _main->_keyboard_input
    _keyboard_input->_printf
    _clear_terminal->_printf
    _printf->_vfprintf
    _vfprintf->_vfpfcnvrt
    _vfpfcnvrt->_efgtoa
    _efgtoa->_floorf

Critical Paths under _Lo_ISR in BANK1

    None.

Critical Paths under _H_ISR in BANK1

    None.

Critical Paths under _main in BANK2

    None.

Critical Paths under _Lo_ISR in BANK2

    None.

Critical Paths under _H_ISR in BANK2

    None.

Critical Paths under _main in BANK3

    None.

Critical Paths under _Lo_ISR in BANK3

    None.

Critical Paths under _H_ISR in BANK3

    None.

Critical Paths under _main in BANK4

    None.

Critical Paths under _Lo_ISR in BANK4

    None.

Critical Paths under _H_ISR in BANK4

    None.

Critical Paths under _main in BANK5

    None.

Critical Paths under _Lo_ISR in BANK5

    None.

Critical Paths under _H_ISR in BANK5

    None.

Call Graph Tables:

 ---------------------------------------------------------------------------------
 (Depth) Function   	        Calls       Base Space   Used Autos Params    Refs
 ---------------------------------------------------------------------------------
 (0) _main                                               100   100      0   42987
                                              0 BANK2    100   100      0
                          _GetString
                         _Initialize
                     _keyboard_input
 ---------------------------------------------------------------------------------
 (1) _keyboard_input                                       6     4      2   42546
                                             94 BANK1      6     4      2
                            ___fldiv
                           ___xxtofl
                               _atoi
                     _clear_terminal
                             _printf
 ---------------------------------------------------------------------------------
 (2) _clear_terminal                                       0     0      0   19922
                             _printf
 ---------------------------------------------------------------------------------
 (2) _printf                                               9     4      5   19922
                                             87 BANK1      7     2      5
                           _vfprintf
 ---------------------------------------------------------------------------------
 (3) _vfprintf                                             6     1      5   19758
                                             68 BANK0      1     1      0
                                             82 BANK1      5     0      5
                          _vfpfcnvrt
 ---------------------------------------------------------------------------------
 (4) _vfpfcnvrt                                           14     9      5   19392
                                             69 BANK1     13     8      5
                             _efgtoa
                              _fputc
 ---------------------------------------------------------------------------------
 (5) _efgtoa                                              54    47      7   18058
                                             16 BANK1     53    46      7
                            ___fladd
                            ___fldiv
                             ___fleq
                             ___flge
                            ___flmul
                            ___flneg
                            ___flsub
                            ___fltol
                      ___fpclassifyf
                             _floorf
                               _labs
                             _memcpy
                                _pad
                             _strcpy
 ---------------------------------------------------------------------------------
 (6) _pad                                                  9     3      6    1320
                                             56 BANK0      9     3      6
                              _fputc
                              _fputs
 ---------------------------------------------------------------------------------
 (7) _fputs                                                7     3      4     622
                                             49 BANK0      7     3      4
                              _fputc
 ---------------------------------------------------------------------------------
 (5) _fputc                                                9     5      4     476
                                             40 BANK0      9     5      4
                              _putch
 ---------------------------------------------------------------------------------
 (6) _putch                                                1     1      0     141
                                             39 BANK0      1     1      0
 ---------------------------------------------------------------------------------
 (6) _memcpy                                              11     5      6     217
                                             39 BANK0     11     5      6
 ---------------------------------------------------------------------------------
 (6) _labs                                                 8     4      4     102
                                             39 BANK0      8     4      4
 ---------------------------------------------------------------------------------
 (6) _floorf                                              20    16      4     495
                                             64 BANK0      4     0      4
                                              0 BANK1     16    16      0
                            ___fldiv (ARG)
 ---------------------------------------------------------------------------------
 (6) ___fpclassifyf                                       14    10      4     201
                                             39 BANK0     14    10      4
 ---------------------------------------------------------------------------------
 (6) ___fltol                                             10     6      4     352
                                             39 BANK0     10     6      4
 ---------------------------------------------------------------------------------
 (6) ___flsub                                              8     0      8    3080
                                              0 BANK1      8     0      8
                            ___fladd
                            ___flmul (ARG)
 ---------------------------------------------------------------------------------
 (7) ___fladd                                             16     8      8    2966
                                             39 BANK0     16     8      8
 ---------------------------------------------------------------------------------
 (6) ___flneg                                              4     0      4      68
                                             39 BANK0      4     0      4
 ---------------------------------------------------------------------------------
 (6) ___flmul                                             25    17      8    2247
                                             39 BANK0     25    17      8
 ---------------------------------------------------------------------------------
 (6) ___flge                                              12     4      8     432
                                             64 BANK0      4     4      0
                                              0 BANK1      8     0      8
                            ___flmul (ARG)
 ---------------------------------------------------------------------------------
 (6) ___fleq                                              12     4      8     142
                                             39 BANK0     12     4      8
 ---------------------------------------------------------------------------------
 (6) ___fldiv                                             25    17      8    1749
                                             39 BANK0     25    17      8
 ---------------------------------------------------------------------------------
 (2) _atoi                                                 8     6      2     337
                                             39 BANK0      8     6      2
 ---------------------------------------------------------------------------------
 (2) ___xxtofl                                            14    10      4     520
                                             47 BANK0     14    10      4
                               _atoi (ARG)
 ---------------------------------------------------------------------------------
 (1) _Initialize                                           0     0      0       0
                     _ADC_Initialize
                    _UART_Initialize
 ---------------------------------------------------------------------------------
 (2) _UART_Initialize                                      0     0      0       0
 ---------------------------------------------------------------------------------
 (2) _ADC_Initialize                                       0     0      0       0
 ---------------------------------------------------------------------------------
 (1) _GetString                                            3     1      2     285
                                             47 BANK0      3     1      2
                        _ClearBuffer
                             _strcpy
 ---------------------------------------------------------------------------------
 (6) _strcpy                                               8     4      4     121
                                             39 BANK0      8     4      4
 ---------------------------------------------------------------------------------
 (2) _ClearBuffer                                          2     2      0      99
                                             39 BANK0      2     2      0
 ---------------------------------------------------------------------------------
 Estimated maximum stack depth 7
 ---------------------------------------------------------------------------------
 (Depth) Function   	        Calls       Base Space   Used Autos Params    Refs
 ---------------------------------------------------------------------------------
 (11) _Lo_ISR                                             17    17      0   53705
                                             22 BANK0     17    17      0
                 _timer0_interrupted
                 _timer1_interrupted
                 _timer2_interrupted
                 _timer3_interrupted
          _variable_register_changed
 ---------------------------------------------------------------------------------
 (12) _variable_register_changed                           6     4      2   53657
                                             16 BANK0      6     4      2
                          i1___fldiv
                         i1___xxtofl
                   i1_clear_terminal
                           i1_printf
 ---------------------------------------------------------------------------------
 (13) i1_clear_terminal                                    0     0      0   25373
                           i1_printf
 ---------------------------------------------------------------------------------
 (13) i1_printf                                            9     4      5   25373
                                            112 COMRAM     2     2      0
                                             11 BANK0      5     0      5
                         i1_vfprintf
 ---------------------------------------------------------------------------------
 (14) i1_vfprintf                                          6     1      5   25233
                                            111 COMRAM     1     1      0
                                              6 BANK0      5     0      5
                        i1_vfpfcnvrt
 ---------------------------------------------------------------------------------
 (15) i1_vfpfcnvrt                                        14     9      5   24933
                                            104 COMRAM     7     2      5
                                              0 BANK0      6     6      0
                           i1_efgtoa
                            i1_fputc
 ---------------------------------------------------------------------------------
 (16) i1_efgtoa                                           54    47      7   23404
                                             51 COMRAM    53    46      7
                          i1___fladd
                          i1___fldiv
                           i1___fleq
                           i1___flge
                          i1___flmul
                          i1___flneg
                          i1___flsub
                          i1___fltol
                    i1___fpclassifyf
                           i1_floorf
                             i1_labs
                           i1_memcpy
                              i1_pad
                           i1_strcpy
 ---------------------------------------------------------------------------------
 (17) i1_strcpy                                            8     4      4     164
                                              6 COMRAM     8     4      4
 ---------------------------------------------------------------------------------
 (17) i1_pad                                               9     3      6    1872
                                             23 COMRAM     9     3      6
                            i1_fputc
                            i1_fputs
 ---------------------------------------------------------------------------------
 (18) i1_fputs                                             7     3      4     877
                                             16 COMRAM     7     3      4
                            i1_fputc
 ---------------------------------------------------------------------------------
 (16) i1_fputc                                             9     5      4     671
                                              7 COMRAM     9     5      4
                            i1_putch
 ---------------------------------------------------------------------------------
 (17) i1_putch                                             1     1      0     207
                                              6 COMRAM     1     1      0
 ---------------------------------------------------------------------------------
 (17) i1_memcpy                                           11     5      6     308
                                              6 COMRAM    11     5      6
 ---------------------------------------------------------------------------------
 (17) i1_labs                                              8     4      4     144
                                              6 COMRAM     8     4      4
 ---------------------------------------------------------------------------------
 (17) i1_floorf                                           20    16      4     690
                                             31 COMRAM    20    16      4
                          i1___fldiv (ARG)
 ---------------------------------------------------------------------------------
 (17) i1___fpclassifyf                                    14    10      4     282
                                              6 COMRAM    14    10      4
 ---------------------------------------------------------------------------------
 (17) i1___fltol                                          10     6      4     492
                                              6 COMRAM    10     6      4
 ---------------------------------------------------------------------------------
 (17) i1___flsub                                           8     0      8    4302
                                             31 COMRAM     8     0      8
                          i1___fladd
                          i1___flmul (ARG)
 ---------------------------------------------------------------------------------
 (18) i1___fladd                                          16     8      8    4188
                                              6 COMRAM    16     8      8
 ---------------------------------------------------------------------------------
 (17) i1___flneg                                           4     0      4      96
                                              6 COMRAM     4     0      4
 ---------------------------------------------------------------------------------
 (17) i1___flmul                                          25    17      8    3198
                                              6 COMRAM    25    17      8
 ---------------------------------------------------------------------------------
 (17) i1___flge                                           12     4      8     420
                                             31 COMRAM    12     4      8
                          i1___flmul (ARG)
 ---------------------------------------------------------------------------------
 (17) i1___fleq                                           12     4      8     204
                                              6 COMRAM    12     4      8
 ---------------------------------------------------------------------------------
 (17) i1___fldiv                                          25    17      8    2478
                                              6 COMRAM    25    17      8
 ---------------------------------------------------------------------------------
 (13) i1___xxtofl                                         14    10      4     337
                                              6 COMRAM    14    10      4
 ---------------------------------------------------------------------------------
 (12) _timer3_interrupted                                  0     0      0       0
 ---------------------------------------------------------------------------------
 (12) _timer2_interrupted                                  0     0      0       0
 ---------------------------------------------------------------------------------
 (12) _timer1_interrupted                                  0     0      0       0
 ---------------------------------------------------------------------------------
 (12) _timer0_interrupted                                  0     0      0       0
 ---------------------------------------------------------------------------------
 Estimated maximum stack depth 18
 ---------------------------------------------------------------------------------
 (Depth) Function   	        Calls       Base Space   Used Autos Params    Refs
 ---------------------------------------------------------------------------------
 (22) _H_ISR                                               3     3      0     176
                                              3 COMRAM     3     3      0
                        _MyusartRead
                     _button_pressed
 ---------------------------------------------------------------------------------
 (23) _button_pressed                                      0     0      0       0
 ---------------------------------------------------------------------------------
 (23) _MyusartRead                                         2     2      0     176
                                              1 COMRAM     2     2      0
                            i2_putch
 ---------------------------------------------------------------------------------
 (24) i2_putch                                             1     1      0      87
                                              0 COMRAM     1     1      0
 ---------------------------------------------------------------------------------
 Estimated maximum stack depth 24
 ---------------------------------------------------------------------------------

 Call Graph Graphs:

 _main (ROOT)
   _GetString
     _ClearBuffer
     _strcpy
   _Initialize
     _ADC_Initialize
     _UART_Initialize
   _keyboard_input
     ___fldiv
     ___xxtofl
       _atoi (ARG)
     _atoi
     _clear_terminal
       _printf
         _vfprintf
           _vfpfcnvrt
             _efgtoa
               ___fladd
               ___fldiv
               ___fleq
               ___flge
                 ___flmul (ARG)
               ___flmul
               ___flneg
               ___flsub
                 ___fladd
                 ___flmul (ARG)
               ___fltol
               ___fpclassifyf
               _floorf
                 ___fldiv (ARG)
               _labs
               _memcpy
               _pad
                 _fputc
                   _putch
                 _fputs
                   _fputc
               _strcpy
             _fputc
     _printf

 _Lo_ISR (ROOT)
   _timer0_interrupted
   _timer1_interrupted
   _timer2_interrupted
   _timer3_interrupted
   _variable_register_changed
     i1___fldiv
     i1___xxtofl
     i1_clear_terminal
       i1_printf
         i1_vfprintf
           i1_vfpfcnvrt
             i1_efgtoa
               i1___fladd
               i1___fldiv
               i1___fleq
               i1___flge
                 i1___flmul (ARG)
               i1___flmul
               i1___flneg
               i1___flsub
                 i1___fladd
                 i1___flmul (ARG)
               i1___fltol
               i1___fpclassifyf
               i1_floorf
                 i1___fldiv (ARG)
               i1_labs
               i1_memcpy
               i1_pad
                 i1_fputc
                   i1_putch
                 i1_fputs
                   i1_fputc
               i1_strcpy
             i1_fputc
     i1_printf

 _H_ISR (ROOT)
   _MyusartRead
     i2_putch
   _button_pressed

Address spaces:
Name               Size   Autos  Total    Usage
BIGRAM            1523      0       0      0.0%
BITBANK4           256      0       0      0.0%
BANK4              256      0       0      0.0%
BITBANK3           256      0       0      0.0%
BANK3              256      0       0      0.0%
BITBANK2           256      0       0      0.0%
BANK2              256    100     200     78.1%
BITBANK1           256      0       0      0.0%
BANK1              256    100     180     70.3%
BITBANK5           244      0       0      0.0%
BANK5              244      0       0      0.0%
BITBANK0           128      0       0      0.0%
BANK0              128     69      89     69.5%
BITCOMRAM          126      0       0      0.0%
COMRAM             126    114     120     95.2%
BITBIGSFR_1h        38      0       0      0.0%
BITBIGSFR_5h        11      0       0      0.0%
BITBIGSFR_1lh       11      0       0      0.0%
BITBIGSFRll         11      0       0      0.0%
BITBIGSFRlh          8      0       0      0.0%
BITBIGSFRh           7      0       0      0.0%
BITBIGSFR_4          3      0       0      0.0%
BITBIGSFR_3          3      0       0      0.0%
BITBIGSFR_2          3      0       0      0.0%
BITBIGSFR_1llh       2      0       0      0.0%
BITBIGSFR_5l         1      0       0      0.0%
STACK                0      0       0      0.0%
DATA                 0      0     579      0.0%


Microchip Technology PIC18 Macro Assembler V3.00 build 20241204225717 
Symbol Table                                                                                   Thu Nov 27 17:56:45 2025

                     ___fldiv@aexp 00BF                       ___fldiv@bexp 00BE  
                                _x 00D5                        i1___fladd@a 000B  
                      i1___fladd@b 0007                       ___fldiv@sign 00B7  
                      i1___fldiv@a 000B                        i1___fldiv@b 0007  
                      i1___flmul@a 000B                        i1___flmul@b 0007  
                               bsr 0FE0                __end_ofi1_vfpfcnvrt 3E20  
                      i1___flsub@a 0024                        i1___flsub@b 0020  
                     i1___flge@ff1 0020                       i1___flge@ff2 0024  
                     i1___fleq@ff1 0007                       i1___fleq@ff2 000B  
                       i1___xxtofl 3ABC                       i1___flneg@f1 0007  
                              l140 51E4                                l125 5228  
                              l161 512A                                l137 5206  
                              l153 4B72                                l146 4B4A  
                              l155 4B80                                l156 4B84  
                              l149 4B5C                                l173 5254  
                              l239 48EC                                l169 4A48  
                              l523 47B8                                l534 3F48  
                              l529 3F02                                l801 1F00  
                              l561 416E                                l538 5164  
                              l806 1DDC                                l825 1EC4  
                              l809 1D4E                                l922 3906  
                              l818 1E1C                                l834 5016  
                              l851 2DBE                                l819 1E0A  
                              l860 2EA4                                l933 389E  
                              l926 3842                                l846 2F96  
                              l919 37AA                                l951 4066  
                              l848 2DFA                                l792 1C34  
                              l857 2E40                                l793 1C22  
                              l858 2E5E                                l882 27DE  
                              l794 1BE8                                l859 2EB6  
                              l948 405E                                l885 2674  
                              l886 2692                                l878 247E  
                              l958 51C0                                l895 27A0  
                              l887 26EA                                l888 26D8  
                              l985 4982                                l989 49DA  
                              _PR2 0FCB                                _pad 496A  
                     i1___fltol@f1 0007                                wreg 0FE8  
                    i1___fladd@grs 0016                       ___flmul@aexp 00B4  
                     ___flmul@bexp 00B9                   ??_button_pressed 0001  
                     ___flmul@sign 00B3                       ___flmul@temp 00BE  
                     ___flmul@prod 00BA                      i1___fldiv@grs 001A  
                    i1___fldiv@rem 0013                       ___fltol@exp1 00B0  
                             l1000 1076                               l1003 09FA  
                             l1005 080A                               l1104 4E50  
                             l1033 0E4C                               l1130 4D54  
                             l1050 396E                               l1116 4642  
                             l1124 4FCE                               l1060 3ABA  
                             l1067 4F86                               l1084 353C  
                             l1077 4478                               l1087 3480  
                             l1098 4CFE                               l6000 4FAE  
                             l6210 2C14                               l6204 4D00  
                             l6300 2E3E                               l6220 2C54  
                             l6212 2C22                               l6206 4D08  
                             l6310 2EC6                               l6302 2E50  
                             l6230 2C78                               l6222 2C56  
                             l6214 2C24                               ?_pad 00B8  
                             l6320 2F28                               l6312 2ED2  
                             l6304 2E6E                               l6240 2CB8  
                             l6232 2C86                               l6216 2C34  
                             l6224 2C5C                               l6208 2C06  
                             l6400 2528                               l6330 2F76  
                             l6322 2F3E                               l6314 2EE0  
                             l6306 2E9C                               l6250 2CF6  
                             l6242 2CBA                               l6234 2C88  
                             l6226 2C6C                               l6218 2C44  
                             l6410 257A                               l6402 2534  
                             l6332 2F84                               l6324 2F58  
                             l6316 2F0A                               l6260 2D26  
                             l6252 2CFE                               l6236 2C98  
                             l6244 2CC0                               l6228 2C72  
                             l6420 25F8                               l6412 258A  
                             l6404 2544                               l6334 2F8A  
                             l6326 2F70                               l6318 2F0E  
                             l6270 2D64                               l6262 2D26  
                             l6254 2D02                               l6246 2CD0  
                             l6238 2CA8                               l6430 2672  
                             l6422 262E                               l6414 25A6  
                             l6406 2550                               l6350 23D6  
                             l6336 2F8C                               l6328 2F72  
                             l6280 2DAE                               l6272 2D74  
                             l6248 2CE6                               l6440 26FA  
                             l6432 2684                               l6424 263C  
                             l6416 25B2                               l6408 2560  
                             l6360 241C                               l6352 23E6  
                             l6344 23B8                               l6520 5154  
                             l5800 1A4A                               l6290 2DF8  
                             l6282 2DBC                               l6274 2D84  
                             l6266 2D3A                               l6258 2D16  
                             l6450 275C                               l6442 2706  
                             l6434 26A2                               l6426 265A  
                             l6418 25CE                               l6370 2448  
                             l6362 2422                               l6354 23F6  
                             l6346 23C6                               l5810 1A88  
                             l5802 1A58                               l6530 4094  
                             l6610 3328                               l6602 4CA8  
                             l6292 2E0A                               l6284 2DC8  
                             l6276 2D8A                               l6268 2D54  
                             l6460 27B4                               l6452 2770  
                             l6444 2714                               l6436 26D0  
                             l6428 2664                               l6380 249E  
                             l6372 2458                               l6364 2428  
                             l6356 2406                               l6348 23D4  
                             l6516 512C                               l5900 1C52  
                             l5820 1AB6                               l5812 1A98  
                             l5804 1A66                               l6540 40E2  
                             l6532 40BE                               l6524 4068  
                             l6612 3348                               l6604 4CB8  
                             l9100 3966                               l6294 2E20  
                             l6286 2DE6                               l6278 2D9A  
                             l6462 27C2                               l6454 278A  
                             l6446 273E                               l6390 24DE  
                             l6374 2468                               l6366 2436  
                             l6358 240C                               l6518 5144  
                             l5910 1C92                               l5830 1AE0  
                             l5822 1AC8                               l5814 1A9A  
                             l5806 1A68                               l6550 410E  
                             l6534 40C0                               l6526 4080  
                             l6630 34F4                               l6622 3434  
                             l6614 33A0                               l6606 4CCC  
                             l9110 39E6                               l6296 2E26  
                             l6288 2DE8                               l6480 473E  
                             l6464 27C4                               l6456 279A  
                             l6448 2742                               l6392 24EA  
                             l6384 24B2                               l6376 246E  
                             l6368 2438                               l5920 1CBC  
                             l5912 1C9E                               l5904 1C66  
                             l5832 1AF0                               l5840 1B18  
                             l5824 1ACA                               l5808 1A78  
                             l5816 1AA0                               l6560 413E  
                             l6536 40D0                               l6632 351C  
                             l6624 3470                               l6616 33B4  
                             l6640 4E14                               l5760 4B58  
                             l9104 3974                               l6298 2E30  
                             l6490 47B6                               l6482 474E  
                             l6458 27A4                               l6466 27CA  
                             l6394 2502                               l6386 24BE  
                             l6378 248E                               l5930 1D2E  
                             l5914 1CA2                               l5906 1C76  
                             l5922 1CC2                               l5850 1B50  
                             l5842 1B28                               l5834 1B00  
                             l5826 1AD0                               l5818 1AB0  
                             l6562 414E                               l6546 40FA  
                             l6538 40D4                               l6634 352C  
                             l6618 33C2                               l6626 34A4  
                             l6642 4E20                               l5762 4B6A  
                             l6570 497A                               l9114 3A1A  
                             l9106 3992                               l9130 3A92  
                             l7700 51FE                               l6484 477C  
                             l8180 3E5E                               l6468 27CE  
                             l6396 250E                               l6388 24C8  
                             l5940 1D88                               l5924 1CE8  
                             l5932 1D3E                               l5916 1CB0  
                             l5908 1C84                               l5860 1B64  
                             l5852 1B54                               l5844 1B3A  
                             l5836 1B10                               l5828 1ADE  
                             l8172 4FD0                               l6564 415E  
                             l6556 4122                               l6548 4104  
                             l6580 437A                               l6628 34E0  
                             l6644 4E24                               l5756 4B24  
                             l5780 45C6                               l5772 4578  
                             l6572 498E                               l9124 3A6C  
                             l9116 3A30                               l9108 39B2  
                             l9300 4F34                               l7702 5200  
                             l6486 478C                               l6478 470E  
                             l8190 3EE2                               l8182 3E70  
                             l6398 251A                               l5950 1DB8  
                             l5942 1D92                               l5934 1D64  
                             l5926 1D1C                               l5918 1CB2  
                             l5870 1B78                               l5862 1B68  
                             l5854 1B58                               l5846 1B48  
                             l5838 1B12                               l8174 4FE2  
                             l6558 412E                               l6582 439A  
                             l6646 4E30                               l6638 4E00  
                             l5758 4B38                               l5782 45FC  
                             l5774 458C                               l6574 49A2  
                             l9118 3A3E                               l9126 3A84  
                             l9206 519E                               l9230 489A  
                             l7720 5122                               l7704 5202  
                             l6488 47B0                               l8192 3EF0  
                             l8184 3EAE                               l5960 1E02  
                             l5952 1DBC                               l5944 1DA0  
                             l5936 1D74                               l5928 1D1E  
                             l5880 1BB4                               l5872 1B7C  
                             l5864 1B6C                               l5856 1B5C  
                             l5848 1B4C                               l6584 43DA  
                             l6592 441A                               l6648 4E34  
                             l5776 459E                               l6576 49A8  
                             l6568 496A                               l9208 51A8  
                             l9232 48CE                               l7714 50F4  
                             l7706 5204                               l7810 51DC  
                             l7802 51C2                               l7730 3F5E  
                             l8194 3F40                               l8186 3EC0  
                             l8178 3E20                               l5970 1E80  
                             l5954 1DCC                               l5946 1DA2  
                             l5890 1C06                               l5882 1BD0  
                             l5874 1B80                               l5866 1B70  
                             l5858 1B60                               l6594 442C  
                             l6586 4402                               l5778 45A8  
                             l6578 49C6                               l9090 3934  
                             l9218 524A                               l9234 48E8  
                             l7716 5102                               l7708 50EA  
                             l7820 49FC                               l7812 51DE  
                             l7804 51D2                               l7740 3FBE  
                             l7732 3F78                               l7724 3F4A  
                             l8196 3F46                               l8188 3ED0  
                             l5980 1ED2                               l5964 1E2C  
                             l5972 1E82                               l5948 1DB0  
                             l5956 1DCE                               l5892 1C14  
                             l5884 1BE0                               l5876 1B84  
                             l5868 1B74                               l6588 440E  
                             l9092 3940                               l9228 4864  
                             l7718 5106                               l7822 4A10  
                             l7670 520A                               l7814 51E0  
                             l7806 51D6                               l7750 4032  
                             l7734 3F98                               l7726 3F54  
                             l5990 1EF0                               l5982 1ED8  
                             l5974 1E92                               l5966 1E38  
                             l5958 1DEC                               l5894 1C16  
                             l5886 1BF6                               l5878 1B88  
                             l6598 4470                               l8710 081A  
                             l9094 3944                               l9086 3908  
                             l9190 4F60                               l7824 4A24  
                             l7832 4A36                               l7680 5222  
                             l7672 520E                               l7816 51E2  
                             l7808 51DA                               l7760 37BA  
                             l7752 4042                               l7744 3FDC  
                             l7736 3FB2                               l7728 3F5A  
                             l5984 1EDA                               l5976 1EA2  
                             l5968 1E46                               l5896 1C20  
                             l5888 1C02                               l8800 0D9C  
                             l8720 0924                               l8712 0820  
                             l8704 07B6                               l9096 394E  
                             l9088 392C                               l9192 4F7C  
                             l7834 4A40                               l7826 4A28  
                             l7818 49DC                               l7682 5224  
                             l7674 5210                               l7690 51F4  
                             l7770 37F8                               l7762 37D0  
                             l7754 3754                               l7738 3FB6  
                             l5986 1EE0                               l5978 1EC2  
                             l5898 1C42                               l5994 4F88  
                             l8810 0E6C                               l8802 0DA8  
                             l8722 0938                               l8730 09C6  
                             l8714 0856                               l8706 07D0  
                             l8650 0638                               l9098 3960  
                             l9186 4F3E                               l7684 5226  
                             l7676 521E                               l7668 5208  
                             l7692 51F6                               l7780 3880  
                             l7772 382A                               l7756 3766  
                             l7748 4012                               l5988 1EEE  
                             l5996 4F96                               l8820 0E9E  
                             l8812 0E7C                               l8804 0E22  
                             l8740 0A2E                               l8732 0A02  
                             l8724 096E                               l8716 08A4  
                             l8660 0682                               l8652 063C  
                             l9188 4F46                               l9292 4EF2  
                             l7678 5220                               l7694 51F8  
                             l7686 51E6                               l7790 38D6  
                             l7782 388E                               l7774 382C  
                             l7766 37E4                               l7758 3774  
                             l5998 4FA8                               l8830 0ED2  
                             l8822 0EA2                               l8814 0E80  
                             l8806 0E42                               l8750 0A7E  
                             l8742 0A34                               l8734 0A10  
                             l8726 0976                               l8718 08D8  
                             l8670 06D2                               l8662 0692  
                             l8654 0660                               l8646 0616  
                             l9294 4EF6                               l7696 51FA  
                             l7688 51F0                               l7792 38E6  
                             l7784 38AC                               l7776 3838  
                             l7768 37EC                               l8840 0F72  
                             l8832 0ED6                               l8824 0EA8  
                             l8816 0E86                               l8808 0E5E  
                             l8760 0B16                               l8744 0A46  
                             l8752 0A86                               l8736 0A1C  
                             l8680 0718                               l8672 06E4  
                             l8664 069E                               l8656 066A  
                             l8648 062A                               l9296 4F18  
                             l7698 51FC                               l7794 38F4  
                             l7786 38AE                               l7778 3874  
                             l8850 0FC6                               l8834 0EDC  
                             l8818 0E8E                               l8826 0EAE  
                             l8842 0F76                               l8770 0BFE  
                             l8762 0B6E                               l8754 0A8E  
                             l8746 0A54                               l8738 0A26  
                             l8690 077E                               l8682 0722  
                             l8674 06E8                               l8666 06A6  
                             l8658 0672                               l9298 4F26  
                             l7796 38F6                               l7788 38B2  
                             l8860 1048                               l8852 0FFC  
                             l8844 0F94                               l8836 0F34  
                             l8828 0EC0                               l8780 0C9A  
                             l8772 0C32                               l8764 0BA4  
                             l8756 0A9E                               l8748 0A6C  
                             l8692 0782                               l8676 06EE  
                             l8668 06AA                               l8862 1050  
                             l8854 100A                               l8846 0FB0  
                             l8838 0F6A                               l8790 0D76  
                             l8782 0CCE                               l8774 0C46  
                             l8758 0AB2                               l8766 0BAA  
                             l8694 0788                               l8678 06F6  
                             l8686 0744                               l8856 1022  
                             l8848 0FB8                               l8784 0D28  
                             l8792 0D7A                               l8776 0C7A  
                             l8768 0BC8                               l8696 0790  
                             l8688 076C                               l8858 1032  
                             l8794 0D8A                               l8786 0D2C  
                             l8778 0C8A                               l8796 0D92  
                             l8788 0D62                               l8798 0D94  
                             STR_1 0601                               STR_2 0611  
                             STR_3 0611                               STR_4 0609  
                             STR_7 060D                               _CREN 7D5C  
                             _LATC 0F8B                               _LATD 0F8C  
                             u8000 1D2E                               u8001 1D2A  
                             u8010 1D64                               u8011 1D60  
                             u8100 1E2C                               u8020 1D74  
                             _RCIF 7CF5                               u8101 1E28  
                             u8021 1D70                               u8110 1E46  
                             u8030 1DA0                               u8111 1E42  
                             u8031 1D9C                               u9000 275C  
                             u8120 1E80                               u8040 1DB0  
                             u9001 2758                               u8121 1E7C  
                             u8041 1DAC                               u9010 278A  
                             u8130 1E92                               u8050 1DCC  
                             u9011 2786                               u8131 1E8E  
                             u8051 1DC8                               u9020 27C2  
                             u8140 1EA2                               u8060 1DDC  
                             u9021 27BE                               u8141 1E9E  
                             u8061 1DD8                               u9030 473E  
                             u9110 5144                               u8150 1EC2  
                             u8070 1DEC                               u9031 473A  
                             u9111 5140                               u8151 1EBE  
                             u8071 1DE8                               u9040 477C  
                             u8160 1ED2                               u8080 1E02  
                             u9120 4080                               u9200 49C6  
                             u9041 4778                               u8161 1ECE  
                             u8081 1DFE                               u9121 407C  
                             u9201 49C2                               u9050 47B0  
                             u8170 1EEE                               u8090 1E18  
                             u9130 40B4                               u9210 43BC  
                             u7610 4B38                               u9051 47AC  
                             u8171 1EEA                               u8091 1E14  
                             u7611 4B34                               u9140 40E2  
                             u9220 43DA                               u9300 33A0  
                             u7620 4B4A                               u8180 4FCE  
                             u9141 40DE                               u9221 43D6  
                             u9301 339C                               u7621 4B46  
                             u8181 4FCA                               u9150 40F6  
                             u9230 4402                               u9310 33C2  
                             u7630 4B58                               u7710 458C  
                             u9151 40F2                               u9135 40AA  
                             u9231 43FE                               u9215 43B0  
                             u9311 33BE                               u7631 4B54  
                             u7711 4588                               u8600 4D54  
                             u7800 1A78                               u9160 411E  
                             u9240 442C                               u7640 4B6A  
                             u7720 459E                               u8601 4D50  
                             u7801 1A74                               u9161 411A  
                             u9241 4428                               u7641 4B66  
                             u7721 459A                               u8610 2C22  
                             u7810 1A88                               u9170 413E  
                             u9330 3430                               u7650 4B80  
                             u7730 45C6                               u8611 2C1E  
                             u7811 1A84                               u9171 413A  
                             u9331 342C                               u7651 4B7C  
                             u7731 45C2                               u8700 2DBC  
                             u8620 2C34                               u7900 1BCE  
                             u7820 1AC8                               u9180 414E  
                             u9260 4466                               u9340 3454  
                             u7740 45FC                               u8701 2DB8  
                             u8621 2C30                               u7821 1AC4  
                             u9181 414A                               u9261 4460  
                             u9325 33D6                               u7741 45F8  
                             u8710 2DE6                               u8630 2C44  
                             u7910 1BF6                               u7830 1ADE  
                             u9270 4468                               u9350 3470  
                             u9326 33E0                               u9190 497A  
                             u8711 2DE2                               u8631 2C40  
                             u7911 1BF2                               u7831 1ADA  
                             u9255 443E                               u9351 346C  
                             u9327 33F0                               u9191 4976  
                             u8800 2EE0                               u8720 2E0A  
                             u8640 2C86                               u7920 1C14  
                             u7840 1AF0                               u9360 34C4  
                             u9280 4CB8                               u8801 2EDC  
                             u8721 2E06                               u8641 2C82  
                             u7921 1C10                               u7841 1AEC  
                             u9345 344A                               u9281 4CB4  
                             u8810 2F28                               u8730 2E20  
                             u8650 2C98                               u7930 1C34  
                             u7850 1B00                               u9370 34E0  
                             u9290 3372                               u8811 2F24  
                             u8731 2E1C                               u8651 2C94  
                             u7931 1C30                               u7851 1AFC  
                             u9371 34DC                               u8820 2F58  
                             u8740 2E3E                               u8660 2CA8  
                             u8900 248E                               u7940 1C42  
                             u7860 1B3A                               u9380 351C  
                             u8821 2F54                               u8741 2E3A  
                             u8661 2CA4                               u8901 248A  
                             u7941 1C3E                               u7861 1B36  
                             u9381 3518                               u9365 34BA  
                             u8590 4D42                               u8830 2F84  
                             u8750 2E5E                               u8670 2CE6  
                             u8910 249E                               u7950 1C52  
                             u7870 1B48                               u7790 1A66  
                             u9390 4E50                               u8831 2F80  
                             u8751 2E5A                               u8671 2CE2  
                             u8911 249A                               u7951 1C4E  
                             u7871 1B44                               u7791 1A62  
                             u9295 3368                               u9391 4E4C  
                             u8760 2E6E                               u8680 2D26  
                             u8920 2618                               u8840 23D4  
                             u7960 1C84                               u7880 1BB4  
                             u8761 2E6A                               u8681 2D22  
                             u8841 23D0                               u7961 1C80  
                             u7881 1BB0                               u8770 2E9C  
                             u8690 2D9A                               u8930 2672  
                             u8850 23E6                               u7970 1C92  
                             u7890 1BCC                               u8771 2E98  
                             u8691 2D96                               u8931 266E  
                             u8851 23E2                               u7971 1C8E  
                             u7891 1BC6                               u8780 2EB2  
                             u8940 2692                               u8860 23F6  
                             u7980 1CB0                               u8597 4D38  
                             u8781 2EAE                               u8941 268E  
                             u8925 260E                               u8861 23F2  
                             u7981 1CAC                               u8790 2EC6  
                             u8950 26A2                               u8870 2436  
                             u7990 1CE8                               u8791 2EC2  
                             u8951 269E                               u8871 2432  
                             u7991 1CE4                               u8960 26D0  
                             u8880 2448                               u8961 26CC  
                             u8881 2444                               u8970 26E6  
                             u8890 2458                               u8971 26E2  
                             u8891 2454                               u8980 26FA  
                             u8981 26F6                               u8990 2714  
                             u8991 2710                               _TMR0 0FD6  
                             _TMR1 0FCE                               _TMR3 0FB2  
                             _dbuf 0164                               _labs 4CA8  
                             _atoi 3F4A                               _main 4EF2  
                    i1___flmul@grs 0016                               _prec 0075  
                             pad@i 00BF                               pad@p 00BC  
                             fsr1h 0FE2                               fsr2h 0FDA  
                             indf1 0FE7                               indf2 0FDF  
                             fsr1l 0FE1                               fsr2l 0FD9  
                             btemp 0079                      ___fpclassifyf 437A  
                             prodh 0FF4                               prodl 0FF3  
                   i1___fladd@aexp 0014                         i1efgtoa@fp 0034  
                       i1efgtoa@ne 003D                     i1___fladd@bexp 0015  
                       i1efgtoa@pp 0045                         i1efgtoa@ou 0050  
                             start 012E                    __end_ofi1_fputc 470E  
                  __end_ofi1_fputs 50EA                    ___fldiv@new_exp 00B8  
                  __end_ofi1_putch 4BE8                    __end_ofi2_putch 4C4A  
                  MyusartRead@data 0003                       ___param_bank 0000  
                       i1_vfprintf 5018         ?_variable_register_changed 0090  
                            ??_pad 00BE                   ?_UART_Initialize 0001  
                   i1___fldiv@aexp 001F                     i1___fldiv@bexp 001E  
                   i1___fldiv@sign 0017                      i1vfpfcnvrt@ap 006C  
                    i1vfpfcnvrt@cp 0085                      i1vfpfcnvrt@fp 0069  
                    ___fltol@sign1 00AF                              ?_labs 00A7  
                            ?_atoi 00A7                    __end_of___fladd 1F02  
                            ?_main 0001                    __end_of___fldiv 2F98  
                  __end_of___flneg 5166                    __end_of___flmul 27E0  
                  __end_of___flsub 5018                    __end_of___fltol 4170  
                            u11000 37D0                              u11001 37CC  
                            u11010 3826                              u11011 3822  
                            u11020 3870                              u11021 386C  
                            u11030 388E                              u11031 388A  
                            u11040 389E                              u11041 389A  
                            u11050 38AC                              u11051 38A8  
                            u11060 38E6                              u11061 38E2  
                            u11070 38F4                              u11071 38F0  
                            u11080 49FC                              u11081 49F8  
                            u13200 392C                              u13201 3928  
                            u13210 39AE                              u13211 39AA  
                            u11700 3E5E                              u11701 3E5A  
                            u10910 5122                              u11710 3EAE  
                            u10911 511E                              u11711 3EAA  
                            u10920 3F78                              u11720 3ED0  
                            u12600 06E4                              u13240 4F7C  
                            u10921 3F74                              u11721 3ECC  
                            u12601 06E0                              u13241 4F78  
                            u10930 3F98                              u11730 3EF0  
                            u12610 076C                              u13330 4F18  
                            u10931 3F94                              u11731 3EEC  
                            u12611 0768                              u13331 4F14  
                            u10940 3FB2                              u11740 3F40  
                            u12700 0A46                              u12620 077E  
                            u13340 4F34                              u10941 3FAE  
                            u11741 3F3C                              u12701 0A42  
                            u12621 077A                              u13341 4F30  
                            u10950 3FD8                              u12710 0A54  
                            u12630 0806                              u10951 3FD4  
                            u12711 0A50                              u12631 0802  
                            u10960 4032                              u12800 0E5E  
                            u12720 0A7E                              u12640 08A4  
                            u12560 0638                              u10961 402E  
                            u12801 0E5A                              u12721 0A7A  
                            u12641 08A0                              u12561 0634  
                            u10970 4042                              u12810 0E6C  
                            u12730 0BC8                              u12650 08D8  
                            u12570 0682                              u10971 403E  
                            u12811 0E68                              u12731 0BC4  
                            u12651 08D4                              u12571 067E  
                            u10980 3766                              u12820 0EC0  
                            u12740 0C32                              u12660 0924  
                            u12580 0692                              u10981 3762  
                            u12821 0EBC                              u12741 0C2E  
                            u12661 0920                              u12581 068E  
                            u10990 3774                              u12830 0F94  
                            u12750 0C7A                              u12670 09C2  
                            u12590 06D2                              u10991 3770  
                            u12831 0F90                              u12751 0C76  
                            u12671 09BE                              u12591 06CE  
                            u12840 0FB0                              u12760 0C8A  
                            u12680 09FA                              u12841 0FAC  
                            u12761 0C86                              u12681 09F6  
                            u12850 101C                              u12770 0D28  
                            u12690 0A10                              u12851 1016  
                            u12771 0D24                              u12691 0A0C  
                            u12860 101E                              u12780 0D76  
                            u12781 0D72                              u12870 1032  
                            u12790 0E22                              u12871 102E  
                            u12791 0E1E                              i1l230 00F6  
                            i1l153 4BD4                              i1l242 526C  
                            i1l146 4BAC                              i1l251 5266  
                            i1l155 4BE2                              i1l156 4BE6  
                            i1l236 4968                              i1l245 526A  
                            i1l149 4BBE                              i1l173 5260  
                            i1l248 5268                         i1memcpy@d1 0007  
                            i1l523 4862                              i2l220 4B14  
                            i1l534 4378                              i2l153 4C36  
                            i2l233 526E                              i1l529 4332  
                            i1l801 23B6                              i1l561 4274  
                            i2l146 4C0E                              i1l538 519C  
                            i2l155 4C44                              i2l156 4C48  
                            i2l149 4C20                              i2l165 4EF0  
                            i1l806 2292                              i1l825 237A  
                            i1l809 2204                              i1l922 3C6E  
                            i1l818 22D2                              i1l834 50A4  
                            i1l851 314E                              i1l819 22C0  
                            i1l860 3234                              i1l933 3C06  
                            i1l926 3BAA                              i1l846 3326  
                            i1l919 3B12                              i1l848 318A  
                            i1l792 20EA                              i1l857 31D0  
                            i1l793 20D8                              i1l858 31EE  
                            i1l882 2C04                              i1l794 209E  
                            i1l859 3246                              i1l885 2A9A  
                            i1l886 2AB8                              i1l878 28A4  
                            i1l958 5248                              i1l895 2BC6  
                            i1l887 2B10                              i1l888 2AFE  
                       i1memcpy@s1 0009                              i1l985 4A60  
                            i1l989 4AB6                              _RCREG 0FAE  
                     vfpfcnvrt@fmt 0147                              _H_ISR 0008  
                            _SPBRG 0FAF                              _TRISB 0F93  
                            _TRISD 0F95                              _TXREG 0FAD  
                            i1_pad 4A4A                              _flags 0077  
                   i1___flmul@aexp 0014                     i1___flmul@bexp 0015  
                            _fputc 4578                              _fputs 4F88  
                   i1___flmul@sign 0013                              labs@a 00A7  
                   i1___flmul@temp 001E                     i1___flmul@prod 001A  
                            atoi@n 00AD                              pad@fp 00B8  
                            atoi@s 00A7                              _width 0073  
                            _putch 4B20                        _ClearBuffer 50EA  
                 __end_ofi1___flge 437A                   __end_ofi1___fleq 4864  
                            tablat 0FF5                     i1___fltol@exp1 0010  
                 __end_ofi1_efgtoa 1A4A                              ttemp5 007A  
                            ttemp6 007D                              ttemp7 0081  
                            status 0FD8                              wtemp8 007A  
                 __end_ofi1_floorf 3750                     ?___fpclassifyf 00A7  
                 __end_ofi1_memcpy 4EA2                    i1___fladd@signs 0013  
                 __end_ofi1_printf 524A                   __end_ofi1_strcpy 4E00  
                       i1printf@ap 0071                        i1_vfpfcnvrt 3C70  
                  __initialization 4C4A                       __end_of_labs 4D00  
                     __end_of_atoi 4068                       __end_of_main 4F3E  
                    i1vfprintf@fmt 0088                         _Initialize 51C2  
                ?i1_clear_terminal 0001                             ??_labs 00AB  
                           ??_atoi 00A9                             ??_main 00C5  
                      ?i1___xxtofl 0007                 ??i1_clear_terminal 0073  
                    __activetblptr 0002                             ?_H_ISR 0001  
                           ?i1_pad 0018                     i1vfpfcnvrt@fmt 006B  
                           ?_fputc 00A8                             ?_fputs 00B1  
                           _ADRESH 0FC4                             _ADRESL 0FC3  
                           _CCPR1L 0FBE                             ?_putch 0001  
                           i1l1000 1A48                             i1l1003 13FC  
                           i1l1005 124A                             i1l1104 4EA0  
                           i1l1033 1832                             i1l1130 4DFE  
                           i1l1050 3CD6                             i1l1116 470C  
                           i1l1124 50E8                             i1l1060 3E1E  
                           i1l1067 505E                             i1l1084 374E  
                           i1l1077 4576                             i1l1087 3692  
                           i1l1098 4DAA                             i1l8000 1F96  
                           i1l5530 3ACE                             i1l8002 1FA6  
                           i1l8010 1FCE                             i1l5540 3B4C  
                           i1l5532 3ADC                             i1l8100 21E4  
                           i1l8020 2006                             i1l8012 1FDE  
                           i1l8004 1FB6                             i1l5550 3BA0  
                           i1l5542 3B54                             i1l5534 3B22  
                           i1l8110 223E                             i1l8102 21F4  
                           i1l8030 201A                             i1l8022 200A  
                           i1l8014 1FF0                             i1l8006 1FC6  
                           i1l5560 3C16                             i1l5552 3BDC  
                           i1l5544 3B60                             i1l5536 3B38  
                           i1l5528 3ABE                             i1l8200 47BA  
                           i1l8120 226E                             i1l8112 2248  
                           i1l8104 221A                             i1l8040 202E  
                           i1l8032 201E                             i1l8024 200E  
                           i1l8016 1FFE                             i1l8008 1FC8  
                           i1l9000 168C                             i1l5570 3C5E  
                           i1l5562 3C1A                             i1l5554 3BE8  
                           i1l5546 3B92                             i1l8210 485A  
                           i1l8202 47E8                             i1l8130 22B8  
                           i1l8122 2272                             i1l8114 2256  
                           i1l8106 222A                             i1l8050 206A  
                           i1l8042 2032                             i1l8034 2022  
                           i1l8026 2012                             i1l8018 2002  
                           i1l9010 1760                             i1l9002 16C0  
                           i1l5564 3C3E                             i1l5556 3BF6  
                           i1l5548 3B94                             i1l8300 2FB2  
                           i1l8212 4860                             i1l8204 47F8  
                           i1l8220 42B4                             i1l8140 2336  
                           i1l8124 2282                             i1l8116 2258  
                           i1l8060 20BC                             i1l8052 2086  
                           i1l8044 2036                             i1l8036 2026  
                           i1l8028 2016                             i1l9020 1786  
                           i1l9004 1716                             i1l9012 1764  
                           i1l5566 3C4E                             i1l5558 3C14  
                           i1l8310 2FE6                             i1l8302 2FB4  
                           i1l8206 4826                             i1l8230 4320  
                           i1l8222 42E2                             i1l8150 2388  
                           i1l8134 22E2                             i1l8142 2338  
                           i1l8118 2266                             i1l8126 2284  
                           i1l8070 2108                             i1l8062 20CA  
                           i1l8054 2096                             i1l8046 203A  
                           i1l8038 202A                             i1l9030 1850  
                           i1l9022 1792                             i1l9014 1774  
                           i1l9006 171A                             i1l5568 3C5C  
                           i1l8400 3262                             i1l8320 3016  
                           i1l8304 2FC4                             i1l8312 2FEC  
                           i1l8208 4836                             i1l8232 4370  
                           i1l8224 42F2                             i1l8216 4276  
                           i1l8240 517C                             i1l8160 23A6  
                           i1l8152 238E                             i1l8144 2348  
                           i1l8136 22EE                             i1l8128 22A2  
                           i1l8080 2148                             i1l8064 20CC  
                           i1l8056 20AC                             i1l8048 203E  
                           i1l9040 1882                             i1l9032 1860  
                           i1l9024 180A                             i1l9016 177C  
                           i1l9008 174E                             i1l9200 5038  
                           i1l8410 32CE                             i1l8402 3270  
                           i1l8330 304A                             i1l8322 3018  
                           i1l8314 2FFC                             i1l8306 2FD4  
                           i1l8234 4376                             i1l8226 4300  
                           i1l8218 42A4                             i1l8242 518C  
                           i1l8154 2390                             i1l8146 2358  
                           i1l8138 22FC                             i1l8090 2172  
                           i1l8082 2154                             i1l8074 211C  
                           i1l8066 20D6                             i1l8058 20B8  
                           i1l8170 50C8                             i1l9050 18B6  
                           i1l9042 1886                             i1l9034 1864  
                           i1l9026 182A                             i1l9018 177E  
                           i1l9202 5054                             i1l8420 3314  
                           i1l8412 32E8                             i1l8404 329A  
                           i1l8340 308E                             i1l8324 3028  
                           i1l8332 3050                             i1l8316 3002  
                           i1l8308 2FE4                             i1l8228 4312  
                           i1l8500 29B0                             i1l8156 2396  
                           i1l8148 2378                             i1l8084 2158  
                           i1l8076 212C                             i1l8068 20F8  
                           i1l8092 2178                             i1l8260 41DA  
                           i1l8252 419A                             i1l8164 50A6  
                           i1l9060 1952                             i1l9052 18BA  
                           i1l9044 188C                             i1l9036 186A  
                           i1l9028 1842                             i1l9140 3C9A  
                           i1l9212 522A                             i1l9220 5256  
                           i1l8422 331A                             i1l8414 3300  
                           i1l8406 329E                             i1l8350 30B6  
                           i1l8342 3092                             i1l8334 3060  
                           i1l8326 3038                             i1l8318 3008  
                           i1l8510 2A54                             i1l8502 29CC  
                           i1l8238 5166                             i1l8158 23A4  
                           i1l8094 219E                             i1l8086 2166  
                           i1l8078 213A                             i1l8270 420A  
                           i1l8262 41E8                             i1l8254 41C4  
                           i1l8246 4170                             i1l8166 50B2  
                           i1l9070 19A6                             i1l9054 18C0  
                           i1l9038 1872                             i1l9046 1892  
                           i1l9062 1956                             i1l9150 3CCE  
                           i1l9142 3CA6                             i1l9214 5230  
                           i1l9222 48EE                             i1l8424 331C  
                           i1l8416 3302                             i1l8408 32B8  
                           i1l8360 3104                             i1l8336 3076  
                           i1l8328 3048                             i1l8520 2AAA  
                           i1l8512 2A62                             i1l8504 29D8  
                           i1l8440 280C                             i1l8432 27E0  
                           i1l8096 21D2                             i1l8088 2168  
                           i1l8280 4234                             i1l8272 4214  
                           i1l8256 41C6                             i1l8248 4186  
                           i1l8600 35C8                             i1l8168 50C4  
                           i1l9080 1A20                             i1l9072 19D6  
                           i1l9064 1974                             i1l9056 1918  
                           i1l9048 18A4                             i1l9160 3D4E  
                           i1l9144 3CAA                             i1l9136 3C70  
                           i1l9224 494A                             i1l8418 3306  
                           i1l8370 314C                             i1l8362 3114  
                           i1l8354 30CA                             i1l8338 3086  
                           i1l8346 30A6                             i1l8530 2B2C  
                           i1l8522 2AC8                             i1l8514 2A80  
                           i1l8506 29F4                             i1l8450 2848  
                           i1l8442 281C                             i1l8434 27EC  
                           i1l8098 21D4                             i1l8290 5060  
                           i1l8282 4244                             i1l8258 41D6  
                           i1l8602 35D6                             i1l8610 36B6  
                           i1l9082 1A28                             i1l9074 19E2  
                           i1l9066 1990                             i1l9058 194C  
                           i1l9154 3CDC                             i1l9146 3CB6  
                           i1l9138 3C92                             i1l9226 4964  
                           i1l9250 004E                             i1l8380 319A  
                           i1l8372 3158                             i1l8364 311A  
                           i1l8356 30E4                             i1l8348 30B6  
                           i1l8540 2B96                             i1l8532 2B3A  
                           i1l8524 2AF6                             i1l8516 2A8A  
                           i1l8508 2A1E                             i1l8460 287E  
                           i1l8452 284E                             i1l8444 282C  
                           i1l8436 27FA                             i1l8292 5070  
                           i1l8284 4254                             i1l8268 4200  
                           i1l8612 36F2                             i1l9076 19FA  
                           i1l9068 1998                             i1l9164 3D82  
                           i1l9156 3CFA                             i1l9148 3CC8  
                           i1l9180 3DF8                             i1l9252 005C  
                           i1l9260 008E                             i1l8382 31B0  
                           i1l8390 31E0                             i1l8374 3176  
                           i1l8366 312A                             i1l8358 30F4  
                           i1l8550 2BE8                             i1l8542 2BB0  
                           i1l8534 2B64                             i1l8518 2A98  
                           i1l8462 288E                             i1l8454 285C  
                           i1l8446 2832                             i1l8438 27FC  
                           i1l8286 4264                             i1l8278 4228  
                           i1l8614 3706                             i1l8606 3646  
                           i1l8622 4D56                             i1l8630 4E52  
                           i1l9078 1A0A                             i1l9174 3DD4  
                           i1l9166 3D98                             i1l9158 3D1A  
                           i1l9270 00B8                             i1l9262 009C  
                           i1l9254 0070                             i2l5520 4BFC  
                           i2l5600 4EE6                             i1l8392 31FE  
                           i1l8384 31B6                             i1l8376 3178  
                           i1l8368 313E                             i1l8296 2F98  
                           i1l8552 2BEA                             i1l8544 2BC0  
                           i1l8528 2B20                             i1l8536 2B68  
                           i1l8480 2910                             i1l8472 28D8  
                           i1l8464 2894                             i1l8456 285E  
                           i1l8448 2842                             i1l8616 372E  
                           i1l8608 3682                             i1l8624 4D64  
                           i1l8632 4E66                             i1l8640 4E86  
                           i1l8560 4A4A                             i1l9168 3DA6  
                           i1l9176 3DEC                             i1l9280 00D8  
                           i1l9272 00BC                             i1l9264 00A0  
                           i1l9256 007C                             i2l5522 4C1C  
                           i2l5602 4EEA                             i1l8394 322C  
                           i1l8386 31C0                             i1l8378 3188  
                           i1l8298 2FA4                             i1l8546 2BCA  
                           i1l8554 2BF0                             i1l8538 2B82  
                           i1l8490 295A                             i1l8482 2928  
                           i1l8474 28E4                             i1l8466 28B4  
                           i1l8458 286E                             i1l8618 373E  
                           i1l8626 4D78                             i1l8634 4E72  
                           i1l8570 4AA2                             i1l8562 4A58  
                           i1l8642 4DAC                             i1l9282 00DA  
                           i1l9274 00C4                             i1l9266 00A8  
                           i1l9258 007E                          ??i1_fputc 000C  
                           i2l5524 4C2E                             i2l5700 4B0A  
                           i1l8388 31CE                             i1l8556 2BF4  
                           i1l8548 2BDA                             i1l8492 296A  
                           i1l8484 2934                             i1l8476 28EE  
                           i1l8468 28C4                             i1l8580 450C  
                           i1l8572 447A                             i1l8636 4E76  
                           i1l8564 4A6C                             i1l8644 4DB4  
                           i1l8900 116C                             i1l9196 5018  
                           i1l9284 00E8                             i1l9276 00C6  
                           i1l9268 00AA                             i2l5518 4BEA  
                           i2l5702 4B10                             i1l8398 3256  
                           i1l8494 2976                             i1l8486 2940  
                           i1l8478 2904                             i1l8590 456E  
                           i1l8574 449A                             i1l8638 4E82  
                           i1l7950 4B9A                             i1l8566 4A80  
                           i1l8910 11CA                             i1l8902 1174  
                           i1l9198 5020                             i1l9286 00EC  
                           i1l9278 00D4                             i1l8496 2986  
                           i1l8488 294E                             i1l8576 44D8  
                           i1l8584 4518                             i1l7952 4BBA  
                           i1l7960 4668                             i1l8568 4A84  
                           i1l8912 11CE                             i1l9288 00F4  
                           i1l8498 29A0                             i1l7970 1F02  
                           i1l8586 452A                             i1l8578 4500  
                           i1l8594 353E                             i1l7954 4BCC  
                           i1l7962 4672                             i1l8930 125A  
                           i1l8914 11D4                             i1l8906 1194  
                           i1l7980 1F3E                             i1l7972 1F0E  
                           i1l8596 355E                             i1l7948 4B88  
                           i1l7964 4690                             i1l7956 4644  
                           i1l8940 133C                             i1l8932 125E  
                           i1l8916 11DC                             i1l8908 11BA  
                           i1l8924 11FC                             i2l5590 4EA2  
                           i1l7990 1F6C                             i1l7982 1F4E  
                           i1l7974 1F1C                             i1l8598 35B4  
                           i1l7966 46C6                             i1l7958 4656  
                           i1l8942 1350                             i1l8950 13CA  
                           i1l8934 1292                             i1l8926 1214  
                           i1l8870 1098                             i2l5592 4EA6  
                           i1l7992 1F7E                             i1l7984 1F50  
                           i1l7976 1F1E                             i1l8960 142E  
                           i1l8952 1404                             i1l8944 1384  
                           i1l8936 12CE                             i1l8880 10E0  
                           i1l8872 109C                             i2l5594 4EBE  
                           i2l5690 4AE6                             i2l5682 4AC2  
                           i1l7994 1F80                             i1l7978 1F2E  
                           i1l7986 1F56                             i1l8970 147C  
                           i1l8962 1432                             i1l8954 1412  
                           i1l8946 138A                             i1l8938 1300  
                           i1l8890 112E                             i1l8882 10F0  
                           i1l8874 10C0                             i1l8866 1078  
                        ??i1_fputs 0015                             i2l5692 4AEA  
                           i2l5684 4AD0                             i1l7996 1F86  
                           i1l7988 1F66                             i1l8980 1514  
                           i1l8964 1444                             i1l8972 1484  
                           i1l8956 141E                             i1l8892 113E  
                           i1l8884 10FC                             i1l8876 10C8  
                           i1l8868 108A                             i2l5598 4ED4  
                           i2l5694 4AEC                             i2l5686 4AD2  
                           i1l7998 1F94                             i1l8990 15F6  
                           i1l8982 156C                             i1l8974 148C  
                           i1l8966 1452                             i1l8958 1426  
                           i1l8894 1142                             i1l8886 1104  
                           i1l8878 10D0                             i2l5688 4AD6  
                           i2l5696 4AEE                             i1l8992 1628  
                           i1l8984 15A0                             i1l8976 149C  
                           i1l8968 146A                             i1l8896 1148  
                           i1l8888 1108                             i2l5698 4AFC  
                           i1l8994 163C                             i1l8978 14B0  
                           i1l8986 15A4                             i1l8898 1150  
                           i1l8996 166E                             i1l8988 15C2  
                           i1l8998 167C                          ??i1_putch 0007  
                      i1memcpy@tmp 000D                          ??i2_putch 0001  
                 __end_of___xxtofl 3908                             i1_labs 4D56  
                           i1pad@i 001F                             i1pad@p 001C  
                           _Lo_ISR 0018                      i1_efgtoa$1841 0043  
                     vfprintf@cfmt 00C4                        ?i1_vfprintf 0086  
                           ___flge 3E20                             ___fleq 470E  
                  i1___fpclassifyf 447A                          ??___fladd 00AF  
                        ??___fldiv 00AF                          ??___flneg 00AB  
                        ??___flmul 00AF                          ??___flsub 00C0  
                        ??___fltol 00AB                             _efgtoa 0616  
              _current_servo_angle 00D1                             _buffer 0200  
                           _floorf 3328                             _memcpy 4E00  
                keyboard_input@str 015E                             clear_0 4C70  
                           clear_1 4C7C                             clear_2 4C88  
                           isa$std 0001                             _printf 519E  
                           pad@buf 00BA                             _strcpy 4D00  
                __end_ofi1___fladd 23B8                  __end_ofi1___fldiv 3328  
                __end_ofi1___flneg 519E                  __end_ofi1___flmul 2C06  
                __end_ofi1___flsub 50A6                  __end_ofi1___fltol 4276  
                           fputc@c 00A8                             fputs@c 00B5  
                           fputs@i 00B6                             fputs@s 00B1  
                  ___fpclassifyf@e 00AF                    ___fpclassifyf@u 00B1  
                  ___fpclassifyf@x 00A7                       __mediumconst 0600  
                           tblptrh 0FF7                             tblptrl 0FF6  
                           tblptru 0FF8                    i1___fltol@sign1 000F  
                     i1efgtoa@mode 0046                       i1efgtoa@sign 005E  
                 __end_of_vfprintf 4F88                         ___flge@ff1 0100  
                  ??___fpclassifyf 00AB                         ___flge@ff2 0104  
                     ___xxtofl@arg 00B9                       ___xxtofl@exp 00B8  
                     ___xxtofl@val 00AF                         ___fleq@ff1 00A7  
                       ___fleq@ff2 00AB                         __accesstop 0080  
          __end_of__initialization 4C9A                         ___flneg@f1 00A7  
                    ___rparam_used 0001                         ___fltol@f1 00A7  
   _variable_register_changed$2431 0092                      __end_of_H_ISR 4B20  
                      i1printf@fmt 008B                      __end_ofi1_pad 4AB8  
                __end_of_GetString 4A4A                     __pcstackCOMRAM 0001  
                     __pidataBANK0 5262                     i1vfprintf@cfmt 0070  
                      i1putch@data 0007                      __end_of_fputc 4644  
                    __end_of_fputs 4FD0                        ?_Initialize 0001  
                    __end_of_putch 4B86                          ?i1___flge 0020  
                        ?i1___fleq 0007                          ?i1_efgtoa 0034  
                          ??_H_ISR 0004                        i2putch@data 0001  
                        ?i1_floorf 0020                          ?i1_memcpy 0007  
                          ??i1_pad 001E                      ??_MyusartRead 0002  
                        ?i1_printf 008B                          ?i1_strcpy 0007  
                          ??_fputc 00AC                            ??_fputs 00B5  
                      i1strcpy@src 0009                            ??_putch 00A7  
                       __pbssBANK0 00C5                         __pbssBANK1 0164  
                       __pbssBANK2 0200                     i1___xxtofl@arg 0011  
                   i1___xxtofl@exp 0010            __end_ofi1___fpclassifyf 4578  
                   i1___xxtofl@val 0007                            ?i1_labs 0007  
                          ?_Lo_ISR 0001                            ?___flge 0100  
                          ?___fleq 00A7                            ?_efgtoa 0110  
      ??_variable_register_changed 0073                            ?_floorf 00C0  
                          ?_memcpy 00A7                     _clear_terminal 524A  
                       ??i1___flge 0028                         ??i1___fleq 000F  
                          ?_printf 0157                            ?_strcpy 00A7  
                       ??i1_efgtoa 003B                         ??i1_floorf 0024  
                       ??i1_memcpy 000D                          ?___xxtofl 00AF  
                       ??i1_printf 0071                         ??i1_strcpy 000B  
                       _btn_interr 0078                       ?_ClearBuffer 0001  
                          i1_fputc 4644                            i1_fputs 50A6  
              __end_of_MyusartRead 4EF2                            i1labs@a 0007  
                          i1pad@fp 0018                            i1_putch 4B86  
                          i2_putch 4BE8                            __Hparam 0000  
                     ?i1_vfpfcnvrt 0069                            __Lparam 0000  
           __end_of_clear_terminal 5256                            ___fladd 1A4A  
                          ___fldiv 2C06                            ___flneg 512C  
                          ___flmul 23B8                            ___flsub 4FD0  
                          ___fltol 4068                          ?_vfprintf 0152  
                     __psmallconst 0600                            __pcinit 4C4A  
                          __ramtop 0600                            _g_value 00CD  
                     ??i1___xxtofl 000B                            __ptext0 4EF2  
                          __ptext1 4864                            __ptext2 524A  
                          __ptext3 519E                            __ptext4 4F3E  
                          __ptext5 3908                            __ptext6 0616  
                          __ptext7 496A                            __ptext8 4F88  
                          __ptext9 4578                          _T0CONbits 0FD5  
                        _T1CONbits 0FCD                          _T2CONbits 0FCA  
                       ??___xxtofl 00B3                          _T3CONbits 0FB1  
                          efgtoa@c 0116                            efgtoa@d 0124  
                          efgtoa@e 0128                            efgtoa@f 0112  
                          efgtoa@g 013B                            efgtoa@h 0132  
                          efgtoa@i 0130                            efgtoa@l 0136  
                          efgtoa@m 0126                            efgtoa@n 013F  
                          efgtoa@p 011B                            efgtoa@t 011D  
                          efgtoa@u 0141                            efgtoa@w 012A  
       __end_of_timer0_interrupted 526E                            atoi@neg 00AC  
        _variable_register_changed 48EE                            main@str 0264  
                   __pintcode_body 4AB8               end_of_initialization 4C9A  
                          floorf@e 010A                            floorf@m 0106  
                          floorf@u 010C                            floorf@x 00C0  
                          memcpy@d 00AE                            memcpy@n 00AB  
                          memcpy@s 00B0                            fputc@fp 00AA  
                        i1u1200_20 314C                          i1u1200_21 3148  
                        i1u1201_20 3176                          i1u1121_20 4B9A  
                        i1u1201_21 3172                          i1u1121_21 4B96  
                        i1u1210_20 3270                          i1u1202_20 319A  
                        i1u1130_20 1F1C                          i1u1122_20 4BAC  
                        i1u1210_21 326C                          i1u1202_21 3196  
                        i1u1130_21 1F18                          i1u1122_21 4BA8  
                        i1u1211_20 32B8                          i1u1203_20 31B0  
                        i1u1131_20 1F2E                          i1u1123_20 4BBA  
                        i1u1211_21 32B4                          i1u1203_21 31AC  
                        i1u1131_21 1F2A                          i1u1123_21 4BB6  
                        i1u1212_20 32E8                          i1u1204_20 31CE  
                        i1u1220_20 28B4                          i1u1140_20 2082  
                        i1u1132_20 1F3E                          i1u1124_20 4BCC  
                        i1u1300_20 13FC                          i1u1212_21 32E4  
                        i1u1204_21 31CA                          i1u1220_21 28B0  
                        i1u1140_21 207C                          i1u1132_21 1F3A  
                        i1u1124_21 4BC8                          i1u1300_21 13F8  
                        i1u1213_20 3314                          i1u1205_20 31EE  
                        i1u1221_20 28C4                          i1u1141_20 2084  
                        i1u1133_20 1F7E                          i1u1125_20 4BE2  
                        i1u1301_20 1412                          i1u1213_21 3310  
                        i1u1205_21 31EA                          i1u1221_21 28C0  
                        i1u1133_21 1F7A                          i1u1125_21 4BDE  
                        i1u1301_21 140E                          i1u1206_20 31FE  
                        i1u1230_20 2B82                          i1u1222_20 2A3E  
                        i1u1214_20 27FA                          i1u1150_20 219E  
                        i1u1142_20 20AC                          i1u1134_20 1F94  
                        i1u1126_20 4656                          i1u1310_20 1760  
                        i1u1302_20 1444                          i1u1206_21 31FA  
                        i1u1230_21 2B7E                          i1u1214_21 27F6  
                        i1u1150_21 219A                          i1u1142_21 20A8  
                        i1u1134_21 1F90                          i1u1126_21 4652  
                        i1u1310_21 175C                          i1u1302_21 1440  
                        i1u1222_25 2A34                          i1u1207_20 322C  
                        i1u1231_20 2BB0                          i1u1223_20 2A98  
                        i1u1215_20 280C                          i1u1151_20 21E4  
                        i1u1143_20 20CA                          i1u1135_20 1FA6  
                        i1u1127_20 4668                          i1u1311_20 180A  
                        i1u1303_20 1452                          i1u1207_21 3228  
                        i1u1231_21 2BAC                          i1u1223_21 2A94  
                        i1u1215_21 2808                          i1u1151_21 21E0  
                        i1u1143_21 20C6                          i1u1135_21 1FA2  
                        i1u1127_21 4664                          i1u1311_21 1806  
                        i1u1303_21 144E                          i1u1208_20 3242  
                        i1u1232_20 2BE8                          i1u1224_20 2AB8  
                        i1u1216_20 281C                          i1u1160_20 22CE  
                        i1u1152_20 221A                          i1u1144_20 20EA  
                        i1u1136_20 1FB6                          i1u1240_20 4564  
                        i1u1128_20 4690                          i1u1312_20 1842  
                        i1u1304_20 147C                          i1u1208_21 323E  
                        i1u1232_21 2BE4                          i1u1224_21 2AB4  
                        i1u1216_21 2818                          i1u1160_21 22CA  
                        i1u1152_21 2216                          i1u1144_21 20E6  
                        i1u1136_21 1FB2                          i1u1240_21 455E  
                        i1u1128_21 468C                          i1u1312_21 183E  
                        i1u1304_21 1478                          i1u1209_20 3256  
                        i1u1225_20 2AC8                          i1u1217_20 285C  
                        i1u1161_20 22E2                          i1u1153_20 222A  
                        i1u1145_20 20F8                          i1u1137_20 1FF0  
                        i1u1241_20 4566                          i1u1129_20 46C6  
                        i1u1233_20 4A58                          i1u1313_20 1850  
                        i1u1305_20 15C2                          i1u1209_21 3252  
                        i1u1225_21 2AC4                          i1u1217_21 2858  
                        i1u1161_21 22DE                          i1u1153_21 2226  
                        i1u1145_21 20F4                          i1u1137_21 1FEC  
                        i1u1129_21 46C2                          i1u1233_21 4A54  
                        i1u1313_21 184C                          i1u1305_21 15BE  
                        i1u1226_20 2AF6                          i1u1218_20 286E  
                        i1u1162_20 22FC                          i1u1154_20 2256  
                        i1u1146_20 2108                          i1u1138_20 1FFE  
                        i1u1250_20 36F2                          i1u1242_20 3586  
                        i1u1234_20 4AA2                          i1u1314_20 18A4  
                        i1u1306_20 1628                          i1u1322_20 3C92  
                        i1u1330_20 00B8                          i1u1226_21 2AF2  
                        i1u1218_21 286A                          i1u1162_21 22F8  
                        i1u1154_21 2252                          i1u1146_21 2104  
                        i1u1138_21 1FFA                          i1u1250_21 36EE  
                        i1u1234_21 4A9E                          i1u1314_21 18A0  
                        i1u1306_21 1624                          i1u1322_21 3C8E  
                        i1u1330_21 00B4                      __Lmediumconst 0000  
                        i1u1242_25 357C                          i1u1227_20 2B0C  
                        i1u1219_20 287E                          i1u1163_20 2336  
                        i1u1155_20 2266                          i1u1147_20 213A  
                        i1u1139_20 206A                          i1u1235_20 44BA  
                        i1u1251_20 372E                          i1u1243_20 35B4  
                        i1u1315_20 1974                          i1u1307_20 166E  
                        i1u1323_20 3D16                          i1u1331_20 00D4  
                        i1u1227_21 2B08                          i1u1219_21 287A  
                        i1u1163_21 2332                          i1u1155_21 2262  
                        i1u1147_21 2136                          i1u1139_21 2066  
                        i1u1251_21 372A                          i1u1243_21 35B0  
                        i1u1315_21 1970                          i1u1307_21 166A  
                        i1u1323_21 3D12                          i1u1331_21 00D0  
                        i1u1235_25 44B0                          i1u1180_20 4300  
                        i1u1228_20 2B20                          i1u1164_20 2348  
                        i1u1156_20 2282                          i1u1148_20 2148  
                        i1u1236_20 44D8                          i1u1244_20 35D6  
                        i1u1252_20 4D64                          i1u1316_20 1990  
                        i1u1308_20 167C                          i1u1332_20 00E8  
                        i1u1180_21 42FC                          i1u1228_21 2B1C  
                        i1u1164_21 2344                          i1u1156_21 227E  
                        i1u1148_21 2144                          i1u1236_21 44D4  
                        i1u1244_21 35D2                          i1u1252_21 4D60  
                        i1u1316_21 198C                          i1u1308_21 1678  
                        i1u1332_21 00E4                          i1u1181_20 4320  
                        i1u1229_20 2B3A                          i1u1165_20 2358  
                        i1u1157_20 2292                          i1u1149_20 2166  
                        i1u1237_20 4500                          i1u1253_20 4EA0  
                        i1u1317_20 19F4                          i1u1309_20 1716  
                        i1u1325_20 5054                          i1u1181_21 431C  
                        i1u1229_21 2B36                          i1u1165_21 2354  
                        i1u1157_21 228E                          i1u1149_21 2162  
                        i1u1237_21 44FC                          i1u1253_21 4E9C  
                        i1u1317_21 19EE                          i1u1309_21 1712  
                        i1u1325_21 5050                          i1u1245_25 35EA  
                        i1u1245_26 35F4                          i1u1245_27 3604  
                          int_func 4AB8                          i1u1182_20 4370  
                        i1u1166_20 2378                          i1u1158_20 22A2  
                        i1u1190_20 4254                          i1u1238_20 452A  
                        i1u1246_20 3642                          i1u1254_20 4DEC  
                        i1u1318_20 19F6                          i1u1182_21 436C  
                        i1u1166_21 2374                          i1u1158_21 229E  
                        i1u1190_21 4250                          i1u1238_21 4526  
                        i1u1246_21 363E                            fputs@fp 00B3  
                        i1u1254_27 4DE2                          i1u1191_20 2FB2  
                        i1u1175_20 47E8                          i1u1183_20 517C  
                        i1u1167_20 2388                          i1u1159_20 22B8  
                        i1u1247_20 3666                          i1u1255_20 4DFE  
                        i1u1319_20 1A0A                          i1u1191_21 2FAE  
                        i1u1175_21 47E4                          i1u1183_21 5178  
                        i1u1167_21 2384                          i1u1159_21 22B4  
                        i1u1255_21 4DFA                          i1u1319_21 1A06  
                        i1u1239_25 453C                          i1u1247_25 365C  
                        i1u1335_27 0086                          i1u1192_20 2FC4  
                        i1u1176_20 4826                          i1u1168_20 23A4  
                        i1u1184_20 4186                          i1u1248_20 3682  
                        i1u1328_20 005C                          i1u1192_21 2FC0  
                        i1u1176_21 4822                          i1u1168_21 23A0  
                        i1u1184_21 4182                          i1u1248_21 367E  
                        i1u1328_21 0058                          i1u1193_20 2FD4  
                        i1u1177_20 485A                          i1u1185_20 41BA  
                        i1u1249_20 36D6                          i1u1169_20 50E8  
                        i1u1329_20 009C                          i1u1193_21 2FD0  
                        i1u1177_21 4856                          i1u1169_21 50E4  
                        i1u1329_21 0098                          i1u1185_25 41B0  
                        i1u1249_25 36CC                          i1u1194_20 3016  
                        i1u1178_20 42A4                          i1u1186_20 41E8  
                        i1u1290_20 10F0                          i1u1194_21 3012  
                        i1u1178_21 42A0                          i1u1186_21 41E4  
                        i1u1290_21 10EC                          i1u1195_20 3028  
                        i1u1179_20 42E2                          i1u1187_20 41FC  
                        i1u1291_20 112E                          i1u1195_21 3024  
                        i1u1179_21 42DE                          i1u1187_21 41F8  
                        i1u1291_21 112A                          i1u1196_20 3038  
                        i1u1188_20 4224                          i1u1292_20 113E  
                        i1u1196_21 3034                          i1u1188_21 4220  
                        i1u1292_21 113A                          i1u1197_20 3076  
                        i1u1189_20 4244                          i1u1293_20 11BA  
                        i1u1197_21 3072                          i1u1189_21 4240  
                        i1u1293_21 11B6                          i1u1198_20 30B6  
                        i1u1294_20 11CA                          i1u1198_21 30B2  
                        i1u1294_21 11C6                          i1u1199_20 312A  
                        i1u1295_20 1246                          i1u1199_21 3126  
                        i1u1295_21 1242                          i1u1296_20 12CE  
                        i1u1288_20 1098                          i1u1296_21 12CA  
                        i1u1288_21 1094                          i1u1297_20 1300  
                        i1u1289_20 10E0                          i1u1297_21 12FC  
                        i1u1289_21 10DC                          i1u1298_20 133C  
                        i1u1298_21 1338                          i1u1299_20 13C6  
                        i1u1299_21 13C2                   ?i1___fpclassifyf 0007  
                        i2u1336_47 4ADC                 __end_ofi1___xxtofl 3C70  
                     ??i1_vfprintf 0070                  __end_of_vfpfcnvrt 3ABC  
                       efgtoa@mode 0122                         efgtoa@sign 013A  
                        _RCSTAbits 0FAB                            postdec1 0FE5  
                          postdec2 0FDD                    ?_clear_terminal 0001  
                          postinc0 0FEE                            postinc1 0FE6  
                          postinc2 0FDE                   vfpfcnvrt@convarg 014C  
                    i1efgtoa@nmode 0047                         ??_vfprintf 00C4  
                          strcpy@d 00AD                        ___fladd@grs 00B6  
                    ___xxtofl@sign 00B7                          _TRISAbits 0F92  
                        _TRISCbits 0F94                        _MyusartRead 4EA2  
                        i1___fladd 1F02                          i1___fldiv 2F98  
                        i1___flneg 5166                          i1___flmul 27E0  
                      ___fldiv@grs 00BA                          i1___flsub 5060  
                        i1___fltol 4170                        ___fldiv@rem 00B3  
       __end_of_timer1_interrupted 526C                 __end_ofi1_vfprintf 5060  
                      ___flmul@grs 00B5                        _CCP1CONbits 0FBD  
                        _TXSTAbits 0FAC                          i1efgtoa@c 003A  
                        i1efgtoa@d 0048                          i1efgtoa@e 004C  
                        i1efgtoa@f 0036                          i1efgtoa@g 005F  
                        i1efgtoa@h 0056                          i1efgtoa@i 0054  
                        i1efgtoa@l 005A                          i1efgtoa@m 004A  
                        i1efgtoa@n 0063                          i1efgtoa@p 003F  
                        i1efgtoa@t 0041                          i1efgtoa@u 0065  
                        i1efgtoa@w 004E                     __end_ofi1_labs 4DAC  
                   __end_of_Lo_ISR 012E                       i1vfpfcnvrt@c 0084  
                        i1floorf@e 002E                          i1floorf@m 002A  
                        i1floorf@u 0030                          i1floorf@x 0020  
                   __end_of___flge 3F4A                     __end_of___fleq 47BA  
                        _GetString 49DC                       ??_Initialize 00A7  
                        i1memcpy@d 000E                          i1memcpy@n 000B  
                      vfpfcnvrt@ap 0148                          i1memcpy@s 0010  
                      vfpfcnvrt@cp 0151                        vfpfcnvrt@fp 0145  
                        i1fputc@fp 000A                        _BAUDCONbits 0FB8  
                   __end_of_efgtoa 1078                          i1fputs@fp 0013  
                   _ADC_Initialize 5208                     __end_of_floorf 353E  
                   __end_of_memcpy 4E52                         floorf@F521 00C5  
                   __end_of_printf 51C2                     __end_of_strcpy 4D56  
              start_initialization 4C4A                         ?i1___fladd 0007  
                     i1vfprintf@ap 0089                        __end_of_pad 49DC  
                     i1vfprintf@fp 0086                         ?i1___fldiv 0007  
                       ?i1___flneg 0007                         ?i1___flmul 0007  
                       ?i1___flsub 0020                         ?i1___fltol 0007  
       __end_of_timer2_interrupted 526A                       ClearBuffer@i 00A7  
                        i1strcpy@d 000D                  ??_UART_Initialize 00A7  
            __end_of___fpclassifyf 447A                 __end_of_Initialize 51E6  
                         ??i1_labs 000B                           ??_Lo_ISR 0096  
                      vfprintf@fmt 0154                           ??___flge 00C0  
                         ??___fleq 00AF                           ??_efgtoa 0117  
           __end_of_ADC_Initialize 522A                        __pdataBANK0 00D5  
                       ?_GetString 00AF                           ??_floorf 0100  
                         ??_memcpy 00AD                       i1strcpy@dest 0007  
                         ??_printf 00C5                     _keyboard_input 4864  
                         ??_strcpy 00AB                          ___fladd@a 00AB  
                        ___fladd@b 00A7                          ___fldiv@a 00AB  
                        ___fldiv@b 00A7                          ___flmul@a 00AB  
                        ___flmul@b 00A7                        __pbssCOMRAM 0073  
                        ___flsub@a 0104                          ___flsub@b 0100  
                    __pcstackBANK0 0080                      __pcstackBANK1 0100  
                    __pcstackBANK2 0264         __end_of_timer3_interrupted 5268  
                 i1_clear_terminal 5256                    i1___xxtofl@sign 000F  
                         ?i1_fputc 0008                           ?i1_fputs 0011  
                         ?i1_putch 0001                           ?i2_putch 0001  
                i1___fldiv@new_exp 0018                     _button_pressed 526E  
               i1vfpfcnvrt@convarg 0080                        _efgtoa$1841 011F  
                        __pintcode 0008                           ?___fladd 00A7  
                         ?___fldiv 00A7                           ?___flneg 00A7  
                         ?___flmul 00A7                           ?___flsub 0100  
                         ?___fltol 00A7             __end_of_keyboard_input 48EE  
                  ?_ADC_Initialize 0001                        __pintcodelo 0018  
                      __smallconst 0600                        ??i1___fladd 000F  
                      ??i1___fldiv 000F                        ??i1___flneg 000B  
                      ??i1___flmul 000F                        ??i1___flsub 0028  
                      ??i1___fltol 000B             __end_of_button_pressed 5270  
                 ??_clear_terminal 00C5                           _IPR1bits 0F9F  
                         _IPR2bits 0FA2                           _PIE1bits 0F9D  
                         _PIE2bits 0FA0                 _timer0_interrupted 526C  
                         i1u740_20 3C14                           i1u740_21 3C10  
                         i1u741_20 3C4E                           i1u733_20 3ACE  
                         i1u741_21 3C4A                           i1u733_21 3ACA  
                         i1u742_20 3C5C                           i1u734_20 3ADC  
                         i1u742_21 3C58                           i1u734_21 3AD8  
                         i1u735_20 3B38                           i1u735_21 3B34  
                         i1u736_20 3B8E                           i1u736_21 3B8A  
                         i1u737_20 3BD8                           i1u737_21 3BD4  
                         _PIR1bits 0F9E                           i1u738_20 3BF6  
                         i1u738_21 3BF2                           i1u739_20 3C06  
                         i1u739_21 3C02                           _PIR2bits 0FA1  
                         i2u730_40 4C1C                           i2u730_41 4C18  
                         i2u731_40 4C2E                           i2u731_41 4C2A  
                         i2u732_40 4C44                           i2u732_41 4C40  
                         i2u743_40 4EBE                           i2u751_40 4AD0  
                         i2u743_41 4EBA                           i2u751_41 4ACC  
                         i2u728_40 4BFC                           i2u744_40 4ED0  
                         i2u752_40 4AFC                           i2u728_41 4BF8  
                         i2u744_41 4ECC                           i2u752_41 4AF8  
                         i2u729_40 4C0E                           i2u753_40 4B0A  
                         i2u729_41 4C0A                           i2u753_41 4B06  
                      _buffer_size 00D3  __end_of_variable_register_changed 496A  
                         _RCONbits 0FD0                        ??_GetString 00B1  
                  ?_keyboard_input 015E                ?_timer0_interrupted 0001  
                        _vfpfcnvrt 3908                           i1___flge 4276  
                         i1___fleq 47BA                         _ADCON0bits 0FC2  
                       _ADCON1bits 0FC1                         _ADCON2bits 0FC0  
                         i1_efgtoa 1078                           i1_floorf 353E  
                         i1_memcpy 4E52                _keyboard_input$2190 0160  
                     ?_MyusartRead 0001                           i1_printf 522A  
                         i1pad@buf 001A                           i1_strcpy 4DAC  
                       vfpfcnvrt@c 0150                           i1fputc@c 0008  
                         i1fputs@c 0015                           i1fputs@i 0016  
                      _INTCON2bits 0FF1                           i1fputs@s 0011  
                        copy_data0 4C5E               ??_timer0_interrupted 0007  
                  ?_button_pressed 0001                           __Hrparam 0000  
               _timer1_interrupted 526A                          memcpy@tmp 00AD  
                       vfprintf@ap 0155                           __Lrparam 0000  
                       vfprintf@fp 0152                ?_timer1_interrupted 0001  
                       ?_vfpfcnvrt 0145                  i1___fpclassifyf@e 000F  
                i1___fpclassifyf@u 0011                  i1___fpclassifyf@x 0007  
               ___fpclassifyf@F465 00C9                    _UART_Initialize 51E6  
                         ___xxtofl 3750                           __ptext10 4B20  
                         __ptext11 4E00                           __ptext20 3E20  
                         __ptext12 4CA8                           __ptext21 470E  
                         __ptext13 3328                           __ptext30 50EA  
                         __ptext22 2C06                           __ptext14 437A  
                         __ptext23 3F4A                           __ptext15 4068  
                         __ptext40 50A6                           __ptext32 48EE  
                         __ptext24 3750                           __ptext16 4FD0  
                         __ptext41 4644                           __ptext33 5256  
                         __ptext25 51C2                           __ptext17 1A4A  
                         __ptext50 5166                           __ptext42 4B86  
                         __ptext34 522A                           __ptext26 51E6  
                         __ptext18 512C                           __ptext51 27E0  
                         __ptext43 4E52                           __ptext35 5018  
                         __ptext27 5208                           __ptext19 23B8  
                         __ptext52 4276                           __ptext44 4D56  
                         __ptext36 3C70                           __ptext28 49DC  
                         __ptext61 526E                           __ptext53 47BA  
                         __ptext45 353E                           __ptext37 1078  
                         __ptext29 4D00                           __ptext62 4EA2  
                         __ptext54 2F98                           __ptext46 447A  
                         __ptext38 4DAC                           __ptext63 4BE8  
                         __ptext55 3ABC                           __ptext47 4170  
                         __ptext39 4A4A                           __ptext56 5266  
                         __ptext48 5060                           __ptext57 5268  
                         __ptext49 1F02                           __ptext58 526A  
                         __ptext59 526C                       GetString@str 00AF  
             ??_timer1_interrupted 0007                         strcpy@dest 00A7  
   variable_register_changed@value 0090                 _timer2_interrupted 5268  
                         efgtoa@fp 0110                           efgtoa@ne 0119  
                         efgtoa@pp 0121                           efgtoa@ou 012C  
                         isa$xinst 0000                           int$flags 0079  
         __end_ofi1_clear_terminal 5262                           _vfprintf 4F3E  
                        printf@fmt 0157                ?_timer2_interrupted 0001  
                        putch@data 00A7                         _INTCONbits 0FF2  
                         memcpy@d1 00A7                           memcpy@s1 00A9  
                    ??_ClearBuffer 00A7                           intlevel1 0000  
                         intlevel2 0000               ??_timer2_interrupted 0007  
                      Lo_ISR@value 00A5                          strcpy@src 00A9  
                 ??_ADC_Initialize 00A7                      ??i1_vfpfcnvrt 006E  
                       _OSCCONbits 0FD3                 _timer3_interrupted 5266  
                      efgtoa@nmode 0123                           printf@ap 015C  
          __end_of_UART_Initialize 5208                        ??_vfpfcnvrt 014A  
              ?_timer3_interrupted 0001                  ??i1___fpclassifyf 000B  
                    ___fladd@signs 00B3               ??_timer3_interrupted 0007  
                     ___fladd@aexp 00B4                       ___fladd@bexp 00B5  
              __end_of_ClearBuffer 512C                   ??_keyboard_input 00C5  
