

Microchip MPLAB XC8 Assembler V3.00 build 20241204225717 
                                                                                               Thu Nov 27 12:49:02 2025

Microchip MPLAB XC8 C Compiler v3.00 (Free license) build 20241204225717 Og1 
     1                           	processor	18F4520
     2                           	fnconf	rparam,??,?,0
     3                           	pagewidth 120
     4                           	opt	flic
     5                           	psect	smallconst,global,reloc=2,class=SMALLCONST,space=0,delta=1,noexec
     6                           	psect	cinit,global,reloc=2,class=CODE,space=0,delta=1
     7                           	psect	bssCOMRAM,global,class=COMRAM,space=1,delta=1,lowdata,noexec
     8                           	psect	bssBANK0,global,class=BANK0,space=1,delta=1,lowdata,noexec
     9                           	psect	bssBANK1,global,class=BANK1,space=1,delta=1,lowdata,noexec
    10                           	psect	cstackBANK0,global,class=BANK0,space=1,delta=1,lowdata,noexec
    11                           	psect	cstackCOMRAM,global,class=COMRAM,space=1,delta=1,lowdata,noexec
    12                           	psect	text0,global,reloc=2,class=CODE,space=0,delta=1
    13                           	psect	text1,global,reloc=2,class=CODE,space=0,delta=1
    14                           	psect	text2,global,reloc=2,class=CODE,space=0,delta=1
    15                           	psect	text3,global,reloc=2,class=CODE,space=0,delta=1
    16                           	psect	text4,global,reloc=2,class=CODE,space=0,delta=1
    17                           	psect	text5,global,reloc=2,class=CODE,space=0,delta=1
    18                           	psect	text6,global,reloc=2,class=CODE,space=0,delta=1
    19                           	psect	text7,global,reloc=2,class=CODE,space=0,delta=1
    20                           	psect	text8,global,reloc=2,class=CODE,space=0,delta=1,group=3
    21                           	psect	text9,global,reloc=2,class=CODE,space=0,delta=1
    22                           	psect	intcodelo,global,reloc=2,class=CODE,space=0,delta=1
    23                           	psect	text11,global,reloc=2,class=CODE,space=0,delta=1
    24                           	psect	text12,global,reloc=2,class=CODE,space=0,delta=1
    25                           	psect	text13,global,reloc=2,class=CODE,space=0,delta=1
    26                           	psect	intcode,global,reloc=2,class=CODE,space=0,delta=1
    27                           	psect	intcode_body,global,reloc=2,class=CODE,space=0,delta=1
    28                           	psect	text15,global,reloc=2,class=CODE,space=0,delta=1
    29                           	psect	text16,global,reloc=2,class=CODE,space=0,delta=1
    30                           	psect	text17,global,reloc=2,class=CODE,space=0,delta=1,group=3
    31                           	psect	text18,global,reloc=2,class=CODE,space=0,delta=1,group=1
    32                           	psect	text19,global,reloc=2,class=CODE,space=0,delta=1,group=1
    33                           	psect	text20,global,reloc=2,class=CODE,space=0,delta=1,group=1
    34                           	psect	text21,global,reloc=2,class=CODE,space=0,delta=1,group=1
    35                           	psect	text22,global,reloc=2,class=CODE,space=0,delta=1,group=3
    36                           	psect	text23,global,reloc=2,class=CODE,space=0,delta=1,group=3
    37                           	psect	text24,global,reloc=2,class=CODE,space=0,delta=1
    38                           	psect	text25,global,reloc=2,class=CODE,space=0,delta=1,group=2
    39                           	psect	text26,global,reloc=2,class=CODE,space=0,delta=1,group=2
    40                           	psect	text27,global,reloc=2,class=CODE,space=0,delta=1,group=1
    41                           	psect	text28,global,reloc=2,class=CODE,space=0,delta=1
    42                           	psect	intsave_regs,global,class=BIGRAM,space=1,delta=1,noexec
    43                           	psect	rparam,global,class=COMRAM,space=1,delta=1,noexec
    44                           	psect	temp,global,ovrld,common,class=COMRAM,space=1,delta=1,lowdata
    45                           	psect	idloc,global,abs,ovrld,class=IDLOC,space=5,delta=1,noexec
    46                           	psect	config,global,abs,ovrld,class=CONFIG,space=4,delta=1,noexec
    47   000000                     
    48                           ; Generated 05/12/2024 GMT
    49                           ; 
    50                           ; Copyright © 2024, Microchip Technology Inc. and its subsidiaries ("Microchip")
    51                           ; All rights reserved.
    52                           ; 
    53                           ; This software is developed by Microchip Technology Inc. and its subsidiaries ("Microch
      +                          ip").
    54                           ; 
    55                           ; Redistribution and use in source and binary forms, with or without modification, are
    56                           ; permitted provided that the following conditions are met:
    57                           ; 
    58                           ;     1. Redistributions of source code must retain the above copyright notice, this lis
      +                          t of
    59                           ;        conditions and the following disclaimer.
    60                           ; 
    61                           ;     2. Redistributions in binary form must reproduce the above copyright notice, this 
      +                          list
    62                           ;        of conditions and the following disclaimer in the documentation and/or other
    63                           ;        materials provided with the distribution. Publication is not required when
    64                           ;        this file is used in an embedded application.
    65                           ; 
    66                           ;     3. Microchip's name may not be used to endorse or promote products derived from th
      +                          is
    67                           ;        software without specific prior written permission.
    68                           ; 
    69                           ; THIS SOFTWARE IS PROVIDED BY MICROCHIP "AS IS" AND ANY EXPRESS OR IMPLIED WARRANTIES,
    70                           ; INCLUDING, BUT NOT LIMITED TO, THE IMPLIED WARRANTIES OF MERCHANTABILITY AND FITNESS F
      +                          OR
    71                           ; PURPOSE ARE DISCLAIMED.  IN NO EVENT SHALL MICROCHIP BE LIABLE FOR ANY DIRECT, INDIREC
      +                          T,
    72                           ; INCIDENTAL, SPECIAL, EXEMPLARY, OR CONSEQUENTIAL DAMAGES (INCLUDING BUT NOT LIMITED TO
    73                           ; PROCUREMENT OF SUBSTITUTE GOODS OR SERVICES; LOSS OF USE, DATA OR PROFITS; OR BUSINESS
    74                           ; INTERRUPTION) HOWSOEVER CAUSED AND ON ANY THEORY OF LIABILITY, WHETHER IN CONTRACT, ST
      +                          RICT
    75                           ; LIABILITY, OR TORT (INCLUDING NEGLIGENCE OR OTHERWISE) ARISING IN ANY WAY OUT OF THE U
      +                          SE OF
    76                           ; THIS SOFTWARE, EVEN IF ADVISED OF THE POSSIBILITY OF SUCH DAMAGE.
    77                           ; 
    78                           ; 
    79                           ; Code-generator required, PIC18F4520 Definitions
    80                           ; 
    81                           ; SFR Addresses
    82   000FE0                     bsr             equ	4064
    83   000FE9                     fsr0            equ	4073
    84   000FEA                     fsr0h           equ	4074
    85   000FE9                     fsr0l           equ	4073
    86   000FE1                     fsr1            equ	4065
    87   000FE2                     fsr1h           equ	4066
    88   000FE1                     fsr1l           equ	4065
    89   000FD9                     fsr2            equ	4057
    90   000FDA                     fsr2h           equ	4058
    91   000FD9                     fsr2l           equ	4057
    92   000FEF                     indf0           equ	4079
    93   000FE7                     indf1           equ	4071
    94   000FDF                     indf2           equ	4063
    95   000FF2                     intcon          equ	4082
    96   000000                     nvmcon          equ	0
    97   000FF9                     pcl             equ	4089
    98   000FFA                     pclath          equ	4090
    99   000FFB                     pclatu          equ	4091
   100   000FEB                     plusw0          equ	4075
   101   000FE3                     plusw1          equ	4067
   102   000FDB                     plusw2          equ	4059
   103   000FED                     postdec0        equ	4077
   104   000FE5                     postdec1        equ	4069
   105   000FDD                     postdec2        equ	4061
   106   000FEE                     postinc0        equ	4078
   107   000FE6                     postinc1        equ	4070
   108   000FDE                     postinc2        equ	4062
   109   000FEC                     preinc0         equ	4076
   110   000FE4                     preinc1         equ	4068
   111   000FDC                     preinc2         equ	4060
   112   000FF3                     prod            equ	4083
   113   000FF4                     prodh           equ	4084
   114   000FF3                     prodl           equ	4083
   115   000FD8                     status          equ	4056
   116   000FF5                     tablat          equ	4085
   117   000FF6                     tblptr          equ	4086
   118   000FF7                     tblptrh         equ	4087
   119   000FF6                     tblptrl         equ	4086
   120   000FF8                     tblptru         equ	4088
   121   000FFD                     tosl            equ	4093
   122   000FE8                     wreg            equ	4072
   123   000F80                     PORTA           equ	3968	;# 
   124   000F81                     PORTB           equ	3969	;# 
   125   000F82                     PORTC           equ	3970	;# 
   126   000F83                     PORTD           equ	3971	;# 
   127   000F84                     PORTE           equ	3972	;# 
   128   000F89                     LATA            equ	3977	;# 
   129   000F8A                     LATB            equ	3978	;# 
   130   000F8B                     LATC            equ	3979	;# 
   131   000F8C                     LATD            equ	3980	;# 
   132   000F8D                     LATE            equ	3981	;# 
   133   000F92                     TRISA           equ	3986	;# 
   134   000F92                     DDRA            equ	3986	;# 
   135   000F93                     TRISB           equ	3987	;# 
   136   000F93                     DDRB            equ	3987	;# 
   137   000F94                     TRISC           equ	3988	;# 
   138   000F94                     DDRC            equ	3988	;# 
   139   000F95                     TRISD           equ	3989	;# 
   140   000F95                     DDRD            equ	3989	;# 
   141   000F96                     TRISE           equ	3990	;# 
   142   000F96                     DDRE            equ	3990	;# 
   143   000F9B                     OSCTUNE         equ	3995	;# 
   144   000F9D                     PIE1            equ	3997	;# 
   145   000F9E                     PIR1            equ	3998	;# 
   146   000F9F                     IPR1            equ	3999	;# 
   147   000FA0                     PIE2            equ	4000	;# 
   148   000FA1                     PIR2            equ	4001	;# 
   149   000FA2                     IPR2            equ	4002	;# 
   150   000FA6                     EECON1          equ	4006	;# 
   151   000FA7                     EECON2          equ	4007	;# 
   152   000FA8                     EEDATA          equ	4008	;# 
   153   000FA9                     EEADR           equ	4009	;# 
   154   000FAB                     RCSTA           equ	4011	;# 
   155   000FAB                     RCSTA1          equ	4011	;# 
   156   000FAC                     TXSTA           equ	4012	;# 
   157   000FAC                     TXSTA1          equ	4012	;# 
   158   000FAD                     TXREG           equ	4013	;# 
   159   000FAD                     TXREG1          equ	4013	;# 
   160   000FAE                     RCREG           equ	4014	;# 
   161   000FAE                     RCREG1          equ	4014	;# 
   162   000FAF                     SPBRG           equ	4015	;# 
   163   000FAF                     SPBRG1          equ	4015	;# 
   164   000FB0                     SPBRGH          equ	4016	;# 
   165   000FB1                     T3CON           equ	4017	;# 
   166   000FB2                     TMR3            equ	4018	;# 
   167   000FB2                     TMR3L           equ	4018	;# 
   168   000FB3                     TMR3H           equ	4019	;# 
   169   000FB4                     CMCON           equ	4020	;# 
   170   000FB5                     CVRCON          equ	4021	;# 
   171   000FB6                     ECCP1AS         equ	4022	;# 
   172   000FB6                     ECCPAS          equ	4022	;# 
   173   000FB7                     PWM1CON         equ	4023	;# 
   174   000FB7                     ECCP1DEL        equ	4023	;# 
   175   000FB8                     BAUDCON         equ	4024	;# 
   176   000FB8                     BAUDCTL         equ	4024	;# 
   177   000FBA                     CCP2CON         equ	4026	;# 
   178   000FBB                     CCPR2           equ	4027	;# 
   179   000FBB                     CCPR2L          equ	4027	;# 
   180   000FBC                     CCPR2H          equ	4028	;# 
   181   000FBD                     CCP1CON         equ	4029	;# 
   182   000FBE                     CCPR1           equ	4030	;# 
   183   000FBE                     CCPR1L          equ	4030	;# 
   184   000FBF                     CCPR1H          equ	4031	;# 
   185   000FC0                     ADCON2          equ	4032	;# 
   186   000FC1                     ADCON1          equ	4033	;# 
   187   000FC2                     ADCON0          equ	4034	;# 
   188   000FC3                     ADRES           equ	4035	;# 
   189   000FC3                     ADRESL          equ	4035	;# 
   190   000FC4                     ADRESH          equ	4036	;# 
   191   000FC5                     SSPCON2         equ	4037	;# 
   192   000FC6                     SSPCON1         equ	4038	;# 
   193   000FC7                     SSPSTAT         equ	4039	;# 
   194   000FC8                     SSPADD          equ	4040	;# 
   195   000FC9                     SSPBUF          equ	4041	;# 
   196   000FCA                     T2CON           equ	4042	;# 
   197   000FCB                     PR2             equ	4043	;# 
   198   000FCB                     MEMCON          equ	4043	;# 
   199   000FCC                     TMR2            equ	4044	;# 
   200   000FCD                     T1CON           equ	4045	;# 
   201   000FCE                     TMR1            equ	4046	;# 
   202   000FCE                     TMR1L           equ	4046	;# 
   203   000FCF                     TMR1H           equ	4047	;# 
   204   000FD0                     RCON            equ	4048	;# 
   205   000FD1                     WDTCON          equ	4049	;# 
   206   000FD2                     HLVDCON         equ	4050	;# 
   207   000FD2                     LVDCON          equ	4050	;# 
   208   000FD3                     OSCCON          equ	4051	;# 
   209   000FD5                     T0CON           equ	4053	;# 
   210   000FD6                     TMR0            equ	4054	;# 
   211   000FD6                     TMR0L           equ	4054	;# 
   212   000FD7                     TMR0H           equ	4055	;# 
   213   000FD8                     STATUS          equ	4056	;# 
   214   000FD9                     FSR2            equ	4057	;# 
   215   000FD9                     FSR2L           equ	4057	;# 
   216   000FDA                     FSR2H           equ	4058	;# 
   217   000FDB                     PLUSW2          equ	4059	;# 
   218   000FDC                     PREINC2         equ	4060	;# 
   219   000FDD                     POSTDEC2        equ	4061	;# 
   220   000FDE                     POSTINC2        equ	4062	;# 
   221   000FDF                     INDF2           equ	4063	;# 
   222   000FE0                     BSR             equ	4064	;# 
   223   000FE1                     FSR1            equ	4065	;# 
   224   000FE1                     FSR1L           equ	4065	;# 
   225   000FE2                     FSR1H           equ	4066	;# 
   226   000FE3                     PLUSW1          equ	4067	;# 
   227   000FE4                     PREINC1         equ	4068	;# 
   228   000FE5                     POSTDEC1        equ	4069	;# 
   229   000FE6                     POSTINC1        equ	4070	;# 
   230   000FE7                     INDF1           equ	4071	;# 
   231   000FE8                     WREG            equ	4072	;# 
   232   000FE9                     FSR0            equ	4073	;# 
   233   000FE9                     FSR0L           equ	4073	;# 
   234   000FEA                     FSR0H           equ	4074	;# 
   235   000FEB                     PLUSW0          equ	4075	;# 
   236   000FEC                     PREINC0         equ	4076	;# 
   237   000FED                     POSTDEC0        equ	4077	;# 
   238   000FEE                     POSTINC0        equ	4078	;# 
   239   000FEF                     INDF0           equ	4079	;# 
   240   000FF0                     INTCON3         equ	4080	;# 
   241   000FF1                     INTCON2         equ	4081	;# 
   242   000FF2                     INTCON          equ	4082	;# 
   243   000FF3                     PROD            equ	4083	;# 
   244   000FF3                     PRODL           equ	4083	;# 
   245   000FF4                     PRODH           equ	4084	;# 
   246   000FF5                     TABLAT          equ	4085	;# 
   247   000FF6                     TBLPTR          equ	4086	;# 
   248   000FF6                     TBLPTRL         equ	4086	;# 
   249   000FF7                     TBLPTRH         equ	4087	;# 
   250   000FF8                     TBLPTRU         equ	4088	;# 
   251   000FF9                     PCLAT           equ	4089	;# 
   252   000FF9                     PC              equ	4089	;# 
   253   000FF9                     PCL             equ	4089	;# 
   254   000FFA                     PCLATH          equ	4090	;# 
   255   000FFB                     PCLATU          equ	4091	;# 
   256   000FFC                     STKPTR          equ	4092	;# 
   257   000FFD                     TOS             equ	4093	;# 
   258   000FFD                     TOSL            equ	4093	;# 
   259   000FFE                     TOSH            equ	4094	;# 
   260   000FFF                     TOSU            equ	4095	;# 
   261   007D5C                     _CREN           set	32092
   262   007CF5                     _RCIF           set	31989
   263   000F8C                     _LATD           set	3980
   264   000F93                     _TRISB          set	3987
   265   000F95                     _TRISD          set	3989
   266   000F8B                     _LATC           set	3979
   267   000F94                     _TRISCbits      set	3988
   268   000F92                     _TRISAbits      set	3986
   269   000FCE                     _TMR1           set	4046
   270   000FC3                     _ADRESL         set	4035
   271   000FC4                     _ADRESH         set	4036
   272   000FBE                     _CCPR1L         set	4030
   273   000FAE                     _RCREG          set	4014
   274   000FAD                     _TXREG          set	4013
   275   000FD3                     _OSCCONbits     set	4051
   276   000FAB                     _RCSTAbits      set	4011
   277   000FAF                     _SPBRG          set	4015
   278   000FB8                     _BAUDCONbits    set	4024
   279   000FAC                     _TXSTAbits      set	4012
   280   000FD0                     _RCONbits       set	4048
   281   000FCB                     _PR2            set	4043
   282   000FBD                     _CCP1CONbits    set	4029
   283   000FCA                     _T2CONbits      set	4042
   284   000FC0                     _ADCON2bits     set	4032
   285   000FC1                     _ADCON1bits     set	4033
   286   000FC2                     _ADCON0bits     set	4034
   287   000FCD                     _T1CONbits      set	4045
   288   000F9D                     _PIE1bits       set	3997
   289   000F9F                     _IPR1bits       set	3999
   290   000F9E                     _PIR1bits       set	3998
   291   000FF2                     _INTCONbits     set	4082
   292                           
   293                           	psect	smallconst
   294   000600                     __psmallconst:
   295                           	callstack 0
   296   000600  00                 	db	0
   297   000601                     STR_1:
   298   000601  08                 	db	8
   299   000602  08                 	db	8
   300   000603  08                 	db	8
   301   000604  08                 	db	8
   302   000605  25                 	db	37
   303   000606  30                 	db	48	;'0'
   304   000607  34                 	db	52	;'4'
   305   000608  75                 	db	117	;'u'
   306   000609  00                 	db	0
   307   000601                     STR_2           equ	STR_1
   308   000601                     STR_3           equ	STR_1
   309   000601                     STR_4           equ	STR_1
   310   000601                     STR_5           equ	STR_1
   311   000601                     STR_6           equ	STR_1
   312   000601                     STR_7           equ	STR_1
   313   000601                     STR_8           equ	STR_1
   314   000601                     STR_9           equ	STR_1
   315   000601                     STR_10          equ	STR_1
   316   000601                     STR_11          equ	STR_1
   317   000601                     STR_12          equ	STR_1
   318   00060A  00                 	db	0	; dummy byte at the end
   319   000600                     __smallconst    set	__psmallconst
   320   000600                     __mediumconst   set	__psmallconst
   321   000002                     __activetblptr  equ	2
   322                           
   323                           ; #config settings
   324                           
   325                           	psect	cinit
   326   001292                     __pcinit:
   327                           	callstack 0
   328   001292                     start_initialization:
   329                           	callstack 0
   330   001292                     __initialization:
   331                           	callstack 0
   332                           
   333                           ; Clear objects allocated to BANK1 (100 bytes)
   334   001292  EE01  F000         	lfsr	0,__pbssBANK1
   335   001296  0E64               	movlw	100
   336   001298                     clear_0:
   337   001298  6AEE               	clrf	postinc0,c
   338   00129A  06E8               	decf	wreg,f,c
   339   00129C  E1FD               	bnz	clear_0
   340                           
   341                           ; Clear objects allocated to BANK0 (2 bytes)
   342   00129E  0100               	movlb	0
   343   0012A0  6BF4               	clrf	(__pbssBANK0+1)& (0+255),b
   344   0012A2  6BF3               	clrf	__pbssBANK0& (0+255),b
   345                           
   346                           ; Clear objects allocated to COMRAM (42 bytes)
   347   0012A4  EE00  F045         	lfsr	0,__pbssCOMRAM
   348   0012A8  0E2A               	movlw	42
   349   0012AA                     clear_1:
   350   0012AA  6AEE               	clrf	postinc0,c
   351   0012AC  06E8               	decf	wreg,f,c
   352   0012AE  E1FD               	bnz	clear_1
   353   0012B0                     end_of_initialization:
   354                           	callstack 0
   355   0012B0                     __end_of__initialization:
   356                           	callstack 0
   357   0012B0  906F               	bcf	int$flags,0,c	;clear compiler interrupt flag (level 1)
   358   0012B2  926F               	bcf	int$flags,1,c	;clear compiler interrupt flag (level 2)
   359   0012B4  0E00               	movlw	low (__Lmediumconst shr (0+16))
   360   0012B6  6EF8               	movwf	tblptru,c
   361   0012B8  0100               	movlb	0
   362   0012BA  EFAE  F008         	goto	_main	;jump to C main() function
   363                           
   364                           	psect	bssCOMRAM
   365   000045                     __pbssCOMRAM:
   366                           	callstack 0
   367   000045                     _width:
   368                           	callstack 0
   369   000045                     	ds	2
   370   000047                     _prec:
   371                           	callstack 0
   372   000047                     	ds	2
   373   000049                     _current_servo_angle:
   374                           	callstack 0
   375   000049                     	ds	2
   376   00004B                     _pre_radc_val:
   377                           	callstack 0
   378   00004B                     	ds	2
   379   00004D                     _flags:
   380                           	callstack 0
   381   00004D                     	ds	1
   382   00004E                     _btn_interr:
   383                           	callstack 0
   384   00004E                     	ds	1
   385   00004F                     _dbuf:
   386                           	callstack 0
   387   00004F                     	ds	32
   388                           
   389                           	psect	bssBANK0
   390   0000F3                     __pbssBANK0:
   391                           	callstack 0
   392   0000F3                     _buffer_size:
   393                           	callstack 0
   394   0000F3                     	ds	2
   395                           
   396                           	psect	bssBANK1
   397   000100                     __pbssBANK1:
   398                           	callstack 0
   399   000100                     _buffer:
   400                           	callstack 0
   401   000100                     	ds	100
   402                           
   403                           	psect	cstackBANK0
   404   000080                     __pcstackBANK0:
   405                           	callstack 0
   406   000080                     putch@data:
   407                           	callstack 0
   408   000080                     
   409                           ; 1 bytes @ 0x0
   410   000080                     	ds	1
   411   000081                     ??_MyusartRead:
   412                           
   413                           ; 1 bytes @ 0x1
   414   000081                     	ds	1
   415   000082                     MyusartRead@data:
   416                           	callstack 0
   417                           
   418                           ; 1 bytes @ 0x2
   419   000082                     	ds	1
   420   000083                     ??_Lo_ISR:
   421                           
   422                           ; 1 bytes @ 0x3
   423   000083                     	ds	5
   424   000088                     keyboard_input@str:
   425                           	callstack 0
   426   000088                     strcpy@dest:
   427                           	callstack 0
   428   000088                     ClearBuffer@i:
   429                           	callstack 0
   430   000088                     
   431                           ; 1 bytes @ 0x8
   432   000088                     	ds	1
   433   000089                     strcpy@src:
   434                           	callstack 0
   435   000089                     
   436                           ; 1 bytes @ 0x9
   437   000089                     	ds	2
   438   00008B                     strcpy@d:
   439                           	callstack 0
   440   00008B                     
   441                           ; 1 bytes @ 0xB
   442   00008B                     	ds	1
   443   00008C                     ?_GetString:
   444                           	callstack 0
   445   00008C                     GetString@str:
   446                           	callstack 0
   447                           
   448                           ; 1 bytes @ 0xC
   449   00008C                     	ds	2
   450   00008E                     
   451                           ; 1 bytes @ 0xE
   452   00008E                     	ds	1
   453   00008F                     main@str:
   454                           	callstack 0
   455   00008F                     
   456                           ; 1 bytes @ 0xF
   457   00008F                     	ds	100
   458                           
   459                           	psect	cstackCOMRAM
   460   000001                     __pcstackCOMRAM:
   461                           	callstack 0
   462   000001                     ?___lwdiv:
   463                           	callstack 0
   464   000001                     ?___lwmod:
   465                           	callstack 0
   466   000001                     ?_read_prec_or_width:
   467                           	callstack 0
   468   000001                     read_prec_or_width@fmt:
   469                           	callstack 0
   470   000001                     i2putch@data:
   471                           	callstack 0
   472   000001                     set_LED@value:
   473                           	callstack 0
   474   000001                     ___lwdiv@dividend:
   475                           	callstack 0
   476   000001                     ___lwmod@dividend:
   477                           	callstack 0
   478   000001                     
   479                           ; 1 bytes @ 0x0
   480   000001                     	ds	1
   481   000002                     read_prec_or_width@ap:
   482                           	callstack 0
   483   000002                     fputc@c:
   484                           	callstack 0
   485                           
   486                           ; 2 bytes @ 0x1
   487   000002                     	ds	1
   488   000003                     ___lwdiv@divisor:
   489                           	callstack 0
   490   000003                     ___lwmod@divisor:
   491                           	callstack 0
   492   000003                     ??_read_prec_or_width:
   493                           
   494                           ; 1 bytes @ 0x2
   495   000003                     	ds	1
   496   000004                     fputc@fp:
   497                           	callstack 0
   498                           
   499                           ; 2 bytes @ 0x3
   500   000004                     	ds	1
   501   000005                     ___lwmod@counter:
   502                           	callstack 0
   503   000005                     read_prec_or_width@c:
   504                           	callstack 0
   505   000005                     ___lwdiv@quotient:
   506                           	callstack 0
   507   000005                     
   508                           ; 1 bytes @ 0x4
   509   000005                     	ds	1
   510   000006                     read_prec_or_width@n:
   511                           	callstack 0
   512   000006                     ??_fputc:
   513                           
   514                           ; 1 bytes @ 0x5
   515   000006                     	ds	1
   516   000007                     ___lwdiv@counter:
   517                           	callstack 0
   518                           
   519                           ; 1 bytes @ 0x6
   520   000007                     	ds	4
   521   00000B                     fputs@s:
   522                           	callstack 0
   523                           
   524                           ; 1 bytes @ 0xA
   525   00000B                     	ds	1
   526   00000C                     fputs@fp:
   527                           	callstack 0
   528                           
   529                           ; 2 bytes @ 0xB
   530   00000C                     	ds	2
   531   00000E                     fputs@c:
   532                           	callstack 0
   533   00000E                     
   534                           ; 1 bytes @ 0xD
   535   00000E                     	ds	1
   536   00000F                     fputs@i:
   537                           	callstack 0
   538                           
   539                           ; 2 bytes @ 0xE
   540   00000F                     	ds	2
   541   000011                     pad@fp:
   542                           	callstack 0
   543                           
   544                           ; 2 bytes @ 0x10
   545   000011                     	ds	2
   546   000013                     pad@buf:
   547                           	callstack 0
   548                           
   549                           ; 1 bytes @ 0x12
   550   000013                     	ds	1
   551   000014                     pad@p:
   552                           	callstack 0
   553                           
   554                           ; 2 bytes @ 0x13
   555   000014                     	ds	2
   556   000016                     ??_pad:
   557                           
   558                           ; 1 bytes @ 0x15
   559   000016                     	ds	1
   560   000017                     pad@i:
   561                           	callstack 0
   562                           
   563                           ; 2 bytes @ 0x16
   564   000017                     	ds	2
   565   000019                     utoa@fp:
   566                           	callstack 0
   567                           
   568                           ; 2 bytes @ 0x18
   569   000019                     	ds	2
   570   00001B                     utoa@d:
   571                           	callstack 0
   572                           
   573                           ; 2 bytes @ 0x1A
   574   00001B                     	ds	2
   575   00001D                     utoa@p:
   576                           	callstack 0
   577   00001D                     
   578                           ; 1 bytes @ 0x1C
   579   00001D                     	ds	1
   580   00001E                     utoa@w:
   581                           	callstack 0
   582                           
   583                           ; 2 bytes @ 0x1D
   584   00001E                     	ds	2
   585   000020                     utoa@i:
   586                           	callstack 0
   587                           
   588                           ; 2 bytes @ 0x1F
   589   000020                     	ds	2
   590   000022                     vfpfcnvrt@fp:
   591                           	callstack 0
   592                           
   593                           ; 2 bytes @ 0x21
   594   000022                     	ds	2
   595   000024                     vfpfcnvrt@fmt:
   596                           	callstack 0
   597                           
   598                           ; 1 bytes @ 0x23
   599   000024                     	ds	1
   600   000025                     vfpfcnvrt@ap:
   601                           	callstack 0
   602                           
   603                           ; 1 bytes @ 0x24
   604   000025                     	ds	1
   605   000026                     vfpfcnvrt@convarg:
   606                           	callstack 0
   607   000026                     
   608                           ; 1 bytes @ 0x25
   609   000026                     	ds	4
   610   00002A                     vfpfcnvrt@done:
   611                           	callstack 0
   612                           
   613                           ; 1 bytes @ 0x29
   614   00002A                     	ds	1
   615   00002B                     vfpfcnvrt@cp:
   616                           	callstack 0
   617                           
   618                           ; 1 bytes @ 0x2A
   619   00002B                     	ds	1
   620   00002C                     ?_vfprintf:
   621                           	callstack 0
   622   00002C                     vfprintf@fp:
   623                           	callstack 0
   624                           
   625                           ; 2 bytes @ 0x2B
   626   00002C                     	ds	2
   627   00002E                     vfprintf@fmt:
   628                           	callstack 0
   629                           
   630                           ; 1 bytes @ 0x2D
   631   00002E                     	ds	1
   632   00002F                     vfprintf@ap:
   633                           	callstack 0
   634                           
   635                           ; 1 bytes @ 0x2E
   636   00002F                     	ds	1
   637   000030                     vfprintf@cfmt:
   638                           	callstack 0
   639   000030                     
   640                           ; 1 bytes @ 0x2F
   641   000030                     	ds	1
   642   000031                     ?_printf:
   643                           	callstack 0
   644   000031                     printf@fmt:
   645                           	callstack 0
   646                           
   647                           ; 1 bytes @ 0x30
   648   000031                     	ds	3
   649   000034                     printf@ap:
   650                           	callstack 0
   651   000034                     
   652                           ; 1 bytes @ 0x33
   653   000034                     	ds	1
   654   000035                     variable_register_changed@value:
   655                           	callstack 0
   656                           
   657                           ; 2 bytes @ 0x34
   658   000035                     	ds	2
   659   000037                     ??_H_ISR:
   660                           
   661                           ; 1 bytes @ 0x36
   662   000037                     	ds	12
   663   000043                     H_ISR@value:
   664                           	callstack 0
   665                           
   666                           ; 2 bytes @ 0x42
   667   000043                     	ds	2
   668                           
   669 ;;
   670 ;;Main: autosize = 0, tempsize = 0, incstack = 0, save=0
   671 ;;
   672 ;; *************** function _main *****************
   673 ;; Defined at:
   674 ;;		line 492 in file "hard.c"
   675 ;; Parameters:    Size  Location     Type
   676 ;;		None
   677 ;; Auto vars:     Size  Location     Type
   678 ;;  str           100   15[BANK0 ] unsigned char [100]
   679 ;; Return value:  Size  Location     Type
   680 ;;                  1    wreg      void 
   681 ;; Registers used:
   682 ;;		wreg, fsr1l, fsr1h, fsr2l, fsr2h, status,2, status,0, cstack
   683 ;; Tracked objects:
   684 ;;		On entry : 0/0
   685 ;;		On exit  : 0/0
   686 ;;		Unchanged: 0/0
   687 ;; Data sizes:     COMRAM   BANK0   BANK1   BANK2   BANK3   BANK4   BANK5
   688 ;;      Params:         0       0       0       0       0       0       0
   689 ;;      Locals:         0     100       0       0       0       0       0
   690 ;;      Temps:          0       0       0       0       0       0       0
   691 ;;      Totals:         0     100       0       0       0       0       0
   692 ;;Total ram usage:      100 bytes
   693 ;; Hardware stack levels required when called: 15
   694 ;; This function calls:
   695 ;;		_GetString
   696 ;;		_Initialize
   697 ;;		_keyboard_input
   698 ;; This function is called by:
   699 ;;		Startup code after reset
   700 ;; This function uses a non-reentrant model
   701 ;;
   702                           
   703                           	psect	text0
   704   00115C                     __ptext0:
   705                           	callstack 0
   706   00115C                     _main:
   707                           	callstack 16
   708   00115C                     
   709                           ;hard.c: 493:     Initialize();
   710   00115C  EC5F  F009         	call	_Initialize	;wreg free
   711   001160                     l2055:
   712                           
   713                           ;hard.c: 516:         if (GetString(str)) keyboard_input(str);
   714   001160  0E8F               	movlw	low main@str
   715   001162  0100               	movlb	0	; () banked
   716   001164  6F8C               	movwf	GetString@str& (0+255),b
   717   001166  ECBC  F007         	call	_GetString	;wreg free
   718   00116A  0100               	movlb	0	; () banked
   719   00116C  518C               	movf	?_GetString& (0+255),w,b
   720   00116E  118D               	iorwf	(?_GetString+1)& (0+255),w,b
   721   001170  B4D8               	btfsc	status,2,c
   722   001172  EFBD  F008         	goto	u1481
   723   001176  EFBF  F008         	goto	u1480
   724   00117A                     u1481:
   725   00117A  EFC3  F008         	goto	l2059
   726   00117E                     u1480:
   727   00117E                     
   728                           ; BSR set to: 0
   729   00117E  0E8F               	movlw	low main@str
   730   001180  6F88               	movwf	keyboard_input@str& (0+255),b
   731   001182  ECB2  F009         	call	_keyboard_input	;wreg free
   732   001186                     l2059:
   733                           
   734                           ;hard.c: 517:         if (ADCON0bits.GO == 0) ADCON0bits.GO = 1;
   735   001186  B2C2               	btfsc	194,1,c	;volatile
   736   001188  EFC8  F008         	goto	u1491
   737   00118C  EFCA  F008         	goto	u1490
   738   001190                     u1491:
   739   001190  EFB0  F008         	goto	l2055
   740   001194                     u1490:
   741   001194  82C2               	bsf	194,1,c	;volatile
   742   001196  EFB0  F008         	goto	l2055
   743   00119A  EF44  F000         	goto	start
   744   00119E                     __end_of_main:
   745                           	callstack 0
   746                           
   747 ;; *************** function _keyboard_input *****************
   748 ;; Defined at:
   749 ;;		line 436 in file "hard.c"
   750 ;; Parameters:    Size  Location     Type
   751 ;;  str             1    8[BANK0 ] PTR unsigned char 
   752 ;;		 -> main@str(100), 
   753 ;; Auto vars:     Size  Location     Type
   754 ;;		None
   755 ;; Return value:  Size  Location     Type
   756 ;;                  1    wreg      void 
   757 ;; Registers used:
   758 ;;		None
   759 ;; Tracked objects:
   760 ;;		On entry : 0/0
   761 ;;		On exit  : 0/0
   762 ;;		Unchanged: 0/0
   763 ;; Data sizes:     COMRAM   BANK0   BANK1   BANK2   BANK3   BANK4   BANK5
   764 ;;      Params:         0       1       0       0       0       0       0
   765 ;;      Locals:         0       0       0       0       0       0       0
   766 ;;      Temps:          0       0       0       0       0       0       0
   767 ;;      Totals:         0       1       0       0       0       0       0
   768 ;;Total ram usage:        1 bytes
   769 ;; Hardware stack levels used: 1
   770 ;; Hardware stack levels required when called: 13
   771 ;; This function calls:
   772 ;;		Nothing
   773 ;; This function is called by:
   774 ;;		_main
   775 ;; This function uses a non-reentrant model
   776 ;;
   777                           
   778                           	psect	text1
   779   001364                     __ptext1:
   780                           	callstack 0
   781   001364                     _keyboard_input:
   782                           	callstack 17
   783   001364  0012               	return		;funcret
   784   001366                     __end_of_keyboard_input:
   785                           	callstack 0
   786                           
   787 ;; *************** function _Initialize *****************
   788 ;; Defined at:
   789 ;;		line 212 in file "hard.c"
   790 ;; Parameters:    Size  Location     Type
   791 ;;		None
   792 ;; Auto vars:     Size  Location     Type
   793 ;;		None
   794 ;; Return value:  Size  Location     Type
   795 ;;                  1    wreg      void 
   796 ;; Registers used:
   797 ;;		wreg, status,2, status,0, cstack
   798 ;; Tracked objects:
   799 ;;		On entry : 0/0
   800 ;;		On exit  : 0/0
   801 ;;		Unchanged: 0/0
   802 ;; Data sizes:     COMRAM   BANK0   BANK1   BANK2   BANK3   BANK4   BANK5
   803 ;;      Params:         0       0       0       0       0       0       0
   804 ;;      Locals:         0       0       0       0       0       0       0
   805 ;;      Temps:          0       0       0       0       0       0       0
   806 ;;      Totals:         0       0       0       0       0       0       0
   807 ;;Total ram usage:        0 bytes
   808 ;; Hardware stack levels used: 1
   809 ;; Hardware stack levels required when called: 14
   810 ;; This function calls:
   811 ;;		_ADC_Initialize
   812 ;;		_IO_Initialize
   813 ;;		_Interrupt_Initialize
   814 ;;		_UART_Initialize
   815 ;; This function is called by:
   816 ;;		_main
   817 ;; This function uses a non-reentrant model
   818 ;;
   819                           
   820                           	psect	text2
   821   0012BE                     __ptext2:
   822                           	callstack 0
   823   0012BE                     _Initialize:
   824                           	callstack 16
   825   0012BE                     
   826                           ;hard.c: 213:     OSCCONbits.IRCF = 0b110;
   827   0012BE  50D3               	movf	211,w,c	;volatile
   828   0012C0  0B8F               	andlw	-113
   829   0012C2  0960               	iorlw	96
   830   0012C4  6ED3               	movwf	211,c	;volatile
   831                           
   832                           ;hard.c: 214:     ADCON1bits.PCFG = 0b1110;
   833   0012C6  50C1               	movf	193,w,c	;volatile
   834   0012C8  0BF0               	andlw	-16
   835   0012CA  090E               	iorlw	14
   836   0012CC  6EC1               	movwf	193,c	;volatile
   837   0012CE                     
   838                           ;hard.c: 219:     ADC_Initialize();
   839   0012CE  EC82  F009         	call	_ADC_Initialize	;wreg free
   840   0012D2                     
   841                           ;hard.c: 221:     IO_Initialize();
   842   0012D2  ECA7  F009         	call	_IO_Initialize	;wreg free
   843   0012D6                     
   844                           ;hard.c: 222:     Interrupt_Initialize();
   845   0012D6  EC9D  F009         	call	_Interrupt_Initialize	;wreg free
   846   0012DA                     
   847                           ;hard.c: 223:     UART_Initialize();
   848   0012DA  EC71  F009         	call	_UART_Initialize	;wreg free
   849   0012DE                     
   850                           ;hard.c: 226:     ADCON0bits.GO = 1;
   851   0012DE  82C2               	bsf	194,1,c	;volatile
   852   0012E0  0012               	return		;funcret
   853   0012E2                     __end_of_Initialize:
   854                           	callstack 0
   855                           
   856 ;; *************** function _UART_Initialize *****************
   857 ;; Defined at:
   858 ;;		line 170 in file "hard.c"
   859 ;; Parameters:    Size  Location     Type
   860 ;;		None
   861 ;; Auto vars:     Size  Location     Type
   862 ;;		None
   863 ;; Return value:  Size  Location     Type
   864 ;;                  1    wreg      void 
   865 ;; Registers used:
   866 ;;		wreg, status,2
   867 ;; Tracked objects:
   868 ;;		On entry : 0/0
   869 ;;		On exit  : 0/0
   870 ;;		Unchanged: 0/0
   871 ;; Data sizes:     COMRAM   BANK0   BANK1   BANK2   BANK3   BANK4   BANK5
   872 ;;      Params:         0       0       0       0       0       0       0
   873 ;;      Locals:         0       0       0       0       0       0       0
   874 ;;      Temps:          0       0       0       0       0       0       0
   875 ;;      Totals:         0       0       0       0       0       0       0
   876 ;;Total ram usage:        0 bytes
   877 ;; Hardware stack levels used: 1
   878 ;; Hardware stack levels required when called: 13
   879 ;; This function calls:
   880 ;;		Nothing
   881 ;; This function is called by:
   882 ;;		_Initialize
   883 ;; This function uses a non-reentrant model
   884 ;;
   885                           
   886                           	psect	text3
   887   0012E2                     __ptext3:
   888                           	callstack 0
   889   0012E2                     _UART_Initialize:
   890                           	callstack 16
   891   0012E2                     
   892                           ;hard.c: 181:     TRISCbits.TRISC6 = 1;
   893   0012E2  8C94               	bsf	148,6,c	;volatile
   894                           
   895                           ;hard.c: 182:     TRISCbits.TRISC7 = 1;
   896   0012E4  8E94               	bsf	148,7,c	;volatile
   897                           
   898                           ;hard.c: 186:     TXSTAbits.SYNC = 0;
   899   0012E6  98AC               	bcf	172,4,c	;volatile
   900                           
   901                           ;hard.c: 187:     BAUDCONbits.BRG16 = 0;
   902   0012E8  96B8               	bcf	184,3,c	;volatile
   903                           
   904                           ;hard.c: 188:     TXSTAbits.BRGH = 0;
   905   0012EA  94AC               	bcf	172,2,c	;volatile
   906   0012EC                     
   907                           ;hard.c: 189:     SPBRG = 51;
   908   0012EC  0E33               	movlw	51
   909   0012EE  6EAF               	movwf	175,c	;volatile
   910   0012F0                     
   911                           ;hard.c: 192:     RCSTAbits.SPEN = 1;
   912   0012F0  8EAB               	bsf	171,7,c	;volatile
   913   0012F2                     
   914                           ;hard.c: 193:     PIR1bits.TXIF = 0;
   915   0012F2  989E               	bcf	158,4,c	;volatile
   916   0012F4                     
   917                           ;hard.c: 194:     PIR1bits.RCIF = 0;
   918   0012F4  9A9E               	bcf	158,5,c	;volatile
   919   0012F6                     
   920                           ;hard.c: 195:     TXSTAbits.TXEN = 1;
   921   0012F6  8AAC               	bsf	172,5,c	;volatile
   922   0012F8                     
   923                           ;hard.c: 196:     RCSTAbits.CREN = 1;
   924   0012F8  88AB               	bsf	171,4,c	;volatile
   925   0012FA                     
   926                           ;hard.c: 197:     PIE1bits.TXIE = 0;
   927   0012FA  989D               	bcf	157,4,c	;volatile
   928   0012FC                     
   929                           ;hard.c: 198:     IPR1bits.TXIP = 0;
   930   0012FC  989F               	bcf	159,4,c	;volatile
   931   0012FE                     
   932                           ;hard.c: 199:     PIE1bits.RCIE = 1;
   933   0012FE  8A9D               	bsf	157,5,c	;volatile
   934   001300                     
   935                           ;hard.c: 200:     IPR1bits.RCIP = 0;
   936   001300  9A9F               	bcf	159,5,c	;volatile
   937   001302  0012               	return		;funcret
   938   001304                     __end_of_UART_Initialize:
   939                           	callstack 0
   940                           
   941 ;; *************** function _Interrupt_Initialize *****************
   942 ;; Defined at:
   943 ;;		line 157 in file "hard.c"
   944 ;; Parameters:    Size  Location     Type
   945 ;;		None
   946 ;; Auto vars:     Size  Location     Type
   947 ;;		None
   948 ;; Return value:  Size  Location     Type
   949 ;;                  1    wreg      void 
   950 ;; Registers used:
   951 ;;		None
   952 ;; Tracked objects:
   953 ;;		On entry : 0/0
   954 ;;		On exit  : 0/0
   955 ;;		Unchanged: 0/0
   956 ;; Data sizes:     COMRAM   BANK0   BANK1   BANK2   BANK3   BANK4   BANK5
   957 ;;      Params:         0       0       0       0       0       0       0
   958 ;;      Locals:         0       0       0       0       0       0       0
   959 ;;      Temps:          0       0       0       0       0       0       0
   960 ;;      Totals:         0       0       0       0       0       0       0
   961 ;;Total ram usage:        0 bytes
   962 ;; Hardware stack levels used: 1
   963 ;; Hardware stack levels required when called: 13
   964 ;; This function calls:
   965 ;;		Nothing
   966 ;; This function is called by:
   967 ;;		_Initialize
   968 ;; This function uses a non-reentrant model
   969 ;;
   970                           
   971                           	psect	text4
   972   00133A                     __ptext4:
   973                           	callstack 0
   974   00133A                     _Interrupt_Initialize:
   975                           	callstack 16
   976   00133A                     
   977                           ;hard.c: 159:     INTCONbits.INT0IF = 0;
   978   00133A  92F2               	bcf	242,1,c	;volatile
   979                           
   980                           ;hard.c: 160:     INTCONbits.INT0IE = 1;
   981   00133C  88F2               	bsf	242,4,c	;volatile
   982                           
   983                           ;hard.c: 161:     PIE1bits.ADIE = 1;
   984   00133E  8C9D               	bsf	157,6,c	;volatile
   985                           
   986                           ;hard.c: 162:     PIR1bits.ADIF = 0;
   987   001340  9C9E               	bcf	158,6,c	;volatile
   988                           
   989                           ;hard.c: 163:     INTCONbits.PEIE = 1;
   990   001342  8CF2               	bsf	242,6,c	;volatile
   991                           
   992                           ;hard.c: 164:     INTCONbits.GIE = 1;
   993   001344  8EF2               	bsf	242,7,c	;volatile
   994                           
   995                           ;hard.c: 165:     RCONbits.IPEN = 1;
   996   001346  8ED0               	bsf	208,7,c	;volatile
   997                           
   998                           ;hard.c: 166:     INTCONbits.GIEH = 1;
   999   001348  8EF2               	bsf	242,7,c	;volatile
  1000                           
  1001                           ;hard.c: 167:     INTCONbits.GIEL = 1;
  1002   00134A  8CF2               	bsf	242,6,c	;volatile
  1003   00134C  0012               	return		;funcret
  1004   00134E                     __end_of_Interrupt_Initialize:
  1005                           	callstack 0
  1006                           
  1007 ;; *************** function _IO_Initialize *****************
  1008 ;; Defined at:
  1009 ;;		line 150 in file "hard.c"
  1010 ;; Parameters:    Size  Location     Type
  1011 ;;		None
  1012 ;; Auto vars:     Size  Location     Type
  1013 ;;		None
  1014 ;; Return value:  Size  Location     Type
  1015 ;;                  1    wreg      void 
  1016 ;; Registers used:
  1017 ;;		wreg, status,2, status,0
  1018 ;; Tracked objects:
  1019 ;;		On entry : 0/0
  1020 ;;		On exit  : 0/0
  1021 ;;		Unchanged: 0/0
  1022 ;; Data sizes:     COMRAM   BANK0   BANK1   BANK2   BANK3   BANK4   BANK5
  1023 ;;      Params:         0       0       0       0       0       0       0
  1024 ;;      Locals:         0       0       0       0       0       0       0
  1025 ;;      Temps:          0       0       0       0       0       0       0
  1026 ;;      Totals:         0       0       0       0       0       0       0
  1027 ;;Total ram usage:        0 bytes
  1028 ;; Hardware stack levels used: 1
  1029 ;; Hardware stack levels required when called: 13
  1030 ;; This function calls:
  1031 ;;		Nothing
  1032 ;; This function is called by:
  1033 ;;		_Initialize
  1034 ;; This function uses a non-reentrant model
  1035 ;;
  1036                           
  1037                           	psect	text5
  1038   00134E                     __ptext5:
  1039                           	callstack 0
  1040   00134E                     _IO_Initialize:
  1041                           	callstack 16
  1042   00134E                     
  1043                           ;hard.c: 152:     TRISD &= 0x0F;
  1044   00134E  0E0F               	movlw	15
  1045   001350  1695               	andwf	149,f,c	;volatile
  1046   001352                     
  1047                           ;hard.c: 153:     TRISB = 1;
  1048   001352  0E01               	movlw	1
  1049   001354  6E93               	movwf	147,c	;volatile
  1050   001356                     
  1051                           ;hard.c: 154:     LATD &= 0x0F;
  1052   001356  0E0F               	movlw	15
  1053   001358  168C               	andwf	140,f,c	;volatile
  1054   00135A  0012               	return		;funcret
  1055   00135C                     __end_of_IO_Initialize:
  1056                           	callstack 0
  1057                           
  1058 ;; *************** function _ADC_Initialize *****************
  1059 ;; Defined at:
  1060 ;;		line 127 in file "hard.c"
  1061 ;; Parameters:    Size  Location     Type
  1062 ;;		None
  1063 ;; Auto vars:     Size  Location     Type
  1064 ;;		None
  1065 ;; Return value:  Size  Location     Type
  1066 ;;                  1    wreg      void 
  1067 ;; Registers used:
  1068 ;;		wreg, status,2
  1069 ;; Tracked objects:
  1070 ;;		On entry : 0/0
  1071 ;;		On exit  : 0/0
  1072 ;;		Unchanged: 0/0
  1073 ;; Data sizes:     COMRAM   BANK0   BANK1   BANK2   BANK3   BANK4   BANK5
  1074 ;;      Params:         0       0       0       0       0       0       0
  1075 ;;      Locals:         0       0       0       0       0       0       0
  1076 ;;      Temps:          0       0       0       0       0       0       0
  1077 ;;      Totals:         0       0       0       0       0       0       0
  1078 ;;Total ram usage:        0 bytes
  1079 ;; Hardware stack levels used: 1
  1080 ;; Hardware stack levels required when called: 13
  1081 ;; This function calls:
  1082 ;;		Nothing
  1083 ;; This function is called by:
  1084 ;;		_Initialize
  1085 ;; This function uses a non-reentrant model
  1086 ;;
  1087                           
  1088                           	psect	text6
  1089   001304                     __ptext6:
  1090                           	callstack 0
  1091   001304                     _ADC_Initialize:
  1092                           	callstack 16
  1093   001304                     
  1094                           ;hard.c: 129:     TRISAbits.RA0 = 1;
  1095   001304  8092               	bsf	146,0,c	;volatile
  1096   001306                     
  1097                           ;hard.c: 130:     ADCON0bits.CHS = 0b0000;
  1098   001306  0EC3               	movlw	-61
  1099   001308  16C2               	andwf	194,f,c	;volatile
  1100   00130A                     
  1101                           ;hard.c: 131:     ADCON1bits.VCFG0 = 0;
  1102   00130A  98C1               	bcf	193,4,c	;volatile
  1103   00130C                     
  1104                           ;hard.c: 132:     ADCON1bits.VCFG1 = 0;
  1105   00130C  9AC1               	bcf	193,5,c	;volatile
  1106                           
  1107                           ;hard.c: 133:     ADCON2bits.ADCS = 0b000;
  1108   00130E  0EF8               	movlw	-8
  1109   001310  16C0               	andwf	192,f,c	;volatile
  1110                           
  1111                           ;hard.c: 134:     ADCON2bits.ACQT = 0b001;
  1112   001312  50C0               	movf	192,w,c	;volatile
  1113   001314  0BC7               	andlw	-57
  1114   001316  0908               	iorlw	8
  1115   001318  6EC0               	movwf	192,c	;volatile
  1116   00131A                     
  1117                           ;hard.c: 135:     ADCON0bits.ADON = 1;
  1118   00131A  80C2               	bsf	194,0,c	;volatile
  1119   00131C                     
  1120                           ;hard.c: 136:     ADCON2bits.ADFM = 1;
  1121   00131C  8EC0               	bsf	192,7,c	;volatile
  1122   00131E  0012               	return		;funcret
  1123   001320                     __end_of_ADC_Initialize:
  1124                           	callstack 0
  1125                           
  1126 ;; *************** function _GetString *****************
  1127 ;; Defined at:
  1128 ;;		line 258 in file "hard.c"
  1129 ;; Parameters:    Size  Location     Type
  1130 ;;  str             1   12[BANK0 ] PTR unsigned char 
  1131 ;;		 -> main@str(100), 
  1132 ;; Auto vars:     Size  Location     Type
  1133 ;;		None
  1134 ;; Return value:  Size  Location     Type
  1135 ;;                  2   12[BANK0 ] int 
  1136 ;; Registers used:
  1137 ;;		wreg, fsr1l, fsr1h, fsr2l, fsr2h, status,2, status,0, cstack
  1138 ;; Tracked objects:
  1139 ;;		On entry : 0/0
  1140 ;;		On exit  : 0/0
  1141 ;;		Unchanged: 0/0
  1142 ;; Data sizes:     COMRAM   BANK0   BANK1   BANK2   BANK3   BANK4   BANK5
  1143 ;;      Params:         0       2       0       0       0       0       0
  1144 ;;      Locals:         0       0       0       0       0       0       0
  1145 ;;      Temps:          0       1       0       0       0       0       0
  1146 ;;      Totals:         0       3       0       0       0       0       0
  1147 ;;Total ram usage:        3 bytes
  1148 ;; Hardware stack levels used: 1
  1149 ;; Hardware stack levels required when called: 14
  1150 ;; This function calls:
  1151 ;;		_ClearBuffer
  1152 ;;		_strcpy
  1153 ;; This function is called by:
  1154 ;;		_main
  1155 ;; This function uses a non-reentrant model
  1156 ;;
  1157                           
  1158                           	psect	text7
  1159   000F78                     __ptext7:
  1160                           	callstack 0
  1161   000F78                     _GetString:
  1162                           	callstack 16
  1163   000F78                     
  1164                           ;hard.c: 259:     if (buffer[buffer_size - 1] == '\r') {
  1165   000F78  0EFF               	movlw	low (_buffer+65535)
  1166   000F7A  0100               	movlb	0	; () banked
  1167   000F7C  25F3               	addwf	_buffer_size& (0+255),w,b
  1168   000F7E  6ED9               	movwf	fsr2l,c
  1169   000F80  0E00               	movlw	high (_buffer+65535)
  1170   000F82  21F4               	addwfc	(_buffer_size+1)& (0+255),w,b
  1171   000F84  6EDA               	movwf	fsr2h,c
  1172   000F86  0E0D               	movlw	13
  1173   000F88  18DE               	xorwf	postinc2,w,c
  1174   000F8A  A4D8               	btfss	status,2,c
  1175   000F8C  EFCA  F007         	goto	u1191
  1176   000F90  EFCC  F007         	goto	u1190
  1177   000F94                     u1191:
  1178   000F94  EFE7  F007         	goto	l1885
  1179   000F98                     u1190:
  1180   000F98                     
  1181                           ; BSR set to: 0
  1182                           ;hard.c: 260:         buffer[--buffer_size] = '\0';
  1183   000F98  07F3               	decf	_buffer_size& (0+255),f,b
  1184   000F9A  A0D8               	btfss	status,0,c
  1185   000F9C  07F4               	decf	(_buffer_size+1)& (0+255),f,b
  1186   000F9E  0E00               	movlw	low _buffer
  1187   000FA0  25F3               	addwf	_buffer_size& (0+255),w,b
  1188   000FA2  6ED9               	movwf	fsr2l,c
  1189   000FA4  0E01               	movlw	high _buffer
  1190   000FA6  21F4               	addwfc	(_buffer_size+1)& (0+255),w,b
  1191   000FA8  6EDA               	movwf	fsr2h,c
  1192   000FAA  6ADF               	clrf	indf2,c
  1193   000FAC                     
  1194                           ; BSR set to: 0
  1195                           ;hard.c: 261:         strcpy(str, buffer);
  1196   000FAC  C08C  F088         	movff	GetString@str,strcpy@dest
  1197   000FB0  0E00               	movlw	low _buffer
  1198   000FB2  6F89               	movwf	strcpy@src& (0+255),b
  1199   000FB4  0E01               	movlw	high _buffer
  1200   000FB6  6F8A               	movwf	(strcpy@src+1)& (0+255),b
  1201   000FB8  EC31  F009         	call	_strcpy	;wreg free
  1202   000FBC                     
  1203                           ;hard.c: 262:         ClearBuffer();
  1204   000FBC  ECCF  F008         	call	_ClearBuffer	;wreg free
  1205   000FC0                     
  1206                           ;hard.c: 263:         return 1;
  1207   000FC0  0E00               	movlw	0
  1208   000FC2  0100               	movlb	0	; () banked
  1209   000FC4  6F8D               	movwf	(?_GetString+1)& (0+255),b
  1210   000FC6  0E01               	movlw	1
  1211   000FC8  6F8C               	movwf	?_GetString& (0+255),b
  1212   000FCA  EFEF  F007         	goto	l134
  1213   000FCE                     l1885:
  1214                           
  1215                           ; BSR set to: 0
  1216                           ;hard.c: 265:         str[0] = '\0';
  1217   000FCE  518C               	movf	GetString@str& (0+255),w,b
  1218   000FD0  6ED9               	movwf	fsr2l,c
  1219   000FD2  6ADA               	clrf	fsr2h,c
  1220   000FD4  6ADF               	clrf	indf2,c
  1221   000FD6                     
  1222                           ; BSR set to: 0
  1223                           ;hard.c: 266:         return 0;
  1224   000FD6  0E00               	movlw	0
  1225   000FD8  6F8D               	movwf	(?_GetString+1)& (0+255),b
  1226   000FDA  0E00               	movlw	0
  1227   000FDC  6F8C               	movwf	?_GetString& (0+255),b
  1228   000FDE                     l134:
  1229                           
  1230                           ; BSR set to: 0
  1231   000FDE  0012               	return		;funcret
  1232   000FE0                     __end_of_GetString:
  1233                           	callstack 0
  1234                           
  1235 ;; *************** function _strcpy *****************
  1236 ;; Defined at:
  1237 ;;		line 3 in file "C:\Program Files\Microchip\xc8\v3.00\pic\sources\c99\common\strcpy.c"
  1238 ;; Parameters:    Size  Location     Type
  1239 ;;  dest            1    8[BANK0 ] PTR unsigned char 
  1240 ;;		 -> main@str(100), 
  1241 ;;  src             2    9[BANK0 ] PTR const unsigned char 
  1242 ;;		 -> buffer(100), 
  1243 ;; Auto vars:     Size  Location     Type
  1244 ;;  d               1   11[BANK0 ] PTR unsigned char 
  1245 ;;		 -> main@str(100), 
  1246 ;; Return value:  Size  Location     Type
  1247 ;;                  1    8[BANK0 ] PTR unsigned char 
  1248 ;; Registers used:
  1249 ;;		wreg, fsr1l, fsr1h, fsr2l, fsr2h, status,2, status,0
  1250 ;; Tracked objects:
  1251 ;;		On entry : 0/0
  1252 ;;		On exit  : 0/0
  1253 ;;		Unchanged: 0/0
  1254 ;; Data sizes:     COMRAM   BANK0   BANK1   BANK2   BANK3   BANK4   BANK5
  1255 ;;      Params:         0       3       0       0       0       0       0
  1256 ;;      Locals:         0       1       0       0       0       0       0
  1257 ;;      Temps:          0       0       0       0       0       0       0
  1258 ;;      Totals:         0       4       0       0       0       0       0
  1259 ;;Total ram usage:        4 bytes
  1260 ;; Hardware stack levels used: 1
  1261 ;; Hardware stack levels required when called: 13
  1262 ;; This function calls:
  1263 ;;		Nothing
  1264 ;; This function is called by:
  1265 ;;		_GetString
  1266 ;; This function uses a non-reentrant model
  1267 ;;
  1268                           
  1269                           	psect	text8
  1270   001262                     __ptext8:
  1271                           	callstack 0
  1272   001262                     _strcpy:
  1273                           	callstack 16
  1274   001262  C088  F08B         	movff	strcpy@dest,strcpy@d
  1275   001266                     l1835:
  1276   001266  C089  FFD9         	movff	strcpy@src,fsr2l
  1277   00126A  C08A  FFDA         	movff	strcpy@src+1,fsr2h
  1278   00126E  0100               	movlb	0	; () banked
  1279   001270  4B89               	infsnz	strcpy@src& (0+255),f,b
  1280   001272  2B8A               	incf	(strcpy@src+1)& (0+255),f,b
  1281   001274  2B8B               	incf	strcpy@d& (0+255),f,b
  1282   001276  058B               	decf	strcpy@d& (0+255),w,b
  1283   001278  6EE1               	movwf	fsr1l,c
  1284   00127A  6AE2               	clrf	fsr1h,c
  1285   00127C  CFDF FFE7          	movff	indf2,indf1
  1286   001280  50E7               	movf	indf1,w,c
  1287   001282  A4D8               	btfss	status,2,c
  1288   001284  EF46  F009         	goto	u1161
  1289   001288  EF48  F009         	goto	u1160
  1290   00128C                     u1161:
  1291   00128C  EF33  F009         	goto	l1835
  1292   001290                     u1160:
  1293   001290                     
  1294                           ; BSR set to: 0
  1295   001290  0012               	return		;funcret
  1296   001292                     __end_of_strcpy:
  1297                           	callstack 0
  1298                           
  1299 ;; *************** function _ClearBuffer *****************
  1300 ;; Defined at:
  1301 ;;		line 245 in file "hard.c"
  1302 ;; Parameters:    Size  Location     Type
  1303 ;;		None
  1304 ;; Auto vars:     Size  Location     Type
  1305 ;;  i               2    8[BANK0 ] int 
  1306 ;; Return value:  Size  Location     Type
  1307 ;;                  1    wreg      void 
  1308 ;; Registers used:
  1309 ;;		wreg, fsr2l, fsr2h, status,2, status,0
  1310 ;; Tracked objects:
  1311 ;;		On entry : 0/0
  1312 ;;		On exit  : 0/0
  1313 ;;		Unchanged: 0/0
  1314 ;; Data sizes:     COMRAM   BANK0   BANK1   BANK2   BANK3   BANK4   BANK5
  1315 ;;      Params:         0       0       0       0       0       0       0
  1316 ;;      Locals:         0       2       0       0       0       0       0
  1317 ;;      Temps:          0       0       0       0       0       0       0
  1318 ;;      Totals:         0       2       0       0       0       0       0
  1319 ;;Total ram usage:        2 bytes
  1320 ;; Hardware stack levels used: 1
  1321 ;; Hardware stack levels required when called: 13
  1322 ;; This function calls:
  1323 ;;		Nothing
  1324 ;; This function is called by:
  1325 ;;		_GetString
  1326 ;; This function uses a non-reentrant model
  1327 ;;
  1328                           
  1329                           	psect	text9
  1330   00119E                     __ptext9:
  1331                           	callstack 0
  1332   00119E                     _ClearBuffer:
  1333                           	callstack 16
  1334   00119E                     
  1335                           ;hard.c: 246:     for (int i = 0; i < 100; i++)
  1336   00119E  0E00               	movlw	0
  1337   0011A0  0100               	movlb	0	; () banked
  1338   0011A2  6F89               	movwf	(ClearBuffer@i+1)& (0+255),b
  1339   0011A4  0E00               	movlw	0
  1340   0011A6  6F88               	movwf	ClearBuffer@i& (0+255),b
  1341   0011A8                     l1825:
  1342                           
  1343                           ; BSR set to: 0
  1344                           ;hard.c: 247:         buffer[i] = '\0';
  1345   0011A8  0E00               	movlw	low _buffer
  1346   0011AA  2588               	addwf	ClearBuffer@i& (0+255),w,b
  1347   0011AC  6ED9               	movwf	fsr2l,c
  1348   0011AE  0E01               	movlw	high _buffer
  1349   0011B0  2189               	addwfc	(ClearBuffer@i+1)& (0+255),w,b
  1350   0011B2  6EDA               	movwf	fsr2h,c
  1351   0011B4  6ADF               	clrf	indf2,c
  1352   0011B6                     
  1353                           ; BSR set to: 0
  1354   0011B6  4B88               	infsnz	ClearBuffer@i& (0+255),f,b
  1355   0011B8  2B89               	incf	(ClearBuffer@i+1)& (0+255),f,b
  1356   0011BA                     
  1357                           ; BSR set to: 0
  1358   0011BA  BF89               	btfsc	(ClearBuffer@i+1)& (0+255),7,b
  1359   0011BC  EFE9  F008         	goto	u1151
  1360   0011C0  5189               	movf	(ClearBuffer@i+1)& (0+255),w,b
  1361   0011C2  E109               	bnz	u1150
  1362   0011C4  0E64               	movlw	100
  1363   0011C6  5D88               	subwf	ClearBuffer@i& (0+255),w,b
  1364   0011C8  A0D8               	btfss	status,0,c
  1365   0011CA  EFE9  F008         	goto	u1151
  1366   0011CE  EFEB  F008         	goto	u1150
  1367   0011D2                     u1151:
  1368   0011D2  EFD4  F008         	goto	l1825
  1369   0011D6                     u1150:
  1370   0011D6                     
  1371                           ; BSR set to: 0
  1372                           ;hard.c: 248:     buffer_size = 0;
  1373   0011D6  0E00               	movlw	0
  1374   0011D8  6FF4               	movwf	(_buffer_size+1)& (0+255),b
  1375   0011DA  0E00               	movlw	0
  1376   0011DC  6FF3               	movwf	_buffer_size& (0+255),b
  1377   0011DE                     
  1378                           ; BSR set to: 0
  1379   0011DE  0012               	return		;funcret
  1380   0011E0                     __end_of_ClearBuffer:
  1381                           	callstack 0
  1382                           
  1383 ;; *************** function _Lo_ISR *****************
  1384 ;; Defined at:
  1385 ;;		line 472 in file "hard.c"
  1386 ;; Parameters:    Size  Location     Type
  1387 ;;		None
  1388 ;; Auto vars:     Size  Location     Type
  1389 ;;		None
  1390 ;; Return value:  Size  Location     Type
  1391 ;;                  1    wreg      void 
  1392 ;; Registers used:
  1393 ;;		wreg, fsr2l, fsr2h, status,2, status,0, cstack
  1394 ;; Tracked objects:
  1395 ;;		On entry : 0/0
  1396 ;;		On exit  : 0/0
  1397 ;;		Unchanged: 0/0
  1398 ;; Data sizes:     COMRAM   BANK0   BANK1   BANK2   BANK3   BANK4   BANK5
  1399 ;;      Params:         0       0       0       0       0       0       0
  1400 ;;      Locals:         0       0       0       0       0       0       0
  1401 ;;      Temps:          0       5       0       0       0       0       0
  1402 ;;      Totals:         0       5       0       0       0       0       0
  1403 ;;Total ram usage:        5 bytes
  1404 ;; Hardware stack levels used: 1
  1405 ;; Hardware stack levels required when called: 12
  1406 ;; This function calls:
  1407 ;;		_MyusartRead
  1408 ;;		_timer1_interrupted
  1409 ;; This function is called by:
  1410 ;;		Interrupt level 1
  1411 ;; This function uses a non-reentrant model
  1412 ;;
  1413                           
  1414                           	psect	intcodelo
  1415   000018                     __pintcodelo:
  1416                           	callstack 0
  1417   000018                     _Lo_ISR:
  1418                           	callstack 16
  1419                           
  1420                           ; BSR set to: 0
  1421                           ;incstack = 0
  1422   000018  806F               	bsf	int$flags,0,c	;set compiler interrupt flag (level 1)
  1423   00001A  CFD8 F083          	movff	status,??_Lo_ISR
  1424   00001E  CFE8 F084          	movff	wreg,??_Lo_ISR+1
  1425   000022  CFE0 F085          	movff	bsr,??_Lo_ISR+2
  1426   000026  CFD9 F086          	movff	fsr2l,??_Lo_ISR+3
  1427   00002A  CFDA F087          	movff	fsr2h,??_Lo_ISR+4
  1428   00002E                     
  1429                           ;hard.c: 473:     if (RCIF) {
  1430   00002E  AA9E               	btfss	3998,5,c	;volatile
  1431   000030  EF1C  F000         	goto	i1u145_21
  1432   000034  EF1E  F000         	goto	i1u145_20
  1433   000038                     i1u145_21:
  1434   000038  EF2A  F000         	goto	i1l2043
  1435   00003C                     i1u145_20:
  1436   00003C                     
  1437                           ;hard.c: 474:         if (RCSTAbits.OERR) {
  1438   00003C  A2AB               	btfss	171,1,c	;volatile
  1439   00003E  EF23  F000         	goto	i1u146_21
  1440   000042  EF25  F000         	goto	i1u146_20
  1441   000046                     i1u146_21:
  1442   000046  EF28  F000         	goto	i1l2041
  1443   00004A                     i1u146_20:
  1444   00004A                     
  1445                           ;hard.c: 475:             CREN = 0;
  1446   00004A  98AB               	bcf	4011,4,c	;volatile
  1447                           
  1448                           ;hard.c: 476:             __nop();
  1449   00004C  0000               	nop	
  1450                           
  1451                           ;hard.c: 477:             CREN = 1;
  1452   00004E  88AB               	bsf	4011,4,c	;volatile
  1453   000050                     i1l2041:
  1454                           
  1455                           ;hard.c: 480:         MyusartRead();
  1456   000050  EC86  F008         	call	_MyusartRead	;wreg free
  1457   000054                     i1l2043:
  1458                           
  1459                           ;hard.c: 482:     if(PIR1bits.TMR1IF){
  1460   000054  A09E               	btfss	158,0,c	;volatile
  1461   000056  EF2F  F000         	goto	i1u147_21
  1462   00005A  EF31  F000         	goto	i1u147_20
  1463   00005E                     i1u147_21:
  1464   00005E  EF38  F000         	goto	i1l235
  1465   000062                     i1u147_20:
  1466   000062                     
  1467                           ;hard.c: 483:         timer1_interrupted();
  1468   000062  ECB3  F009         	call	_timer1_interrupted	;wreg free
  1469   000066                     
  1470                           ;hard.c: 484:         TMR1 = 61629;
  1471   000066  0EF0               	movlw	240
  1472   000068  6ECF               	movwf	207,c	;volatile
  1473   00006A  0EBD               	movlw	189
  1474   00006C  6ECE               	movwf	206,c	;volatile
  1475   00006E                     
  1476                           ;hard.c: 485:         PIR1bits.TMR1IF = 0;
  1477   00006E  909E               	bcf	158,0,c	;volatile
  1478   000070                     i1l235:
  1479   000070  C087  FFDA         	movff	??_Lo_ISR+4,fsr2h
  1480   000074  C086  FFD9         	movff	??_Lo_ISR+3,fsr2l
  1481   000078  C085  FFE0         	movff	??_Lo_ISR+2,bsr
  1482   00007C  C084  FFE8         	movff	??_Lo_ISR+1,wreg
  1483   000080  C083  FFD8         	movff	??_Lo_ISR,status
  1484   000084  906F               	bcf	int$flags,0,c	;clear compiler interrupt flag (level 1)
  1485   000086  0010               	retfie	
  1486   000088                     __end_of_Lo_ISR:
  1487                           	callstack 0
  1488                           
  1489 ;; *************** function _timer1_interrupted *****************
  1490 ;; Defined at:
  1491 ;;		line 449 in file "hard.c"
  1492 ;; Parameters:    Size  Location     Type
  1493 ;;		None
  1494 ;; Auto vars:     Size  Location     Type
  1495 ;;		None
  1496 ;; Return value:  Size  Location     Type
  1497 ;;                  1    wreg      void 
  1498 ;; Registers used:
  1499 ;;		None
  1500 ;; Tracked objects:
  1501 ;;		On entry : 0/0
  1502 ;;		On exit  : 0/0
  1503 ;;		Unchanged: 0/0
  1504 ;; Data sizes:     COMRAM   BANK0   BANK1   BANK2   BANK3   BANK4   BANK5
  1505 ;;      Params:         0       0       0       0       0       0       0
  1506 ;;      Locals:         0       0       0       0       0       0       0
  1507 ;;      Temps:          0       0       0       0       0       0       0
  1508 ;;      Totals:         0       0       0       0       0       0       0
  1509 ;;Total ram usage:        0 bytes
  1510 ;; Hardware stack levels used: 1
  1511 ;; Hardware stack levels required when called: 10
  1512 ;; This function calls:
  1513 ;;		Nothing
  1514 ;; This function is called by:
  1515 ;;		_Lo_ISR
  1516 ;; This function uses a non-reentrant model
  1517 ;;
  1518                           
  1519                           	psect	text11
  1520   001366                     __ptext11:
  1521                           	callstack 0
  1522   001366                     _timer1_interrupted:
  1523                           	callstack 17
  1524   001366  0012               	return		;funcret
  1525   001368                     __end_of_timer1_interrupted:
  1526                           	callstack 0
  1527                           
  1528 ;; *************** function _MyusartRead *****************
  1529 ;; Defined at:
  1530 ;;		line 251 in file "hard.c"
  1531 ;; Parameters:    Size  Location     Type
  1532 ;;		None
  1533 ;; Auto vars:     Size  Location     Type
  1534 ;;  data            1    2[BANK0 ] unsigned char 
  1535 ;; Return value:  Size  Location     Type
  1536 ;;                  1    wreg      void 
  1537 ;; Registers used:
  1538 ;;		wreg, fsr2l, fsr2h, status,2, status,0, cstack
  1539 ;; Tracked objects:
  1540 ;;		On entry : 0/0
  1541 ;;		On exit  : 0/0
  1542 ;;		Unchanged: 0/0
  1543 ;; Data sizes:     COMRAM   BANK0   BANK1   BANK2   BANK3   BANK4   BANK5
  1544 ;;      Params:         0       0       0       0       0       0       0
  1545 ;;      Locals:         0       1       0       0       0       0       0
  1546 ;;      Temps:          0       1       0       0       0       0       0
  1547 ;;      Totals:         0       2       0       0       0       0       0
  1548 ;;Total ram usage:        2 bytes
  1549 ;; Hardware stack levels used: 1
  1550 ;; Hardware stack levels required when called: 11
  1551 ;; This function calls:
  1552 ;;		_putch
  1553 ;; This function is called by:
  1554 ;;		_Lo_ISR
  1555 ;; This function uses a non-reentrant model
  1556 ;;
  1557                           
  1558                           	psect	text12
  1559   00110C                     __ptext12:
  1560                           	callstack 0
  1561   00110C                     _MyusartRead:
  1562                           	callstack 16
  1563   00110C                     
  1564                           ;hard.c: 252:     char data = RCREG;
  1565   00110C  CFAE F082          	movff	4014,MyusartRead@data	;volatile
  1566   001110                     
  1567                           ;hard.c: 253:     if (!(((unsigned char)((data)-0x20)) < 0x5f) && data != '\r') return;
  1568   001110  C082  F081         	movff	MyusartRead@data,??_MyusartRead
  1569   001114  0EE0               	movlw	224
  1570   001116  0100               	movlb	0	; () banked
  1571   001118  2781               	addwf	??_MyusartRead& (0+255),f,b
  1572   00111A  0E5E               	movlw	94
  1573   00111C  6581               	cpfsgt	??_MyusartRead& (0+255),b
  1574   00111E  EF93  F008         	goto	i1u117_21
  1575   001122  EF95  F008         	goto	i1u117_20
  1576   001126                     i1u117_21:
  1577   001126  EFA0  F008         	goto	i1l1865
  1578   00112A                     i1u117_20:
  1579   00112A                     
  1580                           ; BSR set to: 0
  1581   00112A  0E0D               	movlw	13
  1582   00112C  1982               	xorwf	MyusartRead@data& (0+255),w,b
  1583   00112E  B4D8               	btfsc	status,2,c
  1584   001130  EF9C  F008         	goto	i1u118_21
  1585   001134  EF9E  F008         	goto	i1u118_20
  1586   001138                     i1u118_21:
  1587   001138  EFA0  F008         	goto	i1l1865
  1588   00113C                     i1u118_20:
  1589   00113C  EFAD  F008         	goto	i1l130
  1590   001140                     i1l1865:
  1591                           
  1592                           ; BSR set to: 0
  1593                           ;hard.c: 254:     buffer[buffer_size++] = data;
  1594   001140  0E00               	movlw	low _buffer
  1595   001142  25F3               	addwf	_buffer_size& (0+255),w,b
  1596   001144  6ED9               	movwf	fsr2l,c
  1597   001146  0E01               	movlw	high _buffer
  1598   001148  21F4               	addwfc	(_buffer_size+1)& (0+255),w,b
  1599   00114A  6EDA               	movwf	fsr2h,c
  1600   00114C  C082  FFDF         	movff	MyusartRead@data,indf2
  1601   001150                     
  1602                           ; BSR set to: 0
  1603   001150  4BF3               	infsnz	_buffer_size& (0+255),f,b
  1604   001152  2BF4               	incf	(_buffer_size+1)& (0+255),f,b
  1605   001154                     
  1606                           ; BSR set to: 0
  1607                           ;hard.c: 255:     putch(data);
  1608   001154  5182               	movf	MyusartRead@data& (0+255),w,b
  1609   001156  ECF0  F007         	call	_putch
  1610   00115A                     i1l130:
  1611   00115A  0012               	return		;funcret
  1612   00115C                     __end_of_MyusartRead:
  1613                           	callstack 0
  1614                           
  1615 ;; *************** function _putch *****************
  1616 ;; Defined at:
  1617 ;;		line 233 in file "hard.c"
  1618 ;; Parameters:    Size  Location     Type
  1619 ;;  data            1    wreg     unsigned char 
  1620 ;; Auto vars:     Size  Location     Type
  1621 ;;  data            1    0[BANK0 ] unsigned char 
  1622 ;; Return value:  Size  Location     Type
  1623 ;;                  1    wreg      void 
  1624 ;; Registers used:
  1625 ;;		wreg, status,2, status,0
  1626 ;; Tracked objects:
  1627 ;;		On entry : 0/0
  1628 ;;		On exit  : 0/0
  1629 ;;		Unchanged: 0/0
  1630 ;; Data sizes:     COMRAM   BANK0   BANK1   BANK2   BANK3   BANK4   BANK5
  1631 ;;      Params:         0       0       0       0       0       0       0
  1632 ;;      Locals:         0       1       0       0       0       0       0
  1633 ;;      Temps:          0       0       0       0       0       0       0
  1634 ;;      Totals:         0       1       0       0       0       0       0
  1635 ;;Total ram usage:        1 bytes
  1636 ;; Hardware stack levels used: 1
  1637 ;; Hardware stack levels required when called: 10
  1638 ;; This function calls:
  1639 ;;		Nothing
  1640 ;; This function is called by:
  1641 ;;		_MyusartRead
  1642 ;; This function uses a non-reentrant model
  1643 ;;
  1644                           
  1645                           	psect	text13
  1646   000FE0                     __ptext13:
  1647                           	callstack 0
  1648   000FE0                     _putch:
  1649                           	callstack 16
  1650                           
  1651                           ;incstack = 0
  1652                           ;putch@data stored from wreg
  1653   000FE0  0100               	movlb	0	; () banked
  1654   000FE2  6F80               	movwf	putch@data& (0+255),b
  1655   000FE4                     
  1656                           ;hard.c: 234:     if (data == '\n' || data == '\r') {
  1657   000FE4  0E0A               	movlw	10
  1658   000FE6  0100               	movlb	0	; () banked
  1659   000FE8  1980               	xorwf	putch@data& (0+255),w,b
  1660   000FEA  B4D8               	btfsc	status,2,c
  1661   000FEC  EFFA  F007         	goto	i1u110_21
  1662   000FF0  EFFC  F007         	goto	i1u110_20
  1663   000FF4                     i1u110_21:
  1664   000FF4  EF05  F008         	goto	i1l111
  1665   000FF8                     i1u110_20:
  1666   000FF8                     
  1667                           ; BSR set to: 0
  1668   000FF8  0E0D               	movlw	13
  1669   000FFA  1980               	xorwf	putch@data& (0+255),w,b
  1670   000FFC  A4D8               	btfss	status,2,c
  1671   000FFE  EF03  F008         	goto	i1u111_21
  1672   001002  EF05  F008         	goto	i1u111_20
  1673   001006                     i1u111_21:
  1674   001006  EF19  F008         	goto	i1l118
  1675   00100A                     i1u111_20:
  1676   00100A                     i1l111:
  1677   00100A  A2AC               	btfss	172,1,c	;volatile
  1678   00100C  EF0A  F008         	goto	i1u112_21
  1679   001010  EF0C  F008         	goto	i1u112_20
  1680   001014                     i1u112_21:
  1681   001014  EF05  F008         	goto	i1l111
  1682   001018                     i1u112_20:
  1683   001018                     
  1684                           ;hard.c: 236:         TXREG = '\r';
  1685   001018  0E0D               	movlw	13
  1686   00101A  6EAD               	movwf	173,c	;volatile
  1687   00101C                     i1l114:
  1688   00101C  A2AC               	btfss	172,1,c	;volatile
  1689   00101E  EF13  F008         	goto	i1u113_21
  1690   001022  EF15  F008         	goto	i1u113_20
  1691   001026                     i1u113_21:
  1692   001026  EF0E  F008         	goto	i1l114
  1693   00102A                     i1u113_20:
  1694   00102A                     
  1695                           ;hard.c: 238:         TXREG = '\n';
  1696   00102A  0E0A               	movlw	10
  1697   00102C  6EAD               	movwf	173,c	;volatile
  1698                           
  1699                           ;hard.c: 239:     } else {
  1700   00102E  EF22  F008         	goto	i1l121
  1701   001032                     i1l118:
  1702   001032  A2AC               	btfss	172,1,c	;volatile
  1703   001034  EF1E  F008         	goto	i1u114_21
  1704   001038  EF20  F008         	goto	i1u114_20
  1705   00103C                     i1u114_21:
  1706   00103C  EF19  F008         	goto	i1l118
  1707   001040                     i1u114_20:
  1708   001040                     
  1709                           ;hard.c: 241:         TXREG = data;
  1710   001040  C080  FFAD         	movff	putch@data,4013	;volatile
  1711   001044                     i1l121:
  1712   001044  0012               	return		;funcret
  1713   001046                     __end_of_putch:
  1714                           	callstack 0
  1715                           
  1716 ;; *************** function _H_ISR *****************
  1717 ;; Defined at:
  1718 ;;		line 454 in file "hard.c"
  1719 ;; Parameters:    Size  Location     Type
  1720 ;;		None
  1721 ;; Auto vars:     Size  Location     Type
  1722 ;;  value           2   66[COMRAM] int 
  1723 ;; Return value:  Size  Location     Type
  1724 ;;                  1    wreg      void 
  1725 ;; Registers used:
  1726 ;;		wreg, fsr1l, fsr1h, fsr2l, fsr2h, status,2, status,0, tblptrl, tblptrh, tblptru, prodl, prodh, cstack
  1727 ;; Tracked objects:
  1728 ;;		On entry : 0/0
  1729 ;;		On exit  : 0/0
  1730 ;;		Unchanged: 0/0
  1731 ;; Data sizes:     COMRAM   BANK0   BANK1   BANK2   BANK3   BANK4   BANK5
  1732 ;;      Params:         0       0       0       0       0       0       0
  1733 ;;      Locals:         2       0       0       0       0       0       0
  1734 ;;      Temps:         12       0       0       0       0       0       0
  1735 ;;      Totals:        14       0       0       0       0       0       0
  1736 ;;Total ram usage:       14 bytes
  1737 ;; Hardware stack levels used: 1
  1738 ;; Hardware stack levels required when called: 9
  1739 ;; This function calls:
  1740 ;;		_button_pressed
  1741 ;;		_variable_register_changed
  1742 ;; This function is called by:
  1743 ;;		Interrupt level 2
  1744 ;; This function uses a non-reentrant model
  1745 ;;
  1746                           
  1747                           	psect	intcode
  1748   000008                     __pintcode:
  1749                           	callstack 0
  1750   000008                     _H_ISR:
  1751                           	callstack 16
  1752                           
  1753                           ;incstack = 0
  1754   000008  826F               	bsf	int$flags,1,c	;set compiler interrupt flag (level 2)
  1755   00000A  ED85  F006         	call	int_func,f	;refresh shadow registers
  1756                           
  1757                           	psect	intcode_body
  1758   000D0A                     __pintcode_body:
  1759                           	callstack 16
  1760   000D0A                     int_func:
  1761                           	callstack 16
  1762   000D0A  0006               	pop		; remove dummy address from shadow register refresh
  1763   000D0C  CFE1 F039          	movff	fsr1l,??_H_ISR+2
  1764   000D10  CFE2 F03A          	movff	fsr1h,??_H_ISR+3
  1765   000D14  CFD9 F03B          	movff	fsr2l,??_H_ISR+4
  1766   000D18  CFDA F03C          	movff	fsr2h,??_H_ISR+5
  1767   000D1C  CFF3 F03D          	movff	prodl,??_H_ISR+6
  1768   000D20  CFF4 F03E          	movff	prodh,??_H_ISR+7
  1769   000D24  CFF6 F03F          	movff	tblptrl,??_H_ISR+8
  1770   000D28  CFF7 F040          	movff	tblptrh,??_H_ISR+9
  1771   000D2C  CFF8 F041          	movff	tblptru,??_H_ISR+10
  1772   000D30  CFF5 F042          	movff	tablat,??_H_ISR+11
  1773   000D34                     
  1774                           ;hard.c: 455:     if (PIR1bits.ADIF) {
  1775   000D34  AC9E               	btfss	158,6,c	;volatile
  1776   000D36  EF9F  F006         	goto	i2u143_41
  1777   000D3A  EFA1  F006         	goto	i2u143_40
  1778   000D3E                     i2u143_41:
  1779   000D3E  EFB9  F006         	goto	i2l2021
  1780   000D42                     i2u143_40:
  1781   000D42                     
  1782                           ;hard.c: 456:         int value = (ADRESH << 8) + ADRESL;
  1783   000D42  50C4               	movf	196,w,c	;volatile
  1784   000D44  6E38               	movwf	(??_H_ISR+1)^0,c
  1785   000D46  6A37               	clrf	??_H_ISR^0,c
  1786   000D48  50C3               	movf	195,w,c	;volatile
  1787   000D4A  2437               	addwf	??_H_ISR^0,w,c
  1788   000D4C  6E43               	movwf	H_ISR@value^0,c
  1789   000D4E  0E00               	movlw	0
  1790   000D50  2038               	addwfc	(??_H_ISR+1)^0,w,c
  1791   000D52  6E44               	movwf	(H_ISR@value+1)^0,c
  1792   000D54                     
  1793                           ;hard.c: 457:         variable_register_changed(value);
  1794   000D54  C043  F035         	movff	H_ISR@value,variable_register_changed@value
  1795   000D58  C044  F036         	movff	H_ISR@value+1,variable_register_changed@value+1
  1796   000D5C  EC06  F003         	call	_variable_register_changed	;wreg free
  1797   000D60                     
  1798                           ;hard.c: 458:         PIR1bits.ADIF = 0;
  1799   000D60  9C9E               	bcf	158,6,c	;volatile
  1800   000D62                     
  1801                           ;hard.c: 459:         _delay((unsigned long)((5)*(4000000/4000.0)));
  1802   000D62  0E07               	movlw	7
  1803   000D64  6E37               	movwf	??_H_ISR^0,c
  1804   000D66  0E7D               	movlw	125
  1805   000D68                     i2u150_47:
  1806   000D68  2EE8               	decfsz	wreg,f,c
  1807   000D6A  D7FE               	bra	i2u150_47
  1808   000D6C  2E37               	decfsz	??_H_ISR^0,f,c
  1809   000D6E  D7FC               	bra	i2u150_47
  1810   000D70  0000               	nop	
  1811   000D72                     i2l2021:
  1812                           
  1813                           ;hard.c: 462:     if (INTCONbits.INT0IF) {
  1814   000D72  A2F2               	btfss	242,1,c	;volatile
  1815   000D74  EFBE  F006         	goto	i2u144_41
  1816   000D78  EFC0  F006         	goto	i2u144_40
  1817   000D7C                     i2u144_41:
  1818   000D7C  EFCF  F006         	goto	i2l227
  1819   000D80                     i2u144_40:
  1820   000D80                     
  1821                           ;hard.c: 463:         INTCONbits.INT0IE = 0;
  1822   000D80  98F2               	bcf	242,4,c	;volatile
  1823   000D82                     
  1824                           ;hard.c: 464:         button_pressed();
  1825   000D82  ECB4  F009         	call	_button_pressed	;wreg free
  1826   000D86                     
  1827                           ;hard.c: 465:         _delay((unsigned long)((50)*(4000000/4000.0)));
  1828   000D86  0E41               	movlw	65
  1829   000D88  6E37               	movwf	??_H_ISR^0,c
  1830   000D8A  0EEE               	movlw	238
  1831   000D8C                     i2u151_47:
  1832   000D8C  2EE8               	decfsz	wreg,f,c
  1833   000D8E  D7FE               	bra	i2u151_47
  1834   000D90  2E37               	decfsz	??_H_ISR^0,f,c
  1835   000D92  D7FC               	bra	i2u151_47
  1836   000D94  D000               	nop2	
  1837   000D96                     
  1838                           ;hard.c: 466:         btn_interr = 1;
  1839   000D96  0E01               	movlw	1
  1840   000D98  6E4E               	movwf	_btn_interr^0,c
  1841   000D9A                     
  1842                           ;hard.c: 467:         INTCONbits.INT0IF = 0;
  1843   000D9A  92F2               	bcf	242,1,c	;volatile
  1844   000D9C                     
  1845                           ;hard.c: 468:         INTCONbits.INT0IE = 1;
  1846   000D9C  88F2               	bsf	242,4,c	;volatile
  1847   000D9E                     i2l227:
  1848   000D9E  C042  FFF5         	movff	??_H_ISR+11,tablat
  1849   000DA2  C041  FFF8         	movff	??_H_ISR+10,tblptru
  1850   000DA6  C040  FFF7         	movff	??_H_ISR+9,tblptrh
  1851   000DAA  C03F  FFF6         	movff	??_H_ISR+8,tblptrl
  1852   000DAE  C03E  FFF4         	movff	??_H_ISR+7,prodh
  1853   000DB2  C03D  FFF3         	movff	??_H_ISR+6,prodl
  1854   000DB6  C03C  FFDA         	movff	??_H_ISR+5,fsr2h
  1855   000DBA  C03B  FFD9         	movff	??_H_ISR+4,fsr2l
  1856   000DBE  C03A  FFE2         	movff	??_H_ISR+3,fsr1h
  1857   000DC2  C039  FFE1         	movff	??_H_ISR+2,fsr1l
  1858   000DC6  926F               	bcf	int$flags,1,c	;clear compiler interrupt flag (level 2)
  1859   000DC8  0011               	retfie		f
  1860   000DCA                     __end_of_H_ISR:
  1861                           	callstack 0
  1862                           
  1863 ;; *************** function _variable_register_changed *****************
  1864 ;; Defined at:
  1865 ;;		line 341 in file "hard.c"
  1866 ;; Parameters:    Size  Location     Type
  1867 ;;  value           2   52[COMRAM] int 
  1868 ;; Auto vars:     Size  Location     Type
  1869 ;;		None
  1870 ;; Return value:  Size  Location     Type
  1871 ;;                  1    wreg      void 
  1872 ;; Registers used:
  1873 ;;		wreg, fsr1l, fsr1h, fsr2l, fsr2h, status,2, status,0, tblptrl, tblptrh, tblptru, prodl, prodh, cstack
  1874 ;; Tracked objects:
  1875 ;;		On entry : 0/0
  1876 ;;		On exit  : 0/0
  1877 ;;		Unchanged: 0/0
  1878 ;; Data sizes:     COMRAM   BANK0   BANK1   BANK2   BANK3   BANK4   BANK5
  1879 ;;      Params:         2       0       0       0       0       0       0
  1880 ;;      Locals:         0       0       0       0       0       0       0
  1881 ;;      Temps:          0       0       0       0       0       0       0
  1882 ;;      Totals:         2       0       0       0       0       0       0
  1883 ;;Total ram usage:        2 bytes
  1884 ;; Hardware stack levels used: 1
  1885 ;; Hardware stack levels required when called: 8
  1886 ;; This function calls:
  1887 ;;		_printf
  1888 ;;		_set_LED
  1889 ;; This function is called by:
  1890 ;;		_H_ISR
  1891 ;; This function uses a non-reentrant model
  1892 ;;
  1893                           
  1894                           	psect	text15
  1895   00060C                     __ptext15:
  1896                           	callstack 0
  1897   00060C                     _variable_register_changed:
  1898                           	callstack 16
  1899   00060C                     
  1900                           ;hard.c: 348:     if(value < 85){
  1901   00060C  BE36               	btfsc	(variable_register_changed@value+1)^0,7,c
  1902   00060E  EF14  F003         	goto	i2u120_40
  1903   000612  5036               	movf	(variable_register_changed@value+1)^0,w,c
  1904   000614  E107               	bnz	i2u120_41
  1905   000616  0E55               	movlw	85
  1906   000618  5C35               	subwf	variable_register_changed@value^0,w,c
  1907   00061A  B0D8               	btfsc	status,0,c
  1908   00061C  EF12  F003         	goto	i2u120_41
  1909   000620  EF14  F003         	goto	i2u120_40
  1910   000624                     i2u120_41:
  1911   000624  EF32  F003         	goto	i2l1901
  1912   000628                     i2u120_40:
  1913   000628                     
  1914                           ;hard.c: 349:         if(pre_radc_val != 4){
  1915   000628  0E04               	movlw	4
  1916   00062A  184B               	xorwf	_pre_radc_val^0,w,c
  1917   00062C  104C               	iorwf	(_pre_radc_val+1)^0,w,c
  1918   00062E  B4D8               	btfsc	status,2,c
  1919   000630  EF1C  F003         	goto	i2u121_41
  1920   000634  EF1E  F003         	goto	i2u121_40
  1921   000638                     i2u121_41:
  1922   000638  EF00  F005         	goto	i2l214
  1923   00063C                     i2u121_40:
  1924   00063C                     
  1925                           ;hard.c: 350:             set_LED(4);
  1926   00063C  0E00               	movlw	0
  1927   00063E  6E02               	movwf	(set_LED@value+1)^0,c
  1928   000640  0E04               	movlw	4
  1929   000642  6E01               	movwf	set_LED@value^0,c
  1930   000644  ECAE  F009         	call	_set_LED	;wreg free
  1931   000648                     
  1932                           ;hard.c: 351:             printf("\b\b\b\b%04u", value);
  1933   000648  0E01               	movlw	low STR_1
  1934   00064A  6E31               	movwf	printf@fmt^0,c
  1935   00064C  C035  F032         	movff	variable_register_changed@value,?_printf+1
  1936   000650  C036  F033         	movff	variable_register_changed@value+1,?_printf+2
  1937   000654  EC90  F009         	call	_printf	;wreg free
  1938   000658                     
  1939                           ;hard.c: 352:             pre_radc_val = 4;
  1940   000658  0E00               	movlw	0
  1941   00065A  6E4C               	movwf	(_pre_radc_val+1)^0,c
  1942   00065C  0E04               	movlw	4
  1943   00065E  6E4B               	movwf	_pre_radc_val^0,c
  1944   000660  EF00  F005         	goto	i2l214
  1945   000664                     i2l1901:
  1946   000664  BE36               	btfsc	(variable_register_changed@value+1)^0,7,c
  1947   000666  EF40  F003         	goto	i2u122_40
  1948   00066A  5036               	movf	(variable_register_changed@value+1)^0,w,c
  1949   00066C  E107               	bnz	i2u122_41
  1950   00066E  0EAA               	movlw	170
  1951   000670  5C35               	subwf	variable_register_changed@value^0,w,c
  1952   000672  B0D8               	btfsc	status,0,c
  1953   000674  EF3E  F003         	goto	i2u122_41
  1954   000678  EF40  F003         	goto	i2u122_40
  1955   00067C                     i2u122_41:
  1956   00067C  EF5E  F003         	goto	i2l1911
  1957   000680                     i2u122_40:
  1958   000680                     
  1959                           ;hard.c: 356:         if(pre_radc_val != 5){
  1960   000680  0E05               	movlw	5
  1961   000682  184B               	xorwf	_pre_radc_val^0,w,c
  1962   000684  104C               	iorwf	(_pre_radc_val+1)^0,w,c
  1963   000686  B4D8               	btfsc	status,2,c
  1964   000688  EF48  F003         	goto	i2u123_41
  1965   00068C  EF4A  F003         	goto	i2u123_40
  1966   000690                     i2u123_41:
  1967   000690  EF00  F005         	goto	i2l214
  1968   000694                     i2u123_40:
  1969   000694                     
  1970                           ;hard.c: 357:             set_LED(5);
  1971   000694  0E00               	movlw	0
  1972   000696  6E02               	movwf	(set_LED@value+1)^0,c
  1973   000698  0E05               	movlw	5
  1974   00069A  6E01               	movwf	set_LED@value^0,c
  1975   00069C  ECAE  F009         	call	_set_LED	;wreg free
  1976   0006A0                     
  1977                           ;hard.c: 358:             printf("\b\b\b\b%04u", value);
  1978   0006A0  0E01               	movlw	low STR_1
  1979   0006A2  6E31               	movwf	printf@fmt^0,c
  1980   0006A4  C035  F032         	movff	variable_register_changed@value,?_printf+1
  1981   0006A8  C036  F033         	movff	variable_register_changed@value+1,?_printf+2
  1982   0006AC  EC90  F009         	call	_printf	;wreg free
  1983   0006B0                     
  1984                           ;hard.c: 359:             pre_radc_val = 5;
  1985   0006B0  0E00               	movlw	0
  1986   0006B2  6E4C               	movwf	(_pre_radc_val+1)^0,c
  1987   0006B4  0E05               	movlw	5
  1988   0006B6  6E4B               	movwf	_pre_radc_val^0,c
  1989   0006B8  EF00  F005         	goto	i2l214
  1990   0006BC                     i2l1911:
  1991   0006BC  BE36               	btfsc	(variable_register_changed@value+1)^0,7,c
  1992   0006BE  EF69  F003         	goto	i2u124_40
  1993   0006C2  0436               	decf	(variable_register_changed@value+1)^0,w,c
  1994   0006C4  B0D8               	btfsc	status,0,c
  1995   0006C6  EF67  F003         	goto	i2u124_41
  1996   0006CA  EF69  F003         	goto	i2u124_40
  1997   0006CE                     i2u124_41:
  1998   0006CE  EF87  F003         	goto	i2l1921
  1999   0006D2                     i2u124_40:
  2000   0006D2                     
  2001                           ;hard.c: 363:         if(pre_radc_val != 6){
  2002   0006D2  0E06               	movlw	6
  2003   0006D4  184B               	xorwf	_pre_radc_val^0,w,c
  2004   0006D6  104C               	iorwf	(_pre_radc_val+1)^0,w,c
  2005   0006D8  B4D8               	btfsc	status,2,c
  2006   0006DA  EF71  F003         	goto	i2u125_41
  2007   0006DE  EF73  F003         	goto	i2u125_40
  2008   0006E2                     i2u125_41:
  2009   0006E2  EF00  F005         	goto	i2l214
  2010   0006E6                     i2u125_40:
  2011   0006E6                     
  2012                           ;hard.c: 364:             set_LED(6);
  2013   0006E6  0E00               	movlw	0
  2014   0006E8  6E02               	movwf	(set_LED@value+1)^0,c
  2015   0006EA  0E06               	movlw	6
  2016   0006EC  6E01               	movwf	set_LED@value^0,c
  2017   0006EE  ECAE  F009         	call	_set_LED	;wreg free
  2018   0006F2                     
  2019                           ;hard.c: 365:             printf("\b\b\b\b%04u", value);
  2020   0006F2  0E01               	movlw	low STR_1
  2021   0006F4  6E31               	movwf	printf@fmt^0,c
  2022   0006F6  C035  F032         	movff	variable_register_changed@value,?_printf+1
  2023   0006FA  C036  F033         	movff	variable_register_changed@value+1,?_printf+2
  2024   0006FE  EC90  F009         	call	_printf	;wreg free
  2025   000702                     
  2026                           ;hard.c: 366:             pre_radc_val = 6;
  2027   000702  0E00               	movlw	0
  2028   000704  6E4C               	movwf	(_pre_radc_val+1)^0,c
  2029   000706  0E06               	movlw	6
  2030   000708  6E4B               	movwf	_pre_radc_val^0,c
  2031   00070A  EF00  F005         	goto	i2l214
  2032   00070E                     i2l1921:
  2033   00070E  BE36               	btfsc	(variable_register_changed@value+1)^0,7,c
  2034   000710  EF95  F003         	goto	i2u126_40
  2035   000714  0E55               	movlw	85
  2036   000716  5C35               	subwf	variable_register_changed@value^0,w,c
  2037   000718  0E01               	movlw	1
  2038   00071A  5836               	subwfb	(variable_register_changed@value+1)^0,w,c
  2039   00071C  B0D8               	btfsc	status,0,c
  2040   00071E  EF93  F003         	goto	i2u126_41
  2041   000722  EF95  F003         	goto	i2u126_40
  2042   000726                     i2u126_41:
  2043   000726  EFB3  F003         	goto	i2l1931
  2044   00072A                     i2u126_40:
  2045   00072A                     
  2046                           ;hard.c: 370:         if(pre_radc_val != 7){
  2047   00072A  0E07               	movlw	7
  2048   00072C  184B               	xorwf	_pre_radc_val^0,w,c
  2049   00072E  104C               	iorwf	(_pre_radc_val+1)^0,w,c
  2050   000730  B4D8               	btfsc	status,2,c
  2051   000732  EF9D  F003         	goto	i2u127_41
  2052   000736  EF9F  F003         	goto	i2u127_40
  2053   00073A                     i2u127_41:
  2054   00073A  EF00  F005         	goto	i2l214
  2055   00073E                     i2u127_40:
  2056   00073E                     
  2057                           ;hard.c: 371:             set_LED(7);
  2058   00073E  0E00               	movlw	0
  2059   000740  6E02               	movwf	(set_LED@value+1)^0,c
  2060   000742  0E07               	movlw	7
  2061   000744  6E01               	movwf	set_LED@value^0,c
  2062   000746  ECAE  F009         	call	_set_LED	;wreg free
  2063   00074A                     
  2064                           ;hard.c: 372:             printf("\b\b\b\b%04u", value);
  2065   00074A  0E01               	movlw	low STR_1
  2066   00074C  6E31               	movwf	printf@fmt^0,c
  2067   00074E  C035  F032         	movff	variable_register_changed@value,?_printf+1
  2068   000752  C036  F033         	movff	variable_register_changed@value+1,?_printf+2
  2069   000756  EC90  F009         	call	_printf	;wreg free
  2070   00075A                     
  2071                           ;hard.c: 373:             pre_radc_val = 7;
  2072   00075A  0E00               	movlw	0
  2073   00075C  6E4C               	movwf	(_pre_radc_val+1)^0,c
  2074   00075E  0E07               	movlw	7
  2075   000760  6E4B               	movwf	_pre_radc_val^0,c
  2076   000762  EF00  F005         	goto	i2l214
  2077   000766                     i2l1931:
  2078   000766  BE36               	btfsc	(variable_register_changed@value+1)^0,7,c
  2079   000768  EFC1  F003         	goto	i2u128_40
  2080   00076C  0EAA               	movlw	170
  2081   00076E  5C35               	subwf	variable_register_changed@value^0,w,c
  2082   000770  0E01               	movlw	1
  2083   000772  5836               	subwfb	(variable_register_changed@value+1)^0,w,c
  2084   000774  B0D8               	btfsc	status,0,c
  2085   000776  EFBF  F003         	goto	i2u128_41
  2086   00077A  EFC1  F003         	goto	i2u128_40
  2087   00077E                     i2u128_41:
  2088   00077E  EFDF  F003         	goto	i2l1941
  2089   000782                     i2u128_40:
  2090   000782                     
  2091                           ;hard.c: 377:         if(pre_radc_val != 8){
  2092   000782  0E08               	movlw	8
  2093   000784  184B               	xorwf	_pre_radc_val^0,w,c
  2094   000786  104C               	iorwf	(_pre_radc_val+1)^0,w,c
  2095   000788  B4D8               	btfsc	status,2,c
  2096   00078A  EFC9  F003         	goto	i2u129_41
  2097   00078E  EFCB  F003         	goto	i2u129_40
  2098   000792                     i2u129_41:
  2099   000792  EF00  F005         	goto	i2l214
  2100   000796                     i2u129_40:
  2101   000796                     
  2102                           ;hard.c: 378:             set_LED(8);
  2103   000796  0E00               	movlw	0
  2104   000798  6E02               	movwf	(set_LED@value+1)^0,c
  2105   00079A  0E08               	movlw	8
  2106   00079C  6E01               	movwf	set_LED@value^0,c
  2107   00079E  ECAE  F009         	call	_set_LED	;wreg free
  2108   0007A2                     
  2109                           ;hard.c: 379:             printf("\b\b\b\b%04u", value);
  2110   0007A2  0E01               	movlw	low STR_1
  2111   0007A4  6E31               	movwf	printf@fmt^0,c
  2112   0007A6  C035  F032         	movff	variable_register_changed@value,?_printf+1
  2113   0007AA  C036  F033         	movff	variable_register_changed@value+1,?_printf+2
  2114   0007AE  EC90  F009         	call	_printf	;wreg free
  2115   0007B2                     
  2116                           ;hard.c: 380:             pre_radc_val = 8;
  2117   0007B2  0E00               	movlw	0
  2118   0007B4  6E4C               	movwf	(_pre_radc_val+1)^0,c
  2119   0007B6  0E08               	movlw	8
  2120   0007B8  6E4B               	movwf	_pre_radc_val^0,c
  2121   0007BA  EF00  F005         	goto	i2l214
  2122   0007BE                     i2l1941:
  2123   0007BE  BE36               	btfsc	(variable_register_changed@value+1)^0,7,c
  2124   0007C0  EFEB  F003         	goto	i2u130_40
  2125   0007C4  0E02               	movlw	2
  2126   0007C6  5C36               	subwf	(variable_register_changed@value+1)^0,w,c
  2127   0007C8  B0D8               	btfsc	status,0,c
  2128   0007CA  EFE9  F003         	goto	i2u130_41
  2129   0007CE  EFEB  F003         	goto	i2u130_40
  2130   0007D2                     i2u130_41:
  2131   0007D2  EF09  F004         	goto	i2l1951
  2132   0007D6                     i2u130_40:
  2133   0007D6                     
  2134                           ;hard.c: 384:         if(pre_radc_val != 9){
  2135   0007D6  0E09               	movlw	9
  2136   0007D8  184B               	xorwf	_pre_radc_val^0,w,c
  2137   0007DA  104C               	iorwf	(_pre_radc_val+1)^0,w,c
  2138   0007DC  B4D8               	btfsc	status,2,c
  2139   0007DE  EFF3  F003         	goto	i2u131_41
  2140   0007E2  EFF5  F003         	goto	i2u131_40
  2141   0007E6                     i2u131_41:
  2142   0007E6  EF00  F005         	goto	i2l214
  2143   0007EA                     i2u131_40:
  2144   0007EA                     
  2145                           ;hard.c: 385:             set_LED(9);
  2146   0007EA  0E00               	movlw	0
  2147   0007EC  6E02               	movwf	(set_LED@value+1)^0,c
  2148   0007EE  0E09               	movlw	9
  2149   0007F0  6E01               	movwf	set_LED@value^0,c
  2150   0007F2  ECAE  F009         	call	_set_LED	;wreg free
  2151   0007F6                     
  2152                           ;hard.c: 386:             printf("\b\b\b\b%04u", value);
  2153   0007F6  0E01               	movlw	low STR_1
  2154   0007F8  6E31               	movwf	printf@fmt^0,c
  2155   0007FA  C035  F032         	movff	variable_register_changed@value,?_printf+1
  2156   0007FE  C036  F033         	movff	variable_register_changed@value+1,?_printf+2
  2157   000802  EC90  F009         	call	_printf	;wreg free
  2158   000806                     
  2159                           ;hard.c: 387:             pre_radc_val = 9;
  2160   000806  0E00               	movlw	0
  2161   000808  6E4C               	movwf	(_pre_radc_val+1)^0,c
  2162   00080A  0E09               	movlw	9
  2163   00080C  6E4B               	movwf	_pre_radc_val^0,c
  2164   00080E  EF00  F005         	goto	i2l214
  2165   000812                     i2l1951:
  2166   000812  BE36               	btfsc	(variable_register_changed@value+1)^0,7,c
  2167   000814  EF17  F004         	goto	i2u132_40
  2168   000818  0E55               	movlw	85
  2169   00081A  5C35               	subwf	variable_register_changed@value^0,w,c
  2170   00081C  0E02               	movlw	2
  2171   00081E  5836               	subwfb	(variable_register_changed@value+1)^0,w,c
  2172   000820  B0D8               	btfsc	status,0,c
  2173   000822  EF15  F004         	goto	i2u132_41
  2174   000826  EF17  F004         	goto	i2u132_40
  2175   00082A                     i2u132_41:
  2176   00082A  EF35  F004         	goto	i2l1961
  2177   00082E                     i2u132_40:
  2178   00082E                     
  2179                           ;hard.c: 391:         if(pre_radc_val != 10){
  2180   00082E  0E0A               	movlw	10
  2181   000830  184B               	xorwf	_pre_radc_val^0,w,c
  2182   000832  104C               	iorwf	(_pre_radc_val+1)^0,w,c
  2183   000834  B4D8               	btfsc	status,2,c
  2184   000836  EF1F  F004         	goto	i2u133_41
  2185   00083A  EF21  F004         	goto	i2u133_40
  2186   00083E                     i2u133_41:
  2187   00083E  EF00  F005         	goto	i2l214
  2188   000842                     i2u133_40:
  2189   000842                     
  2190                           ;hard.c: 392:             set_LED(10);
  2191   000842  0E00               	movlw	0
  2192   000844  6E02               	movwf	(set_LED@value+1)^0,c
  2193   000846  0E0A               	movlw	10
  2194   000848  6E01               	movwf	set_LED@value^0,c
  2195   00084A  ECAE  F009         	call	_set_LED	;wreg free
  2196   00084E                     
  2197                           ;hard.c: 393:             printf("\b\b\b\b%04u", value);
  2198   00084E  0E01               	movlw	low STR_1
  2199   000850  6E31               	movwf	printf@fmt^0,c
  2200   000852  C035  F032         	movff	variable_register_changed@value,?_printf+1
  2201   000856  C036  F033         	movff	variable_register_changed@value+1,?_printf+2
  2202   00085A  EC90  F009         	call	_printf	;wreg free
  2203   00085E                     
  2204                           ;hard.c: 394:             pre_radc_val = 10;
  2205   00085E  0E00               	movlw	0
  2206   000860  6E4C               	movwf	(_pre_radc_val+1)^0,c
  2207   000862  0E0A               	movlw	10
  2208   000864  6E4B               	movwf	_pre_radc_val^0,c
  2209   000866  EF00  F005         	goto	i2l214
  2210   00086A                     i2l1961:
  2211   00086A  BE36               	btfsc	(variable_register_changed@value+1)^0,7,c
  2212   00086C  EF43  F004         	goto	i2u134_40
  2213   000870  0EAA               	movlw	170
  2214   000872  5C35               	subwf	variable_register_changed@value^0,w,c
  2215   000874  0E02               	movlw	2
  2216   000876  5836               	subwfb	(variable_register_changed@value+1)^0,w,c
  2217   000878  B0D8               	btfsc	status,0,c
  2218   00087A  EF41  F004         	goto	i2u134_41
  2219   00087E  EF43  F004         	goto	i2u134_40
  2220   000882                     i2u134_41:
  2221   000882  EF61  F004         	goto	i2l1971
  2222   000886                     i2u134_40:
  2223   000886                     
  2224                           ;hard.c: 398:         if(pre_radc_val != 11){
  2225   000886  0E0B               	movlw	11
  2226   000888  184B               	xorwf	_pre_radc_val^0,w,c
  2227   00088A  104C               	iorwf	(_pre_radc_val+1)^0,w,c
  2228   00088C  B4D8               	btfsc	status,2,c
  2229   00088E  EF4B  F004         	goto	i2u135_41
  2230   000892  EF4D  F004         	goto	i2u135_40
  2231   000896                     i2u135_41:
  2232   000896  EF00  F005         	goto	i2l214
  2233   00089A                     i2u135_40:
  2234   00089A                     
  2235                           ;hard.c: 399:             set_LED(11);
  2236   00089A  0E00               	movlw	0
  2237   00089C  6E02               	movwf	(set_LED@value+1)^0,c
  2238   00089E  0E0B               	movlw	11
  2239   0008A0  6E01               	movwf	set_LED@value^0,c
  2240   0008A2  ECAE  F009         	call	_set_LED	;wreg free
  2241   0008A6                     
  2242                           ;hard.c: 400:             printf("\b\b\b\b%04u", value);
  2243   0008A6  0E01               	movlw	low STR_1
  2244   0008A8  6E31               	movwf	printf@fmt^0,c
  2245   0008AA  C035  F032         	movff	variable_register_changed@value,?_printf+1
  2246   0008AE  C036  F033         	movff	variable_register_changed@value+1,?_printf+2
  2247   0008B2  EC90  F009         	call	_printf	;wreg free
  2248   0008B6                     
  2249                           ;hard.c: 401:             pre_radc_val = 11;
  2250   0008B6  0E00               	movlw	0
  2251   0008B8  6E4C               	movwf	(_pre_radc_val+1)^0,c
  2252   0008BA  0E0B               	movlw	11
  2253   0008BC  6E4B               	movwf	_pre_radc_val^0,c
  2254   0008BE  EF00  F005         	goto	i2l214
  2255   0008C2                     i2l1971:
  2256   0008C2  BE36               	btfsc	(variable_register_changed@value+1)^0,7,c
  2257   0008C4  EF6E  F004         	goto	i2u136_40
  2258   0008C8  2835               	incf	variable_register_changed@value^0,w,c
  2259   0008CA  0E02               	movlw	2
  2260   0008CC  5836               	subwfb	(variable_register_changed@value+1)^0,w,c
  2261   0008CE  B0D8               	btfsc	status,0,c
  2262   0008D0  EF6C  F004         	goto	i2u136_41
  2263   0008D4  EF6E  F004         	goto	i2u136_40
  2264   0008D8                     i2u136_41:
  2265   0008D8  EF8C  F004         	goto	i2l1981
  2266   0008DC                     i2u136_40:
  2267   0008DC                     
  2268                           ;hard.c: 405:         if(pre_radc_val != 12){
  2269   0008DC  0E0C               	movlw	12
  2270   0008DE  184B               	xorwf	_pre_radc_val^0,w,c
  2271   0008E0  104C               	iorwf	(_pre_radc_val+1)^0,w,c
  2272   0008E2  B4D8               	btfsc	status,2,c
  2273   0008E4  EF76  F004         	goto	i2u137_41
  2274   0008E8  EF78  F004         	goto	i2u137_40
  2275   0008EC                     i2u137_41:
  2276   0008EC  EF00  F005         	goto	i2l214
  2277   0008F0                     i2u137_40:
  2278   0008F0                     
  2279                           ;hard.c: 406:             set_LED(12);
  2280   0008F0  0E00               	movlw	0
  2281   0008F2  6E02               	movwf	(set_LED@value+1)^0,c
  2282   0008F4  0E0C               	movlw	12
  2283   0008F6  6E01               	movwf	set_LED@value^0,c
  2284   0008F8  ECAE  F009         	call	_set_LED	;wreg free
  2285   0008FC                     
  2286                           ;hard.c: 407:             printf("\b\b\b\b%04u", value);
  2287   0008FC  0E01               	movlw	low STR_1
  2288   0008FE  6E31               	movwf	printf@fmt^0,c
  2289   000900  C035  F032         	movff	variable_register_changed@value,?_printf+1
  2290   000904  C036  F033         	movff	variable_register_changed@value+1,?_printf+2
  2291   000908  EC90  F009         	call	_printf	;wreg free
  2292   00090C                     
  2293                           ;hard.c: 408:             pre_radc_val = 12;
  2294   00090C  0E00               	movlw	0
  2295   00090E  6E4C               	movwf	(_pre_radc_val+1)^0,c
  2296   000910  0E0C               	movlw	12
  2297   000912  6E4B               	movwf	_pre_radc_val^0,c
  2298   000914  EF00  F005         	goto	i2l214
  2299   000918                     i2l1981:
  2300   000918  BE36               	btfsc	(variable_register_changed@value+1)^0,7,c
  2301   00091A  EF9A  F004         	goto	i2u138_40
  2302   00091E  0E54               	movlw	84
  2303   000920  5C35               	subwf	variable_register_changed@value^0,w,c
  2304   000922  0E03               	movlw	3
  2305   000924  5836               	subwfb	(variable_register_changed@value+1)^0,w,c
  2306   000926  B0D8               	btfsc	status,0,c
  2307   000928  EF98  F004         	goto	i2u138_41
  2308   00092C  EF9A  F004         	goto	i2u138_40
  2309   000930                     i2u138_41:
  2310   000930  EFB8  F004         	goto	i2l1991
  2311   000934                     i2u138_40:
  2312   000934                     
  2313                           ;hard.c: 412:         if(pre_radc_val != 13){
  2314   000934  0E0D               	movlw	13
  2315   000936  184B               	xorwf	_pre_radc_val^0,w,c
  2316   000938  104C               	iorwf	(_pre_radc_val+1)^0,w,c
  2317   00093A  B4D8               	btfsc	status,2,c
  2318   00093C  EFA2  F004         	goto	i2u139_41
  2319   000940  EFA4  F004         	goto	i2u139_40
  2320   000944                     i2u139_41:
  2321   000944  EF00  F005         	goto	i2l214
  2322   000948                     i2u139_40:
  2323   000948                     
  2324                           ;hard.c: 413:             set_LED(13);
  2325   000948  0E00               	movlw	0
  2326   00094A  6E02               	movwf	(set_LED@value+1)^0,c
  2327   00094C  0E0D               	movlw	13
  2328   00094E  6E01               	movwf	set_LED@value^0,c
  2329   000950  ECAE  F009         	call	_set_LED	;wreg free
  2330   000954                     
  2331                           ;hard.c: 414:             printf("\b\b\b\b%04u", value);
  2332   000954  0E01               	movlw	low STR_1
  2333   000956  6E31               	movwf	printf@fmt^0,c
  2334   000958  C035  F032         	movff	variable_register_changed@value,?_printf+1
  2335   00095C  C036  F033         	movff	variable_register_changed@value+1,?_printf+2
  2336   000960  EC90  F009         	call	_printf	;wreg free
  2337   000964                     
  2338                           ;hard.c: 415:             pre_radc_val = 13;
  2339   000964  0E00               	movlw	0
  2340   000966  6E4C               	movwf	(_pre_radc_val+1)^0,c
  2341   000968  0E0D               	movlw	13
  2342   00096A  6E4B               	movwf	_pre_radc_val^0,c
  2343   00096C  EF00  F005         	goto	i2l214
  2344   000970                     i2l1991:
  2345   000970  BE36               	btfsc	(variable_register_changed@value+1)^0,7,c
  2346   000972  EFC6  F004         	goto	i2u140_40
  2347   000976  0EAA               	movlw	170
  2348   000978  5C35               	subwf	variable_register_changed@value^0,w,c
  2349   00097A  0E03               	movlw	3
  2350   00097C  5836               	subwfb	(variable_register_changed@value+1)^0,w,c
  2351   00097E  B0D8               	btfsc	status,0,c
  2352   000980  EFC4  F004         	goto	i2u140_41
  2353   000984  EFC6  F004         	goto	i2u140_40
  2354   000988                     i2u140_41:
  2355   000988  EFE4  F004         	goto	i2l2001
  2356   00098C                     i2u140_40:
  2357   00098C                     
  2358                           ;hard.c: 419:         if(pre_radc_val != 14){
  2359   00098C  0E0E               	movlw	14
  2360   00098E  184B               	xorwf	_pre_radc_val^0,w,c
  2361   000990  104C               	iorwf	(_pre_radc_val+1)^0,w,c
  2362   000992  B4D8               	btfsc	status,2,c
  2363   000994  EFCE  F004         	goto	i2u141_41
  2364   000998  EFD0  F004         	goto	i2u141_40
  2365   00099C                     i2u141_41:
  2366   00099C  EF00  F005         	goto	i2l214
  2367   0009A0                     i2u141_40:
  2368   0009A0                     
  2369                           ;hard.c: 420:             set_LED(14);
  2370   0009A0  0E00               	movlw	0
  2371   0009A2  6E02               	movwf	(set_LED@value+1)^0,c
  2372   0009A4  0E0E               	movlw	14
  2373   0009A6  6E01               	movwf	set_LED@value^0,c
  2374   0009A8  ECAE  F009         	call	_set_LED	;wreg free
  2375   0009AC                     
  2376                           ;hard.c: 421:             printf("\b\b\b\b%04u", value);
  2377   0009AC  0E01               	movlw	low STR_1
  2378   0009AE  6E31               	movwf	printf@fmt^0,c
  2379   0009B0  C035  F032         	movff	variable_register_changed@value,?_printf+1
  2380   0009B4  C036  F033         	movff	variable_register_changed@value+1,?_printf+2
  2381   0009B8  EC90  F009         	call	_printf	;wreg free
  2382   0009BC                     
  2383                           ;hard.c: 422:             pre_radc_val = 14;
  2384   0009BC  0E00               	movlw	0
  2385   0009BE  6E4C               	movwf	(_pre_radc_val+1)^0,c
  2386   0009C0  0E0E               	movlw	14
  2387   0009C2  6E4B               	movwf	_pre_radc_val^0,c
  2388   0009C4  EF00  F005         	goto	i2l214
  2389   0009C8                     i2l2001:
  2390                           
  2391                           ;hard.c: 426:         if(pre_radc_val != 15){
  2392   0009C8  0E0F               	movlw	15
  2393   0009CA  184B               	xorwf	_pre_radc_val^0,w,c
  2394   0009CC  104C               	iorwf	(_pre_radc_val+1)^0,w,c
  2395   0009CE  B4D8               	btfsc	status,2,c
  2396   0009D0  EFEC  F004         	goto	i2u142_41
  2397   0009D4  EFEE  F004         	goto	i2u142_40
  2398   0009D8                     i2u142_41:
  2399   0009D8  EF00  F005         	goto	i2l214
  2400   0009DC                     i2u142_40:
  2401   0009DC                     
  2402                           ;hard.c: 427:             set_LED(15);
  2403   0009DC  0E00               	movlw	0
  2404   0009DE  6E02               	movwf	(set_LED@value+1)^0,c
  2405   0009E0  0E0F               	movlw	15
  2406   0009E2  6E01               	movwf	set_LED@value^0,c
  2407   0009E4  ECAE  F009         	call	_set_LED	;wreg free
  2408   0009E8                     
  2409                           ;hard.c: 428:             printf("\b\b\b\b%04u", value);
  2410   0009E8  0E01               	movlw	low STR_1
  2411   0009EA  6E31               	movwf	printf@fmt^0,c
  2412   0009EC  C035  F032         	movff	variable_register_changed@value,?_printf+1
  2413   0009F0  C036  F033         	movff	variable_register_changed@value+1,?_printf+2
  2414   0009F4  EC90  F009         	call	_printf	;wreg free
  2415   0009F8                     
  2416                           ;hard.c: 429:             pre_radc_val = 15;
  2417   0009F8  0E00               	movlw	0
  2418   0009FA  6E4C               	movwf	(_pre_radc_val+1)^0,c
  2419   0009FC  0E0F               	movlw	15
  2420   0009FE  6E4B               	movwf	_pre_radc_val^0,c
  2421   000A00                     i2l214:
  2422   000A00  0012               	return		;funcret
  2423   000A02                     __end_of_variable_register_changed:
  2424                           	callstack 0
  2425                           
  2426 ;; *************** function _set_LED *****************
  2427 ;; Defined at:
  2428 ;;		line 274 in file "hard.c"
  2429 ;; Parameters:    Size  Location     Type
  2430 ;;  value           2    0[COMRAM] int 
  2431 ;; Auto vars:     Size  Location     Type
  2432 ;;		None
  2433 ;; Return value:  Size  Location     Type
  2434 ;;                  1    wreg      void 
  2435 ;; Registers used:
  2436 ;;		wreg, status,2, status,0
  2437 ;; Tracked objects:
  2438 ;;		On entry : 0/0
  2439 ;;		On exit  : 0/0
  2440 ;;		Unchanged: 0/0
  2441 ;; Data sizes:     COMRAM   BANK0   BANK1   BANK2   BANK3   BANK4   BANK5
  2442 ;;      Params:         2       0       0       0       0       0       0
  2443 ;;      Locals:         0       0       0       0       0       0       0
  2444 ;;      Temps:          0       0       0       0       0       0       0
  2445 ;;      Totals:         2       0       0       0       0       0       0
  2446 ;;Total ram usage:        2 bytes
  2447 ;; Hardware stack levels used: 1
  2448 ;; This function calls:
  2449 ;;		Nothing
  2450 ;; This function is called by:
  2451 ;;		_variable_register_changed
  2452 ;; This function uses a non-reentrant model
  2453 ;;
  2454                           
  2455                           	psect	text16
  2456   00135C                     __ptext16:
  2457                           	callstack 0
  2458   00135C                     _set_LED:
  2459                           	callstack 23
  2460   00135C                     
  2461                           ;hard.c: 275:     LATD = (value << 4);
  2462   00135C  3801               	swapf	set_LED@value^0,w,c
  2463   00135E  0BF0               	andlw	240
  2464   001360  6E8C               	movwf	140,c	;volatile
  2465   001362  0012               	return		;funcret
  2466   001364                     __end_of_set_LED:
  2467                           	callstack 0
  2468                           
  2469 ;; *************** function _printf *****************
  2470 ;; Defined at:
  2471 ;;		line 5 in file "C:\Program Files\Microchip\xc8\v3.00\pic\sources\c99\common\printf.c"
  2472 ;; Parameters:    Size  Location     Type
  2473 ;;  fmt             1   48[COMRAM] PTR const unsigned char 
  2474 ;;		 -> STR_12(9), STR_11(9), STR_10(9), STR_9(9), 
  2475 ;;		 -> STR_8(9), STR_7(9), STR_6(9), STR_5(9), 
  2476 ;;		 -> STR_4(9), STR_3(9), STR_2(9), STR_1(9), 
  2477 ;; Auto vars:     Size  Location     Type
  2478 ;;  ret             2    0        int 
  2479 ;;  ap              1   51[COMRAM] PTR void [1]
  2480 ;;		 -> ?_printf(2), 
  2481 ;; Return value:  Size  Location     Type
  2482 ;;                  2   48[COMRAM] int 
  2483 ;; Registers used:
  2484 ;;		wreg, fsr1l, fsr1h, fsr2l, fsr2h, status,2, status,0, tblptrl, tblptrh, tblptru, prodl, prodh, cstack
  2485 ;; Tracked objects:
  2486 ;;		On entry : 0/0
  2487 ;;		On exit  : 0/0
  2488 ;;		Unchanged: 0/0
  2489 ;; Data sizes:     COMRAM   BANK0   BANK1   BANK2   BANK3   BANK4   BANK5
  2490 ;;      Params:         3       0       0       0       0       0       0
  2491 ;;      Locals:         1       0       0       0       0       0       0
  2492 ;;      Temps:          0       0       0       0       0       0       0
  2493 ;;      Totals:         4       0       0       0       0       0       0
  2494 ;;Total ram usage:        4 bytes
  2495 ;; Hardware stack levels used: 1
  2496 ;; Hardware stack levels required when called: 7
  2497 ;; This function calls:
  2498 ;;		_vfprintf
  2499 ;; This function is called by:
  2500 ;;		_variable_register_changed
  2501 ;; This function uses a non-reentrant model
  2502 ;;
  2503                           
  2504                           	psect	text17
  2505   001320                     __ptext17:
  2506                           	callstack 0
  2507   001320                     _printf:
  2508                           	callstack 16
  2509   001320  0E32               	movlw	low (?_printf+1)
  2510   001322  6E34               	movwf	printf@ap^0,c
  2511   001324  0E00               	movlw	0
  2512   001326  6E2C               	movwf	vfprintf@fp^0,c
  2513   001328  0E00               	movlw	0
  2514   00132A  6E2D               	movwf	(vfprintf@fp+1)^0,c
  2515   00132C  C031  F02E         	movff	printf@fmt,vfprintf@fmt
  2516   001330  0E34               	movlw	low printf@ap
  2517   001332  6E2F               	movwf	vfprintf@ap^0,c
  2518   001334  ECF0  F008         	call	_vfprintf	;wreg free
  2519   001338  0012               	return		;funcret
  2520   00133A                     __end_of_printf:
  2521                           	callstack 0
  2522                           
  2523 ;; *************** function _vfprintf *****************
  2524 ;; Defined at:
  2525 ;;		line 1817 in file "C:\Program Files\Microchip\xc8\v3.00\pic\sources\c99\common\doprnt.c"
  2526 ;; Parameters:    Size  Location     Type
  2527 ;;  fp              2   43[COMRAM] PTR struct _IO_FILE
  2528 ;;		 -> NULL(0), 
  2529 ;;  fmt             1   45[COMRAM] PTR const unsigned char 
  2530 ;;		 -> STR_12(9), STR_11(9), STR_10(9), STR_9(9), 
  2531 ;;		 -> STR_8(9), STR_7(9), STR_6(9), STR_5(9), 
  2532 ;;		 -> STR_4(9), STR_3(9), STR_2(9), STR_1(9), 
  2533 ;;  ap              1   46[COMRAM] PTR PTR void 
  2534 ;;		 -> printf@ap(1), 
  2535 ;; Auto vars:     Size  Location     Type
  2536 ;;  cfmt            1   47[COMRAM] PTR unsigned char 
  2537 ;;		 -> STR_12(9), STR_11(9), STR_10(9), STR_9(9), 
  2538 ;;		 -> STR_8(9), STR_7(9), STR_6(9), STR_5(9), 
  2539 ;;		 -> STR_4(9), STR_3(9), STR_2(9), STR_1(9), 
  2540 ;; Return value:  Size  Location     Type
  2541 ;;                  2   43[COMRAM] int 
  2542 ;; Registers used:
  2543 ;;		wreg, fsr1l, fsr1h, fsr2l, fsr2h, status,2, status,0, tblptrl, tblptrh, tblptru, prodl, prodh, cstack
  2544 ;; Tracked objects:
  2545 ;;		On entry : 0/0
  2546 ;;		On exit  : 0/0
  2547 ;;		Unchanged: 0/0
  2548 ;; Data sizes:     COMRAM   BANK0   BANK1   BANK2   BANK3   BANK4   BANK5
  2549 ;;      Params:         4       0       0       0       0       0       0
  2550 ;;      Locals:         1       0       0       0       0       0       0
  2551 ;;      Temps:          0       0       0       0       0       0       0
  2552 ;;      Totals:         5       0       0       0       0       0       0
  2553 ;;Total ram usage:        5 bytes
  2554 ;; Hardware stack levels used: 1
  2555 ;; Hardware stack levels required when called: 6
  2556 ;; This function calls:
  2557 ;;		_vfpfcnvrt
  2558 ;; This function is called by:
  2559 ;;		_printf
  2560 ;; This function uses a non-reentrant model
  2561 ;;
  2562                           
  2563                           	psect	text18
  2564   0011E0                     __ptext18:
  2565                           	callstack 0
  2566   0011E0                     _vfprintf:
  2567                           	callstack 16
  2568   0011E0                     
  2569                           ;C:\Program Files\Microchip\xc8\v3.00\pic\sources\c99\common\doprnt.c: 1817: int vfprint
      +                          f(FILE *fp, const char *fmt, va_list ap);C:\Program Files\Microchip\xc8\v3.00\pic\source
      +                          s\c99\common\doprnt.c: 1818: {;C:\Program Files\Microchip\xc8\v3.00\pic\sources\c99\comm
      +                          on\doprnt.c: 1820:     char *cfmt;;C:\Program Files\Microchip\xc8\v3.00\pic\sources\c99\
      +                          common\doprnt.c: 1822:     cfmt = (char *)fmt;
  2570   0011E0  C02E  F030         	movff	vfprintf@fmt,vfprintf@cfmt
  2571                           
  2572                           ;C:\Program Files\Microchip\xc8\v3.00\pic\sources\c99\common\doprnt.c: 1826:     while (
      +                          *cfmt) {
  2573   0011E4  EFFE  F008         	goto	i2l1763
  2574   0011E8                     i2l1761:
  2575                           
  2576                           ;C:\Program Files\Microchip\xc8\v3.00\pic\sources\c99\common\doprnt.c: 1830:    vfpfcnvr
      +                          t(fp, &cfmt, ap);
  2577   0011E8  C02C  F022         	movff	vfprintf@fp,vfpfcnvrt@fp
  2578   0011EC  C02D  F023         	movff	vfprintf@fp+1,vfpfcnvrt@fp+1
  2579   0011F0  0E30               	movlw	low vfprintf@cfmt
  2580   0011F2  6E24               	movwf	vfpfcnvrt@fmt^0,c
  2581   0011F4  C02F  F025         	movff	vfprintf@ap,vfpfcnvrt@ap
  2582   0011F8  EC01  F005         	call	_vfpfcnvrt	;wreg free
  2583   0011FC                     i2l1763:
  2584                           
  2585                           ;C:\Program Files\Microchip\xc8\v3.00\pic\sources\c99\common\doprnt.c: 1826:     while (
      +                          *cfmt) {
  2586   0011FC  C030  FFF6         	movff	vfprintf@cfmt,tblptrl
  2587   001200                     	if	1	;There is more than 1 active tblptr byte
  2588   001200  0E06               	movlw	high __smallconst
  2589   001202  6EF7               	movwf	tblptrh,c
  2590   001204                     	endif
  2591   001204                     	if	0	;tblptru may be non-zero
  2592   001204                     	endif
  2593   001204                     	if	0	;tblptru may be non-zero
  2594   001204                     	endif
  2595   001204  0008               	tblrd		*
  2596   001206  50F5               	movf	tablat,w,c
  2597   001208  0900               	iorlw	0
  2598   00120A  A4D8               	btfss	status,2,c
  2599   00120C  EF0A  F009         	goto	i2u109_41
  2600   001210  EF0C  F009         	goto	i2u109_40
  2601   001214                     i2u109_41:
  2602   001214  EFF4  F008         	goto	i2l1761
  2603   001218                     i2u109_40:
  2604   001218                     
  2605                           ;C:\Program Files\Microchip\xc8\v3.00\pic\sources\c99\common\doprnt.c: 1835:  return 0;
  2606   001218  0E00               	movlw	0
  2607   00121A  6E2D               	movwf	(?_vfprintf+1)^0,c
  2608   00121C  0E00               	movlw	0
  2609   00121E  6E2C               	movwf	?_vfprintf^0,c
  2610   001220  0012               	return		;funcret
  2611   001222                     __end_of_vfprintf:
  2612                           	callstack 0
  2613                           
  2614 ;; *************** function _vfpfcnvrt *****************
  2615 ;; Defined at:
  2616 ;;		line 1177 in file "C:\Program Files\Microchip\xc8\v3.00\pic\sources\c99\common\doprnt.c"
  2617 ;; Parameters:    Size  Location     Type
  2618 ;;  fp              2   33[COMRAM] PTR struct _IO_FILE
  2619 ;;		 -> NULL(0), 
  2620 ;;  fmt             1   35[COMRAM] PTR PTR unsigned char 
  2621 ;;		 -> vfprintf@cfmt(1), 
  2622 ;;  ap              1   36[COMRAM] PTR PTR void 
  2623 ;;		 -> printf@ap(1), 
  2624 ;; Auto vars:     Size  Location     Type
  2625 ;;  convarg         4   37[COMRAM] struct .
  2626 ;;  cp              1   42[COMRAM] PTR unsigned char 
  2627 ;;		 -> STR_12(9), STR_11(9), STR_10(9), STR_9(9), 
  2628 ;;		 -> STR_8(9), STR_7(9), STR_6(9), STR_5(9), 
  2629 ;;		 -> STR_4(9), STR_3(9), STR_2(9), STR_1(9), 
  2630 ;;  done            1   41[COMRAM] _Bool 
  2631 ;;  c               1    0        unsigned char 
  2632 ;; Return value:  Size  Location     Type
  2633 ;;                  1    wreg      void 
  2634 ;; Registers used:
  2635 ;;		wreg, fsr1l, fsr1h, fsr2l, fsr2h, status,2, status,0, tblptrl, tblptrh, tblptru, prodl, prodh, cstack
  2636 ;; Tracked objects:
  2637 ;;		On entry : 0/0
  2638 ;;		On exit  : 0/0
  2639 ;;		Unchanged: 0/0
  2640 ;; Data sizes:     COMRAM   BANK0   BANK1   BANK2   BANK3   BANK4   BANK5
  2641 ;;      Params:         4       0       0       0       0       0       0
  2642 ;;      Locals:         6       0       0       0       0       0       0
  2643 ;;      Temps:          0       0       0       0       0       0       0
  2644 ;;      Totals:        10       0       0       0       0       0       0
  2645 ;;Total ram usage:       10 bytes
  2646 ;; Hardware stack levels used: 1
  2647 ;; Hardware stack levels required when called: 5
  2648 ;; This function calls:
  2649 ;;		_fputc
  2650 ;;		_read_prec_or_width
  2651 ;;		_utoa
  2652 ;; This function is called by:
  2653 ;;		_vfprintf
  2654 ;; This function uses a non-reentrant model
  2655 ;;
  2656                           
  2657                           	psect	text19
  2658   000A02                     __ptext19:
  2659                           	callstack 0
  2660   000A02                     _vfpfcnvrt:
  2661                           	callstack 16
  2662   000A02                     
  2663                           ;C:\Program Files\Microchip\xc8\v3.00\pic\sources\c99\common\doprnt.c: 1177: vfpfcnvrt(F
      +                          ILE *fp, char *fmt[], va_list ap);C:\Program Files\Microchip\xc8\v3.00\pic\sources\c99\c
      +                          ommon\doprnt.c: 1178: {;C:\Program Files\Microchip\xc8\v3.00\pic\sources\c99\common\dopr
      +                          nt.c: 1179:     char c, *cp;;C:\Program Files\Microchip\xc8\v3.00\pic\sources\c99\common
      +                          \doprnt.c: 1180:     _Bool done;;C:\Program Files\Microchip\xc8\v3.00\pic\sources\c99\co
      +                          mmon\doprnt.c: 1188:  } convarg;;C:\Program Files\Microchip\xc8\v3.00\pic\sources\c99\co
      +                          mmon\doprnt.c: 1201:     if ((*fmt)[0] == '%') {
  2664   000A02  5024               	movf	vfpfcnvrt@fmt^0,w,c
  2665   000A04  6ED9               	movwf	fsr2l,c
  2666   000A06  6ADA               	clrf	fsr2h,c
  2667   000A08  CFDF FFF6          	movff	indf2,tblptrl
  2668   000A0C                     	if	1	;There is more than 1 active tblptr byte
  2669   000A0C  0E06               	movlw	high __smallconst
  2670   000A0E  6EF7               	movwf	tblptrh,c
  2671   000A10                     	endif
  2672   000A10                     	if	0	;tblptru may be non-zero
  2673   000A10                     	endif
  2674   000A10                     	if	0	;tblptru may be non-zero
  2675   000A10                     	endif
  2676   000A10  0008               	tblrd		*
  2677   000A12  50F5               	movf	tablat,w,c
  2678   000A14  0A25               	xorlw	37
  2679   000A16  A4D8               	btfss	status,2,c
  2680   000A18  EF10  F005         	goto	i2u105_41
  2681   000A1C  EF12  F005         	goto	i2u105_40
  2682   000A20                     i2u105_41:
  2683   000A20  EF9D  F005         	goto	i2l1753
  2684   000A24                     i2u105_40:
  2685   000A24                     
  2686                           ;C:\Program Files\Microchip\xc8\v3.00\pic\sources\c99\common\doprnt.c: 1202:         ++*
      +                          fmt;
  2687   000A24  5024               	movf	vfpfcnvrt@fmt^0,w,c
  2688   000A26  6ED9               	movwf	fsr2l,c
  2689   000A28  6ADA               	clrf	fsr2h,c
  2690   000A2A  2ADF               	incf	indf2,f,c
  2691   000A2C                     
  2692                           ;C:\Program Files\Microchip\xc8\v3.00\pic\sources\c99\common\doprnt.c: 1204:         fla
      +                          gs = width = 0;
  2693   000A2C  0E00               	movlw	0
  2694   000A2E  6E46               	movwf	(_width+1)^0,c
  2695   000A30  0E00               	movlw	0
  2696   000A32  6E45               	movwf	_width^0,c
  2697   000A34  C045  F04D         	movff	_width,_flags
  2698   000A38                     
  2699                           ;C:\Program Files\Microchip\xc8\v3.00\pic\sources\c99\common\doprnt.c: 1205:         pre
      +                          c = -1;
  2700   000A38  6847               	setf	_prec^0,c
  2701   000A3A  6848               	setf	(_prec+1)^0,c
  2702   000A3C                     
  2703                           ;C:\Program Files\Microchip\xc8\v3.00\pic\sources\c99\common\doprnt.c: 1209:         don
      +                          e = 0;
  2704   000A3C  6A2A               	clrf	vfpfcnvrt@done^0,c
  2705                           
  2706                           ;C:\Program Files\Microchip\xc8\v3.00\pic\sources\c99\common\doprnt.c: 1210:         whi
      +                          le (!done) {
  2707   000A3E  EF3B  F005         	goto	i2l1725
  2708   000A42                     i2l1715:
  2709                           
  2710                           ;C:\Program Files\Microchip\xc8\v3.00\pic\sources\c99\common\doprnt.c: 1220:            
      +                                   flags |= (1 << 1);
  2711   000A42  824D               	bsf	_flags^0,1,c
  2712   000A44                     
  2713                           ;C:\Program Files\Microchip\xc8\v3.00\pic\sources\c99\common\doprnt.c: 1221:            
      +                                   ++*fmt;
  2714   000A44  5024               	movf	vfpfcnvrt@fmt^0,w,c
  2715   000A46  6ED9               	movwf	fsr2l,c
  2716   000A48  6ADA               	clrf	fsr2h,c
  2717   000A4A  2ADF               	incf	indf2,f,c
  2718                           
  2719                           ;C:\Program Files\Microchip\xc8\v3.00\pic\sources\c99\common\doprnt.c: 1222:            
      +                                   break;
  2720   000A4C  EF3B  F005         	goto	i2l1725
  2721   000A50                     i2l1719:
  2722                           
  2723                           ;C:\Program Files\Microchip\xc8\v3.00\pic\sources\c99\common\doprnt.c: 1243:            
      +                                   done = 1;
  2724   000A50  0E01               	movlw	1
  2725   000A52  6E2A               	movwf	vfpfcnvrt@done^0,c
  2726                           
  2727                           ;C:\Program Files\Microchip\xc8\v3.00\pic\sources\c99\common\doprnt.c: 1244:            
      +                                   break;
  2728   000A54  EF3B  F005         	goto	i2l1725
  2729   000A58                     i2l1723:
  2730   000A58  5024               	movf	vfpfcnvrt@fmt^0,w,c
  2731   000A5A  6ED9               	movwf	fsr2l,c
  2732   000A5C  6ADA               	clrf	fsr2h,c
  2733   000A5E  CFDF FFF6          	movff	indf2,tblptrl
  2734   000A62                     	if	1	;There is more than 1 active tblptr byte
  2735   000A62  0E06               	movlw	high __smallconst
  2736   000A64  6EF7               	movwf	tblptrh,c
  2737   000A66                     	endif
  2738   000A66                     	if	0	;tblptru may be non-zero
  2739   000A66                     	endif
  2740   000A66                     	if	0	;tblptru may be non-zero
  2741   000A66                     	endif
  2742   000A66  0008               	tblrd		*
  2743   000A68  50F5               	movf	tablat,w,c
  2744                           
  2745                           ; Switch size 1, requested type "simple"
  2746                           ; Number of cases is 1, Range of values is 48 to 48
  2747                           ; switch strategies available:
  2748                           ; Name         Instructions Cycles
  2749                           ; simple_byte            4     3 (average)
  2750                           ;	Chosen strategy is simple_byte
  2751   000A6A  0A30               	xorlw	48	; case 48
  2752   000A6C  B4D8               	btfsc	status,2,c
  2753   000A6E  EF21  F005         	goto	i2l1715
  2754   000A72  EF28  F005         	goto	i2l1719
  2755   000A76                     i2l1725:
  2756                           
  2757                           ;C:\Program Files\Microchip\xc8\v3.00\pic\sources\c99\common\doprnt.c: 1210:         whi
      +                          le (!done) {
  2758   000A76  502A               	movf	vfpfcnvrt@done^0,w,c
  2759   000A78  B4D8               	btfsc	status,2,c
  2760   000A7A  EF41  F005         	goto	i2u106_41
  2761   000A7E  EF43  F005         	goto	i2u106_40
  2762   000A82                     i2u106_41:
  2763   000A82  EF2C  F005         	goto	i2l1723
  2764   000A86                     i2u106_40:
  2765   000A86                     
  2766                           ;C:\Program Files\Microchip\xc8\v3.00\pic\sources\c99\common\doprnt.c: 1256:   width = r
      +                          ead_prec_or_width(fmt, ap);
  2767   000A86  C024  F001         	movff	vfpfcnvrt@fmt,read_prec_or_width@fmt
  2768   000A8A  C025  F002         	movff	vfpfcnvrt@ap,read_prec_or_width@ap
  2769   000A8E  ECE5  F006         	call	_read_prec_or_width	;wreg free
  2770   000A92  C001  F045         	movff	?_read_prec_or_width,_width
  2771   000A96  C002  F046         	movff	?_read_prec_or_width+1,_width+1
  2772   000A9A                     
  2773                           ;C:\Program Files\Microchip\xc8\v3.00\pic\sources\c99\common\doprnt.c: 1257:   if (width
      +                           < 0) {
  2774   000A9A  BE46               	btfsc	(_width+1)^0,7,c
  2775   000A9C  EF54  F005         	goto	i2u107_40
  2776   000AA0  EF52  F005         	goto	i2u107_41
  2777   000AA4                     i2u107_41:
  2778   000AA4  EF59  F005         	goto	i2l1733
  2779   000AA8                     i2u107_40:
  2780   000AA8                     
  2781                           ;C:\Program Files\Microchip\xc8\v3.00\pic\sources\c99\common\doprnt.c: 1258:    flags |=
      +                           (1 << 0);
  2782   000AA8  804D               	bsf	_flags^0,0,c
  2783                           
  2784                           ;C:\Program Files\Microchip\xc8\v3.00\pic\sources\c99\common\doprnt.c: 1259:    width = 
      +                          -width;
  2785   000AAA  6C45               	negf	_width^0,c
  2786   000AAC  1E46               	comf	(_width+1)^0,f,c
  2787   000AAE  B0D8               	btfsc	status,0,c
  2788   000AB0  2A46               	incf	(_width+1)^0,f,c
  2789   000AB2                     i2l1733:
  2790                           
  2791                           ;C:\Program Files\Microchip\xc8\v3.00\pic\sources\c99\common\doprnt.c: 1439:   if (0
  2792   000AB2  5024               	movf	vfpfcnvrt@fmt^0,w,c
  2793   000AB4  6ED9               	movwf	fsr2l,c
  2794   000AB6  6ADA               	clrf	fsr2h,c
  2795   000AB8  50DF               	movf	indf2,w,c
  2796   000ABA  6E2B               	movwf	vfpfcnvrt@cp^0,c
  2797   000ABC  C02B  FFF6         	movff	vfpfcnvrt@cp,tblptrl
  2798   000AC0                     	if	1	;There is more than 1 active tblptr byte
  2799   000AC0  0E06               	movlw	high __smallconst
  2800   000AC2  6EF7               	movwf	tblptrh,c
  2801   000AC4                     	endif
  2802   000AC4                     	if	0	;tblptru may be non-zero
  2803   000AC4                     	endif
  2804   000AC4                     	if	0	;tblptru may be non-zero
  2805   000AC4                     	endif
  2806   000AC4  0008               	tblrd		*
  2807   000AC6  50F5               	movf	tablat,w,c
  2808   000AC8  0A75               	xorlw	117
  2809   000ACA  A4D8               	btfss	status,2,c
  2810   000ACC  EF6A  F005         	goto	i2u108_41
  2811   000AD0  EF6C  F005         	goto	i2u108_40
  2812   000AD4                     i2u108_41:
  2813   000AD4  EF97  F005         	goto	i2l1749
  2814   000AD8                     i2u108_40:
  2815   000AD8                     
  2816                           ;C:\Program Files\Microchip\xc8\v3.00\pic\sources\c99\common\doprnt.c: 1452:     ) {;C:\
      +                          Program Files\Microchip\xc8\v3.00\pic\sources\c99\common\doprnt.c: 1495:    convarg.uint
      +                           = (vfpf_uint_t)(unsigned int)(*(unsigned int *)__va_arg(*(unsigned int **)ap, (unsigned
      +                           int)0));
  2817   000AD8  5025               	movf	vfpfcnvrt@ap^0,w,c
  2818   000ADA  6ED9               	movwf	fsr2l,c
  2819   000ADC  6ADA               	clrf	fsr2h,c
  2820   000ADE  0E02               	movlw	2
  2821   000AE0  26DF               	addwf	indf2,f,c
  2822   000AE2  5CDF               	subwf	indf2,w,c
  2823   000AE4  6ED9               	movwf	fsr2l,c
  2824   000AE6  6ADA               	clrf	fsr2h,c
  2825   000AE8  CFDE F026          	movff	postinc2,vfpfcnvrt@convarg
  2826   000AEC  CFDE F027          	movff	postinc2,vfpfcnvrt@convarg+1
  2827   000AF0                     
  2828                           ;C:\Program Files\Microchip\xc8\v3.00\pic\sources\c99\common\doprnt.c: 1497:    *fmt = c
      +                          p+1;
  2829   000AF0  5024               	movf	vfpfcnvrt@fmt^0,w,c
  2830   000AF2  6ED9               	movwf	fsr2l,c
  2831   000AF4  6ADA               	clrf	fsr2h,c
  2832   000AF6  282B               	incf	vfpfcnvrt@cp^0,w,c
  2833   000AF8  6EDF               	movwf	indf2,c
  2834                           
  2835                           ;C:\Program Files\Microchip\xc8\v3.00\pic\sources\c99\common\doprnt.c: 1498:    switch (
      +                          *cp) {
  2836   000AFA  EF8B  F005         	goto	i2l1747
  2837   000AFE                     i2l1741:
  2838                           
  2839                           ;C:\Program Files\Microchip\xc8\v3.00\pic\sources\c99\common\doprnt.c: 1542:      return
      +                           (void) utoa(fp, convarg.uint);;	Return value of _vfpfcnvrt is never used
  2840   000AFE  C022  F019         	movff	vfpfcnvrt@fp,utoa@fp
  2841   000B02  C023  F01A         	movff	vfpfcnvrt@fp+1,utoa@fp+1
  2842   000B06  C026  F01B         	movff	vfpfcnvrt@convarg,utoa@d
  2843   000B0A  C027  F01C         	movff	vfpfcnvrt@convarg+1,utoa@d+1
  2844   000B0E  ECB1  F005         	call	_utoa	;wreg free
  2845   000B12  EFB0  F005         	goto	i2l984
  2846   000B16                     i2l1747:
  2847   000B16  C02B  FFF6         	movff	vfpfcnvrt@cp,tblptrl
  2848   000B1A                     	if	1	;There is more than 1 active tblptr byte
  2849   000B1A  0E06               	movlw	high __smallconst
  2850   000B1C  6EF7               	movwf	tblptrh,c
  2851   000B1E                     	endif
  2852   000B1E                     	if	0	;tblptru may be non-zero
  2853   000B1E                     	endif
  2854   000B1E                     	if	0	;tblptru may be non-zero
  2855   000B1E                     	endif
  2856   000B1E  0008               	tblrd		*
  2857   000B20  50F5               	movf	tablat,w,c
  2858                           
  2859                           ; Switch size 1, requested type "simple"
  2860                           ; Number of cases is 1, Range of values is 117 to 117
  2861                           ; switch strategies available:
  2862                           ; Name         Instructions Cycles
  2863                           ; simple_byte            4     3 (average)
  2864                           ;	Chosen strategy is simple_byte
  2865   000B22  0A75               	xorlw	117	; case 117
  2866   000B24  B4D8               	btfsc	status,2,c
  2867   000B26  EF7F  F005         	goto	i2l1741
  2868   000B2A  EF97  F005         	goto	i2l1749
  2869   000B2E                     i2l1749:
  2870                           
  2871                           ;C:\Program Files\Microchip\xc8\v3.00\pic\sources\c99\common\doprnt.c: 1806:         ++*
      +                          fmt;
  2872   000B2E  5024               	movf	vfpfcnvrt@fmt^0,w,c
  2873   000B30  6ED9               	movwf	fsr2l,c
  2874   000B32  6ADA               	clrf	fsr2h,c
  2875   000B34  2ADF               	incf	indf2,f,c
  2876   000B36  EFB0  F005         	goto	i2l984
  2877   000B3A                     i2l1753:
  2878                           
  2879                           ;C:\Program Files\Microchip\xc8\v3.00\pic\sources\c99\common\doprnt.c: 1811:     fputc((
      +                          int)(*fmt)[0], fp);
  2880   000B3A  5024               	movf	vfpfcnvrt@fmt^0,w,c
  2881   000B3C  6ED9               	movwf	fsr2l,c
  2882   000B3E  6ADA               	clrf	fsr2h,c
  2883   000B40  CFDF FFF6          	movff	indf2,tblptrl
  2884   000B44                     	if	1	;There is more than 1 active tblptr byte
  2885   000B44  0E06               	movlw	high __smallconst
  2886   000B46  6EF7               	movwf	tblptrh,c
  2887   000B48                     	endif
  2888   000B48                     	if	0	;tblptru may be non-zero
  2889   000B48                     	endif
  2890   000B48                     	if	0	;tblptru may be non-zero
  2891   000B48                     	endif
  2892   000B48  0008               	tblrd		*
  2893   000B4A  50F5               	movf	tablat,w,c
  2894   000B4C  6E02               	movwf	fputc@c^0,c
  2895   000B4E  6A03               	clrf	(fputc@c+1)^0,c
  2896   000B50  C022  F004         	movff	vfpfcnvrt@fp,fputc@fp
  2897   000B54  C023  F005         	movff	vfpfcnvrt@fp+1,fputc@fp+1
  2898   000B58  EC20  F006         	call	_fputc	;wreg free
  2899   000B5C  EF97  F005         	goto	i2l1749
  2900   000B60                     i2l984:
  2901   000B60  0012               	return		;funcret
  2902   000B62                     __end_of_vfpfcnvrt:
  2903                           	callstack 0
  2904                           
  2905 ;; *************** function _utoa *****************
  2906 ;; Defined at:
  2907 ;;		line 1001 in file "C:\Program Files\Microchip\xc8\v3.00\pic\sources\c99\common\doprnt.c"
  2908 ;; Parameters:    Size  Location     Type
  2909 ;;  fp              2   24[COMRAM] PTR struct _IO_FILE
  2910 ;;		 -> NULL(0), 
  2911 ;;  d               2   26[COMRAM] unsigned int 
  2912 ;; Auto vars:     Size  Location     Type
  2913 ;;  i               2   31[COMRAM] int 
  2914 ;;  w               2   29[COMRAM] int 
  2915 ;;  p               1   28[COMRAM] _Bool 
  2916 ;; Return value:  Size  Location     Type
  2917 ;;                  1    wreg      void 
  2918 ;; Registers used:
  2919 ;;		wreg, fsr1l, fsr1h, fsr2l, fsr2h, status,2, status,0, cstack
  2920 ;; Tracked objects:
  2921 ;;		On entry : 0/0
  2922 ;;		On exit  : 0/0
  2923 ;;		Unchanged: 0/0
  2924 ;; Data sizes:     COMRAM   BANK0   BANK1   BANK2   BANK3   BANK4   BANK5
  2925 ;;      Params:         4       0       0       0       0       0       0
  2926 ;;      Locals:         5       0       0       0       0       0       0
  2927 ;;      Temps:          0       0       0       0       0       0       0
  2928 ;;      Totals:         9       0       0       0       0       0       0
  2929 ;;Total ram usage:        9 bytes
  2930 ;; Hardware stack levels used: 1
  2931 ;; Hardware stack levels required when called: 4
  2932 ;; This function calls:
  2933 ;;		___lwdiv
  2934 ;;		___lwmod
  2935 ;;		_pad
  2936 ;; This function is called by:
  2937 ;;		_vfpfcnvrt
  2938 ;; This function uses a non-reentrant model
  2939 ;;
  2940                           
  2941                           	psect	text20
  2942   000B62                     __ptext20:
  2943                           	callstack 0
  2944   000B62                     _utoa:
  2945                           	callstack 16
  2946   000B62                     
  2947                           ;C:\Program Files\Microchip\xc8\v3.00\pic\sources\c99\common\doprnt.c: 1001: static void
      +                           utoa(FILE *fp, vfpf_uint_t d);C:\Program Files\Microchip\xc8\v3.00\pic\sources\c99\comm
      +                          on\doprnt.c: 1002: {;C:\Program Files\Microchip\xc8\v3.00\pic\sources\c99\common\doprnt.
      +                          c: 1003:     int i, w;;C:\Program Files\Microchip\xc8\v3.00\pic\sources\c99\common\doprn
      +                          t.c: 1007:  _Bool p = 1;
  2948   000B62  0E01               	movlw	1
  2949   000B64  6E1D               	movwf	utoa@p^0,c
  2950   000B66                     
  2951                           ;C:\Program Files\Microchip\xc8\v3.00\pic\sources\c99\common\doprnt.c: 1019:     w = wid
      +                          th;
  2952   000B66  C045  F01E         	movff	_width,utoa@w
  2953   000B6A  C046  F01F         	movff	_width+1,utoa@w+1
  2954                           
  2955                           ;C:\Program Files\Microchip\xc8\v3.00\pic\sources\c99\common\doprnt.c: 1022:     i = siz
      +                          eof(dbuf) - 1;
  2956   000B6E  0E00               	movlw	0
  2957   000B70  6E21               	movwf	(utoa@i+1)^0,c
  2958   000B72  0E1F               	movlw	31
  2959   000B74  6E20               	movwf	utoa@i^0,c
  2960   000B76                     
  2961                           ;C:\Program Files\Microchip\xc8\v3.00\pic\sources\c99\common\doprnt.c: 1023:     dbuf[i]
      +                           = '\0';
  2962   000B76  6A6E               	clrf	(_dbuf+31)^0,c
  2963                           
  2964                           ;C:\Program Files\Microchip\xc8\v3.00\pic\sources\c99\common\doprnt.c: 1024:     while (
      +                          i && (d != 0
  2965   000B78  EFE4  F005         	goto	i2l1677
  2966   000B7C                     i2l1667:
  2967                           
  2968                           ;C:\Program Files\Microchip\xc8\v3.00\pic\sources\c99\common\doprnt.c: 1033:     )) {;C:
      +                          \Program Files\Microchip\xc8\v3.00\pic\sources\c99\common\doprnt.c: 1034:         --i;
  2969   000B7C  0620               	decf	utoa@i^0,f,c
  2970   000B7E  A0D8               	btfss	status,0,c
  2971   000B80  0621               	decf	(utoa@i+1)^0,f,c
  2972   000B82                     
  2973                           ;C:\Program Files\Microchip\xc8\v3.00\pic\sources\c99\common\doprnt.c: 1035:         dbu
      +                          f[i] = '0' + (d % 10);
  2974   000B82  5020               	movf	utoa@i^0,w,c
  2975   000B84  0F4F               	addlw	low _dbuf
  2976   000B86  6ED9               	movwf	fsr2l,c
  2977   000B88  6ADA               	clrf	fsr2h,c
  2978   000B8A  C01B  F001         	movff	utoa@d,___lwmod@dividend
  2979   000B8E  C01C  F002         	movff	utoa@d+1,___lwmod@dividend+1
  2980   000B92  0E00               	movlw	0
  2981   000B94  6E04               	movwf	(___lwmod@divisor+1)^0,c
  2982   000B96  0E0A               	movlw	10
  2983   000B98  6E03               	movwf	___lwmod@divisor^0,c
  2984   000B9A  EC23  F008         	call	___lwmod	;wreg free
  2985   000B9E  5001               	movf	?___lwmod^0,w,c
  2986   000BA0  0F30               	addlw	48
  2987   000BA2  6EDF               	movwf	indf2,c
  2988   000BA4                     
  2989                           ;C:\Program Files\Microchip\xc8\v3.00\pic\sources\c99\common\doprnt.c: 1039:   p = 0;
  2990   000BA4  6A1D               	clrf	utoa@p^0,c
  2991   000BA6                     
  2992                           ;C:\Program Files\Microchip\xc8\v3.00\pic\sources\c99\common\doprnt.c: 1041:         --w
      +                          ;
  2993   000BA6  061E               	decf	utoa@w^0,f,c
  2994   000BA8  A0D8               	btfss	status,0,c
  2995   000BAA  061F               	decf	(utoa@w+1)^0,f,c
  2996   000BAC                     
  2997                           ;C:\Program Files\Microchip\xc8\v3.00\pic\sources\c99\common\doprnt.c: 1042:         d =
      +                           d / 10;
  2998   000BAC  C01B  F001         	movff	utoa@d,___lwdiv@dividend
  2999   000BB0  C01C  F002         	movff	utoa@d+1,___lwdiv@dividend+1
  3000   000BB4  0E00               	movlw	0
  3001   000BB6  6E04               	movwf	(___lwdiv@divisor+1)^0,c
  3002   000BB8  0E0A               	movlw	10
  3003   000BBA  6E03               	movwf	___lwdiv@divisor^0,c
  3004   000BBC  EC82  F007         	call	___lwdiv	;wreg free
  3005   000BC0  C001  F01B         	movff	?___lwdiv,utoa@d
  3006   000BC4  C002  F01C         	movff	?___lwdiv+1,utoa@d+1
  3007   000BC8                     i2l1677:
  3008                           
  3009                           ;C:\Program Files\Microchip\xc8\v3.00\pic\sources\c99\common\doprnt.c: 1024:     while (
      +                          i && (d != 0
  3010   000BC8  5020               	movf	utoa@i^0,w,c
  3011   000BCA  1021               	iorwf	(utoa@i+1)^0,w,c
  3012   000BCC  B4D8               	btfsc	status,2,c
  3013   000BCE  EFEB  F005         	goto	i2u98_41
  3014   000BD2  EFED  F005         	goto	i2u98_40
  3015   000BD6                     i2u98_41:
  3016   000BD6  EF12  F006         	goto	i2l1687
  3017   000BDA                     i2u98_40:
  3018   000BDA  501B               	movf	utoa@d^0,w,c
  3019   000BDC  101C               	iorwf	(utoa@d+1)^0,w,c
  3020   000BDE  A4D8               	btfss	status,2,c
  3021   000BE0  EFF4  F005         	goto	i2u99_41
  3022   000BE4  EFF6  F005         	goto	i2u99_40
  3023   000BE8                     i2u99_41:
  3024   000BE8  EFBE  F005         	goto	i2l1667
  3025   000BEC                     i2u99_40:
  3026   000BEC  501D               	movf	utoa@p^0,w,c
  3027   000BEE  A4D8               	btfss	status,2,c
  3028   000BF0  EFFC  F005         	goto	i2u100_41
  3029   000BF4  EFFE  F005         	goto	i2u100_40
  3030   000BF8                     i2u100_41:
  3031   000BF8  EFBE  F005         	goto	i2l1667
  3032   000BFC                     i2u100_40:
  3033   000BFC  BE1F               	btfsc	(utoa@w+1)^0,7,c
  3034   000BFE  EF09  F006         	goto	i2u101_41
  3035   000C02  501F               	movf	(utoa@w+1)^0,w,c
  3036   000C04  E108               	bnz	i2u101_40
  3037   000C06  041E               	decf	utoa@w^0,w,c
  3038   000C08  A0D8               	btfss	status,0,c
  3039   000C0A  EF09  F006         	goto	i2u101_41
  3040   000C0E  EF0B  F006         	goto	i2u101_40
  3041   000C12                     i2u101_41:
  3042   000C12  EF12  F006         	goto	i2l1687
  3043   000C16                     i2u101_40:
  3044   000C16  B24D               	btfsc	_flags^0,1,c
  3045   000C18  EF10  F006         	goto	i2u102_41
  3046   000C1C  EF12  F006         	goto	i2u102_40
  3047   000C20                     i2u102_41:
  3048   000C20  EFBE  F005         	goto	i2l1667
  3049   000C24                     i2u102_40:
  3050   000C24                     i2l1687:
  3051                           
  3052                           ;C:\Program Files\Microchip\xc8\v3.00\pic\sources\c99\common\doprnt.c: 1046:     return 
      +                          (void) pad(fp, &dbuf[i], w);
  3053   000C24  C019  F011         	movff	utoa@fp,pad@fp
  3054   000C28  C01A  F012         	movff	utoa@fp+1,pad@fp+1
  3055   000C2C  5020               	movf	utoa@i^0,w,c
  3056   000C2E  0F4F               	addlw	low _dbuf
  3057   000C30  6E13               	movwf	pad@buf^0,c
  3058   000C32  C01E  F014         	movff	utoa@w,pad@p
  3059   000C36  C01F  F015         	movff	utoa@w+1,pad@p+1
  3060   000C3A  EC37  F007         	call	_pad	;wreg free
  3061   000C3E  0012               	return		;funcret
  3062   000C40                     __end_of_utoa:
  3063                           	callstack 0
  3064                           
  3065 ;; *************** function _pad *****************
  3066 ;; Defined at:
  3067 ;;		line 193 in file "C:\Program Files\Microchip\xc8\v3.00\pic\sources\c99\common\doprnt.c"
  3068 ;; Parameters:    Size  Location     Type
  3069 ;;  fp              2   16[COMRAM] PTR struct _IO_FILE
  3070 ;;		 -> NULL(0), 
  3071 ;;  buf             1   18[COMRAM] PTR unsigned char 
  3072 ;;		 -> dbuf(32), 
  3073 ;;  p               2   19[COMRAM] int 
  3074 ;; Auto vars:     Size  Location     Type
  3075 ;;  i               2   22[COMRAM] int 
  3076 ;; Return value:  Size  Location     Type
  3077 ;;                  1    wreg      void 
  3078 ;; Registers used:
  3079 ;;		wreg, fsr1l, fsr1h, fsr2l, fsr2h, status,2, status,0, cstack
  3080 ;; Tracked objects:
  3081 ;;		On entry : 0/0
  3082 ;;		On exit  : 0/0
  3083 ;;		Unchanged: 0/0
  3084 ;; Data sizes:     COMRAM   BANK0   BANK1   BANK2   BANK3   BANK4   BANK5
  3085 ;;      Params:         5       0       0       0       0       0       0
  3086 ;;      Locals:         2       0       0       0       0       0       0
  3087 ;;      Temps:          1       0       0       0       0       0       0
  3088 ;;      Totals:         8       0       0       0       0       0       0
  3089 ;;Total ram usage:        8 bytes
  3090 ;; Hardware stack levels used: 1
  3091 ;; Hardware stack levels required when called: 3
  3092 ;; This function calls:
  3093 ;;		_fputc
  3094 ;;		_fputs
  3095 ;; This function is called by:
  3096 ;;		_utoa
  3097 ;; This function uses a non-reentrant model
  3098 ;;
  3099                           
  3100                           	psect	text21
  3101   000E6E                     __ptext21:
  3102                           	callstack 0
  3103   000E6E                     _pad:
  3104                           	callstack 16
  3105   000E6E                     
  3106                           ;C:\Program Files\Microchip\xc8\v3.00\pic\sources\c99\common\doprnt.c: 193: static void 
      +                          pad(FILE *fp, char *buf, int p);C:\Program Files\Microchip\xc8\v3.00\pic\sources\c99\com
      +                          mon\doprnt.c: 194: {;C:\Program Files\Microchip\xc8\v3.00\pic\sources\c99\common\doprnt.
      +                          c: 195:     int i;;C:\Program Files\Microchip\xc8\v3.00\pic\sources\c99\common\doprnt.c:
      +                           199:     if (flags & (1 << 0)) {
  3107   000E6E  A04D               	btfss	_flags^0,0,c
  3108   000E70  EF3C  F007         	goto	i2u94_41
  3109   000E74  EF3E  F007         	goto	i2u94_40
  3110   000E78                     i2u94_41:
  3111   000E78  EF46  F007         	goto	i2l1649
  3112   000E7C                     i2u94_40:
  3113   000E7C                     
  3114                           ;C:\Program Files\Microchip\xc8\v3.00\pic\sources\c99\common\doprnt.c: 200:         fput
      +                          s((const char *)buf, fp);
  3115   000E7C  C013  F00B         	movff	pad@buf,fputs@s
  3116   000E80  C011  F00C         	movff	pad@fp,fputs@fp
  3117   000E84  C012  F00D         	movff	pad@fp+1,fputs@fp+1
  3118   000E88  EC11  F009         	call	_fputs	;wreg free
  3119   000E8C                     i2l1649:
  3120                           
  3121                           ;C:\Program Files\Microchip\xc8\v3.00\pic\sources\c99\common\doprnt.c: 205:  if (p < 0) 
      +                          {
  3122   000E8C  BE15               	btfsc	(pad@p+1)^0,7,c
  3123   000E8E  EF4D  F007         	goto	i2u95_40
  3124   000E92  EF4B  F007         	goto	i2u95_41
  3125   000E96                     i2u95_41:
  3126   000E96  EF51  F007         	goto	i2l944
  3127   000E9A                     i2u95_40:
  3128   000E9A                     
  3129                           ;C:\Program Files\Microchip\xc8\v3.00\pic\sources\c99\common\doprnt.c: 206:   p = 0;
  3130   000E9A  0E00               	movlw	0
  3131   000E9C  6E15               	movwf	(pad@p+1)^0,c
  3132   000E9E  0E00               	movlw	0
  3133   000EA0  6E14               	movwf	pad@p^0,c
  3134   000EA2                     i2l944:
  3135                           
  3136                           ;C:\Program Files\Microchip\xc8\v3.00\pic\sources\c99\common\doprnt.c: 208:     i = 0;
  3137   000EA2  0E00               	movlw	0
  3138   000EA4  6E18               	movwf	(pad@i+1)^0,c
  3139   000EA6  0E00               	movlw	0
  3140   000EA8  6E17               	movwf	pad@i^0,c
  3141                           
  3142                           ;C:\Program Files\Microchip\xc8\v3.00\pic\sources\c99\common\doprnt.c: 209:     while (i
      +                           < p) {
  3143   000EAA  EF63  F007         	goto	i2l1657
  3144   000EAE                     i2l1653:
  3145                           
  3146                           ;C:\Program Files\Microchip\xc8\v3.00\pic\sources\c99\common\doprnt.c: 210:         fput
      +                          c(' ', fp);
  3147   000EAE  0E00               	movlw	0
  3148   000EB0  6E03               	movwf	(fputc@c+1)^0,c
  3149   000EB2  0E20               	movlw	32
  3150   000EB4  6E02               	movwf	fputc@c^0,c
  3151   000EB6  C011  F004         	movff	pad@fp,fputc@fp
  3152   000EBA  C012  F005         	movff	pad@fp+1,fputc@fp+1
  3153   000EBE  EC20  F006         	call	_fputc	;wreg free
  3154   000EC2                     
  3155                           ;C:\Program Files\Microchip\xc8\v3.00\pic\sources\c99\common\doprnt.c: 211:         ++i;
  3156   000EC2  4A17               	infsnz	pad@i^0,f,c
  3157   000EC4  2A18               	incf	(pad@i+1)^0,f,c
  3158   000EC6                     i2l1657:
  3159                           
  3160                           ;C:\Program Files\Microchip\xc8\v3.00\pic\sources\c99\common\doprnt.c: 209:     while (i
      +                           < p) {
  3161   000EC6  5014               	movf	pad@p^0,w,c
  3162   000EC8  5C17               	subwf	pad@i^0,w,c
  3163   000ECA  5018               	movf	(pad@i+1)^0,w,c
  3164   000ECC  0A80               	xorlw	128
  3165   000ECE  6E16               	movwf	??_pad^0,c
  3166   000ED0  5015               	movf	(pad@p+1)^0,w,c
  3167   000ED2  0A80               	xorlw	128
  3168   000ED4  5816               	subwfb	??_pad^0,w,c
  3169   000ED6  A0D8               	btfss	status,0,c
  3170   000ED8  EF70  F007         	goto	i2u96_41
  3171   000EDC  EF72  F007         	goto	i2u96_40
  3172   000EE0                     i2u96_41:
  3173   000EE0  EF57  F007         	goto	i2l1653
  3174   000EE4                     i2u96_40:
  3175   000EE4                     
  3176                           ;C:\Program Files\Microchip\xc8\v3.00\pic\sources\c99\common\doprnt.c: 216:     if (!(fl
      +                          ags & (1 << 0))) {
  3177   000EE4  B04D               	btfsc	_flags^0,0,c
  3178   000EE6  EF77  F007         	goto	i2u97_41
  3179   000EEA  EF79  F007         	goto	i2u97_40
  3180   000EEE                     i2u97_41:
  3181   000EEE  EF81  F007         	goto	i2l949
  3182   000EF2                     i2u97_40:
  3183   000EF2                     
  3184                           ;C:\Program Files\Microchip\xc8\v3.00\pic\sources\c99\common\doprnt.c: 218:         fput
      +                          s((const char *)buf, fp);
  3185   000EF2  C013  F00B         	movff	pad@buf,fputs@s
  3186   000EF6  C011  F00C         	movff	pad@fp,fputs@fp
  3187   000EFA  C012  F00D         	movff	pad@fp+1,fputs@fp+1
  3188   000EFE  EC11  F009         	call	_fputs	;wreg free
  3189   000F02                     i2l949:
  3190   000F02  0012               	return		;funcret
  3191   000F04                     __end_of_pad:
  3192                           	callstack 0
  3193                           
  3194 ;; *************** function _fputs *****************
  3195 ;; Defined at:
  3196 ;;		line 8 in file "C:\Program Files\Microchip\xc8\v3.00\pic\sources\c99\common\nf_fputs.c"
  3197 ;; Parameters:    Size  Location     Type
  3198 ;;  s               1   10[COMRAM] PTR const unsigned char 
  3199 ;;		 -> dbuf(32), 
  3200 ;;  fp              2   11[COMRAM] PTR struct _IO_FILE
  3201 ;;		 -> NULL(0), 
  3202 ;; Auto vars:     Size  Location     Type
  3203 ;;  i               2   14[COMRAM] int 
  3204 ;;  c               1   13[COMRAM] unsigned char 
  3205 ;; Return value:  Size  Location     Type
  3206 ;;                  2   10[COMRAM] int 
  3207 ;; Registers used:
  3208 ;;		wreg, fsr1l, fsr1h, fsr2l, fsr2h, status,2, status,0, cstack
  3209 ;; Tracked objects:
  3210 ;;		On entry : 0/0
  3211 ;;		On exit  : 0/0
  3212 ;;		Unchanged: 0/0
  3213 ;; Data sizes:     COMRAM   BANK0   BANK1   BANK2   BANK3   BANK4   BANK5
  3214 ;;      Params:         3       0       0       0       0       0       0
  3215 ;;      Locals:         3       0       0       0       0       0       0
  3216 ;;      Temps:          0       0       0       0       0       0       0
  3217 ;;      Totals:         6       0       0       0       0       0       0
  3218 ;;Total ram usage:        6 bytes
  3219 ;; Hardware stack levels used: 1
  3220 ;; Hardware stack levels required when called: 2
  3221 ;; This function calls:
  3222 ;;		_fputc
  3223 ;; This function is called by:
  3224 ;;		_pad
  3225 ;; This function uses a non-reentrant model
  3226 ;;
  3227                           
  3228                           	psect	text22
  3229   001222                     __ptext22:
  3230                           	callstack 0
  3231   001222                     _fputs:
  3232                           	callstack 16
  3233   001222  0E00               	movlw	0
  3234   001224  6E10               	movwf	(fputs@i+1)^0,c
  3235   001226  0E00               	movlw	0
  3236   001228  6E0F               	movwf	fputs@i^0,c
  3237   00122A  EF22  F009         	goto	i2l1605
  3238   00122E                     i2l1601:
  3239   00122E  C00E  F002         	movff	fputs@c,fputc@c
  3240   001232  6A03               	clrf	(fputc@c+1)^0,c
  3241   001234  C00C  F004         	movff	fputs@fp,fputc@fp
  3242   001238  C00D  F005         	movff	fputs@fp+1,fputc@fp+1
  3243   00123C  EC20  F006         	call	_fputc	;wreg free
  3244   001240  4A0F               	infsnz	fputs@i^0,f,c
  3245   001242  2A10               	incf	(fputs@i+1)^0,f,c
  3246   001244                     i2l1605:
  3247   001244  500B               	movf	fputs@s^0,w,c
  3248   001246  240F               	addwf	fputs@i^0,w,c
  3249   001248  6ED9               	movwf	fsr2l,c
  3250   00124A  6ADA               	clrf	fsr2h,c
  3251   00124C  50DF               	movf	indf2,w,c
  3252   00124E  6E0E               	movwf	fputs@c^0,c
  3253   001250  500E               	movf	fputs@c^0,w,c
  3254   001252  A4D8               	btfss	status,2,c
  3255   001254  EF2E  F009         	goto	i2u87_41
  3256   001258  EF30  F009         	goto	i2u87_40
  3257   00125C                     i2u87_41:
  3258   00125C  EF17  F009         	goto	i2l1601
  3259   001260                     i2u87_40:
  3260   001260  0012               	return		;funcret
  3261   001262                     __end_of_fputs:
  3262                           	callstack 0
  3263                           
  3264 ;; *************** function _fputc *****************
  3265 ;; Defined at:
  3266 ;;		line 8 in file "C:\Program Files\Microchip\xc8\v3.00\pic\sources\c99\common\nf_fputc.c"
  3267 ;; Parameters:    Size  Location     Type
  3268 ;;  c               2    1[COMRAM] int 
  3269 ;;  fp              2    3[COMRAM] PTR struct _IO_FILE
  3270 ;;		 -> NULL(0), 
  3271 ;; Auto vars:     Size  Location     Type
  3272 ;;		None
  3273 ;; Return value:  Size  Location     Type
  3274 ;;                  2    1[COMRAM] int 
  3275 ;; Registers used:
  3276 ;;		wreg, fsr1l, fsr1h, fsr2l, fsr2h, status,2, status,0, cstack
  3277 ;; Tracked objects:
  3278 ;;		On entry : 0/0
  3279 ;;		On exit  : 0/0
  3280 ;;		Unchanged: 0/0
  3281 ;; Data sizes:     COMRAM   BANK0   BANK1   BANK2   BANK3   BANK4   BANK5
  3282 ;;      Params:         4       0       0       0       0       0       0
  3283 ;;      Locals:         0       0       0       0       0       0       0
  3284 ;;      Temps:          5       0       0       0       0       0       0
  3285 ;;      Totals:         9       0       0       0       0       0       0
  3286 ;;Total ram usage:        9 bytes
  3287 ;; Hardware stack levels used: 1
  3288 ;; Hardware stack levels required when called: 1
  3289 ;; This function calls:
  3290 ;;		i2_putch
  3291 ;; This function is called by:
  3292 ;;		_pad
  3293 ;;		_vfpfcnvrt
  3294 ;;		_fputs
  3295 ;; This function uses a non-reentrant model
  3296 ;;
  3297                           
  3298                           	psect	text23
  3299   000C40                     __ptext23:
  3300                           	callstack 0
  3301   000C40                     _fputc:
  3302                           	callstack 16
  3303   000C40  5004               	movf	fputc@fp^0,w,c
  3304   000C42  1005               	iorwf	(fputc@fp+1)^0,w,c
  3305   000C44  B4D8               	btfsc	status,2,c
  3306   000C46  EF27  F006         	goto	i2u83_41
  3307   000C4A  EF29  F006         	goto	i2u83_40
  3308   000C4E                     i2u83_41:
  3309   000C4E  EF32  F006         	goto	i2l1589
  3310   000C52                     i2u83_40:
  3311   000C52  5004               	movf	fputc@fp^0,w,c
  3312   000C54  1005               	iorwf	(fputc@fp+1)^0,w,c
  3313   000C56  A4D8               	btfss	status,2,c
  3314   000C58  EF30  F006         	goto	i2u84_41
  3315   000C5C  EF32  F006         	goto	i2u84_40
  3316   000C60                     i2u84_41:
  3317   000C60  EF37  F006         	goto	i2l1591
  3318   000C64                     i2u84_40:
  3319   000C64                     i2l1589:
  3320   000C64  5002               	movf	fputc@c^0,w,c
  3321   000C66  EC55  F008         	call	i2_putch
  3322   000C6A  EF84  F006         	goto	i2l1003
  3323   000C6E                     i2l1591:
  3324   000C6E  EE20 F009          	lfsr	2,9
  3325   000C72  5004               	movf	fputc@fp^0,w,c
  3326   000C74  26D9               	addwf	fsr2l,f,c
  3327   000C76  5005               	movf	(fputc@fp+1)^0,w,c
  3328   000C78  22DA               	addwfc	fsr2h,f,c
  3329   000C7A  50DE               	movf	postinc2,w,c
  3330   000C7C  10DE               	iorwf	postinc2,w,c
  3331   000C7E  B4D8               	btfsc	status,2,c
  3332   000C80  EF44  F006         	goto	i2u85_41
  3333   000C84  EF46  F006         	goto	i2u85_40
  3334   000C88                     i2u85_41:
  3335   000C88  EF61  F006         	goto	i2l1595
  3336   000C8C                     i2u85_40:
  3337   000C8C  EE20 F009          	lfsr	2,9
  3338   000C90  5004               	movf	fputc@fp^0,w,c
  3339   000C92  26D9               	addwf	fsr2l,f,c
  3340   000C94  5005               	movf	(fputc@fp+1)^0,w,c
  3341   000C96  22DA               	addwfc	fsr2h,f,c
  3342   000C98  EE10 F002          	lfsr	1,2
  3343   000C9C  5004               	movf	fputc@fp^0,w,c
  3344   000C9E  26E1               	addwf	fsr1l,f,c
  3345   000CA0  5005               	movf	(fputc@fp+1)^0,w,c
  3346   000CA2  22E2               	addwfc	fsr1h,f,c
  3347   000CA4  50DE               	movf	postinc2,w,c
  3348   000CA6  5CE6               	subwf	postinc1,w,c
  3349   000CA8  50E6               	movf	postinc1,w,c
  3350   000CAA  0A80               	xorlw	128
  3351   000CAC  6E0A               	movwf	(??_fputc+4)^0,c
  3352   000CAE  50DE               	movf	postinc2,w,c
  3353   000CB0  0A80               	xorlw	128
  3354   000CB2  580A               	subwfb	(??_fputc+4)^0,w,c
  3355   000CB4  B0D8               	btfsc	status,0,c
  3356   000CB6  EF5F  F006         	goto	i2u86_41
  3357   000CBA  EF61  F006         	goto	i2u86_40
  3358   000CBE                     i2u86_41:
  3359   000CBE  EF84  F006         	goto	i2l1003
  3360   000CC2                     i2u86_40:
  3361   000CC2                     i2l1595:
  3362   000CC2  EE20 F002          	lfsr	2,2
  3363   000CC6  5004               	movf	fputc@fp^0,w,c
  3364   000CC8  26D9               	addwf	fsr2l,f,c
  3365   000CCA  5005               	movf	(fputc@fp+1)^0,w,c
  3366   000CCC  22DA               	addwfc	fsr2h,f,c
  3367   000CCE  CFDE F006          	movff	postinc2,??_fputc
  3368   000CD2  CFDD F007          	movff	postdec2,??_fputc+1
  3369   000CD6  C004  FFD9         	movff	fputc@fp,fsr2l
  3370   000CDA  C005  FFDA         	movff	fputc@fp+1,fsr2h
  3371   000CDE  CFDE F008          	movff	postinc2,??_fputc+2
  3372   000CE2  CFDD F009          	movff	postdec2,??_fputc+3
  3373   000CE6  5006               	movf	??_fputc^0,w,c
  3374   000CE8  2408               	addwf	(??_fputc+2)^0,w,c
  3375   000CEA  6ED9               	movwf	fsr2l,c
  3376   000CEC  5007               	movf	(??_fputc+1)^0,w,c
  3377   000CEE  2009               	addwfc	(??_fputc+3)^0,w,c
  3378   000CF0  6EDA               	movwf	fsr2h,c
  3379   000CF2  C002  FFDF         	movff	fputc@c,indf2
  3380   000CF6  EE20 F002          	lfsr	2,2
  3381   000CFA  5004               	movf	fputc@fp^0,w,c
  3382   000CFC  26D9               	addwf	fsr2l,f,c
  3383   000CFE  5005               	movf	(fputc@fp+1)^0,w,c
  3384   000D00  22DA               	addwfc	fsr2h,f,c
  3385   000D02  2ADE               	incf	postinc2,f,c
  3386   000D04  0E00               	movlw	0
  3387   000D06  22DD               	addwfc	postdec2,f,c
  3388   000D08                     i2l1003:
  3389   000D08  0012               	return		;funcret
  3390   000D0A                     __end_of_fputc:
  3391                           	callstack 0
  3392                           
  3393 ;; *************** function i2_putch *****************
  3394 ;; Defined at:
  3395 ;;		line 233 in file "hard.c"
  3396 ;; Parameters:    Size  Location     Type
  3397 ;;  data            1    wreg     unsigned char 
  3398 ;; Auto vars:     Size  Location     Type
  3399 ;;  data            1    0[COMRAM] unsigned char 
  3400 ;; Return value:  Size  Location     Type
  3401 ;;                  1    wreg      void 
  3402 ;; Registers used:
  3403 ;;		wreg, status,2, status,0
  3404 ;; Tracked objects:
  3405 ;;		On entry : 0/0
  3406 ;;		On exit  : 0/0
  3407 ;;		Unchanged: 0/0
  3408 ;; Data sizes:     COMRAM   BANK0   BANK1   BANK2   BANK3   BANK4   BANK5
  3409 ;;      Params:         0       0       0       0       0       0       0
  3410 ;;      Locals:         1       0       0       0       0       0       0
  3411 ;;      Temps:          0       0       0       0       0       0       0
  3412 ;;      Totals:         1       0       0       0       0       0       0
  3413 ;;Total ram usage:        1 bytes
  3414 ;; Hardware stack levels used: 1
  3415 ;; This function calls:
  3416 ;;		Nothing
  3417 ;; This function is called by:
  3418 ;;		_fputc
  3419 ;; This function uses a non-reentrant model
  3420 ;;
  3421                           
  3422                           	psect	text24
  3423   0010AA                     __ptext24:
  3424                           	callstack 0
  3425   0010AA                     i2_putch:
  3426                           	callstack 16
  3427                           
  3428                           ;incstack = 0
  3429                           ;i2putch@data stored from wreg
  3430   0010AA  6E01               	movwf	i2putch@data^0,c
  3431   0010AC                     
  3432                           ;hard.c: 234:     if (data == '\n' || data == '\r') {
  3433   0010AC  0E0A               	movlw	10
  3434   0010AE  1801               	xorwf	i2putch@data^0,w,c
  3435   0010B0  B4D8               	btfsc	status,2,c
  3436   0010B2  EF5D  F008         	goto	i2u78_41
  3437   0010B6  EF5F  F008         	goto	i2u78_40
  3438   0010BA                     i2u78_41:
  3439   0010BA  EF68  F008         	goto	i2l111
  3440   0010BE                     i2u78_40:
  3441   0010BE  0E0D               	movlw	13
  3442   0010C0  1801               	xorwf	i2putch@data^0,w,c
  3443   0010C2  A4D8               	btfss	status,2,c
  3444   0010C4  EF66  F008         	goto	i2u79_41
  3445   0010C8  EF68  F008         	goto	i2u79_40
  3446   0010CC                     i2u79_41:
  3447   0010CC  EF7C  F008         	goto	i2l118
  3448   0010D0                     i2u79_40:
  3449   0010D0                     i2l111:
  3450   0010D0  A2AC               	btfss	172,1,c	;volatile
  3451   0010D2  EF6D  F008         	goto	i2u80_41
  3452   0010D6  EF6F  F008         	goto	i2u80_40
  3453   0010DA                     i2u80_41:
  3454   0010DA  EF68  F008         	goto	i2l111
  3455   0010DE                     i2u80_40:
  3456   0010DE                     
  3457                           ;hard.c: 236:         TXREG = '\r';
  3458   0010DE  0E0D               	movlw	13
  3459   0010E0  6EAD               	movwf	173,c	;volatile
  3460   0010E2                     i2l114:
  3461   0010E2  A2AC               	btfss	172,1,c	;volatile
  3462   0010E4  EF76  F008         	goto	i2u81_41
  3463   0010E8  EF78  F008         	goto	i2u81_40
  3464   0010EC                     i2u81_41:
  3465   0010EC  EF71  F008         	goto	i2l114
  3466   0010F0                     i2u81_40:
  3467   0010F0                     
  3468                           ;hard.c: 238:         TXREG = '\n';
  3469   0010F0  0E0A               	movlw	10
  3470   0010F2  6EAD               	movwf	173,c	;volatile
  3471                           
  3472                           ;hard.c: 239:     } else {
  3473   0010F4  EF85  F008         	goto	i2l121
  3474   0010F8                     i2l118:
  3475   0010F8  A2AC               	btfss	172,1,c	;volatile
  3476   0010FA  EF81  F008         	goto	i2u82_41
  3477   0010FE  EF83  F008         	goto	i2u82_40
  3478   001102                     i2u82_41:
  3479   001102  EF7C  F008         	goto	i2l118
  3480   001106                     i2u82_40:
  3481   001106                     
  3482                           ;hard.c: 241:         TXREG = data;
  3483   001106  C001  FFAD         	movff	i2putch@data,4013	;volatile
  3484   00110A                     i2l121:
  3485   00110A  0012               	return		;funcret
  3486   00110C                     __end_ofi2_putch:
  3487                           	callstack 0
  3488                           
  3489 ;; *************** function ___lwmod *****************
  3490 ;; Defined at:
  3491 ;;		line 7 in file "C:\Program Files\Microchip\xc8\v3.00\pic\sources\c99\common\lwmod.c"
  3492 ;; Parameters:    Size  Location     Type
  3493 ;;  dividend        2    0[COMRAM] unsigned int 
  3494 ;;  divisor         2    2[COMRAM] unsigned int 
  3495 ;; Auto vars:     Size  Location     Type
  3496 ;;  counter         1    4[COMRAM] unsigned char 
  3497 ;; Return value:  Size  Location     Type
  3498 ;;                  2    0[COMRAM] unsigned int 
  3499 ;; Registers used:
  3500 ;;		wreg, status,2, status,0
  3501 ;; Tracked objects:
  3502 ;;		On entry : 0/0
  3503 ;;		On exit  : 0/0
  3504 ;;		Unchanged: 0/0
  3505 ;; Data sizes:     COMRAM   BANK0   BANK1   BANK2   BANK3   BANK4   BANK5
  3506 ;;      Params:         4       0       0       0       0       0       0
  3507 ;;      Locals:         1       0       0       0       0       0       0
  3508 ;;      Temps:          0       0       0       0       0       0       0
  3509 ;;      Totals:         5       0       0       0       0       0       0
  3510 ;;Total ram usage:        5 bytes
  3511 ;; Hardware stack levels used: 1
  3512 ;; This function calls:
  3513 ;;		Nothing
  3514 ;; This function is called by:
  3515 ;;		_utoa
  3516 ;; This function uses a non-reentrant model
  3517 ;;
  3518                           
  3519                           	psect	text25
  3520   001046                     __ptext25:
  3521                           	callstack 0
  3522   001046                     ___lwmod:
  3523                           	callstack 19
  3524   001046  5003               	movf	___lwmod@divisor^0,w,c
  3525   001048  1004               	iorwf	(___lwmod@divisor+1)^0,w,c
  3526   00104A  B4D8               	btfsc	status,2,c
  3527   00104C  EF2A  F008         	goto	i2u91_41
  3528   001050  EF2C  F008         	goto	i2u91_40
  3529   001054                     i2u91_41:
  3530   001054  EF50  F008         	goto	i2l749
  3531   001058                     i2u91_40:
  3532   001058  0E01               	movlw	1
  3533   00105A  6E05               	movwf	___lwmod@counter^0,c
  3534   00105C  EF34  F008         	goto	i2l1635
  3535   001060                     i2l1633:
  3536   001060  90D8               	bcf	status,0,c
  3537   001062  3603               	rlcf	___lwmod@divisor^0,f,c
  3538   001064  3604               	rlcf	(___lwmod@divisor+1)^0,f,c
  3539   001066  2A05               	incf	___lwmod@counter^0,f,c
  3540   001068                     i2l1635:
  3541   001068  AE04               	btfss	(___lwmod@divisor+1)^0,7,c
  3542   00106A  EF39  F008         	goto	i2u92_41
  3543   00106E  EF3B  F008         	goto	i2u92_40
  3544   001072                     i2u92_41:
  3545   001072  EF30  F008         	goto	i2l1633
  3546   001076                     i2u92_40:
  3547   001076                     i2l1637:
  3548   001076  5003               	movf	___lwmod@divisor^0,w,c
  3549   001078  5C01               	subwf	___lwmod@dividend^0,w,c
  3550   00107A  5004               	movf	(___lwmod@divisor+1)^0,w,c
  3551   00107C  5802               	subwfb	(___lwmod@dividend+1)^0,w,c
  3552   00107E  A0D8               	btfss	status,0,c
  3553   001080  EF44  F008         	goto	i2u93_41
  3554   001084  EF46  F008         	goto	i2u93_40
  3555   001088                     i2u93_41:
  3556   001088  EF4A  F008         	goto	i2l1641
  3557   00108C                     i2u93_40:
  3558   00108C  5003               	movf	___lwmod@divisor^0,w,c
  3559   00108E  5E01               	subwf	___lwmod@dividend^0,f,c
  3560   001090  5004               	movf	(___lwmod@divisor+1)^0,w,c
  3561   001092  5A02               	subwfb	(___lwmod@dividend+1)^0,f,c
  3562   001094                     i2l1641:
  3563   001094  90D8               	bcf	status,0,c
  3564   001096  3204               	rrcf	(___lwmod@divisor+1)^0,f,c
  3565   001098  3203               	rrcf	___lwmod@divisor^0,f,c
  3566   00109A  2E05               	decfsz	___lwmod@counter^0,f,c
  3567   00109C  EF3B  F008         	goto	i2l1637
  3568   0010A0                     i2l749:
  3569   0010A0  C001  F001         	movff	___lwmod@dividend,?___lwmod
  3570   0010A4  C002  F002         	movff	___lwmod@dividend+1,?___lwmod+1
  3571   0010A8  0012               	return		;funcret
  3572   0010AA                     __end_of___lwmod:
  3573                           	callstack 0
  3574                           
  3575 ;; *************** function ___lwdiv *****************
  3576 ;; Defined at:
  3577 ;;		line 7 in file "C:\Program Files\Microchip\xc8\v3.00\pic\sources\c99\common\lwdiv.c"
  3578 ;; Parameters:    Size  Location     Type
  3579 ;;  dividend        2    0[COMRAM] unsigned int 
  3580 ;;  divisor         2    2[COMRAM] unsigned int 
  3581 ;; Auto vars:     Size  Location     Type
  3582 ;;  quotient        2    4[COMRAM] unsigned int 
  3583 ;;  counter         1    6[COMRAM] unsigned char 
  3584 ;; Return value:  Size  Location     Type
  3585 ;;                  2    0[COMRAM] unsigned int 
  3586 ;; Registers used:
  3587 ;;		wreg, status,2, status,0
  3588 ;; Tracked objects:
  3589 ;;		On entry : 0/0
  3590 ;;		On exit  : 0/0
  3591 ;;		Unchanged: 0/0
  3592 ;; Data sizes:     COMRAM   BANK0   BANK1   BANK2   BANK3   BANK4   BANK5
  3593 ;;      Params:         4       0       0       0       0       0       0
  3594 ;;      Locals:         3       0       0       0       0       0       0
  3595 ;;      Temps:          0       0       0       0       0       0       0
  3596 ;;      Totals:         7       0       0       0       0       0       0
  3597 ;;Total ram usage:        7 bytes
  3598 ;; Hardware stack levels used: 1
  3599 ;; This function calls:
  3600 ;;		Nothing
  3601 ;; This function is called by:
  3602 ;;		_utoa
  3603 ;; This function uses a non-reentrant model
  3604 ;;
  3605                           
  3606                           	psect	text26
  3607   000F04                     __ptext26:
  3608                           	callstack 0
  3609   000F04                     ___lwdiv:
  3610                           	callstack 19
  3611   000F04  0E00               	movlw	0
  3612   000F06  6E06               	movwf	(___lwdiv@quotient+1)^0,c
  3613   000F08  0E00               	movlw	0
  3614   000F0A  6E05               	movwf	___lwdiv@quotient^0,c
  3615   000F0C  5003               	movf	___lwdiv@divisor^0,w,c
  3616   000F0E  1004               	iorwf	(___lwdiv@divisor+1)^0,w,c
  3617   000F10  B4D8               	btfsc	status,2,c
  3618   000F12  EF8D  F007         	goto	i2u88_41
  3619   000F16  EF8F  F007         	goto	i2u88_40
  3620   000F1A                     i2u88_41:
  3621   000F1A  EFB7  F007         	goto	i2l739
  3622   000F1E                     i2u88_40:
  3623   000F1E  0E01               	movlw	1
  3624   000F20  6E07               	movwf	___lwdiv@counter^0,c
  3625   000F22  EF97  F007         	goto	i2l1615
  3626   000F26                     i2l1613:
  3627   000F26  90D8               	bcf	status,0,c
  3628   000F28  3603               	rlcf	___lwdiv@divisor^0,f,c
  3629   000F2A  3604               	rlcf	(___lwdiv@divisor+1)^0,f,c
  3630   000F2C  2A07               	incf	___lwdiv@counter^0,f,c
  3631   000F2E                     i2l1615:
  3632   000F2E  AE04               	btfss	(___lwdiv@divisor+1)^0,7,c
  3633   000F30  EF9C  F007         	goto	i2u89_41
  3634   000F34  EF9E  F007         	goto	i2u89_40
  3635   000F38                     i2u89_41:
  3636   000F38  EF93  F007         	goto	i2l1613
  3637   000F3C                     i2u89_40:
  3638   000F3C                     i2l1617:
  3639   000F3C  90D8               	bcf	status,0,c
  3640   000F3E  3605               	rlcf	___lwdiv@quotient^0,f,c
  3641   000F40  3606               	rlcf	(___lwdiv@quotient+1)^0,f,c
  3642   000F42  5003               	movf	___lwdiv@divisor^0,w,c
  3643   000F44  5C01               	subwf	___lwdiv@dividend^0,w,c
  3644   000F46  5004               	movf	(___lwdiv@divisor+1)^0,w,c
  3645   000F48  5802               	subwfb	(___lwdiv@dividend+1)^0,w,c
  3646   000F4A  A0D8               	btfss	status,0,c
  3647   000F4C  EFAA  F007         	goto	i2u90_41
  3648   000F50  EFAC  F007         	goto	i2u90_40
  3649   000F54                     i2u90_41:
  3650   000F54  EFB1  F007         	goto	i2l1625
  3651   000F58                     i2u90_40:
  3652   000F58  5003               	movf	___lwdiv@divisor^0,w,c
  3653   000F5A  5E01               	subwf	___lwdiv@dividend^0,f,c
  3654   000F5C  5004               	movf	(___lwdiv@divisor+1)^0,w,c
  3655   000F5E  5A02               	subwfb	(___lwdiv@dividend+1)^0,f,c
  3656   000F60  8005               	bsf	___lwdiv@quotient^0,0,c
  3657   000F62                     i2l1625:
  3658   000F62  90D8               	bcf	status,0,c
  3659   000F64  3204               	rrcf	(___lwdiv@divisor+1)^0,f,c
  3660   000F66  3203               	rrcf	___lwdiv@divisor^0,f,c
  3661   000F68  2E07               	decfsz	___lwdiv@counter^0,f,c
  3662   000F6A  EF9E  F007         	goto	i2l1617
  3663   000F6E                     i2l739:
  3664   000F6E  C005  F001         	movff	___lwdiv@quotient,?___lwdiv
  3665   000F72  C006  F002         	movff	___lwdiv@quotient+1,?___lwdiv+1
  3666   000F76  0012               	return		;funcret
  3667   000F78                     __end_of___lwdiv:
  3668                           	callstack 0
  3669                           
  3670 ;; *************** function _read_prec_or_width *****************
  3671 ;; Defined at:
  3672 ;;		line 1158 in file "C:\Program Files\Microchip\xc8\v3.00\pic\sources\c99\common\doprnt.c"
  3673 ;; Parameters:    Size  Location     Type
  3674 ;;  fmt             1    0[COMRAM] PTR PTR const unsigned c
  3675 ;;		 -> vfprintf@cfmt(1), 
  3676 ;;  ap              1    1[COMRAM] PTR PTR void [1]
  3677 ;;		 -> printf@ap(1), 
  3678 ;; Auto vars:     Size  Location     Type
  3679 ;;  c               1    4[COMRAM] unsigned char 
  3680 ;;  n               2    5[COMRAM] int 
  3681 ;; Return value:  Size  Location     Type
  3682 ;;                  2    0[COMRAM] int 
  3683 ;; Registers used:
  3684 ;;		wreg, fsr2l, fsr2h, status,2, status,0, tblptrl, tblptrh, tblptru, prodl, prodh
  3685 ;; Tracked objects:
  3686 ;;		On entry : 0/0
  3687 ;;		On exit  : 0/0
  3688 ;;		Unchanged: 0/0
  3689 ;; Data sizes:     COMRAM   BANK0   BANK1   BANK2   BANK3   BANK4   BANK5
  3690 ;;      Params:         2       0       0       0       0       0       0
  3691 ;;      Locals:         3       0       0       0       0       0       0
  3692 ;;      Temps:          2       0       0       0       0       0       0
  3693 ;;      Totals:         7       0       0       0       0       0       0
  3694 ;;Total ram usage:        7 bytes
  3695 ;; Hardware stack levels used: 1
  3696 ;; This function calls:
  3697 ;;		Nothing
  3698 ;; This function is called by:
  3699 ;;		_vfpfcnvrt
  3700 ;; This function uses a non-reentrant model
  3701 ;;
  3702                           
  3703                           	psect	text27
  3704   000DCA                     __ptext27:
  3705                           	callstack 0
  3706   000DCA                     _read_prec_or_width:
  3707                           	callstack 20
  3708   000DCA                     
  3709                           ;C:\Program Files\Microchip\xc8\v3.00\pic\sources\c99\common\doprnt.c: 1159:     int n =
      +                           0;
  3710   000DCA  0E00               	movlw	0
  3711   000DCC  6E07               	movwf	(read_prec_or_width@n+1)^0,c
  3712   000DCE  0E00               	movlw	0
  3713   000DD0  6E06               	movwf	read_prec_or_width@n^0,c
  3714   000DD2                     
  3715                           ;C:\Program Files\Microchip\xc8\v3.00\pic\sources\c99\common\doprnt.c: 1160:     if ((*f
      +                          mt)[0] == '*') {
  3716   000DD2  5001               	movf	read_prec_or_width@fmt^0,w,c
  3717   000DD4  6ED9               	movwf	fsr2l,c
  3718   000DD6  6ADA               	clrf	fsr2h,c
  3719   000DD8  CFDF FFF6          	movff	indf2,tblptrl
  3720   000DDC                     	if	1	;There is more than 1 active tblptr byte
  3721   000DDC  0E06               	movlw	high __smallconst
  3722   000DDE  6EF7               	movwf	tblptrh,c
  3723   000DE0                     	endif
  3724   000DE0                     	if	0	;tblptru may be non-zero
  3725   000DE0                     	endif
  3726   000DE0                     	if	0	;tblptru may be non-zero
  3727   000DE0                     	endif
  3728   000DE0  0008               	tblrd		*
  3729   000DE2  50F5               	movf	tablat,w,c
  3730   000DE4  0A2A               	xorlw	42
  3731   000DE6  A4D8               	btfss	status,2,c
  3732   000DE8  EFF8  F006         	goto	i2u103_41
  3733   000DEC  EFFA  F006         	goto	i2u103_40
  3734   000DF0                     i2u103_41:
  3735   000DF0  EF1F  F007         	goto	i2l1703
  3736   000DF4                     i2u103_40:
  3737   000DF4                     
  3738                           ;C:\Program Files\Microchip\xc8\v3.00\pic\sources\c99\common\doprnt.c: 1161:         ++*
      +                          fmt;
  3739   000DF4  5001               	movf	read_prec_or_width@fmt^0,w,c
  3740   000DF6  6ED9               	movwf	fsr2l,c
  3741   000DF8  6ADA               	clrf	fsr2h,c
  3742   000DFA  2ADF               	incf	indf2,f,c
  3743   000DFC                     
  3744                           ;C:\Program Files\Microchip\xc8\v3.00\pic\sources\c99\common\doprnt.c: 1162:         n =
      +                           (*(int *)__va_arg(*(int **)*ap, (int)0));
  3745   000DFC  5002               	movf	read_prec_or_width@ap^0,w,c
  3746   000DFE  6ED9               	movwf	fsr2l,c
  3747   000E00  6ADA               	clrf	fsr2h,c
  3748   000E02  0E02               	movlw	2
  3749   000E04  26DF               	addwf	indf2,f,c
  3750   000E06  5CDF               	subwf	indf2,w,c
  3751   000E08  6ED9               	movwf	fsr2l,c
  3752   000E0A  6ADA               	clrf	fsr2h,c
  3753   000E0C  CFDE F006          	movff	postinc2,read_prec_or_width@n
  3754   000E10  CFDE F007          	movff	postinc2,read_prec_or_width@n+1
  3755                           
  3756                           ;C:\Program Files\Microchip\xc8\v3.00\pic\sources\c99\common\doprnt.c: 1163:     } else 
      +                          {
  3757   000E14  EF32  F007         	goto	i2l963
  3758   000E18                     i2l1699:
  3759                           
  3760                           ;C:\Program Files\Microchip\xc8\v3.00\pic\sources\c99\common\doprnt.c: 1166:            
      +                           n = n * 10 + c;
  3761   000E18  0E0A               	movlw	10
  3762   000E1A  0206               	mulwf	read_prec_or_width@n^0,c
  3763   000E1C  CFF3 F003          	movff	prodl,??_read_prec_or_width
  3764   000E20  CFF4 F004          	movff	prodh,??_read_prec_or_width+1
  3765   000E24  0207               	mulwf	(read_prec_or_width@n+1)^0,c
  3766   000E26  50F3               	movf	prodl,w,c
  3767   000E28  2604               	addwf	(??_read_prec_or_width+1)^0,f,c
  3768   000E2A  5005               	movf	read_prec_or_width@c^0,w,c
  3769   000E2C  2403               	addwf	??_read_prec_or_width^0,w,c
  3770   000E2E  6E06               	movwf	read_prec_or_width@n^0,c
  3771   000E30  0E00               	movlw	0
  3772   000E32  2004               	addwfc	(??_read_prec_or_width+1)^0,w,c
  3773   000E34  6E07               	movwf	(read_prec_or_width@n+1)^0,c
  3774   000E36                     
  3775                           ;C:\Program Files\Microchip\xc8\v3.00\pic\sources\c99\common\doprnt.c: 1167:            
      +                           ++*fmt;
  3776   000E36  5001               	movf	read_prec_or_width@fmt^0,w,c
  3777   000E38  6ED9               	movwf	fsr2l,c
  3778   000E3A  6ADA               	clrf	fsr2h,c
  3779   000E3C  2ADF               	incf	indf2,f,c
  3780   000E3E                     i2l1703:
  3781                           
  3782                           ;C:\Program Files\Microchip\xc8\v3.00\pic\sources\c99\common\doprnt.c: 1165:         whi
      +                          le ((c = ((unsigned)(*fmt)[0]) - '0') < 10) {
  3783   000E3E  5001               	movf	read_prec_or_width@fmt^0,w,c
  3784   000E40  6ED9               	movwf	fsr2l,c
  3785   000E42  6ADA               	clrf	fsr2h,c
  3786   000E44  CFDF FFF6          	movff	indf2,tblptrl
  3787   000E48                     	if	1	;There is more than 1 active tblptr byte
  3788   000E48  0E06               	movlw	high __smallconst
  3789   000E4A  6EF7               	movwf	tblptrh,c
  3790   000E4C                     	endif
  3791   000E4C                     	if	0	;tblptru may be non-zero
  3792   000E4C                     	endif
  3793   000E4C                     	if	0	;tblptru may be non-zero
  3794   000E4C                     	endif
  3795   000E4C  0008               	tblrd		*
  3796   000E4E  50F5               	movf	tablat,w,c
  3797   000E50  0FD0               	addlw	208
  3798   000E52  6E05               	movwf	read_prec_or_width@c^0,c
  3799   000E54  0E09               	movlw	9
  3800   000E56  6405               	cpfsgt	read_prec_or_width@c^0,c
  3801   000E58  EF30  F007         	goto	i2u104_41
  3802   000E5C  EF32  F007         	goto	i2u104_40
  3803   000E60                     i2u104_41:
  3804   000E60  EF0C  F007         	goto	i2l1699
  3805   000E64                     i2u104_40:
  3806   000E64                     i2l963:
  3807                           
  3808                           ;C:\Program Files\Microchip\xc8\v3.00\pic\sources\c99\common\doprnt.c: 1170:     return 
      +                          n;
  3809   000E64  C006  F001         	movff	read_prec_or_width@n,?_read_prec_or_width
  3810   000E68  C007  F002         	movff	read_prec_or_width@n+1,?_read_prec_or_width+1
  3811   000E6C  0012               	return		;funcret
  3812   000E6E                     __end_of_read_prec_or_width:
  3813                           	callstack 0
  3814                           
  3815 ;; *************** function _button_pressed *****************
  3816 ;; Defined at:
  3817 ;;		line 332 in file "hard.c"
  3818 ;; Parameters:    Size  Location     Type
  3819 ;;		None
  3820 ;; Auto vars:     Size  Location     Type
  3821 ;;		None
  3822 ;; Return value:  Size  Location     Type
  3823 ;;                  1    wreg      void 
  3824 ;; Registers used:
  3825 ;;		None
  3826 ;; Tracked objects:
  3827 ;;		On entry : 0/0
  3828 ;;		On exit  : 0/0
  3829 ;;		Unchanged: 0/0
  3830 ;; Data sizes:     COMRAM   BANK0   BANK1   BANK2   BANK3   BANK4   BANK5
  3831 ;;      Params:         0       0       0       0       0       0       0
  3832 ;;      Locals:         0       0       0       0       0       0       0
  3833 ;;      Temps:          0       0       0       0       0       0       0
  3834 ;;      Totals:         0       0       0       0       0       0       0
  3835 ;;Total ram usage:        0 bytes
  3836 ;; Hardware stack levels used: 1
  3837 ;; This function calls:
  3838 ;;		Nothing
  3839 ;; This function is called by:
  3840 ;;		_H_ISR
  3841 ;; This function uses a non-reentrant model
  3842 ;;
  3843                           
  3844                           	psect	text28
  3845   001368                     __ptext28:
  3846                           	callstack 0
  3847   001368                     _button_pressed:
  3848                           	callstack 24
  3849   001368  0012               	return		;funcret
  3850   00136A                     __end_of_button_pressed:
  3851                           	callstack 0
  3852                           
  3853                           	psect	rparam
  3854   000001                     ___rparam_used  equ	1
  3855   000000                     ___param_bank   equ	0
  3856   000000                     __Lparam        equ	__Lrparam
  3857   000000                     __Hparam        equ	__Hrparam
  3858                           
  3859                           	psect	temp
  3860   00006F                     btemp:
  3861                           	callstack 0
  3862   00006F                     	ds	1
  3863   00006F                     int$flags       set	btemp
  3864   000070                     wtemp8          set	btemp+1
  3865   000070                     ttemp5          set	btemp+1
  3866   000073                     ttemp6          set	btemp+4
  3867   000077                     ttemp7          set	btemp+8
  3868                           
  3869                           	psect	idloc
  3870                           
  3871                           ;Config register IDLOC0 @ 0x200000
  3872                           ;	unspecified, using default values
  3873   200000                     	org	2097152
  3874   200000  FF                 	db	255
  3875                           
  3876                           ;Config register IDLOC1 @ 0x200001
  3877                           ;	unspecified, using default values
  3878   200001                     	org	2097153
  3879   200001  FF                 	db	255
  3880                           
  3881                           ;Config register IDLOC2 @ 0x200002
  3882                           ;	unspecified, using default values
  3883   200002                     	org	2097154
  3884   200002  FF                 	db	255
  3885                           
  3886                           ;Config register IDLOC3 @ 0x200003
  3887                           ;	unspecified, using default values
  3888   200003                     	org	2097155
  3889   200003  FF                 	db	255
  3890                           
  3891                           ;Config register IDLOC4 @ 0x200004
  3892                           ;	unspecified, using default values
  3893   200004                     	org	2097156
  3894   200004  FF                 	db	255
  3895                           
  3896                           ;Config register IDLOC5 @ 0x200005
  3897                           ;	unspecified, using default values
  3898   200005                     	org	2097157
  3899   200005  FF                 	db	255
  3900                           
  3901                           ;Config register IDLOC6 @ 0x200006
  3902                           ;	unspecified, using default values
  3903   200006                     	org	2097158
  3904   200006  FF                 	db	255
  3905                           
  3906                           ;Config register IDLOC7 @ 0x200007
  3907                           ;	unspecified, using default values
  3908   200007                     	org	2097159
  3909   200007  FF                 	db	255
  3910                           
  3911                           	psect	config
  3912                           
  3913                           ; Padding undefined space
  3914   300000                     	org	3145728
  3915   300000  FF                 	db	255
  3916                           
  3917                           ;Config register CONFIG1H @ 0x300001
  3918                           ;	Oscillator Selection bits
  3919                           ;	OSC = INTIO67, Internal oscillator block, port function on RA6 and RA7
  3920                           ;	Fail-Safe Clock Monitor Enable bit
  3921                           ;	FCMEN = OFF, Fail-Safe Clock Monitor disabled
  3922                           ;	Internal/External Oscillator Switchover bit
  3923                           ;	IESO = ON, Oscillator Switchover mode enabled
  3924   300001                     	org	3145729
  3925   300001  88                 	db	136
  3926                           
  3927                           ;Config register CONFIG2L @ 0x300002
  3928                           ;	Power-up Timer Enable bit
  3929                           ;	PWRT = OFF, PWRT disabled
  3930                           ;	Brown-out Reset Enable bits
  3931                           ;	BOREN = SBORDIS, Brown-out Reset enabled in hardware only (SBOREN is disabled)
  3932                           ;	Brown Out Reset Voltage bits
  3933                           ;	BORV = 3, Minimum setting
  3934   300002                     	org	3145730
  3935   300002  1F                 	db	31
  3936                           
  3937                           ;Config register CONFIG2H @ 0x300003
  3938                           ;	Watchdog Timer Enable bit
  3939                           ;	WDT = OFF, WDT disabled (control is placed on the SWDTEN bit)
  3940                           ;	Watchdog Timer Postscale Select bits
  3941                           ;	WDTPS = 1, 1:1
  3942   300003                     	org	3145731
  3943   300003  00                 	db	0
  3944                           
  3945                           ; Padding undefined space
  3946   300004                     	org	3145732
  3947   300004  FF                 	db	255
  3948                           
  3949                           ;Config register CONFIG3H @ 0x300005
  3950                           ;	CCP2 MUX bit
  3951                           ;	CCP2MX = PORTC, CCP2 input/output is multiplexed with RC1
  3952                           ;	PORTB A/D Enable bit
  3953                           ;	PBADEN = ON, PORTB<4:0> pins are configured as analog input channels on Reset
  3954                           ;	Low-Power Timer1 Oscillator Enable bit
  3955                           ;	LPT1OSC = OFF, Timer1 configured for higher power operation
  3956                           ;	MCLR Pin Enable bit
  3957                           ;	MCLRE = ON, MCLR pin enabled; RE3 input pin disabled
  3958   300005                     	org	3145733
  3959   300005  83                 	db	131
  3960                           
  3961                           ;Config register CONFIG4L @ 0x300006
  3962                           ;	Stack Full/Underflow Reset Enable bit
  3963                           ;	STVREN = ON, Stack full/underflow will cause Reset
  3964                           ;	Single-Supply ICSP Enable bit
  3965                           ;	LVP = OFF, Single-Supply ICSP disabled
  3966                           ;	Extended Instruction Set Enable bit
  3967                           ;	XINST = OFF, Instruction set extension and Indexed Addressing mode disabled (Legacy mo
      +                          de)
  3968                           ;	Background Debugger Enable bit
  3969                           ;	DEBUG = 0x1, unprogrammed default
  3970   300006                     	org	3145734
  3971   300006  81                 	db	129
  3972                           
  3973                           ; Padding undefined space
  3974   300007                     	org	3145735
  3975   300007  FF                 	db	255
  3976                           
  3977                           ;Config register CONFIG5L @ 0x300008
  3978                           ;	Code Protection bit
  3979                           ;	CP0 = OFF, Block 0 (000800-001FFFh) not code-protected
  3980                           ;	Code Protection bit
  3981                           ;	CP1 = OFF, Block 1 (002000-003FFFh) not code-protected
  3982                           ;	Code Protection bit
  3983                           ;	CP2 = OFF, Block 2 (004000-005FFFh) not code-protected
  3984                           ;	Code Protection bit
  3985                           ;	CP3 = OFF, Block 3 (006000-007FFFh) not code-protected
  3986   300008                     	org	3145736
  3987   300008  0F                 	db	15
  3988                           
  3989                           ;Config register CONFIG5H @ 0x300009
  3990                           ;	Boot Block Code Protection bit
  3991                           ;	CPB = OFF, Boot block (000000-0007FFh) not code-protected
  3992                           ;	Data EEPROM Code Protection bit
  3993                           ;	CPD = OFF, Data EEPROM not code-protected
  3994   300009                     	org	3145737
  3995   300009  C0                 	db	192
  3996                           
  3997                           ;Config register CONFIG6L @ 0x30000A
  3998                           ;	Write Protection bit
  3999                           ;	WRT0 = OFF, Block 0 (000800-001FFFh) not write-protected
  4000                           ;	Write Protection bit
  4001                           ;	WRT1 = OFF, Block 1 (002000-003FFFh) not write-protected
  4002                           ;	Write Protection bit
  4003                           ;	WRT2 = OFF, Block 2 (004000-005FFFh) not write-protected
  4004                           ;	Write Protection bit
  4005                           ;	WRT3 = OFF, Block 3 (006000-007FFFh) not write-protected
  4006   30000A                     	org	3145738
  4007   30000A  0F                 	db	15
  4008                           
  4009                           ;Config register CONFIG6H @ 0x30000B
  4010                           ;	Configuration Register Write Protection bit
  4011                           ;	WRTC = OFF, Configuration registers (300000-3000FFh) not write-protected
  4012                           ;	Boot Block Write Protection bit
  4013                           ;	WRTB = OFF, Boot block (000000-0007FFh) not write-protected
  4014                           ;	Data EEPROM Write Protection bit
  4015                           ;	WRTD = OFF, Data EEPROM not write-protected
  4016   30000B                     	org	3145739
  4017   30000B  E0                 	db	224
  4018                           
  4019                           ;Config register CONFIG7L @ 0x30000C
  4020                           ;	Table Read Protection bit
  4021                           ;	EBTR0 = OFF, Block 0 (000800-001FFFh) not protected from table reads executed in other
      +                           blocks
  4022                           ;	Table Read Protection bit
  4023                           ;	EBTR1 = OFF, Block 1 (002000-003FFFh) not protected from table reads executed in other
      +                           blocks
  4024                           ;	Table Read Protection bit
  4025                           ;	EBTR2 = OFF, Block 2 (004000-005FFFh) not protected from table reads executed in other
      +                           blocks
  4026                           ;	Table Read Protection bit
  4027                           ;	EBTR3 = OFF, Block 3 (006000-007FFFh) not protected from table reads executed in other
      +                           blocks
  4028   30000C                     	org	3145740
  4029   30000C  0F                 	db	15
  4030                           
  4031                           ;Config register CONFIG7H @ 0x30000D
  4032                           ;	Boot Block Table Read Protection bit
  4033                           ;	EBTRB = OFF, Boot block (000000-0007FFh) not protected from table reads executed in ot
      +                          her blocks
  4034   30000D                     	org	3145741
  4035   30000D  40                 	db	64
  4036                           tosu	equ	0xFFF
  4037                           tosh	equ	0xFFE
  4038                           tosl	equ	0xFFD
  4039                           stkptr	equ	0xFFC
  4040                           pclatu	equ	0xFFB
  4041                           pclath	equ	0xFFA
  4042                           pcl	equ	0xFF9
  4043                           tblptru	equ	0xFF8
  4044                           tblptrh	equ	0xFF7
  4045                           tblptrl	equ	0xFF6
  4046                           tablat	equ	0xFF5
  4047                           prodh	equ	0xFF4
  4048                           prodl	equ	0xFF3
  4049                           indf0	equ	0xFEF
  4050                           postinc0	equ	0xFEE
  4051                           postdec0	equ	0xFED
  4052                           preinc0	equ	0xFEC
  4053                           plusw0	equ	0xFEB
  4054                           fsr0h	equ	0xFEA
  4055                           fsr0l	equ	0xFE9
  4056                           wreg	equ	0xFE8
  4057                           indf1	equ	0xFE7
  4058                           postinc1	equ	0xFE6
  4059                           postdec1	equ	0xFE5
  4060                           preinc1	equ	0xFE4
  4061                           plusw1	equ	0xFE3
  4062                           fsr1h	equ	0xFE2
  4063                           fsr1l	equ	0xFE1
  4064                           bsr	equ	0xFE0
  4065                           indf2	equ	0xFDF
  4066                           postinc2	equ	0xFDE
  4067                           postdec2	equ	0xFDD
  4068                           preinc2	equ	0xFDC
  4069                           plusw2	equ	0xFDB
  4070                           fsr2h	equ	0xFDA
  4071                           fsr2l	equ	0xFD9
  4072                           status	equ	0xFD8

Data Sizes:
    Strings     9
    Constant    0
    Data        0
    BSS         144
    Persistent  0
    Stack       0

Auto Spaces:
    Space          Size  Autos    Used
    COMRAM          126     68     110
    BANK0           128    115     117
    BANK1           256      0     100
    BANK2           256      0       0
    BANK3           256      0       0
    BANK4           256      0       0
    BANK5           244      0       0

Pointer List with Targets:

    fputc@fp	PTR struct _IO_FILE size(2) Largest target is 0
		 -> NULL(NULL[0]), 

    fputc@fp$.$buffer	PTR unsigned char  size(2) Largest target is 0

    fputc@fp$.$source	PTR const unsigned char  size(2) Largest target is 0

    fputs@fp	PTR struct _IO_FILE size(2) Largest target is 0
		 -> NULL(NULL[0]), 

    fputs@s	PTR const unsigned char  size(1) Largest target is 32
		 -> dbuf(COMRAM[32]), 

    GetString@str	PTR unsigned char  size(1) Largest target is 100
		 -> main@str(BANK0[100]), 

    keyboard_input@str	PTR unsigned char  size(1) Largest target is 100
		 -> main@str(BANK0[100]), 

    pad@buf	PTR unsigned char  size(1) Largest target is 32
		 -> dbuf(COMRAM[32]), 

    pad@fp	PTR struct _IO_FILE size(2) Largest target is 0
		 -> NULL(NULL[0]), 

    printf@ap	PTR void [1] size(1) Largest target is 2
		 -> ?_printf(COMRAM[2]), 

    printf@fmt	PTR const unsigned char  size(1) Largest target is 9
		 -> STR_1(CODE[9]), STR_10(CODE[9]), STR_11(CODE[9]), STR_12(CODE[9]), 
		 -> STR_2(CODE[9]), STR_3(CODE[9]), STR_4(CODE[9]), STR_5(CODE[9]), 
		 -> STR_6(CODE[9]), STR_7(CODE[9]), STR_8(CODE[9]), STR_9(CODE[9]), 

    read_prec_or_width@ap	PTR PTR void [1] size(1) Largest target is 1
		 -> printf@ap(COMRAM[1]), 

    read_prec_or_width@fmt	PTR PTR const unsigned char  size(1) Largest target is 1
		 -> vfprintf@cfmt(COMRAM[1]), 

    S1454$buffer	PTR unsigned char  size(2) Largest target is 0

    S1454$source	PTR const unsigned char  size(2) Largest target is 0

    sp__strcpy	PTR unsigned char  size(1) Largest target is 100
		 -> main@str(BANK0[100]), 

    strcpy@d	PTR unsigned char  size(1) Largest target is 100
		 -> main@str(BANK0[100]), 

    strcpy@dest	PTR unsigned char  size(1) Largest target is 100
		 -> main@str(BANK0[100]), 

    strcpy@src	PTR const unsigned char  size(2) Largest target is 100
		 -> buffer(BANK1[100]), 

    utoa@fp	PTR struct _IO_FILE size(2) Largest target is 0
		 -> NULL(NULL[0]), 

    vfpfcnvrt@ap	PTR PTR void  size(1) Largest target is 1
		 -> printf@ap(COMRAM[1]), 

    vfpfcnvrt@cp	PTR unsigned char  size(1) Largest target is 9
		 -> STR_1(CODE[9]), STR_10(CODE[9]), STR_11(CODE[9]), STR_12(CODE[9]), 
		 -> STR_2(CODE[9]), STR_3(CODE[9]), STR_4(CODE[9]), STR_5(CODE[9]), 
		 -> STR_6(CODE[9]), STR_7(CODE[9]), STR_8(CODE[9]), STR_9(CODE[9]), 

    vfpfcnvrt@fmt	PTR PTR unsigned char  size(1) Largest target is 1
		 -> vfprintf@cfmt(COMRAM[1]), 

    vfpfcnvrt@fp	PTR struct _IO_FILE size(2) Largest target is 0
		 -> NULL(NULL[0]), 

    vfprintf@ap	PTR PTR void  size(1) Largest target is 1
		 -> printf@ap(COMRAM[1]), 

    vfprintf@cfmt	PTR unsigned char  size(1) Largest target is 9
		 -> STR_1(CODE[9]), STR_10(CODE[9]), STR_11(CODE[9]), STR_12(CODE[9]), 
		 -> STR_2(CODE[9]), STR_3(CODE[9]), STR_4(CODE[9]), STR_5(CODE[9]), 
		 -> STR_6(CODE[9]), STR_7(CODE[9]), STR_8(CODE[9]), STR_9(CODE[9]), 

    vfprintf@fmt	PTR const unsigned char  size(1) Largest target is 9
		 -> STR_1(CODE[9]), STR_10(CODE[9]), STR_11(CODE[9]), STR_12(CODE[9]), 
		 -> STR_2(CODE[9]), STR_3(CODE[9]), STR_4(CODE[9]), STR_5(CODE[9]), 
		 -> STR_6(CODE[9]), STR_7(CODE[9]), STR_8(CODE[9]), STR_9(CODE[9]), 

    vfprintf@fp	PTR struct _IO_FILE size(2) Largest target is 0
		 -> NULL(NULL[0]), 


Critical Paths under _main in COMRAM

    None.

Critical Paths under _Lo_ISR in COMRAM

    None.

Critical Paths under _H_ISR in COMRAM

    _H_ISR->_variable_register_changed
    _variable_register_changed->_printf
    _printf->_vfprintf
    _vfprintf->_vfpfcnvrt
    _vfpfcnvrt->_utoa
    _utoa->_pad
    _pad->_fputs
    _fputs->_fputc
    _fputc->i2_putch

Critical Paths under _main in BANK0

    _main->_GetString
    _GetString->_strcpy

Critical Paths under _Lo_ISR in BANK0

    _Lo_ISR->_MyusartRead
    _MyusartRead->_putch

Critical Paths under _H_ISR in BANK0

    None.

Critical Paths under _main in BANK1

    None.

Critical Paths under _Lo_ISR in BANK1

    None.

Critical Paths under _H_ISR in BANK1

    None.

Critical Paths under _main in BANK2

    None.

Critical Paths under _Lo_ISR in BANK2

    None.

Critical Paths under _H_ISR in BANK2

    None.

Critical Paths under _main in BANK3

    None.

Critical Paths under _Lo_ISR in BANK3

    None.

Critical Paths under _H_ISR in BANK3

    None.

Critical Paths under _main in BANK4

    None.

Critical Paths under _Lo_ISR in BANK4

    None.

Critical Paths under _H_ISR in BANK4

    None.

Critical Paths under _main in BANK5

    None.

Critical Paths under _Lo_ISR in BANK5

    None.

Critical Paths under _H_ISR in BANK5

    None.

Call Graph Tables:

 ---------------------------------------------------------------------------------
 (Depth) Function   	        Calls       Base Space   Used Autos Params    Refs
 ---------------------------------------------------------------------------------
 (0) _main                                               100   100      0     237
                                             15 BANK0    100   100      0
                          _GetString
                         _Initialize
                     _keyboard_input
 ---------------------------------------------------------------------------------
 (1) _keyboard_input                                       1     0      1       1
                                              8 BANK0      1     0      1
 ---------------------------------------------------------------------------------
 (1) _Initialize                                           0     0      0       0
                     _ADC_Initialize
                      _IO_Initialize
               _Interrupt_Initialize
                    _UART_Initialize
 ---------------------------------------------------------------------------------
 (2) _UART_Initialize                                      0     0      0       0
 ---------------------------------------------------------------------------------
 (2) _Interrupt_Initialize                                 0     0      0       0
 ---------------------------------------------------------------------------------
 (2) _IO_Initialize                                        0     0      0       0
 ---------------------------------------------------------------------------------
 (2) _ADC_Initialize                                       0     0      0       0
 ---------------------------------------------------------------------------------
 (1) _GetString                                            3     1      2     188
                                             12 BANK0      3     1      2
                        _ClearBuffer
                             _strcpy
 ---------------------------------------------------------------------------------
 (2) _strcpy                                               4     1      3      75
                                              8 BANK0      4     1      3
 ---------------------------------------------------------------------------------
 (2) _ClearBuffer                                          2     2      0      68
                                              8 BANK0      2     2      0
 ---------------------------------------------------------------------------------
 Estimated maximum stack depth 2
 ---------------------------------------------------------------------------------
 (Depth) Function   	        Calls       Base Space   Used Autos Params    Refs
 ---------------------------------------------------------------------------------
 (3) _Lo_ISR                                               5     5      0     176
                                              3 BANK0      5     5      0
                        _MyusartRead
                 _timer1_interrupted
 ---------------------------------------------------------------------------------
 (4) _timer1_interrupted                                   0     0      0       0
 ---------------------------------------------------------------------------------
 (4) _MyusartRead                                          2     2      0     176
                                              1 BANK0      2     2      0
                              _putch
 ---------------------------------------------------------------------------------
 (5) _putch                                                1     1      0      87
                                              0 BANK0      1     1      0
 ---------------------------------------------------------------------------------
 Estimated maximum stack depth 5
 ---------------------------------------------------------------------------------
 (Depth) Function   	        Calls       Base Space   Used Autos Params    Refs
 ---------------------------------------------------------------------------------
 (6) _H_ISR                                               14    14      0    3189
                                             54 COMRAM    14    14      0
                     _button_pressed
          _variable_register_changed
 ---------------------------------------------------------------------------------
 (7) _variable_register_changed                            2     0      2    3166
                                             52 COMRAM     2     0      2
                             _printf
                            _set_LED
 ---------------------------------------------------------------------------------
 (8) _set_LED                                              2     0      2      34
                                              0 COMRAM     2     0      2
 ---------------------------------------------------------------------------------
 (8) _printf                                               6     3      3    2625
                                             48 COMRAM     4     1      3
                           _vfprintf
 ---------------------------------------------------------------------------------
 (9) _vfprintf                                             5     1      4    2557
                                             43 COMRAM     5     1      4
                          _vfpfcnvrt
 ---------------------------------------------------------------------------------
 (10) _vfpfcnvrt                                          11     7      4    2423
                                             33 COMRAM    10     6      4
                              _fputc
                 _read_prec_or_width
                               _utoa
 ---------------------------------------------------------------------------------
 (11) _utoa                                                9     5      4    1497
                                             24 COMRAM     9     5      4
                            ___lwdiv
                            ___lwmod
                                _pad
 ---------------------------------------------------------------------------------
 (12) _pad                                                 8     3      5     921
                                             16 COMRAM     8     3      5
                              _fputc
                              _fputs
 ---------------------------------------------------------------------------------
 (13) _fputs                                               6     3      3     420
                                             10 COMRAM     6     3      3
                              _fputc
 ---------------------------------------------------------------------------------
 (14) _fputc                                               9     5      4     319
                                              1 COMRAM     9     5      4
                            i2_putch
 ---------------------------------------------------------------------------------
 (15) i2_putch                                             1     1      0      87
                                              0 COMRAM     1     1      0
 ---------------------------------------------------------------------------------
 (12) ___lwmod                                             5     1      4     161
                                              0 COMRAM     5     1      4
 ---------------------------------------------------------------------------------
 (12) ___lwdiv                                             7     3      4     164
                                              0 COMRAM     7     3      4
 ---------------------------------------------------------------------------------
 (11) _read_prec_or_width                                  7     5      2     182
                                              0 COMRAM     7     5      2
 ---------------------------------------------------------------------------------
 (7) _button_pressed                                       0     0      0       0
 ---------------------------------------------------------------------------------
 Estimated maximum stack depth 15
 ---------------------------------------------------------------------------------

 Call Graph Graphs:

 _main (ROOT)
   _GetString
     _ClearBuffer
     _strcpy
   _Initialize
     _ADC_Initialize
     _IO_Initialize
     _Interrupt_Initialize
     _UART_Initialize
   _keyboard_input

 _Lo_ISR (ROOT)
   _MyusartRead
     _putch
   _timer1_interrupted

 _H_ISR (ROOT)
   _button_pressed
   _variable_register_changed
     _printf
       _vfprintf
         _vfpfcnvrt
           _fputc
             i2_putch
           _read_prec_or_width
           _utoa
             ___lwdiv
             ___lwmod
             _pad
               _fputc
               _fputs
                 _fputc
     _set_LED

Address spaces:
Name               Size   Autos  Total    Usage
BIGRAM            1523      0       0      0.0%
BITBANK4           256      0       0      0.0%
BANK4              256      0       0      0.0%
BITBANK3           256      0       0      0.0%
BANK3              256      0       0      0.0%
BITBANK2           256      0       0      0.0%
BANK2              256      0       0      0.0%
BITBANK1           256      0       0      0.0%
BANK1              256      0     100     39.1%
BITBANK5           244      0       0      0.0%
BANK5              244      0       0      0.0%
BITBANK0           128      0       0      0.0%
BANK0              128    115     117     91.4%
BITCOMRAM          126      0       0      0.0%
COMRAM             126     68     110     87.3%
BITBIGSFR_1h        38      0       0      0.0%
BITBIGSFR_1llh      12      0       0      0.0%
BITBIGSFRll         11      0       0      0.0%
BITBIGSFR_5h        10      0       0      0.0%
BITBIGSFRlh          8      0       0      0.0%
BITBIGSFRh           7      0       0      0.0%
BITBIGSFR_2          6      0       0      0.0%
BITBIGSFR_4          3      0       0      0.0%
BITBIGSFR_3          3      0       0      0.0%
BITBIGSFR_5l         2      0       0      0.0%
BITBIGSFR_1lh        1      0       0      0.0%
STACK                0      0       0      0.0%
DATA                 0      0     326      0.0%


Microchip Technology PIC18 Macro Assembler V3.00 build 20241204225717 
Symbol Table                                                                                   Thu Nov 27 12:49:02 2025

                               l90 131E                                 l96 135A  
                               l99 134C                                 bsr 0FE0  
                              l102 1302                                l105 12E0  
                              l126 11DE                                l134 0FDE  
                              l217 1364                                _PR2 0FCB  
                              _pad 0E6E                                wreg 0FE8  
                 ??_button_pressed 0001              ?_Interrupt_Initialize 0001  
                             l1017 1290                               l2061 1194  
                             l2053 115C                               l2055 1160  
                             l2057 117E                               l2059 1186  
                             l1801 12F8                               l1803 12FA  
                             l1805 12FC                               l1831 11D6  
                             l1807 12FE                               l1825 11A8  
                             l1833 1262                               l1809 1300  
                             l1827 11B6                               l1819 119E  
                             l1835 1266                               l1771 1306  
                             l1851 12D6                               l1829 11BA  
                             l1773 130A                               l1781 134E  
                             l1853 12DA                               l1845 12BE  
                             l1871 0F78                               l1775 130C  
                             l1783 1352                               l1791 12EC  
                             l1855 12DE                               l1847 12CE  
                             l1873 0F98                               l1777 131A  
                             l1769 1304                               l1785 1356  
                             l1793 12F0                               l1849 12D2  
                             l1875 0FAC                               l1779 131C  
                             l1787 133A                               l1795 12F2  
                             l1877 0FBC                               l1885 0FCE  
                             l1797 12F4                               l1789 12E2  
                             ?_pad 0011                               l1887 0FD6  
                             l1879 0FC0                               l1799 12F6  
                             STR_1 0601                               STR_2 0601  
                             STR_3 0601                               STR_4 0601  
                             STR_5 0601                               STR_6 0601  
                             STR_7 0601                               STR_8 0601  
                             STR_9 0601                               _CREN 7D5C  
                             u1150 11D6                               u1151 11D2  
                             u1160 1290                               u1161 128C  
                             u1190 0F98                               u1191 0F94  
                             _LATC 0F8B                               _LATD 0F8C  
                             u1480 117E                               u1481 117A  
                             u1490 1194                               u1491 1190  
                             _RCIF 7CF5                               _TMR1 0FCE  
                             _dbuf 004F                               _main 115C  
                             _prec 0047                               pad@i 0017  
                             pad@p 0014                               fsr1h 0FE2  
                             fsr2h 0FDA                               indf1 0FE7  
                             indf2 0FDF                               fsr1l 0FE1  
                             fsr2l 0FD9                               btemp 006F  
                             _utoa 0B62                               prodh 0FF4  
                             prodl 0FF3                               start 0088  
                  __end_ofi2_putch 110C                    MyusartRead@data 0082  
                     ___param_bank 0000         ?_variable_register_changed 0035  
                            ??_pad 0016                   ?_UART_Initialize 0001  
                            ?_main 0001                              STR_10 0601  
                            STR_11 0601                              STR_12 0601  
                            ?_utoa 0019                    __end_of___lwdiv 0F78  
                            i1l111 100A                              i1l120 1040  
                            i1l121 1044                              i1l114 101C  
                            i1l130 115A                              i1l220 1366  
                            i1l118 1032                              i1l235 0070  
                            i2l111 10D0                              i2l120 1106  
                  __end_of___lwmod 10AA                              i2l121 110A  
                            i2l114 10E2                              i2l141 1362  
                            i2l118 10F8                              i2l214 0A00  
                            i2l227 0D9E                              i2l177 1368  
                            i2l746 0F76                              i2l739 0F6E  
                            i2l756 10A8                              i2l749 10A0  
                            i2l926 1338                              i2l944 0EA2  
                            i2l963 0E64                              i2l947 0EE4  
                            i2l949 0F02                              i2l967 0E6C  
                            i2l959 0C3E                              i2l991 1220  
                            i2l984 0B60                              _RCREG 0FAE  
                     vfpfcnvrt@fmt 0024                              _H_ISR 0008  
                            _SPBRG 0FAF                              _TRISB 0F93  
                            _TRISD 0F95                              _TXREG 0FAD  
                            _flags 004D                read_prec_or_width@c 0005  
              read_prec_or_width@n 0006                              _fputc 0C40  
                            _fputs 1222                              pad@fp 0011  
                            _width 0045                    __end_of_set_LED 1364  
                            _putch 0FE0                        _ClearBuffer 119E  
                            tablat 0FF5                              ttemp5 0070  
                            ttemp6 0073                              ttemp7 0077  
                            utoa@d 001B                              utoa@i 0020  
                            utoa@p 001D                              utoa@w 001E  
                            status 0FD8                              wtemp8 0070  
                  __initialization 1292                       __end_of_main 119E  
                     __end_of_utoa 0C40                         _Initialize 12BE  
                           ??_main 008F                             ??_utoa 001D  
                    __activetblptr 0002              __end_of_IO_Initialize 135C  
                           ?_H_ISR 0001             ??_Interrupt_Initialize 0088  
       __end_of_read_prec_or_width 0E6E                             ?_fputc 0002  
                           ?_fputs 000B                             _ADRESH 0FC4  
                           _ADRESL 0FC3                             _CCPR1L 0FBE  
                           ?_putch 0001                             i1l2041 0050  
                           i1l2043 0054                             i1l2035 002E  
                           i1l2045 0062                             i1l2037 003C  
                           i1l2047 0066                             i1l2039 004A  
                           i1l2049 006E                             i2l1003 0D08  
                           i2l1011 1260                             i1l1811 0FE4  
                           i1l1813 0FF8                             i1l1815 1018  
                           i2l2001 09C8                             i1l1817 102A  
                           i2l2003 09DC                             i2l2011 0D34  
                           i2l2005 09E8                             i2l2013 0D42  
                           i2l2021 0D72                             i1l1861 112A  
                           i2l2007 09F8                             i2l2031 0D9A  
                           i2l2023 0D80                             i2l2015 0D54  
                           i2l2033 0D9C                             i2l2025 0D82  
                           i2l2017 0D60                             i1l1865 1140  
                           i1l1857 110C                             i2l2027 0D86  
                           i2l2019 0D62                             i1l1867 1150  
                           i1l1859 1110                             i2l2029 0D96  
                           i1l1869 1154                             i2l1601 122E  
                           i2l1611 0F1E                             i2l1603 1240  
                           i2l1701 0E36                             i2l1621 0F58  
                           i2l1613 0F26                             i2l1605 1244  
                           i2l1703 0E3E                             i2l1623 0F60  
                           i2l1615 0F2E                             i2l1607 0F04  
                           i2l1631 1058                             i2l1711 0A38  
                           i2l1625 0F62                             i2l1617 0F3C  
                           i2l1609 0F0C                             i2l1641 1094  
                           i2l1633 1060                             i2l1713 0A3C  
                           i2l1705 0A02                             i2l1627 0F68  
                           i2l1619 0F42                             i2l1643 109A  
                           i2l1635 1068                             i2l1651 0E9A  
                           i2l1731 0AA8                             i2l1723 0A58  
                           i2l1715 0A42                             i2l1707 0A24  
                           i2l1637 1076                             i2l1629 1046  
                           i2l1581 10DE                             i2l1653 0EAE  
                           i2l1645 0E6E                             i2l1661 0B62  
                           i2l1741 0AFE                             i2l1733 0AB2  
                           i2l1717 0A44                             i2l1725 0A76  
                           i2l1709 0A2C                             i2l1901 0664  
                           i2l1639 108C                             i2l1583 10F0  
                           i2l1591 0C6E                             i2l1655 0EC2  
                           i2l1647 0E7C                             i2l1671 0BA4  
                           i2l1663 0B66                             i2l1735 0ABC  
                           i2l1727 0A86                             i2l1719 0A50  
                           i2l1903 0680                             i2l1911 06BC  
                           i2l1577 10AC                             i2l1593 0C8C  
                           i2l1585 0C40                             i2l1657 0EC6  
                           i2l1649 0E8C                             i2l1681 0BEC  
                           i2l1673 0BA6                             i2l1665 0B76  
                           i2l1737 0AD8                             i2l1729 0A9A  
                           i2l1753 0B3A                             i2l1761 11E8  
                           i2l1841 1324                             i2l1913 06D2  
                           i2l1921 070E                             i2l1905 0694  
                           i2l1691 0DCA                             i2l1579 10BE  
                           i2l1595 0CC2                             i2l1587 0C52  
                           i2l1659 0EF2                             i2l1683 0BFC  
                           i2l1675 0BAC                             i2l1667 0B7C  
                           i2l1747 0B16                             i2l1739 0AF0  
                           i2l1763 11FC                             i2l1923 072A  
                           i2l1931 0766                             i2l1915 06E6  
                           i2l1907 06A0                             i2l1693 0DD2  
                           i2l1589 0C64                             i2l1685 0C16  
                           i2l1669 0B82                             i2l1677 0BC8  
                           i2l1749 0B2E                             i2l1765 1218  
                           i2l1837 135C                             i2l1933 0782  
                           i2l1941 07BE                             i2l1925 073E  
                           i2l1917 06F2                             i2l1909 06B0  
                           i2l1695 0DF4                             i2l1599 1222  
                           i2l1679 0BDA                             i2l1687 0C24  
                           i2l1759 11E0                             i2l1839 1320  
                           i2l1943 07D6                             i2l1951 0812  
                           i2l1935 0796                             i2l1927 074A  
                           i2l1919 0702                             i2l1697 0DFC  
                           i2l1953 082E                             i2l1961 086A  
                           i2l1945 07EA                             i2l1937 07A2  
                           i2l1929 075A                             i2l1699 0E18  
                           i2l1963 0886                             i2l1971 08C2  
                           i2l1955 0842                             i2l1947 07F6  
                           i2l1939 07B2                             i2l1891 060C  
                           i2l1973 08DC                             i2l1981 0918  
                           i2l1965 089A                             i2l1957 084E  
                           i2l1949 0806                             i2l1893 0628  
                           i2l1983 0934                             i2l1991 0970  
                           i2l1975 08F0                             i2l1967 08A6  
                           i2l1959 085E                             i2l1895 063C  
                           i2l1993 098C                             i2l1985 0948  
                           i2l1977 08FC                             i2l1969 08B6  
                           i2l1897 0648                             i2l1995 09A0  
                           i2l1987 0954                             i2l1979 090C  
                           i2l1899 0658                             i2l1997 09AC  
                           i2l1989 0964                             i2l1999 09BC  
                    vfpfcnvrt@done 002A                          ??i2_putch 0001  
                           _Lo_ISR 0018                       vfprintf@cfmt 0030  
                        ??___lwdiv 0005                _current_servo_angle 0049  
                        ??___lwmod 0005                             _buffer 0100  
             read_prec_or_width@ap 0002                  keyboard_input@str 0088  
                           clear_0 1298                             clear_1 12AA  
                           isa$std 0001                             _printf 1320  
                           pad@buf 0013                             _strcpy 1262  
                           fputc@c 0002                             fputs@c 000E  
                           fputs@i 000F                             fputs@s 000B  
                        ??_set_LED 0003                       __mediumconst 0600  
                           tblptrh 0FF7                             tblptrl 0FF6  
                           tblptru 0FF8                   __end_of_vfprintf 1222  
                           utoa@fp 0019                         __accesstop 0080  
          __end_of__initialization 12B0                      ___rparam_used 0001  
                    __end_of_H_ISR 0DCA                  __end_of_GetString 0FE0  
                   __pcstackCOMRAM 0001                      __end_of_fputc 0D0A  
                    __end_of_fputs 1262                        ?_Initialize 0001  
                    __end_of_putch 1046                            ??_H_ISR 0037  
                      i2putch@data 0001                      ??_MyusartRead 0081  
                          ??_fputc 0006                            ??_fputs 000E  
                          ??_putch 0080                         __pbssBANK0 00F3  
                       __pbssBANK1 0100                            ?_Lo_ISR 0001  
      ??_variable_register_changed 0037                            ?_printf 0031  
                          ?_strcpy 0088                            i2u80_40 10DE  
                          i2u80_41 10DA                            i2u81_40 10F0  
                          i2u81_41 10EC                            i2u90_40 0F58  
                          i2u82_40 1106                            i2u90_41 0F54  
                          i2u82_41 1102                            i2u91_40 1058  
                          i2u83_40 0C52                            i2u91_41 1054  
                          i2u83_41 0C4E                            i2u92_40 1076  
                          i2u84_40 0C64                            i2u92_41 1072  
                          i2u84_41 0C60                            i2u93_40 108C  
                          i2u85_40 0C8C                            i2u93_41 1088  
                          i2u85_41 0C88                            i2u78_40 10BE  
                          i2u86_40 0CC2                            i2u94_40 0E7C  
                          i2u78_41 10BA                            i2u86_41 0CBE  
                          i2u94_41 0E78                            i2u79_40 10D0  
                          i2u87_40 1260                            i2u95_40 0E9A  
                          i2u79_41 10CC                            i2u87_41 125C  
                          i2u95_41 0E96                            i2u88_40 0F1E  
                          i2u96_40 0EE4                            i2u88_41 0F1A  
                          i2u96_41 0EE0                            i2u89_40 0F3C  
                          i2u97_40 0EF2                            i2u89_41 0F38  
                          i2u97_41 0EEE                            i2u98_40 0BDA  
                          i2u98_41 0BD6                            i2u99_40 0BEC  
                          i2u99_41 0BE8                         _btn_interr 004E  
                     ?_ClearBuffer 0001                __end_of_MyusartRead 115C  
                          i2_putch 10AA                            __Hparam 0000  
                          __Lparam 0000                            ___lwdiv 0F04  
                          ___lwmod 1046                          ?_vfprintf 002C  
                     __psmallconst 0600                            __pcinit 1292  
                          __ramtop 0600                            __ptext0 115C  
                          __ptext1 1364                            __ptext2 12BE  
                          __ptext3 12E2                            __ptext4 133A  
                          __ptext5 134E                            __ptext6 1304  
                          __ptext7 0F78                            __ptext8 1262  
                          __ptext9 119E                          _T1CONbits 0FCD  
                        _T2CONbits 0FCA              read_prec_or_width@fmt 0001  
                          _set_LED 135C          _variable_register_changed 060C  
                          main@str 008F                     __pintcode_body 0D0A  
             end_of_initialization 12B0                            fputc@fp 0004  
                    __Lmediumconst 0000                            int_func 0D0A  
                          fputs@fp 000C                 _read_prec_or_width 0DCA  
                __end_of_vfpfcnvrt 0B62                          _RCSTAbits 0FAB  
                          postdec2 0FDD                ?_read_prec_or_width 0001  
                          postinc0 0FEE                            postinc1 0FE6  
                          postinc2 0FDE                   vfpfcnvrt@convarg 0026  
                       ??_vfprintf 0030                            strcpy@d 008B  
                        _TRISAbits 0F92                          _TRISCbits 0F94  
                      _MyusartRead 110C               ??_read_prec_or_width 0003  
       __end_of_timer1_interrupted 1368                        _CCP1CONbits 0FBD  
                        _TXSTAbits 0FAC                     __end_of_Lo_ISR 0088  
                        _GetString 0F78                       ??_Initialize 0088  
                      vfpfcnvrt@ap 0025                        vfpfcnvrt@cp 002B  
                      vfpfcnvrt@fp 0022                        _BAUDCONbits 0FB8  
                   _ADC_Initialize 1304                     __end_of_printf 133A  
                   __end_of_strcpy 1292                start_initialization 1292  
                      __end_of_pad 0F04                       ClearBuffer@i 0088  
                ??_UART_Initialize 0088                 __end_of_Initialize 12E2  
                         ??_Lo_ISR 0083                        vfprintf@fmt 002E  
                     set_LED@value 0001             __end_of_ADC_Initialize 1320  
                       ?_GetString 008C                           ??_printf 0034  
                   _keyboard_input 1364                           ??_strcpy 008B  
                    _IO_Initialize 134E                        __pbssCOMRAM 0045  
                    __pcstackBANK0 0080                           ?i2_putch 0001  
                   _button_pressed 1368                   ___lwdiv@dividend 0001  
                        __pintcode 0008                           ?___lwdiv 0001  
                         ?___lwmod 0001             __end_of_keyboard_input 1366  
                  ?_ADC_Initialize 0001                        __pintcodelo 0018  
                       H_ISR@value 0043                        __smallconst 0600  
                   ?_IO_Initialize 0001                           ?_set_LED 0001  
                 ___lwdiv@quotient 0005             __end_of_button_pressed 136A  
                         _IPR1bits 0F9F                           _PIE1bits 0F9D  
                         i1u110_20 0FF8                           i1u110_21 0FF4  
                         i1u111_20 100A                           i1u111_21 1006  
                         i1u112_20 1018                           i1u112_21 1014  
                         i1u113_20 102A                           i1u113_21 1026  
                         i1u114_20 1040                           i1u114_21 103C  
                         i1u117_20 112A                           i1u117_21 1126  
                         i1u118_20 113C                           i1u118_21 1138  
                         i1u145_20 003C                           i1u145_21 0038  
                         i1u146_20 004A                           i1u146_21 0046  
                         i1u147_20 0062                           i1u147_21 005E  
                         i2u100_40 0BFC                           i2u100_41 0BF8  
                         i2u101_40 0C16                           i2u101_41 0C12  
                         i2u102_40 0C24                           i2u102_41 0C20  
                         i2u103_40 0DF4                           i2u103_41 0DF0  
                         i2u104_40 0E64                           i2u120_40 0628  
                         i2u104_41 0E60                           i2u120_41 0624  
                         i2u105_40 0A24                           i2u121_40 063C  
                         i2u105_41 0A20                           i2u121_41 0638  
                         i2u106_40 0A86                           i2u130_40 07D6  
                         i2u122_40 0680                           i2u106_41 0A82  
                         i2u130_41 07D2                           i2u122_41 067C  
                         i2u107_40 0AA8                           i2u131_40 07EA  
                         i2u123_40 0694                           i2u107_41 0AA4  
                         i2u131_41 07E6                           i2u123_41 0690  
                         i2u108_40 0AD8                           i2u140_40 098C  
                         i2u132_40 082E                           i2u124_40 06D2  
                         i2u108_41 0AD4                           i2u140_41 0988  
                         i2u132_41 082A                           i2u124_41 06CE  
                         i2u109_40 1218                           i2u141_40 09A0  
                         i2u133_40 0842                           i2u125_40 06E6  
                         i2u109_41 1214                           i2u141_41 099C  
                         i2u133_41 083E                           i2u125_41 06E2  
                         i2u142_40 09DC                           i2u134_40 0886  
                         i2u126_40 072A                           i2u142_41 09D8  
                         i2u134_41 0882                           i2u126_41 0726  
                         i2u150_47 0D68                           i2u135_40 089A  
                         i2u127_40 073E                           i2u143_40 0D42  
                         i2u135_41 0896                           i2u127_41 073A  
                         i2u143_41 0D3E                           i2u151_47 0D8C  
                         i2u136_40 08DC                           i2u128_40 0782  
                         i2u144_40 0D80                           i2u136_41 08D8  
                         i2u128_41 077E                           i2u144_41 0D7C  
                         i2u137_40 08F0                           i2u129_40 0796  
                         i2u137_41 08EC                           i2u129_41 0792  
                         i2u138_40 0934                           i2u138_41 0930  
                         i2u139_40 0948                           i2u139_41 0944  
                         _PIR1bits 0F9E                        _buffer_size 00F3  
__end_of_variable_register_changed 0A02                           _RCONbits 0FD0  
                      ??_GetString 008E                    ?_keyboard_input 0088  
                        _vfpfcnvrt 0A02                         _ADCON0bits 0FC2  
                       _ADCON1bits 0FC1                         _ADCON2bits 0FC0  
                     ?_MyusartRead 0001                    ?_button_pressed 0001  
                         __Hrparam 0000                 _timer1_interrupted 1366  
     __end_of_Interrupt_Initialize 134E                         vfprintf@ap 002F  
                         __Lrparam 0000                         vfprintf@fp 002C  
              ?_timer1_interrupted 0001                         ?_vfpfcnvrt 0022  
                  ??_IO_Initialize 0088                    _UART_Initialize 12E2  
                  ___lwdiv@divisor 0003                    ___lwdiv@counter 0007  
                         __ptext11 1366                           __ptext20 0B62  
                         __ptext12 110C                           __ptext21 0E6E  
                         __ptext13 0FE0                           __ptext22 1222  
                         __ptext23 0C40                           __ptext15 060C  
                         __ptext24 10AA                           __ptext16 135C  
                         __ptext25 1046                           __ptext17 1320  
                         __ptext26 0F04                           __ptext18 11E0  
                         __ptext27 0DCA                           __ptext19 0A02  
                         __ptext28 1368                       GetString@str 008C  
             ??_timer1_interrupted 0080                         strcpy@dest 0088  
                     _pre_radc_val 004B     variable_register_changed@value 0035  
                         isa$xinst 0000                           int$flags 006F  
                         _vfprintf 11E0                          printf@fmt 0031  
                        putch@data 0080                         _INTCONbits 0FF2  
                    ??_ClearBuffer 0088                           intlevel1 0000  
                         intlevel2 0000                   ___lwmod@dividend 0001  
                        strcpy@src 0089                   ??_ADC_Initialize 0088  
                       _OSCCONbits 0FD3                           printf@ap 0034  
          __end_of_UART_Initialize 1304                        ??_vfpfcnvrt 0026  
                  ___lwmod@divisor 0003                    ___lwmod@counter 0005  
             _Interrupt_Initialize 133A                __end_of_ClearBuffer 11E0  
                 ??_keyboard_input 0089  
