

Microchip MPLAB XC8 Assembler V3.00 build 20241204225717 
                                                                                               Sun Dec 14 18:03:38 2025

Microchip MPLAB XC8 C Compiler v3.00 (Free license) build 20241204225717 Og1 
     1                           	processor	18F4520
     2                           	fnconf	rparam,??,?,0
     3                           	pagewidth 120
     4                           	opt	flic
     5                           	psect	smallconst,global,reloc=2,class=SMALLCONST,space=0,delta=1,noexec
     6                           	psect	cinit,global,reloc=2,class=CODE,space=0,delta=1
     7                           	psect	bssCOMRAM,global,class=COMRAM,space=1,delta=1,lowdata,noexec
     8                           	psect	bssBANK0,global,class=BANK0,space=1,delta=1,lowdata,noexec
     9                           	psect	cstackCOMRAM,global,class=COMRAM,space=1,delta=1,lowdata,noexec
    10                           	psect	text0,global,reloc=2,class=CODE,space=0,delta=1
    11                           	psect	text1,global,reloc=2,class=CODE,space=0,delta=1
    12                           	psect	text2,global,reloc=2,class=CODE,space=0,delta=1
    13                           	psect	text3,global,reloc=2,class=CODE,space=0,delta=1
    14                           	psect	text4,global,reloc=2,class=CODE,space=0,delta=1
    15                           	psect	text5,global,reloc=2,class=CODE,space=0,delta=1
    16                           	psect	text6,global,reloc=2,class=CODE,space=0,delta=1,group=3
    17                           	psect	text7,global,reloc=2,class=CODE,space=0,delta=1,group=1
    18                           	psect	text8,global,reloc=2,class=CODE,space=0,delta=1,group=1
    19                           	psect	text9,global,reloc=2,class=CODE,space=0,delta=1,group=3
    20                           	psect	text10,global,reloc=2,class=CODE,space=0,delta=1
    21                           	psect	text11,global,reloc=2,class=CODE,space=0,delta=1,group=3
    22                           	psect	text12,global,reloc=2,class=CODE,space=0,delta=1,group=2
    23                           	psect	text13,global,reloc=2,class=CODE,space=0,delta=1,group=2
    24                           	psect	text14,global,reloc=2,class=CODE,space=0,delta=1,group=2
    25                           	psect	text15,global,reloc=2,class=CODE,space=0,delta=1,group=2
    26                           	psect	text16,global,reloc=2,class=CODE,space=0,delta=1
    27                           	psect	text17,global,reloc=2,class=CODE,space=0,delta=1
    28                           	psect	text18,global,reloc=2,class=CODE,space=0,delta=1
    29                           	psect	text19,global,reloc=2,class=CODE,space=0,delta=1
    30                           	psect	text20,global,reloc=2,class=CODE,space=0,delta=1
    31                           	psect	text21,global,reloc=2,class=CODE,space=0,delta=1
    32                           	psect	text22,global,reloc=2,class=CODE,space=0,delta=1
    33                           	psect	text23,global,reloc=2,class=CODE,space=0,delta=1
    34                           	psect	text24,global,reloc=2,class=CODE,space=0,delta=1
    35                           	psect	text25,global,reloc=2,class=CODE,space=0,delta=1
    36                           	psect	text26,global,reloc=2,class=CODE,space=0,delta=1
    37                           	psect	text27,global,reloc=2,class=CODE,space=0,delta=1
    38                           	psect	intcodelo,global,reloc=2,class=CODE,space=0,delta=1
    39                           	psect	text29,global,reloc=2,class=CODE,space=0,delta=1
    40                           	psect	intcode,global,reloc=2,class=CODE,space=0,delta=1
    41                           	psect	intcode_body,global,reloc=2,class=CODE,space=0,delta=1
    42                           	psect	text31,global,reloc=2,class=CODE,space=0,delta=1
    43                           	psect	text32,global,reloc=2,class=CODE,space=0,delta=1
    44                           	psect	intsave_regs,global,class=BIGRAM,space=1,delta=1,noexec
    45                           	psect	rparam,global,class=COMRAM,space=1,delta=1,noexec
    46                           	psect	temp,global,ovrld,common,class=COMRAM,space=1,delta=1,lowdata
    47                           	psect	idloc,global,abs,ovrld,class=IDLOC,space=5,delta=1,noexec
    48                           	psect	config,global,abs,ovrld,class=CONFIG,space=4,delta=1,noexec
    49   000000                     
    50                           ; Generated 05/12/2024 GMT
    51                           ; 
    52                           ; Copyright © 2024, Microchip Technology Inc. and its subsidiaries ("Microchip")
    53                           ; All rights reserved.
    54                           ; 
    55                           ; This software is developed by Microchip Technology Inc. and its subsidiaries ("Microch
      +                          ip").
    56                           ; 
    57                           ; Redistribution and use in source and binary forms, with or without modification, are
    58                           ; permitted provided that the following conditions are met:
    59                           ; 
    60                           ;     1. Redistributions of source code must retain the above copyright notice, this lis
      +                          t of
    61                           ;        conditions and the following disclaimer.
    62                           ; 
    63                           ;     2. Redistributions in binary form must reproduce the above copyright notice, this 
      +                          list
    64                           ;        of conditions and the following disclaimer in the documentation and/or other
    65                           ;        materials provided with the distribution. Publication is not required when
    66                           ;        this file is used in an embedded application.
    67                           ; 
    68                           ;     3. Microchip's name may not be used to endorse or promote products derived from th
      +                          is
    69                           ;        software without specific prior written permission.
    70                           ; 
    71                           ; THIS SOFTWARE IS PROVIDED BY MICROCHIP "AS IS" AND ANY EXPRESS OR IMPLIED WARRANTIES,
    72                           ; INCLUDING, BUT NOT LIMITED TO, THE IMPLIED WARRANTIES OF MERCHANTABILITY AND FITNESS F
      +                          OR
    73                           ; PURPOSE ARE DISCLAIMED.  IN NO EVENT SHALL MICROCHIP BE LIABLE FOR ANY DIRECT, INDIREC
      +                          T,
    74                           ; INCIDENTAL, SPECIAL, EXEMPLARY, OR CONSEQUENTIAL DAMAGES (INCLUDING BUT NOT LIMITED TO
    75                           ; PROCUREMENT OF SUBSTITUTE GOODS OR SERVICES; LOSS OF USE, DATA OR PROFITS; OR BUSINESS
    76                           ; INTERRUPTION) HOWSOEVER CAUSED AND ON ANY THEORY OF LIABILITY, WHETHER IN CONTRACT, ST
      +                          RICT
    77                           ; LIABILITY, OR TORT (INCLUDING NEGLIGENCE OR OTHERWISE) ARISING IN ANY WAY OUT OF THE U
      +                          SE OF
    78                           ; THIS SOFTWARE, EVEN IF ADVISED OF THE POSSIBILITY OF SUCH DAMAGE.
    79                           ; 
    80                           ; 
    81                           ; Code-generator required, PIC18F4520 Definitions
    82                           ; 
    83                           ; SFR Addresses
    84   000FE0                     bsr             equ	4064
    85   000FE9                     fsr0            equ	4073
    86   000FEA                     fsr0h           equ	4074
    87   000FE9                     fsr0l           equ	4073
    88   000FE1                     fsr1            equ	4065
    89   000FE2                     fsr1h           equ	4066
    90   000FE1                     fsr1l           equ	4065
    91   000FD9                     fsr2            equ	4057
    92   000FDA                     fsr2h           equ	4058
    93   000FD9                     fsr2l           equ	4057
    94   000FEF                     indf0           equ	4079
    95   000FE7                     indf1           equ	4071
    96   000FDF                     indf2           equ	4063
    97   000FF2                     intcon          equ	4082
    98   000000                     nvmcon          equ	0
    99   000FF9                     pcl             equ	4089
   100   000FFA                     pclath          equ	4090
   101   000FFB                     pclatu          equ	4091
   102   000FEB                     plusw0          equ	4075
   103   000FE3                     plusw1          equ	4067
   104   000FDB                     plusw2          equ	4059
   105   000FED                     postdec0        equ	4077
   106   000FE5                     postdec1        equ	4069
   107   000FDD                     postdec2        equ	4061
   108   000FEE                     postinc0        equ	4078
   109   000FE6                     postinc1        equ	4070
   110   000FDE                     postinc2        equ	4062
   111   000FEC                     preinc0         equ	4076
   112   000FE4                     preinc1         equ	4068
   113   000FDC                     preinc2         equ	4060
   114   000FF3                     prod            equ	4083
   115   000FF4                     prodh           equ	4084
   116   000FF3                     prodl           equ	4083
   117   000FD8                     status          equ	4056
   118   000FF5                     tablat          equ	4085
   119   000FF6                     tblptr          equ	4086
   120   000FF7                     tblptrh         equ	4087
   121   000FF6                     tblptrl         equ	4086
   122   000FF8                     tblptru         equ	4088
   123   000FFD                     tosl            equ	4093
   124   000FE8                     wreg            equ	4072
   125   000F80                     PORTA           equ	3968	;# 
   126   000F81                     PORTB           equ	3969	;# 
   127   000F82                     PORTC           equ	3970	;# 
   128   000F83                     PORTD           equ	3971	;# 
   129   000F84                     PORTE           equ	3972	;# 
   130   000F89                     LATA            equ	3977	;# 
   131   000F8A                     LATB            equ	3978	;# 
   132   000F8B                     LATC            equ	3979	;# 
   133   000F8C                     LATD            equ	3980	;# 
   134   000F8D                     LATE            equ	3981	;# 
   135   000F92                     TRISA           equ	3986	;# 
   136   000F92                     DDRA            equ	3986	;# 
   137   000F93                     TRISB           equ	3987	;# 
   138   000F93                     DDRB            equ	3987	;# 
   139   000F94                     TRISC           equ	3988	;# 
   140   000F94                     DDRC            equ	3988	;# 
   141   000F95                     TRISD           equ	3989	;# 
   142   000F95                     DDRD            equ	3989	;# 
   143   000F96                     TRISE           equ	3990	;# 
   144   000F96                     DDRE            equ	3990	;# 
   145   000F9B                     OSCTUNE         equ	3995	;# 
   146   000F9D                     PIE1            equ	3997	;# 
   147   000F9E                     PIR1            equ	3998	;# 
   148   000F9F                     IPR1            equ	3999	;# 
   149   000FA0                     PIE2            equ	4000	;# 
   150   000FA1                     PIR2            equ	4001	;# 
   151   000FA2                     IPR2            equ	4002	;# 
   152   000FA6                     EECON1          equ	4006	;# 
   153   000FA7                     EECON2          equ	4007	;# 
   154   000FA8                     EEDATA          equ	4008	;# 
   155   000FA9                     EEADR           equ	4009	;# 
   156   000FAB                     RCSTA           equ	4011	;# 
   157   000FAB                     RCSTA1          equ	4011	;# 
   158   000FAC                     TXSTA           equ	4012	;# 
   159   000FAC                     TXSTA1          equ	4012	;# 
   160   000FAD                     TXREG           equ	4013	;# 
   161   000FAD                     TXREG1          equ	4013	;# 
   162   000FAE                     RCREG           equ	4014	;# 
   163   000FAE                     RCREG1          equ	4014	;# 
   164   000FAF                     SPBRG           equ	4015	;# 
   165   000FAF                     SPBRG1          equ	4015	;# 
   166   000FB0                     SPBRGH          equ	4016	;# 
   167   000FB1                     T3CON           equ	4017	;# 
   168   000FB2                     TMR3            equ	4018	;# 
   169   000FB2                     TMR3L           equ	4018	;# 
   170   000FB3                     TMR3H           equ	4019	;# 
   171   000FB4                     CMCON           equ	4020	;# 
   172   000FB5                     CVRCON          equ	4021	;# 
   173   000FB6                     ECCP1AS         equ	4022	;# 
   174   000FB6                     ECCPAS          equ	4022	;# 
   175   000FB7                     PWM1CON         equ	4023	;# 
   176   000FB7                     ECCP1DEL        equ	4023	;# 
   177   000FB8                     BAUDCON         equ	4024	;# 
   178   000FB8                     BAUDCTL         equ	4024	;# 
   179   000FBA                     CCP2CON         equ	4026	;# 
   180   000FBB                     CCPR2           equ	4027	;# 
   181   000FBB                     CCPR2L          equ	4027	;# 
   182   000FBC                     CCPR2H          equ	4028	;# 
   183   000FBD                     CCP1CON         equ	4029	;# 
   184   000FBE                     CCPR1           equ	4030	;# 
   185   000FBE                     CCPR1L          equ	4030	;# 
   186   000FBF                     CCPR1H          equ	4031	;# 
   187   000FC0                     ADCON2          equ	4032	;# 
   188   000FC1                     ADCON1          equ	4033	;# 
   189   000FC2                     ADCON0          equ	4034	;# 
   190   000FC3                     ADRES           equ	4035	;# 
   191   000FC3                     ADRESL          equ	4035	;# 
   192   000FC4                     ADRESH          equ	4036	;# 
   193   000FC5                     SSPCON2         equ	4037	;# 
   194   000FC6                     SSPCON1         equ	4038	;# 
   195   000FC7                     SSPSTAT         equ	4039	;# 
   196   000FC8                     SSPADD          equ	4040	;# 
   197   000FC9                     SSPBUF          equ	4041	;# 
   198   000FCA                     T2CON           equ	4042	;# 
   199   000FCB                     PR2             equ	4043	;# 
   200   000FCB                     MEMCON          equ	4043	;# 
   201   000FCC                     TMR2            equ	4044	;# 
   202   000FCD                     T1CON           equ	4045	;# 
   203   000FCE                     TMR1            equ	4046	;# 
   204   000FCE                     TMR1L           equ	4046	;# 
   205   000FCF                     TMR1H           equ	4047	;# 
   206   000FD0                     RCON            equ	4048	;# 
   207   000FD1                     WDTCON          equ	4049	;# 
   208   000FD2                     HLVDCON         equ	4050	;# 
   209   000FD2                     LVDCON          equ	4050	;# 
   210   000FD3                     OSCCON          equ	4051	;# 
   211   000FD5                     T0CON           equ	4053	;# 
   212   000FD6                     TMR0            equ	4054	;# 
   213   000FD6                     TMR0L           equ	4054	;# 
   214   000FD7                     TMR0H           equ	4055	;# 
   215   000FD8                     STATUS          equ	4056	;# 
   216   000FD9                     FSR2            equ	4057	;# 
   217   000FD9                     FSR2L           equ	4057	;# 
   218   000FDA                     FSR2H           equ	4058	;# 
   219   000FDB                     PLUSW2          equ	4059	;# 
   220   000FDC                     PREINC2         equ	4060	;# 
   221   000FDD                     POSTDEC2        equ	4061	;# 
   222   000FDE                     POSTINC2        equ	4062	;# 
   223   000FDF                     INDF2           equ	4063	;# 
   224   000FE0                     BSR             equ	4064	;# 
   225   000FE1                     FSR1            equ	4065	;# 
   226   000FE1                     FSR1L           equ	4065	;# 
   227   000FE2                     FSR1H           equ	4066	;# 
   228   000FE3                     PLUSW1          equ	4067	;# 
   229   000FE4                     PREINC1         equ	4068	;# 
   230   000FE5                     POSTDEC1        equ	4069	;# 
   231   000FE6                     POSTINC1        equ	4070	;# 
   232   000FE7                     INDF1           equ	4071	;# 
   233   000FE8                     WREG            equ	4072	;# 
   234   000FE9                     FSR0            equ	4073	;# 
   235   000FE9                     FSR0L           equ	4073	;# 
   236   000FEA                     FSR0H           equ	4074	;# 
   237   000FEB                     PLUSW0          equ	4075	;# 
   238   000FEC                     PREINC0         equ	4076	;# 
   239   000FED                     POSTDEC0        equ	4077	;# 
   240   000FEE                     POSTINC0        equ	4078	;# 
   241   000FEF                     INDF0           equ	4079	;# 
   242   000FF0                     INTCON3         equ	4080	;# 
   243   000FF1                     INTCON2         equ	4081	;# 
   244   000FF2                     INTCON          equ	4082	;# 
   245   000FF3                     PROD            equ	4083	;# 
   246   000FF3                     PRODL           equ	4083	;# 
   247   000FF4                     PRODH           equ	4084	;# 
   248   000FF5                     TABLAT          equ	4085	;# 
   249   000FF6                     TBLPTR          equ	4086	;# 
   250   000FF6                     TBLPTRL         equ	4086	;# 
   251   000FF7                     TBLPTRH         equ	4087	;# 
   252   000FF8                     TBLPTRU         equ	4088	;# 
   253   000FF9                     PCLAT           equ	4089	;# 
   254   000FF9                     PC              equ	4089	;# 
   255   000FF9                     PCL             equ	4089	;# 
   256   000FFA                     PCLATH          equ	4090	;# 
   257   000FFB                     PCLATU          equ	4091	;# 
   258   000FFC                     STKPTR          equ	4092	;# 
   259   000FFD                     TOS             equ	4093	;# 
   260   000FFD                     TOSL            equ	4093	;# 
   261   000FFE                     TOSH            equ	4094	;# 
   262   000FFF                     TOSU            equ	4095	;# 
   263   000F80                     PORTA           equ	3968	;# 
   264   000F81                     PORTB           equ	3969	;# 
   265   000F82                     PORTC           equ	3970	;# 
   266   000F83                     PORTD           equ	3971	;# 
   267   000F84                     PORTE           equ	3972	;# 
   268   000F89                     LATA            equ	3977	;# 
   269   000F8A                     LATB            equ	3978	;# 
   270   000F8B                     LATC            equ	3979	;# 
   271   000F8C                     LATD            equ	3980	;# 
   272   000F8D                     LATE            equ	3981	;# 
   273   000F92                     TRISA           equ	3986	;# 
   274   000F92                     DDRA            equ	3986	;# 
   275   000F93                     TRISB           equ	3987	;# 
   276   000F93                     DDRB            equ	3987	;# 
   277   000F94                     TRISC           equ	3988	;# 
   278   000F94                     DDRC            equ	3988	;# 
   279   000F95                     TRISD           equ	3989	;# 
   280   000F95                     DDRD            equ	3989	;# 
   281   000F96                     TRISE           equ	3990	;# 
   282   000F96                     DDRE            equ	3990	;# 
   283   000F9B                     OSCTUNE         equ	3995	;# 
   284   000F9D                     PIE1            equ	3997	;# 
   285   000F9E                     PIR1            equ	3998	;# 
   286   000F9F                     IPR1            equ	3999	;# 
   287   000FA0                     PIE2            equ	4000	;# 
   288   000FA1                     PIR2            equ	4001	;# 
   289   000FA2                     IPR2            equ	4002	;# 
   290   000FA6                     EECON1          equ	4006	;# 
   291   000FA7                     EECON2          equ	4007	;# 
   292   000FA8                     EEDATA          equ	4008	;# 
   293   000FA9                     EEADR           equ	4009	;# 
   294   000FAB                     RCSTA           equ	4011	;# 
   295   000FAB                     RCSTA1          equ	4011	;# 
   296   000FAC                     TXSTA           equ	4012	;# 
   297   000FAC                     TXSTA1          equ	4012	;# 
   298   000FAD                     TXREG           equ	4013	;# 
   299   000FAD                     TXREG1          equ	4013	;# 
   300   000FAE                     RCREG           equ	4014	;# 
   301   000FAE                     RCREG1          equ	4014	;# 
   302   000FAF                     SPBRG           equ	4015	;# 
   303   000FAF                     SPBRG1          equ	4015	;# 
   304   000FB0                     SPBRGH          equ	4016	;# 
   305   000FB1                     T3CON           equ	4017	;# 
   306   000FB2                     TMR3            equ	4018	;# 
   307   000FB2                     TMR3L           equ	4018	;# 
   308   000FB3                     TMR3H           equ	4019	;# 
   309   000FB4                     CMCON           equ	4020	;# 
   310   000FB5                     CVRCON          equ	4021	;# 
   311   000FB6                     ECCP1AS         equ	4022	;# 
   312   000FB6                     ECCPAS          equ	4022	;# 
   313   000FB7                     PWM1CON         equ	4023	;# 
   314   000FB7                     ECCP1DEL        equ	4023	;# 
   315   000FB8                     BAUDCON         equ	4024	;# 
   316   000FB8                     BAUDCTL         equ	4024	;# 
   317   000FBA                     CCP2CON         equ	4026	;# 
   318   000FBB                     CCPR2           equ	4027	;# 
   319   000FBB                     CCPR2L          equ	4027	;# 
   320   000FBC                     CCPR2H          equ	4028	;# 
   321   000FBD                     CCP1CON         equ	4029	;# 
   322   000FBE                     CCPR1           equ	4030	;# 
   323   000FBE                     CCPR1L          equ	4030	;# 
   324   000FBF                     CCPR1H          equ	4031	;# 
   325   000FC0                     ADCON2          equ	4032	;# 
   326   000FC1                     ADCON1          equ	4033	;# 
   327   000FC2                     ADCON0          equ	4034	;# 
   328   000FC3                     ADRES           equ	4035	;# 
   329   000FC3                     ADRESL          equ	4035	;# 
   330   000FC4                     ADRESH          equ	4036	;# 
   331   000FC5                     SSPCON2         equ	4037	;# 
   332   000FC6                     SSPCON1         equ	4038	;# 
   333   000FC7                     SSPSTAT         equ	4039	;# 
   334   000FC8                     SSPADD          equ	4040	;# 
   335   000FC9                     SSPBUF          equ	4041	;# 
   336   000FCA                     T2CON           equ	4042	;# 
   337   000FCB                     PR2             equ	4043	;# 
   338   000FCB                     MEMCON          equ	4043	;# 
   339   000FCC                     TMR2            equ	4044	;# 
   340   000FCD                     T1CON           equ	4045	;# 
   341   000FCE                     TMR1            equ	4046	;# 
   342   000FCE                     TMR1L           equ	4046	;# 
   343   000FCF                     TMR1H           equ	4047	;# 
   344   000FD0                     RCON            equ	4048	;# 
   345   000FD1                     WDTCON          equ	4049	;# 
   346   000FD2                     HLVDCON         equ	4050	;# 
   347   000FD2                     LVDCON          equ	4050	;# 
   348   000FD3                     OSCCON          equ	4051	;# 
   349   000FD5                     T0CON           equ	4053	;# 
   350   000FD6                     TMR0            equ	4054	;# 
   351   000FD6                     TMR0L           equ	4054	;# 
   352   000FD7                     TMR0H           equ	4055	;# 
   353   000FD8                     STATUS          equ	4056	;# 
   354   000FD9                     FSR2            equ	4057	;# 
   355   000FD9                     FSR2L           equ	4057	;# 
   356   000FDA                     FSR2H           equ	4058	;# 
   357   000FDB                     PLUSW2          equ	4059	;# 
   358   000FDC                     PREINC2         equ	4060	;# 
   359   000FDD                     POSTDEC2        equ	4061	;# 
   360   000FDE                     POSTINC2        equ	4062	;# 
   361   000FDF                     INDF2           equ	4063	;# 
   362   000FE0                     BSR             equ	4064	;# 
   363   000FE1                     FSR1            equ	4065	;# 
   364   000FE1                     FSR1L           equ	4065	;# 
   365   000FE2                     FSR1H           equ	4066	;# 
   366   000FE3                     PLUSW1          equ	4067	;# 
   367   000FE4                     PREINC1         equ	4068	;# 
   368   000FE5                     POSTDEC1        equ	4069	;# 
   369   000FE6                     POSTINC1        equ	4070	;# 
   370   000FE7                     INDF1           equ	4071	;# 
   371   000FE8                     WREG            equ	4072	;# 
   372   000FE9                     FSR0            equ	4073	;# 
   373   000FE9                     FSR0L           equ	4073	;# 
   374   000FEA                     FSR0H           equ	4074	;# 
   375   000FEB                     PLUSW0          equ	4075	;# 
   376   000FEC                     PREINC0         equ	4076	;# 
   377   000FED                     POSTDEC0        equ	4077	;# 
   378   000FEE                     POSTINC0        equ	4078	;# 
   379   000FEF                     INDF0           equ	4079	;# 
   380   000FF0                     INTCON3         equ	4080	;# 
   381   000FF1                     INTCON2         equ	4081	;# 
   382   000FF2                     INTCON          equ	4082	;# 
   383   000FF3                     PROD            equ	4083	;# 
   384   000FF3                     PRODL           equ	4083	;# 
   385   000FF4                     PRODH           equ	4084	;# 
   386   000FF5                     TABLAT          equ	4085	;# 
   387   000FF6                     TBLPTR          equ	4086	;# 
   388   000FF6                     TBLPTRL         equ	4086	;# 
   389   000FF7                     TBLPTRH         equ	4087	;# 
   390   000FF8                     TBLPTRU         equ	4088	;# 
   391   000FF9                     PCLAT           equ	4089	;# 
   392   000FF9                     PC              equ	4089	;# 
   393   000FF9                     PCL             equ	4089	;# 
   394   000FFA                     PCLATH          equ	4090	;# 
   395   000FFB                     PCLATU          equ	4091	;# 
   396   000FFC                     STKPTR          equ	4092	;# 
   397   000FFD                     TOS             equ	4093	;# 
   398   000FFD                     TOSL            equ	4093	;# 
   399   000FFE                     TOSH            equ	4094	;# 
   400   000FFF                     TOSU            equ	4095	;# 
   401   000F80                     PORTA           equ	3968	;# 
   402   000F81                     PORTB           equ	3969	;# 
   403   000F82                     PORTC           equ	3970	;# 
   404   000F83                     PORTD           equ	3971	;# 
   405   000F84                     PORTE           equ	3972	;# 
   406   000F89                     LATA            equ	3977	;# 
   407   000F8A                     LATB            equ	3978	;# 
   408   000F8B                     LATC            equ	3979	;# 
   409   000F8C                     LATD            equ	3980	;# 
   410   000F8D                     LATE            equ	3981	;# 
   411   000F92                     TRISA           equ	3986	;# 
   412   000F92                     DDRA            equ	3986	;# 
   413   000F93                     TRISB           equ	3987	;# 
   414   000F93                     DDRB            equ	3987	;# 
   415   000F94                     TRISC           equ	3988	;# 
   416   000F94                     DDRC            equ	3988	;# 
   417   000F95                     TRISD           equ	3989	;# 
   418   000F95                     DDRD            equ	3989	;# 
   419   000F96                     TRISE           equ	3990	;# 
   420   000F96                     DDRE            equ	3990	;# 
   421   000F9B                     OSCTUNE         equ	3995	;# 
   422   000F9D                     PIE1            equ	3997	;# 
   423   000F9E                     PIR1            equ	3998	;# 
   424   000F9F                     IPR1            equ	3999	;# 
   425   000FA0                     PIE2            equ	4000	;# 
   426   000FA1                     PIR2            equ	4001	;# 
   427   000FA2                     IPR2            equ	4002	;# 
   428   000FA6                     EECON1          equ	4006	;# 
   429   000FA7                     EECON2          equ	4007	;# 
   430   000FA8                     EEDATA          equ	4008	;# 
   431   000FA9                     EEADR           equ	4009	;# 
   432   000FAB                     RCSTA           equ	4011	;# 
   433   000FAB                     RCSTA1          equ	4011	;# 
   434   000FAC                     TXSTA           equ	4012	;# 
   435   000FAC                     TXSTA1          equ	4012	;# 
   436   000FAD                     TXREG           equ	4013	;# 
   437   000FAD                     TXREG1          equ	4013	;# 
   438   000FAE                     RCREG           equ	4014	;# 
   439   000FAE                     RCREG1          equ	4014	;# 
   440   000FAF                     SPBRG           equ	4015	;# 
   441   000FAF                     SPBRG1          equ	4015	;# 
   442   000FB0                     SPBRGH          equ	4016	;# 
   443   000FB1                     T3CON           equ	4017	;# 
   444   000FB2                     TMR3            equ	4018	;# 
   445   000FB2                     TMR3L           equ	4018	;# 
   446   000FB3                     TMR3H           equ	4019	;# 
   447   000FB4                     CMCON           equ	4020	;# 
   448   000FB5                     CVRCON          equ	4021	;# 
   449   000FB6                     ECCP1AS         equ	4022	;# 
   450   000FB6                     ECCPAS          equ	4022	;# 
   451   000FB7                     PWM1CON         equ	4023	;# 
   452   000FB7                     ECCP1DEL        equ	4023	;# 
   453   000FB8                     BAUDCON         equ	4024	;# 
   454   000FB8                     BAUDCTL         equ	4024	;# 
   455   000FBA                     CCP2CON         equ	4026	;# 
   456   000FBB                     CCPR2           equ	4027	;# 
   457   000FBB                     CCPR2L          equ	4027	;# 
   458   000FBC                     CCPR2H          equ	4028	;# 
   459   000FBD                     CCP1CON         equ	4029	;# 
   460   000FBE                     CCPR1           equ	4030	;# 
   461   000FBE                     CCPR1L          equ	4030	;# 
   462   000FBF                     CCPR1H          equ	4031	;# 
   463   000FC0                     ADCON2          equ	4032	;# 
   464   000FC1                     ADCON1          equ	4033	;# 
   465   000FC2                     ADCON0          equ	4034	;# 
   466   000FC3                     ADRES           equ	4035	;# 
   467   000FC3                     ADRESL          equ	4035	;# 
   468   000FC4                     ADRESH          equ	4036	;# 
   469   000FC5                     SSPCON2         equ	4037	;# 
   470   000FC6                     SSPCON1         equ	4038	;# 
   471   000FC7                     SSPSTAT         equ	4039	;# 
   472   000FC8                     SSPADD          equ	4040	;# 
   473   000FC9                     SSPBUF          equ	4041	;# 
   474   000FCA                     T2CON           equ	4042	;# 
   475   000FCB                     PR2             equ	4043	;# 
   476   000FCB                     MEMCON          equ	4043	;# 
   477   000FCC                     TMR2            equ	4044	;# 
   478   000FCD                     T1CON           equ	4045	;# 
   479   000FCE                     TMR1            equ	4046	;# 
   480   000FCE                     TMR1L           equ	4046	;# 
   481   000FCF                     TMR1H           equ	4047	;# 
   482   000FD0                     RCON            equ	4048	;# 
   483   000FD1                     WDTCON          equ	4049	;# 
   484   000FD2                     HLVDCON         equ	4050	;# 
   485   000FD2                     LVDCON          equ	4050	;# 
   486   000FD3                     OSCCON          equ	4051	;# 
   487   000FD5                     T0CON           equ	4053	;# 
   488   000FD6                     TMR0            equ	4054	;# 
   489   000FD6                     TMR0L           equ	4054	;# 
   490   000FD7                     TMR0H           equ	4055	;# 
   491   000FD8                     STATUS          equ	4056	;# 
   492   000FD9                     FSR2            equ	4057	;# 
   493   000FD9                     FSR2L           equ	4057	;# 
   494   000FDA                     FSR2H           equ	4058	;# 
   495   000FDB                     PLUSW2          equ	4059	;# 
   496   000FDC                     PREINC2         equ	4060	;# 
   497   000FDD                     POSTDEC2        equ	4061	;# 
   498   000FDE                     POSTINC2        equ	4062	;# 
   499   000FDF                     INDF2           equ	4063	;# 
   500   000FE0                     BSR             equ	4064	;# 
   501   000FE1                     FSR1            equ	4065	;# 
   502   000FE1                     FSR1L           equ	4065	;# 
   503   000FE2                     FSR1H           equ	4066	;# 
   504   000FE3                     PLUSW1          equ	4067	;# 
   505   000FE4                     PREINC1         equ	4068	;# 
   506   000FE5                     POSTDEC1        equ	4069	;# 
   507   000FE6                     POSTINC1        equ	4070	;# 
   508   000FE7                     INDF1           equ	4071	;# 
   509   000FE8                     WREG            equ	4072	;# 
   510   000FE9                     FSR0            equ	4073	;# 
   511   000FE9                     FSR0L           equ	4073	;# 
   512   000FEA                     FSR0H           equ	4074	;# 
   513   000FEB                     PLUSW0          equ	4075	;# 
   514   000FEC                     PREINC0         equ	4076	;# 
   515   000FED                     POSTDEC0        equ	4077	;# 
   516   000FEE                     POSTINC0        equ	4078	;# 
   517   000FEF                     INDF0           equ	4079	;# 
   518   000FF0                     INTCON3         equ	4080	;# 
   519   000FF1                     INTCON2         equ	4081	;# 
   520   000FF2                     INTCON          equ	4082	;# 
   521   000FF3                     PROD            equ	4083	;# 
   522   000FF3                     PRODL           equ	4083	;# 
   523   000FF4                     PRODH           equ	4084	;# 
   524   000FF5                     TABLAT          equ	4085	;# 
   525   000FF6                     TBLPTR          equ	4086	;# 
   526   000FF6                     TBLPTRL         equ	4086	;# 
   527   000FF7                     TBLPTRH         equ	4087	;# 
   528   000FF8                     TBLPTRU         equ	4088	;# 
   529   000FF9                     PCLAT           equ	4089	;# 
   530   000FF9                     PC              equ	4089	;# 
   531   000FF9                     PCL             equ	4089	;# 
   532   000FFA                     PCLATH          equ	4090	;# 
   533   000FFB                     PCLATU          equ	4091	;# 
   534   000FFC                     STKPTR          equ	4092	;# 
   535   000FFD                     TOS             equ	4093	;# 
   536   000FFD                     TOSL            equ	4093	;# 
   537   000FFE                     TOSH            equ	4094	;# 
   538   000FFF                     TOSU            equ	4095	;# 
   539   000F80                     PORTA           equ	3968	;# 
   540   000F81                     PORTB           equ	3969	;# 
   541   000F82                     PORTC           equ	3970	;# 
   542   000F83                     PORTD           equ	3971	;# 
   543   000F84                     PORTE           equ	3972	;# 
   544   000F89                     LATA            equ	3977	;# 
   545   000F8A                     LATB            equ	3978	;# 
   546   000F8B                     LATC            equ	3979	;# 
   547   000F8C                     LATD            equ	3980	;# 
   548   000F8D                     LATE            equ	3981	;# 
   549   000F92                     TRISA           equ	3986	;# 
   550   000F92                     DDRA            equ	3986	;# 
   551   000F93                     TRISB           equ	3987	;# 
   552   000F93                     DDRB            equ	3987	;# 
   553   000F94                     TRISC           equ	3988	;# 
   554   000F94                     DDRC            equ	3988	;# 
   555   000F95                     TRISD           equ	3989	;# 
   556   000F95                     DDRD            equ	3989	;# 
   557   000F96                     TRISE           equ	3990	;# 
   558   000F96                     DDRE            equ	3990	;# 
   559   000F9B                     OSCTUNE         equ	3995	;# 
   560   000F9D                     PIE1            equ	3997	;# 
   561   000F9E                     PIR1            equ	3998	;# 
   562   000F9F                     IPR1            equ	3999	;# 
   563   000FA0                     PIE2            equ	4000	;# 
   564   000FA1                     PIR2            equ	4001	;# 
   565   000FA2                     IPR2            equ	4002	;# 
   566   000FA6                     EECON1          equ	4006	;# 
   567   000FA7                     EECON2          equ	4007	;# 
   568   000FA8                     EEDATA          equ	4008	;# 
   569   000FA9                     EEADR           equ	4009	;# 
   570   000FAB                     RCSTA           equ	4011	;# 
   571   000FAB                     RCSTA1          equ	4011	;# 
   572   000FAC                     TXSTA           equ	4012	;# 
   573   000FAC                     TXSTA1          equ	4012	;# 
   574   000FAD                     TXREG           equ	4013	;# 
   575   000FAD                     TXREG1          equ	4013	;# 
   576   000FAE                     RCREG           equ	4014	;# 
   577   000FAE                     RCREG1          equ	4014	;# 
   578   000FAF                     SPBRG           equ	4015	;# 
   579   000FAF                     SPBRG1          equ	4015	;# 
   580   000FB0                     SPBRGH          equ	4016	;# 
   581   000FB1                     T3CON           equ	4017	;# 
   582   000FB2                     TMR3            equ	4018	;# 
   583   000FB2                     TMR3L           equ	4018	;# 
   584   000FB3                     TMR3H           equ	4019	;# 
   585   000FB4                     CMCON           equ	4020	;# 
   586   000FB5                     CVRCON          equ	4021	;# 
   587   000FB6                     ECCP1AS         equ	4022	;# 
   588   000FB6                     ECCPAS          equ	4022	;# 
   589   000FB7                     PWM1CON         equ	4023	;# 
   590   000FB7                     ECCP1DEL        equ	4023	;# 
   591   000FB8                     BAUDCON         equ	4024	;# 
   592   000FB8                     BAUDCTL         equ	4024	;# 
   593   000FBA                     CCP2CON         equ	4026	;# 
   594   000FBB                     CCPR2           equ	4027	;# 
   595   000FBB                     CCPR2L          equ	4027	;# 
   596   000FBC                     CCPR2H          equ	4028	;# 
   597   000FBD                     CCP1CON         equ	4029	;# 
   598   000FBE                     CCPR1           equ	4030	;# 
   599   000FBE                     CCPR1L          equ	4030	;# 
   600   000FBF                     CCPR1H          equ	4031	;# 
   601   000FC0                     ADCON2          equ	4032	;# 
   602   000FC1                     ADCON1          equ	4033	;# 
   603   000FC2                     ADCON0          equ	4034	;# 
   604   000FC3                     ADRES           equ	4035	;# 
   605   000FC3                     ADRESL          equ	4035	;# 
   606   000FC4                     ADRESH          equ	4036	;# 
   607   000FC5                     SSPCON2         equ	4037	;# 
   608   000FC6                     SSPCON1         equ	4038	;# 
   609   000FC7                     SSPSTAT         equ	4039	;# 
   610   000FC8                     SSPADD          equ	4040	;# 
   611   000FC9                     SSPBUF          equ	4041	;# 
   612   000FCA                     T2CON           equ	4042	;# 
   613   000FCB                     PR2             equ	4043	;# 
   614   000FCB                     MEMCON          equ	4043	;# 
   615   000FCC                     TMR2            equ	4044	;# 
   616   000FCD                     T1CON           equ	4045	;# 
   617   000FCE                     TMR1            equ	4046	;# 
   618   000FCE                     TMR1L           equ	4046	;# 
   619   000FCF                     TMR1H           equ	4047	;# 
   620   000FD0                     RCON            equ	4048	;# 
   621   000FD1                     WDTCON          equ	4049	;# 
   622   000FD2                     HLVDCON         equ	4050	;# 
   623   000FD2                     LVDCON          equ	4050	;# 
   624   000FD3                     OSCCON          equ	4051	;# 
   625   000FD5                     T0CON           equ	4053	;# 
   626   000FD6                     TMR0            equ	4054	;# 
   627   000FD6                     TMR0L           equ	4054	;# 
   628   000FD7                     TMR0H           equ	4055	;# 
   629   000FD8                     STATUS          equ	4056	;# 
   630   000FD9                     FSR2            equ	4057	;# 
   631   000FD9                     FSR2L           equ	4057	;# 
   632   000FDA                     FSR2H           equ	4058	;# 
   633   000FDB                     PLUSW2          equ	4059	;# 
   634   000FDC                     PREINC2         equ	4060	;# 
   635   000FDD                     POSTDEC2        equ	4061	;# 
   636   000FDE                     POSTINC2        equ	4062	;# 
   637   000FDF                     INDF2           equ	4063	;# 
   638   000FE0                     BSR             equ	4064	;# 
   639   000FE1                     FSR1            equ	4065	;# 
   640   000FE1                     FSR1L           equ	4065	;# 
   641   000FE2                     FSR1H           equ	4066	;# 
   642   000FE3                     PLUSW1          equ	4067	;# 
   643   000FE4                     PREINC1         equ	4068	;# 
   644   000FE5                     POSTDEC1        equ	4069	;# 
   645   000FE6                     POSTINC1        equ	4070	;# 
   646   000FE7                     INDF1           equ	4071	;# 
   647   000FE8                     WREG            equ	4072	;# 
   648   000FE9                     FSR0            equ	4073	;# 
   649   000FE9                     FSR0L           equ	4073	;# 
   650   000FEA                     FSR0H           equ	4074	;# 
   651   000FEB                     PLUSW0          equ	4075	;# 
   652   000FEC                     PREINC0         equ	4076	;# 
   653   000FED                     POSTDEC0        equ	4077	;# 
   654   000FEE                     POSTINC0        equ	4078	;# 
   655   000FEF                     INDF0           equ	4079	;# 
   656   000FF0                     INTCON3         equ	4080	;# 
   657   000FF1                     INTCON2         equ	4081	;# 
   658   000FF2                     INTCON          equ	4082	;# 
   659   000FF3                     PROD            equ	4083	;# 
   660   000FF3                     PRODL           equ	4083	;# 
   661   000FF4                     PRODH           equ	4084	;# 
   662   000FF5                     TABLAT          equ	4085	;# 
   663   000FF6                     TBLPTR          equ	4086	;# 
   664   000FF6                     TBLPTRL         equ	4086	;# 
   665   000FF7                     TBLPTRH         equ	4087	;# 
   666   000FF8                     TBLPTRU         equ	4088	;# 
   667   000FF9                     PCLAT           equ	4089	;# 
   668   000FF9                     PC              equ	4089	;# 
   669   000FF9                     PCL             equ	4089	;# 
   670   000FFA                     PCLATH          equ	4090	;# 
   671   000FFB                     PCLATU          equ	4091	;# 
   672   000FFC                     STKPTR          equ	4092	;# 
   673   000FFD                     TOS             equ	4093	;# 
   674   000FFD                     TOSL            equ	4093	;# 
   675   000FFE                     TOSH            equ	4094	;# 
   676   000FFF                     TOSU            equ	4095	;# 
   677   000F80                     PORTA           equ	3968	;# 
   678   000F81                     PORTB           equ	3969	;# 
   679   000F82                     PORTC           equ	3970	;# 
   680   000F83                     PORTD           equ	3971	;# 
   681   000F84                     PORTE           equ	3972	;# 
   682   000F89                     LATA            equ	3977	;# 
   683   000F8A                     LATB            equ	3978	;# 
   684   000F8B                     LATC            equ	3979	;# 
   685   000F8C                     LATD            equ	3980	;# 
   686   000F8D                     LATE            equ	3981	;# 
   687   000F92                     TRISA           equ	3986	;# 
   688   000F92                     DDRA            equ	3986	;# 
   689   000F93                     TRISB           equ	3987	;# 
   690   000F93                     DDRB            equ	3987	;# 
   691   000F94                     TRISC           equ	3988	;# 
   692   000F94                     DDRC            equ	3988	;# 
   693   000F95                     TRISD           equ	3989	;# 
   694   000F95                     DDRD            equ	3989	;# 
   695   000F96                     TRISE           equ	3990	;# 
   696   000F96                     DDRE            equ	3990	;# 
   697   000F9B                     OSCTUNE         equ	3995	;# 
   698   000F9D                     PIE1            equ	3997	;# 
   699   000F9E                     PIR1            equ	3998	;# 
   700   000F9F                     IPR1            equ	3999	;# 
   701   000FA0                     PIE2            equ	4000	;# 
   702   000FA1                     PIR2            equ	4001	;# 
   703   000FA2                     IPR2            equ	4002	;# 
   704   000FA6                     EECON1          equ	4006	;# 
   705   000FA7                     EECON2          equ	4007	;# 
   706   000FA8                     EEDATA          equ	4008	;# 
   707   000FA9                     EEADR           equ	4009	;# 
   708   000FAB                     RCSTA           equ	4011	;# 
   709   000FAB                     RCSTA1          equ	4011	;# 
   710   000FAC                     TXSTA           equ	4012	;# 
   711   000FAC                     TXSTA1          equ	4012	;# 
   712   000FAD                     TXREG           equ	4013	;# 
   713   000FAD                     TXREG1          equ	4013	;# 
   714   000FAE                     RCREG           equ	4014	;# 
   715   000FAE                     RCREG1          equ	4014	;# 
   716   000FAF                     SPBRG           equ	4015	;# 
   717   000FAF                     SPBRG1          equ	4015	;# 
   718   000FB0                     SPBRGH          equ	4016	;# 
   719   000FB1                     T3CON           equ	4017	;# 
   720   000FB2                     TMR3            equ	4018	;# 
   721   000FB2                     TMR3L           equ	4018	;# 
   722   000FB3                     TMR3H           equ	4019	;# 
   723   000FB4                     CMCON           equ	4020	;# 
   724   000FB5                     CVRCON          equ	4021	;# 
   725   000FB6                     ECCP1AS         equ	4022	;# 
   726   000FB6                     ECCPAS          equ	4022	;# 
   727   000FB7                     PWM1CON         equ	4023	;# 
   728   000FB7                     ECCP1DEL        equ	4023	;# 
   729   000FB8                     BAUDCON         equ	4024	;# 
   730   000FB8                     BAUDCTL         equ	4024	;# 
   731   000FBA                     CCP2CON         equ	4026	;# 
   732   000FBB                     CCPR2           equ	4027	;# 
   733   000FBB                     CCPR2L          equ	4027	;# 
   734   000FBC                     CCPR2H          equ	4028	;# 
   735   000FBD                     CCP1CON         equ	4029	;# 
   736   000FBE                     CCPR1           equ	4030	;# 
   737   000FBE                     CCPR1L          equ	4030	;# 
   738   000FBF                     CCPR1H          equ	4031	;# 
   739   000FC0                     ADCON2          equ	4032	;# 
   740   000FC1                     ADCON1          equ	4033	;# 
   741   000FC2                     ADCON0          equ	4034	;# 
   742   000FC3                     ADRES           equ	4035	;# 
   743   000FC3                     ADRESL          equ	4035	;# 
   744   000FC4                     ADRESH          equ	4036	;# 
   745   000FC5                     SSPCON2         equ	4037	;# 
   746   000FC6                     SSPCON1         equ	4038	;# 
   747   000FC7                     SSPSTAT         equ	4039	;# 
   748   000FC8                     SSPADD          equ	4040	;# 
   749   000FC9                     SSPBUF          equ	4041	;# 
   750   000FCA                     T2CON           equ	4042	;# 
   751   000FCB                     PR2             equ	4043	;# 
   752   000FCB                     MEMCON          equ	4043	;# 
   753   000FCC                     TMR2            equ	4044	;# 
   754   000FCD                     T1CON           equ	4045	;# 
   755   000FCE                     TMR1            equ	4046	;# 
   756   000FCE                     TMR1L           equ	4046	;# 
   757   000FCF                     TMR1H           equ	4047	;# 
   758   000FD0                     RCON            equ	4048	;# 
   759   000FD1                     WDTCON          equ	4049	;# 
   760   000FD2                     HLVDCON         equ	4050	;# 
   761   000FD2                     LVDCON          equ	4050	;# 
   762   000FD3                     OSCCON          equ	4051	;# 
   763   000FD5                     T0CON           equ	4053	;# 
   764   000FD6                     TMR0            equ	4054	;# 
   765   000FD6                     TMR0L           equ	4054	;# 
   766   000FD7                     TMR0H           equ	4055	;# 
   767   000FD8                     STATUS          equ	4056	;# 
   768   000FD9                     FSR2            equ	4057	;# 
   769   000FD9                     FSR2L           equ	4057	;# 
   770   000FDA                     FSR2H           equ	4058	;# 
   771   000FDB                     PLUSW2          equ	4059	;# 
   772   000FDC                     PREINC2         equ	4060	;# 
   773   000FDD                     POSTDEC2        equ	4061	;# 
   774   000FDE                     POSTINC2        equ	4062	;# 
   775   000FDF                     INDF2           equ	4063	;# 
   776   000FE0                     BSR             equ	4064	;# 
   777   000FE1                     FSR1            equ	4065	;# 
   778   000FE1                     FSR1L           equ	4065	;# 
   779   000FE2                     FSR1H           equ	4066	;# 
   780   000FE3                     PLUSW1          equ	4067	;# 
   781   000FE4                     PREINC1         equ	4068	;# 
   782   000FE5                     POSTDEC1        equ	4069	;# 
   783   000FE6                     POSTINC1        equ	4070	;# 
   784   000FE7                     INDF1           equ	4071	;# 
   785   000FE8                     WREG            equ	4072	;# 
   786   000FE9                     FSR0            equ	4073	;# 
   787   000FE9                     FSR0L           equ	4073	;# 
   788   000FEA                     FSR0H           equ	4074	;# 
   789   000FEB                     PLUSW0          equ	4075	;# 
   790   000FEC                     PREINC0         equ	4076	;# 
   791   000FED                     POSTDEC0        equ	4077	;# 
   792   000FEE                     POSTINC0        equ	4078	;# 
   793   000FEF                     INDF0           equ	4079	;# 
   794   000FF0                     INTCON3         equ	4080	;# 
   795   000FF1                     INTCON2         equ	4081	;# 
   796   000FF2                     INTCON          equ	4082	;# 
   797   000FF3                     PROD            equ	4083	;# 
   798   000FF3                     PRODL           equ	4083	;# 
   799   000FF4                     PRODH           equ	4084	;# 
   800   000FF5                     TABLAT          equ	4085	;# 
   801   000FF6                     TBLPTR          equ	4086	;# 
   802   000FF6                     TBLPTRL         equ	4086	;# 
   803   000FF7                     TBLPTRH         equ	4087	;# 
   804   000FF8                     TBLPTRU         equ	4088	;# 
   805   000FF9                     PCLAT           equ	4089	;# 
   806   000FF9                     PC              equ	4089	;# 
   807   000FF9                     PCL             equ	4089	;# 
   808   000FFA                     PCLATH          equ	4090	;# 
   809   000FFB                     PCLATU          equ	4091	;# 
   810   000FFC                     STKPTR          equ	4092	;# 
   811   000FFD                     TOS             equ	4093	;# 
   812   000FFD                     TOSL            equ	4093	;# 
   813   000FFE                     TOSH            equ	4094	;# 
   814   000FFF                     TOSU            equ	4095	;# 
   815   000F80                     PORTA           equ	3968	;# 
   816   000F81                     PORTB           equ	3969	;# 
   817   000F82                     PORTC           equ	3970	;# 
   818   000F83                     PORTD           equ	3971	;# 
   819   000F84                     PORTE           equ	3972	;# 
   820   000F89                     LATA            equ	3977	;# 
   821   000F8A                     LATB            equ	3978	;# 
   822   000F8B                     LATC            equ	3979	;# 
   823   000F8C                     LATD            equ	3980	;# 
   824   000F8D                     LATE            equ	3981	;# 
   825   000F92                     TRISA           equ	3986	;# 
   826   000F92                     DDRA            equ	3986	;# 
   827   000F93                     TRISB           equ	3987	;# 
   828   000F93                     DDRB            equ	3987	;# 
   829   000F94                     TRISC           equ	3988	;# 
   830   000F94                     DDRC            equ	3988	;# 
   831   000F95                     TRISD           equ	3989	;# 
   832   000F95                     DDRD            equ	3989	;# 
   833   000F96                     TRISE           equ	3990	;# 
   834   000F96                     DDRE            equ	3990	;# 
   835   000F9B                     OSCTUNE         equ	3995	;# 
   836   000F9D                     PIE1            equ	3997	;# 
   837   000F9E                     PIR1            equ	3998	;# 
   838   000F9F                     IPR1            equ	3999	;# 
   839   000FA0                     PIE2            equ	4000	;# 
   840   000FA1                     PIR2            equ	4001	;# 
   841   000FA2                     IPR2            equ	4002	;# 
   842   000FA6                     EECON1          equ	4006	;# 
   843   000FA7                     EECON2          equ	4007	;# 
   844   000FA8                     EEDATA          equ	4008	;# 
   845   000FA9                     EEADR           equ	4009	;# 
   846   000FAB                     RCSTA           equ	4011	;# 
   847   000FAB                     RCSTA1          equ	4011	;# 
   848   000FAC                     TXSTA           equ	4012	;# 
   849   000FAC                     TXSTA1          equ	4012	;# 
   850   000FAD                     TXREG           equ	4013	;# 
   851   000FAD                     TXREG1          equ	4013	;# 
   852   000FAE                     RCREG           equ	4014	;# 
   853   000FAE                     RCREG1          equ	4014	;# 
   854   000FAF                     SPBRG           equ	4015	;# 
   855   000FAF                     SPBRG1          equ	4015	;# 
   856   000FB0                     SPBRGH          equ	4016	;# 
   857   000FB1                     T3CON           equ	4017	;# 
   858   000FB2                     TMR3            equ	4018	;# 
   859   000FB2                     TMR3L           equ	4018	;# 
   860   000FB3                     TMR3H           equ	4019	;# 
   861   000FB4                     CMCON           equ	4020	;# 
   862   000FB5                     CVRCON          equ	4021	;# 
   863   000FB6                     ECCP1AS         equ	4022	;# 
   864   000FB6                     ECCPAS          equ	4022	;# 
   865   000FB7                     PWM1CON         equ	4023	;# 
   866   000FB7                     ECCP1DEL        equ	4023	;# 
   867   000FB8                     BAUDCON         equ	4024	;# 
   868   000FB8                     BAUDCTL         equ	4024	;# 
   869   000FBA                     CCP2CON         equ	4026	;# 
   870   000FBB                     CCPR2           equ	4027	;# 
   871   000FBB                     CCPR2L          equ	4027	;# 
   872   000FBC                     CCPR2H          equ	4028	;# 
   873   000FBD                     CCP1CON         equ	4029	;# 
   874   000FBE                     CCPR1           equ	4030	;# 
   875   000FBE                     CCPR1L          equ	4030	;# 
   876   000FBF                     CCPR1H          equ	4031	;# 
   877   000FC0                     ADCON2          equ	4032	;# 
   878   000FC1                     ADCON1          equ	4033	;# 
   879   000FC2                     ADCON0          equ	4034	;# 
   880   000FC3                     ADRES           equ	4035	;# 
   881   000FC3                     ADRESL          equ	4035	;# 
   882   000FC4                     ADRESH          equ	4036	;# 
   883   000FC5                     SSPCON2         equ	4037	;# 
   884   000FC6                     SSPCON1         equ	4038	;# 
   885   000FC7                     SSPSTAT         equ	4039	;# 
   886   000FC8                     SSPADD          equ	4040	;# 
   887   000FC9                     SSPBUF          equ	4041	;# 
   888   000FCA                     T2CON           equ	4042	;# 
   889   000FCB                     PR2             equ	4043	;# 
   890   000FCB                     MEMCON          equ	4043	;# 
   891   000FCC                     TMR2            equ	4044	;# 
   892   000FCD                     T1CON           equ	4045	;# 
   893   000FCE                     TMR1            equ	4046	;# 
   894   000FCE                     TMR1L           equ	4046	;# 
   895   000FCF                     TMR1H           equ	4047	;# 
   896   000FD0                     RCON            equ	4048	;# 
   897   000FD1                     WDTCON          equ	4049	;# 
   898   000FD2                     HLVDCON         equ	4050	;# 
   899   000FD2                     LVDCON          equ	4050	;# 
   900   000FD3                     OSCCON          equ	4051	;# 
   901   000FD5                     T0CON           equ	4053	;# 
   902   000FD6                     TMR0            equ	4054	;# 
   903   000FD6                     TMR0L           equ	4054	;# 
   904   000FD7                     TMR0H           equ	4055	;# 
   905   000FD8                     STATUS          equ	4056	;# 
   906   000FD9                     FSR2            equ	4057	;# 
   907   000FD9                     FSR2L           equ	4057	;# 
   908   000FDA                     FSR2H           equ	4058	;# 
   909   000FDB                     PLUSW2          equ	4059	;# 
   910   000FDC                     PREINC2         equ	4060	;# 
   911   000FDD                     POSTDEC2        equ	4061	;# 
   912   000FDE                     POSTINC2        equ	4062	;# 
   913   000FDF                     INDF2           equ	4063	;# 
   914   000FE0                     BSR             equ	4064	;# 
   915   000FE1                     FSR1            equ	4065	;# 
   916   000FE1                     FSR1L           equ	4065	;# 
   917   000FE2                     FSR1H           equ	4066	;# 
   918   000FE3                     PLUSW1          equ	4067	;# 
   919   000FE4                     PREINC1         equ	4068	;# 
   920   000FE5                     POSTDEC1        equ	4069	;# 
   921   000FE6                     POSTINC1        equ	4070	;# 
   922   000FE7                     INDF1           equ	4071	;# 
   923   000FE8                     WREG            equ	4072	;# 
   924   000FE9                     FSR0            equ	4073	;# 
   925   000FE9                     FSR0L           equ	4073	;# 
   926   000FEA                     FSR0H           equ	4074	;# 
   927   000FEB                     PLUSW0          equ	4075	;# 
   928   000FEC                     PREINC0         equ	4076	;# 
   929   000FED                     POSTDEC0        equ	4077	;# 
   930   000FEE                     POSTINC0        equ	4078	;# 
   931   000FEF                     INDF0           equ	4079	;# 
   932   000FF0                     INTCON3         equ	4080	;# 
   933   000FF1                     INTCON2         equ	4081	;# 
   934   000FF2                     INTCON          equ	4082	;# 
   935   000FF3                     PROD            equ	4083	;# 
   936   000FF3                     PRODL           equ	4083	;# 
   937   000FF4                     PRODH           equ	4084	;# 
   938   000FF5                     TABLAT          equ	4085	;# 
   939   000FF6                     TBLPTR          equ	4086	;# 
   940   000FF6                     TBLPTRL         equ	4086	;# 
   941   000FF7                     TBLPTRH         equ	4087	;# 
   942   000FF8                     TBLPTRU         equ	4088	;# 
   943   000FF9                     PCLAT           equ	4089	;# 
   944   000FF9                     PC              equ	4089	;# 
   945   000FF9                     PCL             equ	4089	;# 
   946   000FFA                     PCLATH          equ	4090	;# 
   947   000FFB                     PCLATU          equ	4091	;# 
   948   000FFC                     STKPTR          equ	4092	;# 
   949   000FFD                     TOS             equ	4093	;# 
   950   000FFD                     TOSL            equ	4093	;# 
   951   000FFE                     TOSH            equ	4094	;# 
   952   000FFF                     TOSU            equ	4095	;# 
   953   000F80                     PORTA           equ	3968	;# 
   954   000F81                     PORTB           equ	3969	;# 
   955   000F82                     PORTC           equ	3970	;# 
   956   000F83                     PORTD           equ	3971	;# 
   957   000F84                     PORTE           equ	3972	;# 
   958   000F89                     LATA            equ	3977	;# 
   959   000F8A                     LATB            equ	3978	;# 
   960   000F8B                     LATC            equ	3979	;# 
   961   000F8C                     LATD            equ	3980	;# 
   962   000F8D                     LATE            equ	3981	;# 
   963   000F92                     TRISA           equ	3986	;# 
   964   000F92                     DDRA            equ	3986	;# 
   965   000F93                     TRISB           equ	3987	;# 
   966   000F93                     DDRB            equ	3987	;# 
   967   000F94                     TRISC           equ	3988	;# 
   968   000F94                     DDRC            equ	3988	;# 
   969   000F95                     TRISD           equ	3989	;# 
   970   000F95                     DDRD            equ	3989	;# 
   971   000F96                     TRISE           equ	3990	;# 
   972   000F96                     DDRE            equ	3990	;# 
   973   000F9B                     OSCTUNE         equ	3995	;# 
   974   000F9D                     PIE1            equ	3997	;# 
   975   000F9E                     PIR1            equ	3998	;# 
   976   000F9F                     IPR1            equ	3999	;# 
   977   000FA0                     PIE2            equ	4000	;# 
   978   000FA1                     PIR2            equ	4001	;# 
   979   000FA2                     IPR2            equ	4002	;# 
   980   000FA6                     EECON1          equ	4006	;# 
   981   000FA7                     EECON2          equ	4007	;# 
   982   000FA8                     EEDATA          equ	4008	;# 
   983   000FA9                     EEADR           equ	4009	;# 
   984   000FAB                     RCSTA           equ	4011	;# 
   985   000FAB                     RCSTA1          equ	4011	;# 
   986   000FAC                     TXSTA           equ	4012	;# 
   987   000FAC                     TXSTA1          equ	4012	;# 
   988   000FAD                     TXREG           equ	4013	;# 
   989   000FAD                     TXREG1          equ	4013	;# 
   990   000FAE                     RCREG           equ	4014	;# 
   991   000FAE                     RCREG1          equ	4014	;# 
   992   000FAF                     SPBRG           equ	4015	;# 
   993   000FAF                     SPBRG1          equ	4015	;# 
   994   000FB0                     SPBRGH          equ	4016	;# 
   995   000FB1                     T3CON           equ	4017	;# 
   996   000FB2                     TMR3            equ	4018	;# 
   997   000FB2                     TMR3L           equ	4018	;# 
   998   000FB3                     TMR3H           equ	4019	;# 
   999   000FB4                     CMCON           equ	4020	;# 
  1000   000FB5                     CVRCON          equ	4021	;# 
  1001   000FB6                     ECCP1AS         equ	4022	;# 
  1002   000FB6                     ECCPAS          equ	4022	;# 
  1003   000FB7                     PWM1CON         equ	4023	;# 
  1004   000FB7                     ECCP1DEL        equ	4023	;# 
  1005   000FB8                     BAUDCON         equ	4024	;# 
  1006   000FB8                     BAUDCTL         equ	4024	;# 
  1007   000FBA                     CCP2CON         equ	4026	;# 
  1008   000FBB                     CCPR2           equ	4027	;# 
  1009   000FBB                     CCPR2L          equ	4027	;# 
  1010   000FBC                     CCPR2H          equ	4028	;# 
  1011   000FBD                     CCP1CON         equ	4029	;# 
  1012   000FBE                     CCPR1           equ	4030	;# 
  1013   000FBE                     CCPR1L          equ	4030	;# 
  1014   000FBF                     CCPR1H          equ	4031	;# 
  1015   000FC0                     ADCON2          equ	4032	;# 
  1016   000FC1                     ADCON1          equ	4033	;# 
  1017   000FC2                     ADCON0          equ	4034	;# 
  1018   000FC3                     ADRES           equ	4035	;# 
  1019   000FC3                     ADRESL          equ	4035	;# 
  1020   000FC4                     ADRESH          equ	4036	;# 
  1021   000FC5                     SSPCON2         equ	4037	;# 
  1022   000FC6                     SSPCON1         equ	4038	;# 
  1023   000FC7                     SSPSTAT         equ	4039	;# 
  1024   000FC8                     SSPADD          equ	4040	;# 
  1025   000FC9                     SSPBUF          equ	4041	;# 
  1026   000FCA                     T2CON           equ	4042	;# 
  1027   000FCB                     PR2             equ	4043	;# 
  1028   000FCB                     MEMCON          equ	4043	;# 
  1029   000FCC                     TMR2            equ	4044	;# 
  1030   000FCD                     T1CON           equ	4045	;# 
  1031   000FCE                     TMR1            equ	4046	;# 
  1032   000FCE                     TMR1L           equ	4046	;# 
  1033   000FCF                     TMR1H           equ	4047	;# 
  1034   000FD0                     RCON            equ	4048	;# 
  1035   000FD1                     WDTCON          equ	4049	;# 
  1036   000FD2                     HLVDCON         equ	4050	;# 
  1037   000FD2                     LVDCON          equ	4050	;# 
  1038   000FD3                     OSCCON          equ	4051	;# 
  1039   000FD5                     T0CON           equ	4053	;# 
  1040   000FD6                     TMR0            equ	4054	;# 
  1041   000FD6                     TMR0L           equ	4054	;# 
  1042   000FD7                     TMR0H           equ	4055	;# 
  1043   000FD8                     STATUS          equ	4056	;# 
  1044   000FD9                     FSR2            equ	4057	;# 
  1045   000FD9                     FSR2L           equ	4057	;# 
  1046   000FDA                     FSR2H           equ	4058	;# 
  1047   000FDB                     PLUSW2          equ	4059	;# 
  1048   000FDC                     PREINC2         equ	4060	;# 
  1049   000FDD                     POSTDEC2        equ	4061	;# 
  1050   000FDE                     POSTINC2        equ	4062	;# 
  1051   000FDF                     INDF2           equ	4063	;# 
  1052   000FE0                     BSR             equ	4064	;# 
  1053   000FE1                     FSR1            equ	4065	;# 
  1054   000FE1                     FSR1L           equ	4065	;# 
  1055   000FE2                     FSR1H           equ	4066	;# 
  1056   000FE3                     PLUSW1          equ	4067	;# 
  1057   000FE4                     PREINC1         equ	4068	;# 
  1058   000FE5                     POSTDEC1        equ	4069	;# 
  1059   000FE6                     POSTINC1        equ	4070	;# 
  1060   000FE7                     INDF1           equ	4071	;# 
  1061   000FE8                     WREG            equ	4072	;# 
  1062   000FE9                     FSR0            equ	4073	;# 
  1063   000FE9                     FSR0L           equ	4073	;# 
  1064   000FEA                     FSR0H           equ	4074	;# 
  1065   000FEB                     PLUSW0          equ	4075	;# 
  1066   000FEC                     PREINC0         equ	4076	;# 
  1067   000FED                     POSTDEC0        equ	4077	;# 
  1068   000FEE                     POSTINC0        equ	4078	;# 
  1069   000FEF                     INDF0           equ	4079	;# 
  1070   000FF0                     INTCON3         equ	4080	;# 
  1071   000FF1                     INTCON2         equ	4081	;# 
  1072   000FF2                     INTCON          equ	4082	;# 
  1073   000FF3                     PROD            equ	4083	;# 
  1074   000FF3                     PRODL           equ	4083	;# 
  1075   000FF4                     PRODH           equ	4084	;# 
  1076   000FF5                     TABLAT          equ	4085	;# 
  1077   000FF6                     TBLPTR          equ	4086	;# 
  1078   000FF6                     TBLPTRL         equ	4086	;# 
  1079   000FF7                     TBLPTRH         equ	4087	;# 
  1080   000FF8                     TBLPTRU         equ	4088	;# 
  1081   000FF9                     PCLAT           equ	4089	;# 
  1082   000FF9                     PC              equ	4089	;# 
  1083   000FF9                     PCL             equ	4089	;# 
  1084   000FFA                     PCLATH          equ	4090	;# 
  1085   000FFB                     PCLATU          equ	4091	;# 
  1086   000FFC                     STKPTR          equ	4092	;# 
  1087   000FFD                     TOS             equ	4093	;# 
  1088   000FFD                     TOSL            equ	4093	;# 
  1089   000FFE                     TOSH            equ	4094	;# 
  1090   000FFF                     TOSU            equ	4095	;# 
  1091   007D5C                     _CREN           set	32092
  1092   007CF5                     _RCIF           set	31989
  1093   000F81                     _PORTBbits      set	3969
  1094   000F94                     _TRISCbits      set	3988
  1095   000F93                     _TRISB          set	3987
  1096   000F92                     _TRISAbits      set	3986
  1097   000FAD                     _TXREG          set	4013
  1098   000FAE                     _RCREG          set	4014
  1099   000FAF                     _SPBRG          set	4015
  1100   000FB8                     _BAUDCONbits    set	4024
  1101   000FAC                     _TXSTAbits      set	4012
  1102   000FD0                     _RCONbits       set	4048
  1103   000FD3                     _OSCCONbits     set	4051
  1104   000FC3                     _ADRESL         set	4035
  1105   000FC4                     _ADRESH         set	4036
  1106   000FAB                     _RCSTAbits      set	4011
  1107   000FC9                     _SSPBUF         set	4041
  1108   000FC5                     _SSPCON2bits    set	4037
  1109   000FC5                     _SSPCON2        set	4037
  1110   000FC8                     _SSPADD         set	4040
  1111   000FC6                     _SSPCON1bits    set	4038
  1112   000FC7                     _SSPSTATbits    set	4039
  1113   000F9D                     _PIE1bits       set	3997
  1114   000F9F                     _IPR1bits       set	3999
  1115   000F9E                     _PIR1bits       set	3998
  1116   000FC0                     _ADCON2bits     set	4032
  1117   000FC1                     _ADCON1bits     set	4033
  1118   000FC2                     _ADCON0bits     set	4034
  1119   000FF2                     _INTCONbits     set	4082
  1120                           
  1121                           	psect	smallconst
  1122   000600                     __psmallconst:
  1123                           	callstack 0
  1124   000600  00                 	db	0
  1125   000601                     STR_2:
  1126   000601  53                 	db	83	;'S'
  1127   000602  79                 	db	121	;'y'
  1128   000603  73                 	db	115	;'s'
  1129   000604  74                 	db	116	;'t'
  1130   000605  65                 	db	101	;'e'
  1131   000606  6D                 	db	109	;'m'
  1132   000607  20                 	db	32
  1133   000608  69                 	db	105	;'i'
  1134   000609  6E                 	db	110	;'n'
  1135   00060A  69                 	db	105	;'i'
  1136   00060B  74                 	db	116	;'t'
  1137   00060C  69                 	db	105	;'i'
  1138   00060D  61                 	db	97	;'a'
  1139   00060E  6C                 	db	108	;'l'
  1140   00060F  69                 	db	105	;'i'
  1141   000610  7A                 	db	122	;'z'
  1142   000611  69                 	db	105	;'i'
  1143   000612  6E                 	db	110	;'n'
  1144   000613  67                 	db	103	;'g'
  1145   000614  2E                 	db	46
  1146   000615  2E                 	db	46
  1147   000616  2E                 	db	46
  1148   000617  0A                 	db	10
  1149   000618  00                 	db	0
  1150   000619                     STR_3:
  1151   000619  4D                 	db	77	;'M'
  1152   00061A  41                 	db	65	;'A'
  1153   00061B  58                 	db	88	;'X'
  1154   00061C  33                 	db	51	;'3'
  1155   00061D  30                 	db	48	;'0'
  1156   00061E  31                 	db	49	;'1'
  1157   00061F  30                 	db	48	;'0'
  1158   000620  32                 	db	50	;'2'
  1159   000621  20                 	db	32
  1160   000622  4F                 	db	79	;'O'
  1161   000623  6E                 	db	110	;'n'
  1162   000624  6C                 	db	108	;'l'
  1163   000625  69                 	db	105	;'i'
  1164   000626  6E                 	db	110	;'n'
  1165   000627  65                 	db	101	;'e'
  1166   000628  21                 	db	33
  1167   000629  0D                 	db	13
  1168   00062A  0A                 	db	10
  1169   00062B  00                 	db	0
  1170   00062C                     STR_4:
  1171   00062C  4D                 	db	77	;'M'
  1172   00062D  41                 	db	65	;'A'
  1173   00062E  58                 	db	88	;'X'
  1174   00062F  33                 	db	51	;'3'
  1175   000630  30                 	db	48	;'0'
  1176   000631  31                 	db	49	;'1'
  1177   000632  30                 	db	48	;'0'
  1178   000633  32                 	db	50	;'2'
  1179   000634  20                 	db	32
  1180   000635  45                 	db	69	;'E'
  1181   000636  72                 	db	114	;'r'
  1182   000637  72                 	db	114	;'r'
  1183   000638  6F                 	db	111	;'o'
  1184   000639  72                 	db	114	;'r'
  1185   00063A  21                 	db	33
  1186   00063B  0D                 	db	13
  1187   00063C  0A                 	db	10
  1188   00063D  00                 	db	0
  1189   00063E                     STR_5:
  1190   00063E  25                 	db	37
  1191   00063F  6C                 	db	108	;'l'
  1192   000640  75                 	db	117	;'u'
  1193   000641  2C                 	db	44
  1194   000642  25                 	db	37
  1195   000643  64                 	db	100	;'d'
  1196   000644  0A                 	db	10
  1197   000645  00                 	db	0
  1198   000646                     STR_1:
  1199   000646  1B                 	db	27
  1200   000647  5B                 	db	91	;'['
  1201   000648  32                 	db	50	;'2'
  1202   000649  4A                 	db	74	;'J'
  1203   00064A  1B                 	db	27
  1204   00064B  5B                 	db	91	;'['
  1205   00064C  48                 	db	72	;'H'
  1206   00064D  00                 	db	0
  1207   00064E  00                 	db	0	; dummy byte at the end
  1208   000600                     __smallconst    set	__psmallconst
  1209   000600                     __mediumconst   set	__psmallconst
  1210   000002                     __activetblptr  equ	2
  1211                           
  1212                           ; #config settings
  1213                           
  1214                           	psect	cinit
  1215   001302                     __pcinit:
  1216                           	callstack 0
  1217   001302                     start_initialization:
  1218                           	callstack 0
  1219   001302                     __initialization:
  1220                           	callstack 0
  1221                           
  1222                           ; Clear objects allocated to BANK0 (100 bytes)
  1223   001302  EE00  F080         	lfsr	0,__pbssBANK0
  1224   001306  0E64               	movlw	100
  1225   001308                     clear_0:
  1226   001308  6AEE               	clrf	postinc0,c
  1227   00130A  06E8               	decf	wreg,f,c
  1228   00130C  E1FD               	bnz	clear_0
  1229                           
  1230                           ; Clear objects allocated to COMRAM (44 bytes)
  1231   00130E  EE00  F042         	lfsr	0,__pbssCOMRAM
  1232   001312  0E2C               	movlw	44
  1233   001314                     clear_1:
  1234   001314  6AEE               	clrf	postinc0,c
  1235   001316  06E8               	decf	wreg,f,c
  1236   001318  E1FD               	bnz	clear_1
  1237   00131A                     end_of_initialization:
  1238                           	callstack 0
  1239   00131A                     __end_of__initialization:
  1240                           	callstack 0
  1241   00131A  906E               	bcf	int$flags,0,c	;clear compiler interrupt flag (level 1)
  1242   00131C  926E               	bcf	int$flags,1,c	;clear compiler interrupt flag (level 2)
  1243   00131E  0E00               	movlw	low (__Lmediumconst shr (0+16))
  1244   001320  6EF8               	movwf	tblptru,c
  1245   001322  0100               	movlb	0
  1246   001324  EFBE  F006         	goto	_main	;jump to C main() function
  1247                           
  1248                           	psect	bssCOMRAM
  1249   000042                     __pbssCOMRAM:
  1250                           	callstack 0
  1251   000042                     _dbuf:
  1252                           	callstack 0
  1253   000042                     	ds	32
  1254   000062                     _width:
  1255                           	callstack 0
  1256   000062                     	ds	2
  1257   000064                     _prec:
  1258                           	callstack 0
  1259   000064                     	ds	2
  1260   000066                     _uart_buffer_size:
  1261                           	callstack 0
  1262   000066                     	ds	2
  1263   000068                     _mode:
  1264                           	callstack 0
  1265   000068                     	ds	2
  1266   00006A                     _alcohol:
  1267                           	callstack 0
  1268   00006A                     	ds	2
  1269   00006C                     _flags:
  1270                           	callstack 0
  1271   00006C                     	ds	1
  1272   00006D                     _btn_interr:
  1273                           	callstack 0
  1274   00006D                     	ds	1
  1275                           
  1276                           	psect	bssBANK0
  1277   000080                     __pbssBANK0:
  1278                           	callstack 0
  1279   000080                     _uart_buffer:
  1280                           	callstack 0
  1281   000080                     	ds	100
  1282                           
  1283                           	psect	cstackCOMRAM
  1284   000001                     __pcstackCOMRAM:
  1285                           	callstack 0
  1286   000001                     ??_uart_read:
  1287                           
  1288                           ; 1 bytes @ 0x0
  1289   000001                     	ds	1
  1290   000002                     uart_read@data:
  1291                           	callstack 0
  1292                           
  1293                           ; 1 bytes @ 0x1
  1294   000002                     	ds	1
  1295   000003                     ??_H_ISR:
  1296                           
  1297                           ; 1 bytes @ 0x2
  1298   000003                     	ds	3
  1299   000006                     variable_register_changed@value:
  1300                           	callstack 0
  1301                           
  1302                           ; 2 bytes @ 0x5
  1303   000006                     	ds	2
  1304   000008                     ??_Lo_ISR:
  1305                           
  1306                           ; 1 bytes @ 0x7
  1307   000008                     	ds	5
  1308   00000D                     Lo_ISR@value:
  1309                           	callstack 0
  1310                           
  1311                           ; 2 bytes @ 0xC
  1312   00000D                     	ds	2
  1313   00000F                     ?___lldiv:
  1314                           	callstack 0
  1315   00000F                     ?___aldiv:
  1316                           	callstack 0
  1317   00000F                     ?___almod:
  1318                           	callstack 0
  1319   00000F                     ?___llmod:
  1320                           	callstack 0
  1321   00000F                     putch@data:
  1322                           	callstack 0
  1323   00000F                     ___lldiv@dividend:
  1324                           	callstack 0
  1325   00000F                     ___aldiv@dividend:
  1326                           	callstack 0
  1327   00000F                     ___almod@dividend:
  1328                           	callstack 0
  1329   00000F                     ___llmod@dividend:
  1330                           	callstack 0
  1331   00000F                     ??_i2c_is_idle:
  1332   00000F                     
  1333                           ; 1 bytes @ 0xE
  1334   00000F                     	ds	1
  1335   000010                     i2c_write@i2c_data:
  1336                           	callstack 0
  1337   000010                     i2c_read@ack:
  1338                           	callstack 0
  1339   000010                     fputc@c:
  1340                           	callstack 0
  1341   000010                     
  1342                           ; 1 bytes @ 0xF
  1343   000010                     	ds	1
  1344   000011                     i2c_read@recieve:
  1345                           	callstack 0
  1346   000011                     max30102_write_reg@value:
  1347                           	callstack 0
  1348                           
  1349                           ; 1 bytes @ 0x10
  1350   000011                     	ds	1
  1351   000012                     max30102_write_reg@reg:
  1352                           	callstack 0
  1353   000012                     max30102_read_reg@reg:
  1354                           	callstack 0
  1355   000012                     max30102_read_fifo@pun_red_led:
  1356                           	callstack 0
  1357   000012                     fputc@fp:
  1358                           	callstack 0
  1359   000012                     
  1360                           ; 1 bytes @ 0x11
  1361   000012                     	ds	1
  1362   000013                     max30102_read_reg@val:
  1363                           	callstack 0
  1364   000013                     max30102_read_fifo@pun_ir_led:
  1365                           	callstack 0
  1366   000013                     ___lldiv@divisor:
  1367                           	callstack 0
  1368   000013                     ___aldiv@divisor:
  1369                           	callstack 0
  1370   000013                     ___almod@divisor:
  1371                           	callstack 0
  1372   000013                     ___llmod@divisor:
  1373                           	callstack 0
  1374                           
  1375                           ; 4 bytes @ 0x12
  1376   000013                     	ds	1
  1377   000014                     max30102_initialize@part_id:
  1378                           	callstack 0
  1379   000014                     max30102_available@wr:
  1380                           	callstack 0
  1381   000014                     ??_max30102_read_fifo:
  1382   000014                     ??_fputc:
  1383                           
  1384                           ; 1 bytes @ 0x13
  1385   000014                     	ds	1
  1386   000015                     max30102_available@rd:
  1387                           	callstack 0
  1388                           
  1389                           ; 1 bytes @ 0x14
  1390   000015                     	ds	2
  1391   000017                     ___aldiv@counter:
  1392                           	callstack 0
  1393   000017                     ___almod@counter:
  1394                           	callstack 0
  1395   000017                     ___llmod@counter:
  1396                           	callstack 0
  1397   000017                     ___lldiv@quotient:
  1398                           	callstack 0
  1399   000017                     
  1400                           ; 1 bytes @ 0x16
  1401   000017                     	ds	1
  1402   000018                     ___aldiv@sign:
  1403                           	callstack 0
  1404   000018                     ___almod@sign:
  1405                           	callstack 0
  1406                           
  1407                           ; 1 bytes @ 0x17
  1408   000018                     	ds	1
  1409   000019                     ?_abs:
  1410                           	callstack 0
  1411   000019                     abs@a:
  1412                           	callstack 0
  1413   000019                     max30102_read_fifo@red:
  1414                           	callstack 0
  1415   000019                     ___aldiv@quotient:
  1416                           	callstack 0
  1417                           
  1418                           ; 4 bytes @ 0x18
  1419   000019                     	ds	2
  1420   00001B                     ___lldiv@counter:
  1421                           	callstack 0
  1422   00001B                     ??_abs:
  1423                           
  1424                           ; 1 bytes @ 0x1A
  1425   00001B                     	ds	2
  1426   00001D                     vfpfcnvrt@fp:
  1427                           	callstack 0
  1428   00001D                     max30102_read_fifo@ir:
  1429                           	callstack 0
  1430                           
  1431                           ; 4 bytes @ 0x1C
  1432   00001D                     	ds	2
  1433   00001F                     vfpfcnvrt@fmt:
  1434                           	callstack 0
  1435                           
  1436                           ; 1 bytes @ 0x1E
  1437   00001F                     	ds	1
  1438   000020                     vfpfcnvrt@ap:
  1439                           	callstack 0
  1440                           
  1441                           ; 1 bytes @ 0x1F
  1442   000020                     	ds	1
  1443   000021                     ??_vfpfcnvrt:
  1444                           
  1445                           ; 1 bytes @ 0x20
  1446   000021                     	ds	2
  1447   000023                     vfpfcnvrt@done:
  1448                           	callstack 0
  1449                           
  1450                           ; 1 bytes @ 0x22
  1451   000023                     	ds	1
  1452   000024                     vfpfcnvrt@cp:
  1453                           	callstack 0
  1454                           
  1455                           ; 1 bytes @ 0x23
  1456   000024                     	ds	1
  1457   000025                     vfpfcnvrt@convarg:
  1458                           	callstack 0
  1459                           
  1460                           ; 4 bytes @ 0x24
  1461   000025                     	ds	4
  1462   000029                     vfpfcnvrt@c:
  1463                           	callstack 0
  1464                           
  1465                           ; 1 bytes @ 0x28
  1466   000029                     	ds	1
  1467   00002A                     ?_vfprintf:
  1468                           	callstack 0
  1469   00002A                     vfprintf@fp:
  1470                           	callstack 0
  1471                           
  1472                           ; 2 bytes @ 0x29
  1473   00002A                     	ds	2
  1474   00002C                     vfprintf@fmt:
  1475                           	callstack 0
  1476                           
  1477                           ; 1 bytes @ 0x2B
  1478   00002C                     	ds	1
  1479   00002D                     vfprintf@ap:
  1480                           	callstack 0
  1481                           
  1482                           ; 1 bytes @ 0x2C
  1483   00002D                     	ds	1
  1484   00002E                     vfprintf@cfmt:
  1485                           	callstack 0
  1486   00002E                     
  1487                           ; 1 bytes @ 0x2D
  1488   00002E                     	ds	1
  1489   00002F                     ?_printf:
  1490                           	callstack 0
  1491   00002F                     printf@fmt:
  1492                           	callstack 0
  1493                           
  1494                           ; 1 bytes @ 0x2E
  1495   00002F                     	ds	7
  1496   000036                     printf@ap:
  1497                           	callstack 0
  1498   000036                     
  1499                           ; 1 bytes @ 0x35
  1500   000036                     	ds	1
  1501   000037                     ??_main:
  1502                           
  1503                           ; 1 bytes @ 0x36
  1504   000037                     	ds	2
  1505   000039                     main@red_val:
  1506                           	callstack 0
  1507                           
  1508                           ; 4 bytes @ 0x38
  1509   000039                     	ds	4
  1510   00003D                     main@samples:
  1511                           	callstack 0
  1512                           
  1513                           ; 1 bytes @ 0x3C
  1514   00003D                     	ds	1
  1515   00003E                     main@ir_val:
  1516                           	callstack 0
  1517                           
  1518                           ; 4 bytes @ 0x3D
  1519   00003E                     	ds	4
  1520                           
  1521 ;;
  1522 ;;Main: autosize = 0, tempsize = 2, incstack = 0, save=0
  1523 ;;
  1524 ;; *************** function _main *****************
  1525 ;; Defined at:
  1526 ;;		line 100 in file "main.c"
  1527 ;; Parameters:    Size  Location     Type
  1528 ;;		None
  1529 ;; Auto vars:     Size  Location     Type
  1530 ;;  samples         1   60[COMRAM] unsigned char 
  1531 ;;  ir_val          4   61[COMRAM] unsigned long 
  1532 ;;  red_val         4   56[COMRAM] unsigned long 
  1533 ;; Return value:  Size  Location     Type
  1534 ;;                  1    wreg      void 
  1535 ;; Registers used:
  1536 ;;		wreg, fsr1l, fsr1h, fsr2l, fsr2h, status,2, status,0, tblptrl, tblptrh, tblptru, cstack
  1537 ;; Tracked objects:
  1538 ;;		On entry : 0/0
  1539 ;;		On exit  : 0/0
  1540 ;;		Unchanged: 0/0
  1541 ;; Data sizes:     COMRAM   BANK0   BANK1   BANK2   BANK3   BANK4   BANK5
  1542 ;;      Params:         0       0       0       0       0       0       0
  1543 ;;      Locals:         9       0       0       0       0       0       0
  1544 ;;      Temps:          2       0       0       0       0       0       0
  1545 ;;      Totals:        11       0       0       0       0       0       0
  1546 ;;Total ram usage:       11 bytes
  1547 ;; Hardware stack levels required when called: 9
  1548 ;; This function calls:
  1549 ;;		_adc_start_conversion
  1550 ;;		_max30102_available
  1551 ;;		_max30102_initialize
  1552 ;;		_max30102_read_fifo
  1553 ;;		_printf
  1554 ;;		_system_initialize
  1555 ;; This function is called by:
  1556 ;;		Startup code after reset
  1557 ;; This function uses a non-reentrant model
  1558 ;;
  1559                           
  1560                           	psect	text0
  1561   000D7C                     __ptext0:
  1562                           	callstack 0
  1563   000D7C                     _main:
  1564                           	callstack 22
  1565   000D7C                     
  1566                           ;main.c: 101:     system_initialize();
  1567   000D7C  EC45  F009         	call	_system_initialize	;wreg free
  1568   000D80                     
  1569                           ;main.c: 103:     printf("\033[2J\033[H");
  1570   000D80  0E46               	movlw	low STR_1
  1571   000D82  6E2F               	movwf	printf@fmt^0,c
  1572   000D84  ECEC  F009         	call	_printf	;wreg free
  1573   000D88                     
  1574                           ;main.c: 104:     printf("System initializing...\n");
  1575   000D88  0E01               	movlw	low STR_2
  1576   000D8A  6E2F               	movwf	printf@fmt^0,c
  1577   000D8C  ECEC  F009         	call	_printf	;wreg free
  1578   000D90                     
  1579                           ;main.c: 106:     _delay((unsigned long)((100)*(8000000/4000.0)));
  1580   000D90  0E02               	movlw	2
  1581   000D92  6E38               	movwf	(??_main+1)^0,c
  1582   000D94  0E04               	movlw	4
  1583   000D96  6E37               	movwf	??_main^0,c
  1584   000D98  0EBA               	movlw	186
  1585   000D9A                     u1187:
  1586   000D9A  2EE8               	decfsz	wreg,f,c
  1587   000D9C  D7FE               	bra	u1187
  1588   000D9E  2E37               	decfsz	??_main^0,f,c
  1589   000DA0  D7FC               	bra	u1187
  1590   000DA2  2E38               	decfsz	(??_main+1)^0,f,c
  1591   000DA4  D7FA               	bra	u1187
  1592   000DA6  D000               	nop2	
  1593   000DA8                     
  1594                           ;main.c: 108:     if (max30102_initialize()) {
  1595   000DA8  EC28  F008         	call	_max30102_initialize	;wreg free
  1596   000DAC  0900               	iorlw	0
  1597   000DAE  B4D8               	btfsc	status,2,c
  1598   000DB0  EFDC  F006         	goto	u1131
  1599   000DB4  EFDE  F006         	goto	u1130
  1600   000DB8                     u1131:
  1601   000DB8  EFE4  F006         	goto	l1917
  1602   000DBC                     u1130:
  1603   000DBC                     
  1604                           ;main.c: 109:         printf("MAX30102 Online!\r\n");
  1605   000DBC  0E19               	movlw	low STR_3
  1606   000DBE  6E2F               	movwf	printf@fmt^0,c
  1607   000DC0  ECEC  F009         	call	_printf	;wreg free
  1608                           
  1609                           ;main.c: 110:     } else {
  1610   000DC4  EFEA  F006         	goto	l1919
  1611   000DC8                     l1917:
  1612                           
  1613                           ;main.c: 111:         printf("MAX30102 Error!\r\n");
  1614   000DC8  0E2C               	movlw	low STR_4
  1615   000DCA  6E2F               	movwf	printf@fmt^0,c
  1616   000DCC  ECEC  F009         	call	_printf	;wreg free
  1617   000DD0                     l162:
  1618   000DD0  EFE8  F006         	goto	l162
  1619   000DD4                     l1919:
  1620                           
  1621                           ;main.c: 115:     uint32_t red_val = 0;
  1622   000DD4  0E00               	movlw	0
  1623   000DD6  6E39               	movwf	main@red_val^0,c
  1624   000DD8  0E00               	movlw	0
  1625   000DDA  6E3A               	movwf	(main@red_val+1)^0,c
  1626   000DDC  0E00               	movlw	0
  1627   000DDE  6E3B               	movwf	(main@red_val+2)^0,c
  1628   000DE0  0E00               	movlw	0
  1629   000DE2  6E3C               	movwf	(main@red_val+3)^0,c
  1630                           
  1631                           ;main.c: 116:     uint32_t ir_val = 0;
  1632   000DE4  0E00               	movlw	0
  1633   000DE6  6E3E               	movwf	main@ir_val^0,c
  1634   000DE8  0E00               	movlw	0
  1635   000DEA  6E3F               	movwf	(main@ir_val+1)^0,c
  1636   000DEC  0E00               	movlw	0
  1637   000DEE  6E40               	movwf	(main@ir_val+2)^0,c
  1638   000DF0  0E00               	movlw	0
  1639   000DF2  6E41               	movwf	(main@ir_val+3)^0,c
  1640   000DF4                     l1921:
  1641                           
  1642                           ;main.c: 120:         uint8_t samples = max30102_available();
  1643   000DF4  EC05  F00A         	call	_max30102_available	;wreg free
  1644   000DF8  6E3D               	movwf	main@samples^0,c
  1645                           
  1646                           ;main.c: 121:         while (samples > 0) {
  1647   000DFA  EF16  F007         	goto	l1929
  1648   000DFE                     l1923:
  1649                           
  1650                           ;main.c: 122:             max30102_read_fifo(&red_val, &ir_val);
  1651   000DFE  0E39               	movlw	low main@red_val
  1652   000E00  6E12               	movwf	max30102_read_fifo@pun_red_led^0,c
  1653   000E02  0E3E               	movlw	low main@ir_val
  1654   000E04  6E13               	movwf	max30102_read_fifo@pun_ir_led^0,c
  1655   000E06  EC24  F005         	call	_max30102_read_fifo	;wreg free
  1656   000E0A                     
  1657                           ;main.c: 123:             printf("%lu,%d\n", ir_val, alcohol);
  1658   000E0A  0E3E               	movlw	low STR_5
  1659   000E0C  6E2F               	movwf	printf@fmt^0,c
  1660   000E0E  C03E  F030         	movff	main@ir_val,?_printf+1
  1661   000E12  C03F  F031         	movff	main@ir_val+1,?_printf+2
  1662   000E16  C040  F032         	movff	main@ir_val+2,?_printf+3
  1663   000E1A  C041  F033         	movff	main@ir_val+3,?_printf+4
  1664   000E1E  C06A  F034         	movff	_alcohol,?_printf+5	;volatile
  1665   000E22  C06B  F035         	movff	_alcohol+1,?_printf+6	;volatile
  1666   000E26  ECEC  F009         	call	_printf	;wreg free
  1667   000E2A                     
  1668                           ;main.c: 124:             samples--;
  1669   000E2A  063D               	decf	main@samples^0,f,c
  1670   000E2C                     l1929:
  1671                           
  1672                           ;main.c: 121:         while (samples > 0) {
  1673   000E2C  503D               	movf	main@samples^0,w,c
  1674   000E2E  A4D8               	btfss	status,2,c
  1675   000E30  EF1C  F007         	goto	u1141
  1676   000E34  EF1E  F007         	goto	u1140
  1677   000E38                     u1141:
  1678   000E38  EFFF  F006         	goto	l1923
  1679   000E3C                     u1140:
  1680   000E3C                     
  1681                           ;main.c: 127:         if (mode == 1) {
  1682   000E3C  0468               	decf	_mode^0,w,c	;volatile
  1683   000E3E  1069               	iorwf	(_mode+1)^0,w,c	;volatile
  1684   000E40  A4D8               	btfss	status,2,c
  1685   000E42  EF25  F007         	goto	u1151
  1686   000E46  EF27  F007         	goto	u1150
  1687   000E4A                     u1151:
  1688   000E4A  EFFA  F006         	goto	l1921
  1689   000E4E                     u1150:
  1690   000E4E                     
  1691                           ;main.c: 128:             adc_start_conversion();
  1692   000E4E  EC11  F00A         	call	_adc_start_conversion	;wreg free
  1693   000E52  EFFA  F006         	goto	l1921
  1694   000E56  EF39  F000         	goto	start
  1695   000E5A                     __end_of_main:
  1696                           	callstack 0
  1697                           
  1698 ;; *************** function _system_initialize *****************
  1699 ;; Defined at:
  1700 ;;		line 58 in file "main.c"
  1701 ;; Parameters:    Size  Location     Type
  1702 ;;		None
  1703 ;; Auto vars:     Size  Location     Type
  1704 ;;		None
  1705 ;; Return value:  Size  Location     Type
  1706 ;;                  1    wreg      void 
  1707 ;; Registers used:
  1708 ;;		wreg, status,2, status,0, cstack
  1709 ;; Tracked objects:
  1710 ;;		On entry : 0/0
  1711 ;;		On exit  : 0/0
  1712 ;;		Unchanged: 0/0
  1713 ;; Data sizes:     COMRAM   BANK0   BANK1   BANK2   BANK3   BANK4   BANK5
  1714 ;;      Params:         0       0       0       0       0       0       0
  1715 ;;      Locals:         0       0       0       0       0       0       0
  1716 ;;      Temps:          0       0       0       0       0       0       0
  1717 ;;      Totals:         0       0       0       0       0       0       0
  1718 ;;Total ram usage:        0 bytes
  1719 ;; Hardware stack levels used: 1
  1720 ;; Hardware stack levels required when called: 5
  1721 ;; This function calls:
  1722 ;;		_adc_initialize
  1723 ;;		_button_initialize
  1724 ;;		_i2c_initialize
  1725 ;;		_uart_initialize
  1726 ;; This function is called by:
  1727 ;;		_main
  1728 ;; This function uses a non-reentrant model
  1729 ;;
  1730                           
  1731                           	psect	text1
  1732   00128A                     __ptext1:
  1733                           	callstack 0
  1734   00128A                     _system_initialize:
  1735                           	callstack 25
  1736   00128A                     
  1737                           ;main.c: 59:     OSCCONbits.IRCF = 0b111;
  1738   00128A  0E70               	movlw	112
  1739   00128C  12D3               	iorwf	211,f,c	;volatile
  1740                           
  1741                           ;main.c: 60:     ADCON1bits.PCFG = 0b1110;
  1742   00128E  50C1               	movf	193,w,c	;volatile
  1743   001290  0BF0               	andlw	-16
  1744   001292  090E               	iorlw	14
  1745   001294  6EC1               	movwf	193,c	;volatile
  1746   001296                     
  1747                           ;main.c: 62:     adc_initialize();
  1748   001296  EC94  F009         	call	_adc_initialize	;wreg free
  1749   00129A                     
  1750                           ;main.c: 63:     button_initialize();
  1751   00129A  EC1F  F00A         	call	_button_initialize	;wreg free
  1752   00129E                     
  1753                           ;main.c: 64:     uart_initialize();
  1754   00129E  ECCC  F009         	call	_uart_initialize	;wreg free
  1755   0012A2                     
  1756                           ;main.c: 65:     i2c_initialize();
  1757   0012A2  ECF9  F009         	call	_i2c_initialize	;wreg free
  1758   0012A6                     
  1759                           ;main.c: 68:     INTCONbits.PEIE = 1;
  1760   0012A6  8CF2               	bsf	242,6,c	;volatile
  1761   0012A8                     
  1762                           ;main.c: 69:     RCONbits.IPEN = 1;
  1763   0012A8  8ED0               	bsf	208,7,c	;volatile
  1764   0012AA                     
  1765                           ;main.c: 70:     INTCONbits.GIEH = 1;
  1766   0012AA  8EF2               	bsf	242,7,c	;volatile
  1767   0012AC                     
  1768                           ;main.c: 71:     INTCONbits.GIEL = 1;
  1769   0012AC  8CF2               	bsf	242,6,c	;volatile
  1770   0012AE                     
  1771                           ;main.c: 72:     INTCONbits.GIE = 1;
  1772   0012AE  8EF2               	bsf	242,7,c	;volatile
  1773   0012B0  0012               	return		;funcret
  1774   0012B2                     __end_of_system_initialize:
  1775                           	callstack 0
  1776                           
  1777 ;; *************** function _uart_initialize *****************
  1778 ;; Defined at:
  1779 ;;		line 8 in file "uart.c"
  1780 ;; Parameters:    Size  Location     Type
  1781 ;;		None
  1782 ;; Auto vars:     Size  Location     Type
  1783 ;;		None
  1784 ;; Return value:  Size  Location     Type
  1785 ;;                  1    wreg      void 
  1786 ;; Registers used:
  1787 ;;		wreg, status,2
  1788 ;; Tracked objects:
  1789 ;;		On entry : 0/0
  1790 ;;		On exit  : 0/0
  1791 ;;		Unchanged: 0/0
  1792 ;; Data sizes:     COMRAM   BANK0   BANK1   BANK2   BANK3   BANK4   BANK5
  1793 ;;      Params:         0       0       0       0       0       0       0
  1794 ;;      Locals:         0       0       0       0       0       0       0
  1795 ;;      Temps:          0       0       0       0       0       0       0
  1796 ;;      Totals:         0       0       0       0       0       0       0
  1797 ;;Total ram usage:        0 bytes
  1798 ;; Hardware stack levels used: 1
  1799 ;; Hardware stack levels required when called: 4
  1800 ;; This function calls:
  1801 ;;		Nothing
  1802 ;; This function is called by:
  1803 ;;		_system_initialize
  1804 ;; This function uses a non-reentrant model
  1805 ;;
  1806                           
  1807                           	psect	text2
  1808   001398                     __ptext2:
  1809                           	callstack 0
  1810   001398                     _uart_initialize:
  1811                           	callstack 25
  1812   001398                     
  1813                           ;uart.c: 19:     TRISCbits.TRISC6 = 1;
  1814   001398  8C94               	bsf	148,6,c	;volatile
  1815                           
  1816                           ;uart.c: 20:     TRISCbits.TRISC7 = 1;
  1817   00139A  8E94               	bsf	148,7,c	;volatile
  1818                           
  1819                           ;uart.c: 24:     TXSTAbits.SYNC = 0;
  1820   00139C  98AC               	bcf	172,4,c	;volatile
  1821                           
  1822                           ;uart.c: 25:     BAUDCONbits.BRG16 = 0;
  1823   00139E  96B8               	bcf	184,3,c	;volatile
  1824                           
  1825                           ;uart.c: 26:     TXSTAbits.BRGH = 1;
  1826   0013A0  84AC               	bsf	172,2,c	;volatile
  1827   0013A2                     
  1828                           ;uart.c: 27:     SPBRG = 51;
  1829   0013A2  0E33               	movlw	51
  1830   0013A4  6EAF               	movwf	175,c	;volatile
  1831   0013A6                     
  1832                           ;uart.c: 31:     RCSTAbits.SPEN = 1;
  1833   0013A6  8EAB               	bsf	171,7,c	;volatile
  1834   0013A8                     
  1835                           ;uart.c: 32:     PIR1bits.TXIF = 0;
  1836   0013A8  989E               	bcf	158,4,c	;volatile
  1837   0013AA                     
  1838                           ;uart.c: 33:     PIR1bits.RCIF = 0;
  1839   0013AA  9A9E               	bcf	158,5,c	;volatile
  1840   0013AC                     
  1841                           ;uart.c: 34:     TXSTAbits.TXEN = 1;
  1842   0013AC  8AAC               	bsf	172,5,c	;volatile
  1843   0013AE                     
  1844                           ;uart.c: 35:     RCSTAbits.CREN = 1;
  1845   0013AE  88AB               	bsf	171,4,c	;volatile
  1846   0013B0                     
  1847                           ;uart.c: 36:     PIE1bits.TXIE = 0;
  1848   0013B0  989D               	bcf	157,4,c	;volatile
  1849   0013B2                     
  1850                           ;uart.c: 37:     IPR1bits.TXIP = 0;
  1851   0013B2  989F               	bcf	159,4,c	;volatile
  1852   0013B4                     
  1853                           ;uart.c: 38:     PIE1bits.RCIE = 1;
  1854   0013B4  8A9D               	bsf	157,5,c	;volatile
  1855   0013B6                     
  1856                           ;uart.c: 39:     IPR1bits.RCIP = 1;
  1857   0013B6  8A9F               	bsf	159,5,c	;volatile
  1858   0013B8  0012               	return		;funcret
  1859   0013BA                     __end_of_uart_initialize:
  1860                           	callstack 0
  1861                           
  1862 ;; *************** function _i2c_initialize *****************
  1863 ;; Defined at:
  1864 ;;		line 5 in file "i2c.c"
  1865 ;; Parameters:    Size  Location     Type
  1866 ;;		None
  1867 ;; Auto vars:     Size  Location     Type
  1868 ;;		None
  1869 ;; Return value:  Size  Location     Type
  1870 ;;                  1    wreg      void 
  1871 ;; Registers used:
  1872 ;;		wreg, status,2
  1873 ;; Tracked objects:
  1874 ;;		On entry : 0/0
  1875 ;;		On exit  : 0/0
  1876 ;;		Unchanged: 0/0
  1877 ;; Data sizes:     COMRAM   BANK0   BANK1   BANK2   BANK3   BANK4   BANK5
  1878 ;;      Params:         0       0       0       0       0       0       0
  1879 ;;      Locals:         0       0       0       0       0       0       0
  1880 ;;      Temps:          0       0       0       0       0       0       0
  1881 ;;      Totals:         0       0       0       0       0       0       0
  1882 ;;Total ram usage:        0 bytes
  1883 ;; Hardware stack levels used: 1
  1884 ;; Hardware stack levels required when called: 4
  1885 ;; This function calls:
  1886 ;;		Nothing
  1887 ;; This function is called by:
  1888 ;;		_system_initialize
  1889 ;; This function uses a non-reentrant model
  1890 ;;
  1891                           
  1892                           	psect	text3
  1893   0013F2                     __ptext3:
  1894                           	callstack 0
  1895   0013F2                     _i2c_initialize:
  1896                           	callstack 25
  1897   0013F2                     
  1898                           ;i2c.c: 7:     TRISCbits.RC3 = 1;
  1899   0013F2  8694               	bsf	148,3,c	;volatile
  1900                           
  1901                           ;i2c.c: 8:     TRISCbits.RC4 = 1;
  1902   0013F4  8894               	bsf	148,4,c	;volatile
  1903                           
  1904                           ;i2c.c: 9:     SSPSTATbits.SMP = 1;
  1905   0013F6  8EC7               	bsf	199,7,c	;volatile
  1906                           
  1907                           ;i2c.c: 10:     SSPSTATbits.CKE = 1;
  1908   0013F8  8CC7               	bsf	199,6,c	;volatile
  1909   0013FA                     
  1910                           ;i2c.c: 11:     SSPCON1bits.SSPM = 8;
  1911   0013FA  50C6               	movf	198,w,c	;volatile
  1912   0013FC  0BF0               	andlw	-16
  1913   0013FE  0908               	iorlw	8
  1914   001400  6EC6               	movwf	198,c	;volatile
  1915                           
  1916                           ;i2c.c: 12:     SSPADD = 19;
  1917   001402  0E13               	movlw	19
  1918   001404  6EC8               	movwf	200,c	;volatile
  1919   001406                     
  1920                           ;i2c.c: 13:     SSPCON1bits.SSPEN = 1;
  1921   001406  8AC6               	bsf	198,5,c	;volatile
  1922   001408  0012               	return		;funcret
  1923   00140A                     __end_of_i2c_initialize:
  1924                           	callstack 0
  1925                           
  1926 ;; *************** function _button_initialize *****************
  1927 ;; Defined at:
  1928 ;;		line 3 in file "button.c"
  1929 ;; Parameters:    Size  Location     Type
  1930 ;;		None
  1931 ;; Auto vars:     Size  Location     Type
  1932 ;;		None
  1933 ;; Return value:  Size  Location     Type
  1934 ;;                  1    wreg      void 
  1935 ;; Registers used:
  1936 ;;		status,2, status,0
  1937 ;; Tracked objects:
  1938 ;;		On entry : 0/0
  1939 ;;		On exit  : 0/0
  1940 ;;		Unchanged: 0/0
  1941 ;; Data sizes:     COMRAM   BANK0   BANK1   BANK2   BANK3   BANK4   BANK5
  1942 ;;      Params:         0       0       0       0       0       0       0
  1943 ;;      Locals:         0       0       0       0       0       0       0
  1944 ;;      Temps:          0       0       0       0       0       0       0
  1945 ;;      Totals:         0       0       0       0       0       0       0
  1946 ;;Total ram usage:        0 bytes
  1947 ;; Hardware stack levels used: 1
  1948 ;; Hardware stack levels required when called: 4
  1949 ;; This function calls:
  1950 ;;		Nothing
  1951 ;; This function is called by:
  1952 ;;		_system_initialize
  1953 ;; This function uses a non-reentrant model
  1954 ;;
  1955                           
  1956                           	psect	text4
  1957   00143E                     __ptext4:
  1958                           	callstack 0
  1959   00143E                     _button_initialize:
  1960                           	callstack 25
  1961   00143E                     
  1962                           ;button.c: 4:     INTCONbits.INT0IF = 0;
  1963   00143E  92F2               	bcf	242,1,c	;volatile
  1964                           
  1965                           ;button.c: 5:     INTCONbits.INT0IE = 1;
  1966   001440  88F2               	bsf	242,4,c	;volatile
  1967   001442                     
  1968                           ;button.c: 7:     TRISB |= 0x01;
  1969   001442  8093               	bsf	147,0,c	;volatile
  1970   001444  0012               	return		;funcret
  1971   001446                     __end_of_button_initialize:
  1972                           	callstack 0
  1973                           
  1974 ;; *************** function _adc_initialize *****************
  1975 ;; Defined at:
  1976 ;;		line 3 in file "adc.c"
  1977 ;; Parameters:    Size  Location     Type
  1978 ;;		None
  1979 ;; Auto vars:     Size  Location     Type
  1980 ;;		None
  1981 ;; Return value:  Size  Location     Type
  1982 ;;                  1    wreg      void 
  1983 ;; Registers used:
  1984 ;;		wreg, status,2
  1985 ;; Tracked objects:
  1986 ;;		On entry : 0/0
  1987 ;;		On exit  : 0/0
  1988 ;;		Unchanged: 0/0
  1989 ;; Data sizes:     COMRAM   BANK0   BANK1   BANK2   BANK3   BANK4   BANK5
  1990 ;;      Params:         0       0       0       0       0       0       0
  1991 ;;      Locals:         0       0       0       0       0       0       0
  1992 ;;      Temps:          0       0       0       0       0       0       0
  1993 ;;      Totals:         0       0       0       0       0       0       0
  1994 ;;Total ram usage:        0 bytes
  1995 ;; Hardware stack levels used: 1
  1996 ;; Hardware stack levels required when called: 4
  1997 ;; This function calls:
  1998 ;;		Nothing
  1999 ;; This function is called by:
  2000 ;;		_system_initialize
  2001 ;; This function uses a non-reentrant model
  2002 ;;
  2003                           
  2004                           	psect	text5
  2005   001328                     __ptext5:
  2006                           	callstack 0
  2007   001328                     _adc_initialize:
  2008                           	callstack 25
  2009   001328                     
  2010                           ;adc.c: 5:     TRISAbits.RA0 = 1;
  2011   001328  8092               	bsf	146,0,c	;volatile
  2012   00132A                     
  2013                           ;adc.c: 6:     ADCON0bits.CHS = 0b0000;
  2014   00132A  0EC3               	movlw	-61
  2015   00132C  16C2               	andwf	194,f,c	;volatile
  2016   00132E                     
  2017                           ;adc.c: 7:     ADCON1bits.VCFG0 = 0;
  2018   00132E  98C1               	bcf	193,4,c	;volatile
  2019   001330                     
  2020                           ;adc.c: 8:     ADCON1bits.VCFG1 = 0;
  2021   001330  9AC1               	bcf	193,5,c	;volatile
  2022                           
  2023                           ;adc.c: 9:     ADCON2bits.ADCS = 0b101;
  2024   001332  50C0               	movf	192,w,c	;volatile
  2025   001334  0BF8               	andlw	-8
  2026   001336  0905               	iorlw	5
  2027   001338  6EC0               	movwf	192,c	;volatile
  2028                           
  2029                           ;adc.c: 10:     ADCON2bits.ACQT = 0b001;
  2030   00133A  50C0               	movf	192,w,c	;volatile
  2031   00133C  0BC7               	andlw	-57
  2032   00133E  0908               	iorlw	8
  2033   001340  6EC0               	movwf	192,c	;volatile
  2034   001342                     
  2035                           ;adc.c: 11:     ADCON0bits.ADON = 1;
  2036   001342  80C2               	bsf	194,0,c	;volatile
  2037   001344                     
  2038                           ;adc.c: 12:     ADCON2bits.ADFM = 1;
  2039   001344  8EC0               	bsf	192,7,c	;volatile
  2040   001346                     
  2041                           ;adc.c: 13:     PIR1bits.ADIF = 0;
  2042   001346  9C9E               	bcf	158,6,c	;volatile
  2043   001348                     
  2044                           ;adc.c: 14:     IPR1bits.ADIP = 0;
  2045   001348  9C9F               	bcf	159,6,c	;volatile
  2046   00134A                     
  2047                           ;adc.c: 15:     PIE1bits.ADIE = 1;
  2048   00134A  8C9D               	bsf	157,6,c	;volatile
  2049   00134C  0012               	return		;funcret
  2050   00134E                     __end_of_adc_initialize:
  2051                           	callstack 0
  2052                           
  2053 ;; *************** function _printf *****************
  2054 ;; Defined at:
  2055 ;;		line 5 in file "C:\Program Files\Microchip\xc8\v3.00\pic\sources\c99\common\printf.c"
  2056 ;; Parameters:    Size  Location     Type
  2057 ;;  fmt             1   46[COMRAM] PTR const unsigned char 
  2058 ;;		 -> STR_5(8), STR_4(18), STR_3(19), STR_2(24), 
  2059 ;;		 -> STR_1(8), 
  2060 ;; Auto vars:     Size  Location     Type
  2061 ;;  ret             2    0        int 
  2062 ;;  ap              1   53[COMRAM] PTR void [1]
  2063 ;;		 -> ?_printf(2), 
  2064 ;; Return value:  Size  Location     Type
  2065 ;;                  2   46[COMRAM] int 
  2066 ;; Registers used:
  2067 ;;		wreg, fsr1l, fsr1h, fsr2l, fsr2h, status,2, status,0, tblptrl, tblptrh, tblptru, cstack
  2068 ;; Tracked objects:
  2069 ;;		On entry : 0/0
  2070 ;;		On exit  : 0/0
  2071 ;;		Unchanged: 0/0
  2072 ;; Data sizes:     COMRAM   BANK0   BANK1   BANK2   BANK3   BANK4   BANK5
  2073 ;;      Params:         7       0       0       0       0       0       0
  2074 ;;      Locals:         1       0       0       0       0       0       0
  2075 ;;      Temps:          0       0       0       0       0       0       0
  2076 ;;      Totals:         8       0       0       0       0       0       0
  2077 ;;Total ram usage:        8 bytes
  2078 ;; Hardware stack levels used: 1
  2079 ;; Hardware stack levels required when called: 8
  2080 ;; This function calls:
  2081 ;;		_vfprintf
  2082 ;; This function is called by:
  2083 ;;		_main
  2084 ;; This function uses a non-reentrant model
  2085 ;;
  2086                           
  2087                           	psect	text6
  2088   0013D8                     __ptext6:
  2089                           	callstack 0
  2090   0013D8                     _printf:
  2091                           	callstack 22
  2092   0013D8  0E30               	movlw	low (?_printf+1)
  2093   0013DA  6E36               	movwf	printf@ap^0,c
  2094   0013DC  0E00               	movlw	0
  2095   0013DE  6E2A               	movwf	vfprintf@fp^0,c
  2096   0013E0  0E00               	movlw	0
  2097   0013E2  6E2B               	movwf	(vfprintf@fp+1)^0,c
  2098   0013E4  C02F  F02C         	movff	printf@fmt,vfprintf@fmt
  2099   0013E8  0E36               	movlw	low printf@ap
  2100   0013EA  6E2D               	movwf	vfprintf@ap^0,c
  2101   0013EC  ECF4  F008         	call	_vfprintf	;wreg free
  2102   0013F0  0012               	return		;funcret
  2103   0013F2                     __end_of_printf:
  2104                           	callstack 0
  2105                           
  2106 ;; *************** function _vfprintf *****************
  2107 ;; Defined at:
  2108 ;;		line 1817 in file "C:\Program Files\Microchip\xc8\v3.00\pic\sources\c99\common\doprnt.c"
  2109 ;; Parameters:    Size  Location     Type
  2110 ;;  fp              2   41[COMRAM] PTR struct _IO_FILE
  2111 ;;		 -> NULL(0), 
  2112 ;;  fmt             1   43[COMRAM] PTR const unsigned char 
  2113 ;;		 -> STR_5(8), STR_4(18), STR_3(19), STR_2(24), 
  2114 ;;		 -> STR_1(8), 
  2115 ;;  ap              1   44[COMRAM] PTR PTR void 
  2116 ;;		 -> printf@ap(1), 
  2117 ;; Auto vars:     Size  Location     Type
  2118 ;;  cfmt            1   45[COMRAM] PTR unsigned char 
  2119 ;;		 -> STR_5(8), STR_4(18), STR_3(19), STR_2(24), 
  2120 ;;		 -> STR_1(8), 
  2121 ;; Return value:  Size  Location     Type
  2122 ;;                  2   41[COMRAM] int 
  2123 ;; Registers used:
  2124 ;;		wreg, fsr1l, fsr1h, fsr2l, fsr2h, status,2, status,0, tblptrl, tblptrh, tblptru, cstack
  2125 ;; Tracked objects:
  2126 ;;		On entry : 0/0
  2127 ;;		On exit  : 0/0
  2128 ;;		Unchanged: 0/0
  2129 ;; Data sizes:     COMRAM   BANK0   BANK1   BANK2   BANK3   BANK4   BANK5
  2130 ;;      Params:         4       0       0       0       0       0       0
  2131 ;;      Locals:         1       0       0       0       0       0       0
  2132 ;;      Temps:          0       0       0       0       0       0       0
  2133 ;;      Totals:         5       0       0       0       0       0       0
  2134 ;;Total ram usage:        5 bytes
  2135 ;; Hardware stack levels used: 1
  2136 ;; Hardware stack levels required when called: 7
  2137 ;; This function calls:
  2138 ;;		_vfpfcnvrt
  2139 ;; This function is called by:
  2140 ;;		_printf
  2141 ;; This function uses a non-reentrant model
  2142 ;;
  2143                           
  2144                           	psect	text7
  2145   0011E8                     __ptext7:
  2146                           	callstack 0
  2147   0011E8                     _vfprintf:
  2148                           	callstack 22
  2149   0011E8                     
  2150                           ;C:\Program Files\Microchip\xc8\v3.00\pic\sources\c99\common\doprnt.c: 1817: int vfprint
      +                          f(FILE *fp, const char *fmt, va_list ap);C:\Program Files\Microchip\xc8\v3.00\pic\source
      +                          s\c99\common\doprnt.c: 1818: {;C:\Program Files\Microchip\xc8\v3.00\pic\sources\c99\comm
      +                          on\doprnt.c: 1820:     char *cfmt;;C:\Program Files\Microchip\xc8\v3.00\pic\sources\c99\
      +                          common\doprnt.c: 1822:     cfmt = (char *)fmt;
  2151   0011E8  C02C  F02E         	movff	vfprintf@fmt,vfprintf@cfmt
  2152                           
  2153                           ;C:\Program Files\Microchip\xc8\v3.00\pic\sources\c99\common\doprnt.c: 1826:     while (
      +                          *cfmt) {
  2154   0011EC  EF02  F009         	goto	l1805
  2155   0011F0                     l1803:
  2156                           
  2157                           ;C:\Program Files\Microchip\xc8\v3.00\pic\sources\c99\common\doprnt.c: 1830:    vfpfcnvr
      +                          t(fp, &cfmt, ap);
  2158   0011F0  C02A  F01D         	movff	vfprintf@fp,vfpfcnvrt@fp
  2159   0011F4  C02B  F01E         	movff	vfprintf@fp+1,vfpfcnvrt@fp+1
  2160   0011F8  0E2E               	movlw	low vfprintf@cfmt
  2161   0011FA  6E1F               	movwf	vfpfcnvrt@fmt^0,c
  2162   0011FC  C02D  F020         	movff	vfprintf@ap,vfpfcnvrt@ap
  2163   001200  EC28  F003         	call	_vfpfcnvrt	;wreg free
  2164   001204                     l1805:
  2165                           
  2166                           ;C:\Program Files\Microchip\xc8\v3.00\pic\sources\c99\common\doprnt.c: 1826:     while (
      +                          *cfmt) {
  2167   001204  C02E  FFF6         	movff	vfprintf@cfmt,tblptrl
  2168   001208                     	if	1	;There is more than 1 active tblptr byte
  2169   001208  0E06               	movlw	high __smallconst
  2170   00120A  6EF7               	movwf	tblptrh,c
  2171   00120C                     	endif
  2172   00120C                     	if	0	;tblptru may be non-zero
  2173   00120C                     	endif
  2174   00120C                     	if	0	;tblptru may be non-zero
  2175   00120C                     	endif
  2176   00120C  0008               	tblrd		*
  2177   00120E  50F5               	movf	tablat,w,c
  2178   001210  0900               	iorlw	0
  2179   001212  A4D8               	btfss	status,2,c
  2180   001214  EF0E  F009         	goto	u1031
  2181   001218  EF10  F009         	goto	u1030
  2182   00121C                     u1031:
  2183   00121C  EFF8  F008         	goto	l1803
  2184   001220                     u1030:
  2185   001220                     
  2186                           ;C:\Program Files\Microchip\xc8\v3.00\pic\sources\c99\common\doprnt.c: 1835:  return 0;
  2187   001220  0E00               	movlw	0
  2188   001222  6E2B               	movwf	(?_vfprintf+1)^0,c
  2189   001224  0E00               	movlw	0
  2190   001226  6E2A               	movwf	?_vfprintf^0,c
  2191   001228  0012               	return		;funcret
  2192   00122A                     __end_of_vfprintf:
  2193                           	callstack 0
  2194                           
  2195 ;; *************** function _vfpfcnvrt *****************
  2196 ;; Defined at:
  2197 ;;		line 1177 in file "C:\Program Files\Microchip\xc8\v3.00\pic\sources\c99\common\doprnt.c"
  2198 ;; Parameters:    Size  Location     Type
  2199 ;;  fp              2   28[COMRAM] PTR struct _IO_FILE
  2200 ;;		 -> NULL(0), 
  2201 ;;  fmt             1   30[COMRAM] PTR PTR unsigned char 
  2202 ;;		 -> vfprintf@cfmt(1), 
  2203 ;;  ap              1   31[COMRAM] PTR PTR void 
  2204 ;;		 -> printf@ap(1), 
  2205 ;; Auto vars:     Size  Location     Type
  2206 ;;  convarg         4   36[COMRAM] struct .
  2207 ;;  c               1   40[COMRAM] unsigned char 
  2208 ;;  cp              1   35[COMRAM] PTR unsigned char 
  2209 ;;		 -> STR_5(8), STR_4(18), STR_3(19), STR_2(24), 
  2210 ;;		 -> STR_1(8), 
  2211 ;;  done            1   34[COMRAM] _Bool 
  2212 ;; Return value:  Size  Location     Type
  2213 ;;                  1    wreg      void 
  2214 ;; Registers used:
  2215 ;;		wreg, fsr1l, fsr1h, fsr2l, fsr2h, status,2, status,0, tblptrl, tblptrh, tblptru, cstack
  2216 ;; Tracked objects:
  2217 ;;		On entry : 0/0
  2218 ;;		On exit  : 0/0
  2219 ;;		Unchanged: 0/0
  2220 ;; Data sizes:     COMRAM   BANK0   BANK1   BANK2   BANK3   BANK4   BANK5
  2221 ;;      Params:         4       0       0       0       0       0       0
  2222 ;;      Locals:         7       0       0       0       0       0       0
  2223 ;;      Temps:          2       0       0       0       0       0       0
  2224 ;;      Totals:        13       0       0       0       0       0       0
  2225 ;;Total ram usage:       13 bytes
  2226 ;; Hardware stack levels used: 1
  2227 ;; Hardware stack levels required when called: 6
  2228 ;; This function calls:
  2229 ;;		___aldiv
  2230 ;;		___almod
  2231 ;;		___lldiv
  2232 ;;		___llmod
  2233 ;;		_abs
  2234 ;;		_fputc
  2235 ;; This function is called by:
  2236 ;;		_vfprintf
  2237 ;; This function uses a non-reentrant model
  2238 ;;
  2239                           
  2240                           	psect	text8
  2241   000650                     __ptext8:
  2242                           	callstack 0
  2243   000650                     _vfpfcnvrt:
  2244                           	callstack 22
  2245   000650                     
  2246                           ;C:\Program Files\Microchip\xc8\v3.00\pic\sources\c99\common\doprnt.c: 1177: vfpfcnvrt(F
      +                          ILE *fp, char *fmt[], va_list ap);C:\Program Files\Microchip\xc8\v3.00\pic\sources\c99\c
      +                          ommon\doprnt.c: 1178: {;C:\Program Files\Microchip\xc8\v3.00\pic\sources\c99\common\dopr
      +                          nt.c: 1179:     char c, *cp;;C:\Program Files\Microchip\xc8\v3.00\pic\sources\c99\common
      +                          \doprnt.c: 1180:     _Bool done;;C:\Program Files\Microchip\xc8\v3.00\pic\sources\c99\co
      +                          mmon\doprnt.c: 1188:  } convarg;;C:\Program Files\Microchip\xc8\v3.00\pic\sources\c99\co
      +                          mmon\doprnt.c: 1201:     if ((*fmt)[0] == '%') {
  2247   000650  501F               	movf	vfpfcnvrt@fmt^0,w,c
  2248   000652  6ED9               	movwf	fsr2l,c
  2249   000654  6ADA               	clrf	fsr2h,c
  2250   000656  CFDF FFF6          	movff	indf2,tblptrl
  2251   00065A                     	if	1	;There is more than 1 active tblptr byte
  2252   00065A  0E06               	movlw	high __smallconst
  2253   00065C  6EF7               	movwf	tblptrh,c
  2254   00065E                     	endif
  2255   00065E                     	if	0	;tblptru may be non-zero
  2256   00065E                     	endif
  2257   00065E                     	if	0	;tblptru may be non-zero
  2258   00065E                     	endif
  2259   00065E  0008               	tblrd		*
  2260   000660  50F5               	movf	tablat,w,c
  2261   000662  0A25               	xorlw	37
  2262   000664  A4D8               	btfss	status,2,c
  2263   000666  EF37  F003         	goto	u891
  2264   00066A  EF39  F003         	goto	u890
  2265   00066E                     u891:
  2266   00066E  EF10  F005         	goto	l1793
  2267   000672                     u890:
  2268   000672                     
  2269                           ;C:\Program Files\Microchip\xc8\v3.00\pic\sources\c99\common\doprnt.c: 1202:         ++*
      +                          fmt;
  2270   000672  501F               	movf	vfpfcnvrt@fmt^0,w,c
  2271   000674  6ED9               	movwf	fsr2l,c
  2272   000676  6ADA               	clrf	fsr2h,c
  2273   000678  2ADF               	incf	indf2,f,c
  2274   00067A                     
  2275                           ;C:\Program Files\Microchip\xc8\v3.00\pic\sources\c99\common\doprnt.c: 1204:         fla
      +                          gs = width = 0;
  2276   00067A  0E00               	movlw	0
  2277   00067C  6E63               	movwf	(_width+1)^0,c
  2278   00067E  0E00               	movlw	0
  2279   000680  6E62               	movwf	_width^0,c
  2280   000682  C062  F06C         	movff	_width,_flags
  2281   000686                     
  2282                           ;C:\Program Files\Microchip\xc8\v3.00\pic\sources\c99\common\doprnt.c: 1205:         pre
      +                          c = -1;
  2283   000686  6864               	setf	_prec^0,c
  2284   000688  6865               	setf	(_prec+1)^0,c
  2285   00068A                     
  2286                           ;C:\Program Files\Microchip\xc8\v3.00\pic\sources\c99\common\doprnt.c: 1291:   cp = *fmt
      +                          ;
  2287   00068A  501F               	movf	vfpfcnvrt@fmt^0,w,c
  2288   00068C  6ED9               	movwf	fsr2l,c
  2289   00068E  6ADA               	clrf	fsr2h,c
  2290   000690  50DF               	movf	indf2,w,c
  2291   000692  6E24               	movwf	vfpfcnvrt@cp^0,c
  2292   000694                     
  2293                           ;C:\Program Files\Microchip\xc8\v3.00\pic\sources\c99\common\doprnt.c: 1293:   c = *cp;
  2294   000694  C024  FFF6         	movff	vfpfcnvrt@cp,tblptrl
  2295   000698                     	if	1	;There is more than 1 active tblptr byte
  2296   000698  0E06               	movlw	high __smallconst
  2297   00069A  6EF7               	movwf	tblptrh,c
  2298   00069C                     	endif
  2299   00069C                     	if	0	;tblptru may be non-zero
  2300   00069C                     	endif
  2301   00069C                     	if	0	;tblptru may be non-zero
  2302   00069C                     	endif
  2303   00069C  0008               	tblrd		*
  2304   00069E  CFF5 F029          	movff	tablat,vfpfcnvrt@c
  2305                           
  2306                           ;C:\Program Files\Microchip\xc8\v3.00\pic\sources\c99\common\doprnt.c: 1294:   switch(c)
      +                           {
  2307   0006A2  EF5D  F003         	goto	l1717
  2308   0006A6                     l1711:
  2309                           
  2310                           ;C:\Program Files\Microchip\xc8\v3.00\pic\sources\c99\common\doprnt.c: 1309:     cp++;
  2311   0006A6  2A24               	incf	vfpfcnvrt@cp^0,f,c
  2312                           
  2313                           ;C:\Program Files\Microchip\xc8\v3.00\pic\sources\c99\common\doprnt.c: 1316:     break;
  2314   0006A8  EF70  F003         	goto	l1719
  2315   0006AC                     l1713:
  2316                           
  2317                           ;C:\Program Files\Microchip\xc8\v3.00\pic\sources\c99\common\doprnt.c: 1350:     c = 'i'
      +                          ;
  2318   0006AC  0E69               	movlw	105
  2319   0006AE  6E29               	movwf	vfpfcnvrt@c^0,c
  2320                           
  2321                           ;C:\Program Files\Microchip\xc8\v3.00\pic\sources\c99\common\doprnt.c: 1351:     break;
  2322   0006B0  EF70  F003         	goto	l1719
  2323   0006B4                     l971:
  2324                           
  2325                           ;C:\Program Files\Microchip\xc8\v3.00\pic\sources\c99\common\doprnt.c: 1353:     c = 0;
  2326   0006B4  6A29               	clrf	vfpfcnvrt@c^0,c
  2327                           
  2328                           ;C:\Program Files\Microchip\xc8\v3.00\pic\sources\c99\common\doprnt.c: 1354:     break;
  2329   0006B6  EF70  F003         	goto	l1719
  2330   0006BA                     l1717:
  2331   0006BA  5029               	movf	vfpfcnvrt@c^0,w,c
  2332                           
  2333                           ; Switch size 1, requested type "simple"
  2334                           ; Number of cases is 4, Range of values is 100 to 117
  2335                           ; switch strategies available:
  2336                           ; Name         Instructions Cycles
  2337                           ; simple_byte           13     7 (average)
  2338                           ;	Chosen strategy is simple_byte
  2339   0006BC  0A64               	xorlw	100	; case 100
  2340   0006BE  B4D8               	btfsc	status,2,c
  2341   0006C0  EF56  F003         	goto	l1713
  2342   0006C4  0A0D               	xorlw	13	; case 105
  2343   0006C6  B4D8               	btfsc	status,2,c
  2344   0006C8  EF56  F003         	goto	l1713
  2345   0006CC  0A05               	xorlw	5	; case 108
  2346   0006CE  B4D8               	btfsc	status,2,c
  2347   0006D0  EF53  F003         	goto	l1711
  2348   0006D4  0A19               	xorlw	25	; case 117
  2349   0006D6  B4D8               	btfsc	status,2,c
  2350   0006D8  EF56  F003         	goto	l1713
  2351   0006DC  EF5A  F003         	goto	l971
  2352   0006E0                     l1719:
  2353                           
  2354                           ;C:\Program Files\Microchip\xc8\v3.00\pic\sources\c99\common\doprnt.c: 1361:   if (*cp =
      +                          = 'd' || *cp == 'i') {
  2355   0006E0  C024  FFF6         	movff	vfpfcnvrt@cp,tblptrl
  2356   0006E4                     	if	1	;There is more than 1 active tblptr byte
  2357   0006E4  0E06               	movlw	high __smallconst
  2358   0006E6  6EF7               	movwf	tblptrh,c
  2359   0006E8                     	endif
  2360   0006E8                     	if	0	;tblptru may be non-zero
  2361   0006E8                     	endif
  2362   0006E8                     	if	0	;tblptru may be non-zero
  2363   0006E8                     	endif
  2364   0006E8  0008               	tblrd		*
  2365   0006EA  50F5               	movf	tablat,w,c
  2366   0006EC  0A64               	xorlw	100
  2367   0006EE  B4D8               	btfsc	status,2,c
  2368   0006F0  EF7C  F003         	goto	u901
  2369   0006F4  EF7E  F003         	goto	u900
  2370   0006F8                     u901:
  2371   0006F8  EFB3  F003         	goto	l1729
  2372   0006FC                     u900:
  2373   0006FC  C024  FFF6         	movff	vfpfcnvrt@cp,tblptrl
  2374   000700                     	if	1	;There is more than 1 active tblptr byte
  2375   000700  0E06               	movlw	high __smallconst
  2376   000702  6EF7               	movwf	tblptrh,c
  2377   000704                     	endif
  2378   000704                     	if	0	;tblptru may be non-zero
  2379   000704                     	endif
  2380   000704                     	if	0	;tblptru may be non-zero
  2381   000704                     	endif
  2382   000704  0008               	tblrd		*
  2383   000706  50F5               	movf	tablat,w,c
  2384   000708  0A69               	xorlw	105
  2385   00070A  A4D8               	btfss	status,2,c
  2386   00070C  EF8A  F003         	goto	u911
  2387   000710  EF8C  F003         	goto	u910
  2388   000714                     u911:
  2389   000714  EF50  F004         	goto	l1757
  2390   000718                     u910:
  2391   000718  EFB3  F003         	goto	l1729
  2392   00071C                     l1723:
  2393                           
  2394                           ;C:\Program Files\Microchip\xc8\v3.00\pic\sources\c99\common\doprnt.c: 1365:      convar
      +                          g.sint = (vfpf_sint_t)(int)(*(int *)__va_arg(*(int **)ap, (int)0));
  2395   00071C  5020               	movf	vfpfcnvrt@ap^0,w,c
  2396   00071E  6ED9               	movwf	fsr2l,c
  2397   000720  6ADA               	clrf	fsr2h,c
  2398   000722  50DF               	movf	indf2,w,c
  2399   000724  2ADF               	incf	indf2,f,c
  2400   000726  2ADF               	incf	indf2,f,c
  2401   000728  6ED9               	movwf	fsr2l,c
  2402   00072A  6ADA               	clrf	fsr2h,c
  2403   00072C  CFDE F025          	movff	postinc2,vfpfcnvrt@convarg
  2404   000730  CFDD F026          	movff	postdec2,vfpfcnvrt@convarg+1
  2405   000734  0E00               	movlw	0
  2406   000736  BE26               	btfsc	(vfpfcnvrt@convarg+1)^0,7,c
  2407   000738  0EFF               	movlw	-1
  2408   00073A  6E27               	movwf	(vfpfcnvrt@convarg+2)^0,c
  2409   00073C  6E28               	movwf	(vfpfcnvrt@convarg+3)^0,c
  2410                           
  2411                           ;C:\Program Files\Microchip\xc8\v3.00\pic\sources\c99\common\doprnt.c: 1366:      break;
  2412   00073E  EFBE  F003         	goto	l1731
  2413   000742                     l1725:
  2414                           
  2415                           ;C:\Program Files\Microchip\xc8\v3.00\pic\sources\c99\common\doprnt.c: 1379:      convar
      +                          g.sint = (vfpf_sint_t)(*(long *)__va_arg(*(long **)ap, (long)0));
  2416   000742  5020               	movf	vfpfcnvrt@ap^0,w,c
  2417   000744  6ED9               	movwf	fsr2l,c
  2418   000746  6ADA               	clrf	fsr2h,c
  2419   000748  0E04               	movlw	4
  2420   00074A  26DF               	addwf	indf2,f,c
  2421   00074C  5CDF               	subwf	indf2,w,c
  2422   00074E  6ED9               	movwf	fsr2l,c
  2423   000750  6ADA               	clrf	fsr2h,c
  2424   000752  CFDE F025          	movff	postinc2,vfpfcnvrt@convarg
  2425   000756  CFDE F026          	movff	postinc2,vfpfcnvrt@convarg+1
  2426   00075A  CFDE F027          	movff	postinc2,vfpfcnvrt@convarg+2
  2427   00075E  CFDE F028          	movff	postinc2,vfpfcnvrt@convarg+3
  2428                           
  2429                           ;C:\Program Files\Microchip\xc8\v3.00\pic\sources\c99\common\doprnt.c: 1380:      break;
  2430   000762  EFBE  F003         	goto	l1731
  2431   000766                     l1729:
  2432   000766  5029               	movf	vfpfcnvrt@c^0,w,c
  2433                           
  2434                           ; Switch size 1, requested type "simple"
  2435                           ; Number of cases is 2, Range of values is 105 to 108
  2436                           ; switch strategies available:
  2437                           ; Name         Instructions Cycles
  2438                           ; simple_byte            7     4 (average)
  2439                           ;	Chosen strategy is simple_byte
  2440   000768  0A69               	xorlw	105	; case 105
  2441   00076A  B4D8               	btfsc	status,2,c
  2442   00076C  EF8E  F003         	goto	l1723
  2443   000770  0A05               	xorlw	5	; case 108
  2444   000772  B4D8               	btfsc	status,2,c
  2445   000774  EFA1  F003         	goto	l1725
  2446   000778  EFBE  F003         	goto	l1731
  2447   00077C                     l1731:
  2448                           
  2449                           ;C:\Program Files\Microchip\xc8\v3.00\pic\sources\c99\common\doprnt.c: 1406:    *fmt = c
      +                          p+1;
  2450   00077C  501F               	movf	vfpfcnvrt@fmt^0,w,c
  2451   00077E  6ED9               	movwf	fsr2l,c
  2452   000780  6ADA               	clrf	fsr2h,c
  2453   000782  2824               	incf	vfpfcnvrt@cp^0,w,c
  2454   000784  6EDF               	movwf	indf2,c
  2455   000786                     
  2456                           ;C:\Program Files\Microchip\xc8\v3.00\pic\sources\c99\common\doprnt.c: 1408:    c = size
      +                          of(dbuf);
  2457   000786  0E20               	movlw	32
  2458   000788  6E29               	movwf	vfpfcnvrt@c^0,c
  2459   00078A                     
  2460                           ;C:\Program Files\Microchip\xc8\v3.00\pic\sources\c99\common\doprnt.c: 1409:    done = c
      +                          onvarg.sint < 0;
  2461   00078A  BE28               	btfsc	(vfpfcnvrt@convarg+3)^0,7,c
  2462   00078C  EFCA  F003         	goto	u921
  2463   000790  EFCD  F003         	goto	u920
  2464   000794                     u921:
  2465   000794  0E01               	movlw	1
  2466   000796  EFCE  F003         	goto	u930
  2467   00079A                     u920:
  2468   00079A  0E00               	movlw	0
  2469   00079C                     u930:
  2470   00079C  6E23               	movwf	vfpfcnvrt@done^0,c
  2471   00079E                     l1737:
  2472                           
  2473                           ;C:\Program Files\Microchip\xc8\v3.00\pic\sources\c99\common\doprnt.c: 1411:     dbuf[--
      +                          c] = abs(convarg.sint % 10) + '0';
  2474   00079E  0629               	decf	vfpfcnvrt@c^0,f,c
  2475   0007A0  5029               	movf	vfpfcnvrt@c^0,w,c
  2476   0007A2  0F42               	addlw	low _dbuf
  2477   0007A4  6ED9               	movwf	fsr2l,c
  2478   0007A6  6ADA               	clrf	fsr2h,c
  2479   0007A8  C025  F00F         	movff	vfpfcnvrt@convarg,___almod@dividend
  2480   0007AC  C026  F010         	movff	vfpfcnvrt@convarg+1,___almod@dividend+1
  2481   0007B0  C027  F011         	movff	vfpfcnvrt@convarg+2,___almod@dividend+2
  2482   0007B4  C028  F012         	movff	vfpfcnvrt@convarg+3,___almod@dividend+3
  2483   0007B8  0E0A               	movlw	10
  2484   0007BA  6E13               	movwf	___almod@divisor^0,c
  2485   0007BC  0E00               	movlw	0
  2486   0007BE  6E14               	movwf	(___almod@divisor+1)^0,c
  2487   0007C0  0E00               	movlw	0
  2488   0007C2  6E15               	movwf	(___almod@divisor+2)^0,c
  2489   0007C4  0E00               	movlw	0
  2490   0007C6  6E16               	movwf	(___almod@divisor+3)^0,c
  2491   0007C8  EC49  F006         	call	___almod	;wreg free
  2492   0007CC  C00F  F019         	movff	?___almod,abs@a
  2493   0007D0  C010  F01A         	movff	?___almod+1,abs@a+1
  2494   0007D4  EC15  F009         	call	_abs	;wreg free
  2495   0007D8  5019               	movf	?_abs^0,w,c
  2496   0007DA  0F30               	addlw	48
  2497   0007DC  6EDF               	movwf	indf2,c
  2498   0007DE                     
  2499                           ;C:\Program Files\Microchip\xc8\v3.00\pic\sources\c99\common\doprnt.c: 1412:     convarg
      +                          .sint /= 10;
  2500   0007DE  C025  F00F         	movff	vfpfcnvrt@convarg,___aldiv@dividend
  2501   0007E2  C026  F010         	movff	vfpfcnvrt@convarg+1,___aldiv@dividend+1
  2502   0007E6  C027  F011         	movff	vfpfcnvrt@convarg+2,___aldiv@dividend+2
  2503   0007EA  C028  F012         	movff	vfpfcnvrt@convarg+3,___aldiv@dividend+3
  2504   0007EE  0E0A               	movlw	10
  2505   0007F0  6E13               	movwf	___aldiv@divisor^0,c
  2506   0007F2  0E00               	movlw	0
  2507   0007F4  6E14               	movwf	(___aldiv@divisor+1)^0,c
  2508   0007F6  0E00               	movlw	0
  2509   0007F8  6E15               	movwf	(___aldiv@divisor+2)^0,c
  2510   0007FA  0E00               	movlw	0
  2511   0007FC  6E16               	movwf	(___aldiv@divisor+3)^0,c
  2512   0007FE  ECC4  F005         	call	___aldiv	;wreg free
  2513   000802  C00F  F025         	movff	?___aldiv,vfpfcnvrt@convarg
  2514   000806  C010  F026         	movff	?___aldiv+1,vfpfcnvrt@convarg+1
  2515   00080A  C011  F027         	movff	?___aldiv+2,vfpfcnvrt@convarg+2
  2516   00080E  C012  F028         	movff	?___aldiv+3,vfpfcnvrt@convarg+3
  2517   000812                     
  2518                           ;C:\Program Files\Microchip\xc8\v3.00\pic\sources\c99\common\doprnt.c: 1416:    } while 
      +                          (convarg.sint != 0 && c != 0);
  2519   000812  5025               	movf	vfpfcnvrt@convarg^0,w,c
  2520   000814  1026               	iorwf	(vfpfcnvrt@convarg+1)^0,w,c
  2521   000816  1027               	iorwf	(vfpfcnvrt@convarg+2)^0,w,c
  2522   000818  1028               	iorwf	(vfpfcnvrt@convarg+3)^0,w,c
  2523   00081A  B4D8               	btfsc	status,2,c
  2524   00081C  EF12  F004         	goto	u941
  2525   000820  EF14  F004         	goto	u940
  2526   000824                     u941:
  2527   000824  EF1C  F004         	goto	l1745
  2528   000828                     u940:
  2529   000828  5029               	movf	vfpfcnvrt@c^0,w,c
  2530   00082A  A4D8               	btfss	status,2,c
  2531   00082C  EF1A  F004         	goto	u951
  2532   000830  EF1C  F004         	goto	u950
  2533   000834                     u951:
  2534   000834  EFCF  F003         	goto	l1737
  2535   000838                     u950:
  2536   000838                     l1745:
  2537                           
  2538                           ;C:\Program Files\Microchip\xc8\v3.00\pic\sources\c99\common\doprnt.c: 1417:    if (c !=
      +                           0 && done) {
  2539   000838  5029               	movf	vfpfcnvrt@c^0,w,c
  2540   00083A  B4D8               	btfsc	status,2,c
  2541   00083C  EF22  F004         	goto	u961
  2542   000840  EF24  F004         	goto	u960
  2543   000844                     u961:
  2544   000844  EF45  F004         	goto	l1755
  2545   000848                     u960:
  2546   000848  5023               	movf	vfpfcnvrt@done^0,w,c
  2547   00084A  B4D8               	btfsc	status,2,c
  2548   00084C  EF2A  F004         	goto	u971
  2549   000850  EF2C  F004         	goto	u970
  2550   000854                     u971:
  2551   000854  EF45  F004         	goto	l1755
  2552   000858                     u970:
  2553   000858                     
  2554                           ;C:\Program Files\Microchip\xc8\v3.00\pic\sources\c99\common\doprnt.c: 1418:     dbuf[--
      +                          c] = '-';
  2555   000858  0629               	decf	vfpfcnvrt@c^0,f,c
  2556   00085A  5029               	movf	vfpfcnvrt@c^0,w,c
  2557   00085C  0F42               	addlw	low _dbuf
  2558   00085E  6ED9               	movwf	fsr2l,c
  2559   000860  6ADA               	clrf	fsr2h,c
  2560   000862  0E2D               	movlw	45
  2561   000864  6EDF               	movwf	indf2,c
  2562   000866  EF45  F004         	goto	l1755
  2563   00086A                     l1751:
  2564                           
  2565                           ;C:\Program Files\Microchip\xc8\v3.00\pic\sources\c99\common\doprnt.c: 1424:     fputc(d
      +                          buf[c++], fp);
  2566   00086A  5029               	movf	vfpfcnvrt@c^0,w,c
  2567   00086C  0F42               	addlw	low _dbuf
  2568   00086E  6ED9               	movwf	fsr2l,c
  2569   000870  6ADA               	clrf	fsr2h,c
  2570   000872  50DF               	movf	indf2,w,c
  2571   000874  6E21               	movwf	??_vfpfcnvrt^0,c
  2572   000876  5021               	movf	??_vfpfcnvrt^0,w,c
  2573   000878  6E10               	movwf	fputc@c^0,c
  2574   00087A  6A11               	clrf	(fputc@c+1)^0,c
  2575   00087C  C01D  F012         	movff	vfpfcnvrt@fp,fputc@fp
  2576   000880  C01E  F013         	movff	vfpfcnvrt@fp+1,fputc@fp+1
  2577   000884  EC2D  F007         	call	_fputc	;wreg free
  2578   000888  2A29               	incf	vfpfcnvrt@c^0,f,c
  2579   00088A                     l1755:
  2580                           
  2581                           ;C:\Program Files\Microchip\xc8\v3.00\pic\sources\c99\common\doprnt.c: 1423:    while (c
      +                           != sizeof(dbuf)) {
  2582   00088A  0E20               	movlw	32
  2583   00088C  1829               	xorwf	vfpfcnvrt@c^0,w,c
  2584   00088E  A4D8               	btfss	status,2,c
  2585   000890  EF4C  F004         	goto	u981
  2586   000894  EF4E  F004         	goto	u980
  2587   000898                     u981:
  2588   000898  EF35  F004         	goto	l1751
  2589   00089C                     u980:
  2590   00089C  EF23  F005         	goto	l987
  2591   0008A0                     l1757:
  2592   0008A0  C024  FFF6         	movff	vfpfcnvrt@cp,tblptrl
  2593   0008A4                     	if	1	;There is more than 1 active tblptr byte
  2594   0008A4  0E06               	movlw	high __smallconst
  2595   0008A6  6EF7               	movwf	tblptrh,c
  2596   0008A8                     	endif
  2597   0008A8                     	if	0	;tblptru may be non-zero
  2598   0008A8                     	endif
  2599   0008A8                     	if	0	;tblptru may be non-zero
  2600   0008A8                     	endif
  2601   0008A8  0008               	tblrd		*
  2602   0008AA  50F5               	movf	tablat,w,c
  2603   0008AC  0A75               	xorlw	117
  2604   0008AE  A4D8               	btfss	status,2,c
  2605   0008B0  EF5C  F004         	goto	u991
  2606   0008B4  EF5E  F004         	goto	u990
  2607   0008B8                     u991:
  2608   0008B8  EF0A  F005         	goto	l1789
  2609   0008BC                     u990:
  2610   0008BC  EF86  F004         	goto	l1765
  2611   0008C0                     l1759:
  2612                           
  2613                           ;C:\Program Files\Microchip\xc8\v3.00\pic\sources\c99\common\doprnt.c: 1456:      convar
      +                          g.uint = (vfpf_uint_t)(unsigned int)(*(unsigned int *)__va_arg(*(unsigned int **)ap, (un
      +                          signed int)0));
  2614   0008C0  5020               	movf	vfpfcnvrt@ap^0,w,c
  2615   0008C2  6ED9               	movwf	fsr2l,c
  2616   0008C4  6ADA               	clrf	fsr2h,c
  2617   0008C6  50DF               	movf	indf2,w,c
  2618   0008C8  2ADF               	incf	indf2,f,c
  2619   0008CA  2ADF               	incf	indf2,f,c
  2620   0008CC  6ED9               	movwf	fsr2l,c
  2621   0008CE  6ADA               	clrf	fsr2h,c
  2622   0008D0  CFDE F021          	movff	postinc2,??_vfpfcnvrt
  2623   0008D4  CFDD F022          	movff	postdec2,??_vfpfcnvrt+1
  2624   0008D8  C021  F025         	movff	??_vfpfcnvrt,vfpfcnvrt@convarg
  2625   0008DC  C022  F026         	movff	??_vfpfcnvrt+1,vfpfcnvrt@convarg+1
  2626   0008E0  6A27               	clrf	(vfpfcnvrt@convarg+2)^0,c
  2627   0008E2  6A28               	clrf	(vfpfcnvrt@convarg+3)^0,c
  2628                           
  2629                           ;C:\Program Files\Microchip\xc8\v3.00\pic\sources\c99\common\doprnt.c: 1457:      break;
  2630   0008E4  EF91  F004         	goto	l1767
  2631   0008E8                     l1761:
  2632                           
  2633                           ;C:\Program Files\Microchip\xc8\v3.00\pic\sources\c99\common\doprnt.c: 1470:      convar
      +                          g.uint = (vfpf_uint_t)(*(unsigned long *)__va_arg(*(unsigned long **)ap, (unsigned long)
      +                          0));
  2634   0008E8  5020               	movf	vfpfcnvrt@ap^0,w,c
  2635   0008EA  6ED9               	movwf	fsr2l,c
  2636   0008EC  6ADA               	clrf	fsr2h,c
  2637   0008EE  0E04               	movlw	4
  2638   0008F0  26DF               	addwf	indf2,f,c
  2639   0008F2  5CDF               	subwf	indf2,w,c
  2640   0008F4  6ED9               	movwf	fsr2l,c
  2641   0008F6  6ADA               	clrf	fsr2h,c
  2642   0008F8  CFDE F025          	movff	postinc2,vfpfcnvrt@convarg
  2643   0008FC  CFDE F026          	movff	postinc2,vfpfcnvrt@convarg+1
  2644   000900  CFDE F027          	movff	postinc2,vfpfcnvrt@convarg+2
  2645   000904  CFDE F028          	movff	postinc2,vfpfcnvrt@convarg+3
  2646                           
  2647                           ;C:\Program Files\Microchip\xc8\v3.00\pic\sources\c99\common\doprnt.c: 1471:      break;
  2648   000908  EF91  F004         	goto	l1767
  2649   00090C                     l1765:
  2650   00090C  5029               	movf	vfpfcnvrt@c^0,w,c
  2651                           
  2652                           ; Switch size 1, requested type "simple"
  2653                           ; Number of cases is 2, Range of values is 105 to 108
  2654                           ; switch strategies available:
  2655                           ; Name         Instructions Cycles
  2656                           ; simple_byte            7     4 (average)
  2657                           ;	Chosen strategy is simple_byte
  2658   00090E  0A69               	xorlw	105	; case 105
  2659   000910  B4D8               	btfsc	status,2,c
  2660   000912  EF60  F004         	goto	l1759
  2661   000916  0A05               	xorlw	5	; case 108
  2662   000918  B4D8               	btfsc	status,2,c
  2663   00091A  EF74  F004         	goto	l1761
  2664   00091E  EF91  F004         	goto	l1767
  2665   000922                     l1767:
  2666                           
  2667                           ;C:\Program Files\Microchip\xc8\v3.00\pic\sources\c99\common\doprnt.c: 1497:    *fmt = c
      +                          p+1;
  2668   000922  501F               	movf	vfpfcnvrt@fmt^0,w,c
  2669   000924  6ED9               	movwf	fsr2l,c
  2670   000926  6ADA               	clrf	fsr2h,c
  2671   000928  2824               	incf	vfpfcnvrt@cp^0,w,c
  2672   00092A  6EDF               	movwf	indf2,c
  2673                           
  2674                           ;C:\Program Files\Microchip\xc8\v3.00\pic\sources\c99\common\doprnt.c: 1498:    switch (
      +                          *cp) {
  2675   00092C  EFFE  F004         	goto	l1787
  2676   000930                     l1769:
  2677                           
  2678                           ;C:\Program Files\Microchip\xc8\v3.00\pic\sources\c99\common\doprnt.c: 1525:      c = si
      +                          zeof(dbuf);
  2679   000930  0E20               	movlw	32
  2680   000932  6E29               	movwf	vfpfcnvrt@c^0,c
  2681   000934                     l1771:
  2682                           
  2683                           ;C:\Program Files\Microchip\xc8\v3.00\pic\sources\c99\common\doprnt.c: 1527:       dbuf[
      +                          --c] = (convarg.uint % 10) + '0';
  2684   000934  0629               	decf	vfpfcnvrt@c^0,f,c
  2685   000936  5029               	movf	vfpfcnvrt@c^0,w,c
  2686   000938  0F42               	addlw	low _dbuf
  2687   00093A  6ED9               	movwf	fsr2l,c
  2688   00093C  6ADA               	clrf	fsr2h,c
  2689   00093E  C025  F00F         	movff	vfpfcnvrt@convarg,___llmod@dividend
  2690   000942  C026  F010         	movff	vfpfcnvrt@convarg+1,___llmod@dividend+1
  2691   000946  C027  F011         	movff	vfpfcnvrt@convarg+2,___llmod@dividend+2
  2692   00094A  C028  F012         	movff	vfpfcnvrt@convarg+3,___llmod@dividend+3
  2693   00094E  0E0A               	movlw	10
  2694   000950  6E13               	movwf	___llmod@divisor^0,c
  2695   000952  0E00               	movlw	0
  2696   000954  6E14               	movwf	(___llmod@divisor+1)^0,c
  2697   000956  0E00               	movlw	0
  2698   000958  6E15               	movwf	(___llmod@divisor+2)^0,c
  2699   00095A  0E00               	movlw	0
  2700   00095C  6E16               	movwf	(___llmod@divisor+3)^0,c
  2701   00095E  ECE4  F007         	call	___llmod	;wreg free
  2702   000962  500F               	movf	?___llmod^0,w,c
  2703   000964  0F30               	addlw	48
  2704   000966  6EDF               	movwf	indf2,c
  2705   000968                     
  2706                           ;C:\Program Files\Microchip\xc8\v3.00\pic\sources\c99\common\doprnt.c: 1528:       conva
      +                          rg.uint /= 10;
  2707   000968  C025  F00F         	movff	vfpfcnvrt@convarg,___lldiv@dividend
  2708   00096C  C026  F010         	movff	vfpfcnvrt@convarg+1,___lldiv@dividend+1
  2709   000970  C027  F011         	movff	vfpfcnvrt@convarg+2,___lldiv@dividend+2
  2710   000974  C028  F012         	movff	vfpfcnvrt@convarg+3,___lldiv@dividend+3
  2711   000978  0E0A               	movlw	10
  2712   00097A  6E13               	movwf	___lldiv@divisor^0,c
  2713   00097C  0E00               	movlw	0
  2714   00097E  6E14               	movwf	(___lldiv@divisor+1)^0,c
  2715   000980  0E00               	movlw	0
  2716   000982  6E15               	movwf	(___lldiv@divisor+2)^0,c
  2717   000984  0E00               	movlw	0
  2718   000986  6E16               	movwf	(___lldiv@divisor+3)^0,c
  2719   000988  EC92  F007         	call	___lldiv	;wreg free
  2720   00098C  C00F  F025         	movff	?___lldiv,vfpfcnvrt@convarg
  2721   000990  C010  F026         	movff	?___lldiv+1,vfpfcnvrt@convarg+1
  2722   000994  C011  F027         	movff	?___lldiv+2,vfpfcnvrt@convarg+2
  2723   000998  C012  F028         	movff	?___lldiv+3,vfpfcnvrt@convarg+3
  2724   00099C                     
  2725                           ;C:\Program Files\Microchip\xc8\v3.00\pic\sources\c99\common\doprnt.c: 1532:      } whil
      +                          e (convarg.uint != 0 && c != 0);
  2726   00099C  5025               	movf	vfpfcnvrt@convarg^0,w,c
  2727   00099E  1026               	iorwf	(vfpfcnvrt@convarg+1)^0,w,c
  2728   0009A0  1027               	iorwf	(vfpfcnvrt@convarg+2)^0,w,c
  2729   0009A2  1028               	iorwf	(vfpfcnvrt@convarg+3)^0,w,c
  2730   0009A4  B4D8               	btfsc	status,2,c
  2731   0009A6  EFD7  F004         	goto	u1001
  2732   0009AA  EFD9  F004         	goto	u1000
  2733   0009AE                     u1001:
  2734   0009AE  EFF3  F004         	goto	l1783
  2735   0009B2                     u1000:
  2736   0009B2  5029               	movf	vfpfcnvrt@c^0,w,c
  2737   0009B4  A4D8               	btfss	status,2,c
  2738   0009B6  EFDF  F004         	goto	u1011
  2739   0009BA  EFE1  F004         	goto	u1010
  2740   0009BE                     u1011:
  2741   0009BE  EF9A  F004         	goto	l1771
  2742   0009C2                     u1010:
  2743   0009C2  EFF3  F004         	goto	l1783
  2744   0009C6                     l1779:
  2745                           
  2746                           ;C:\Program Files\Microchip\xc8\v3.00\pic\sources\c99\common\doprnt.c: 1534:       fputc
      +                          (dbuf[c++], fp);
  2747   0009C6  5029               	movf	vfpfcnvrt@c^0,w,c
  2748   0009C8  0F42               	addlw	low _dbuf
  2749   0009CA  6ED9               	movwf	fsr2l,c
  2750   0009CC  6ADA               	clrf	fsr2h,c
  2751   0009CE  50DF               	movf	indf2,w,c
  2752   0009D0  6E21               	movwf	??_vfpfcnvrt^0,c
  2753   0009D2  5021               	movf	??_vfpfcnvrt^0,w,c
  2754   0009D4  6E10               	movwf	fputc@c^0,c
  2755   0009D6  6A11               	clrf	(fputc@c+1)^0,c
  2756   0009D8  C01D  F012         	movff	vfpfcnvrt@fp,fputc@fp
  2757   0009DC  C01E  F013         	movff	vfpfcnvrt@fp+1,fputc@fp+1
  2758   0009E0  EC2D  F007         	call	_fputc	;wreg free
  2759   0009E4  2A29               	incf	vfpfcnvrt@c^0,f,c
  2760   0009E6                     l1783:
  2761                           
  2762                           ;C:\Program Files\Microchip\xc8\v3.00\pic\sources\c99\common\doprnt.c: 1533:      while 
      +                          (c != sizeof(dbuf)) {
  2763   0009E6  0E20               	movlw	32
  2764   0009E8  1829               	xorwf	vfpfcnvrt@c^0,w,c
  2765   0009EA  A4D8               	btfss	status,2,c
  2766   0009EC  EFFA  F004         	goto	u1021
  2767   0009F0  EFFC  F004         	goto	u1020
  2768   0009F4                     u1021:
  2769   0009F4  EFE3  F004         	goto	l1779
  2770   0009F8                     u1020:
  2771   0009F8  EF23  F005         	goto	l987
  2772   0009FC                     l1787:
  2773   0009FC  C024  FFF6         	movff	vfpfcnvrt@cp,tblptrl
  2774   000A00                     	if	1	;There is more than 1 active tblptr byte
  2775   000A00  0E06               	movlw	high __smallconst
  2776   000A02  6EF7               	movwf	tblptrh,c
  2777   000A04                     	endif
  2778   000A04                     	if	0	;tblptru may be non-zero
  2779   000A04                     	endif
  2780   000A04                     	if	0	;tblptru may be non-zero
  2781   000A04                     	endif
  2782   000A04  0008               	tblrd		*
  2783   000A06  50F5               	movf	tablat,w,c
  2784                           
  2785                           ; Switch size 1, requested type "simple"
  2786                           ; Number of cases is 1, Range of values is 117 to 117
  2787                           ; switch strategies available:
  2788                           ; Name         Instructions Cycles
  2789                           ; simple_byte            4     3 (average)
  2790                           ;	Chosen strategy is simple_byte
  2791   000A08  0A75               	xorlw	117	; case 117
  2792   000A0A  B4D8               	btfsc	status,2,c
  2793   000A0C  EF98  F004         	goto	l1769
  2794   000A10  EF0A  F005         	goto	l1789
  2795   000A14                     l1789:
  2796                           
  2797                           ;C:\Program Files\Microchip\xc8\v3.00\pic\sources\c99\common\doprnt.c: 1806:         ++*
      +                          fmt;
  2798   000A14  501F               	movf	vfpfcnvrt@fmt^0,w,c
  2799   000A16  6ED9               	movwf	fsr2l,c
  2800   000A18  6ADA               	clrf	fsr2h,c
  2801   000A1A  2ADF               	incf	indf2,f,c
  2802   000A1C  EF23  F005         	goto	l987
  2803   000A20                     l1793:
  2804                           
  2805                           ;C:\Program Files\Microchip\xc8\v3.00\pic\sources\c99\common\doprnt.c: 1811:     fputc((
      +                          int)(*fmt)[0], fp);
  2806   000A20  501F               	movf	vfpfcnvrt@fmt^0,w,c
  2807   000A22  6ED9               	movwf	fsr2l,c
  2808   000A24  6ADA               	clrf	fsr2h,c
  2809   000A26  CFDF FFF6          	movff	indf2,tblptrl
  2810   000A2A                     	if	1	;There is more than 1 active tblptr byte
  2811   000A2A  0E06               	movlw	high __smallconst
  2812   000A2C  6EF7               	movwf	tblptrh,c
  2813   000A2E                     	endif
  2814   000A2E                     	if	0	;tblptru may be non-zero
  2815   000A2E                     	endif
  2816   000A2E                     	if	0	;tblptru may be non-zero
  2817   000A2E                     	endif
  2818   000A2E  0008               	tblrd		*
  2819   000A30  50F5               	movf	tablat,w,c
  2820   000A32  6E10               	movwf	fputc@c^0,c
  2821   000A34  6A11               	clrf	(fputc@c+1)^0,c
  2822   000A36  C01D  F012         	movff	vfpfcnvrt@fp,fputc@fp
  2823   000A3A  C01E  F013         	movff	vfpfcnvrt@fp+1,fputc@fp+1
  2824   000A3E  EC2D  F007         	call	_fputc	;wreg free
  2825   000A42  EF0A  F005         	goto	l1789
  2826   000A46                     l987:
  2827   000A46  0012               	return		;funcret
  2828   000A48                     __end_of_vfpfcnvrt:
  2829                           	callstack 0
  2830                           
  2831 ;; *************** function _fputc *****************
  2832 ;; Defined at:
  2833 ;;		line 8 in file "C:\Program Files\Microchip\xc8\v3.00\pic\sources\c99\common\nf_fputc.c"
  2834 ;; Parameters:    Size  Location     Type
  2835 ;;  c               2   15[COMRAM] int 
  2836 ;;  fp              2   17[COMRAM] PTR struct _IO_FILE
  2837 ;;		 -> NULL(0), 
  2838 ;; Auto vars:     Size  Location     Type
  2839 ;;		None
  2840 ;; Return value:  Size  Location     Type
  2841 ;;                  2   15[COMRAM] int 
  2842 ;; Registers used:
  2843 ;;		wreg, fsr1l, fsr1h, fsr2l, fsr2h, status,2, status,0, cstack
  2844 ;; Tracked objects:
  2845 ;;		On entry : 0/0
  2846 ;;		On exit  : 0/0
  2847 ;;		Unchanged: 0/0
  2848 ;; Data sizes:     COMRAM   BANK0   BANK1   BANK2   BANK3   BANK4   BANK5
  2849 ;;      Params:         4       0       0       0       0       0       0
  2850 ;;      Locals:         0       0       0       0       0       0       0
  2851 ;;      Temps:          5       0       0       0       0       0       0
  2852 ;;      Totals:         9       0       0       0       0       0       0
  2853 ;;Total ram usage:        9 bytes
  2854 ;; Hardware stack levels used: 1
  2855 ;; Hardware stack levels required when called: 5
  2856 ;; This function calls:
  2857 ;;		_putch
  2858 ;; This function is called by:
  2859 ;;		_vfpfcnvrt
  2860 ;; This function uses a non-reentrant model
  2861 ;;
  2862                           
  2863                           	psect	text9
  2864   000E5A                     __ptext9:
  2865                           	callstack 0
  2866   000E5A                     _fputc:
  2867                           	callstack 22
  2868   000E5A  5012               	movf	fputc@fp^0,w,c
  2869   000E5C  1013               	iorwf	(fputc@fp+1)^0,w,c
  2870   000E5E  B4D8               	btfsc	status,2,c
  2871   000E60  EF34  F007         	goto	u841
  2872   000E64  EF36  F007         	goto	u840
  2873   000E68                     u841:
  2874   000E68  EF3F  F007         	goto	l1685
  2875   000E6C                     u840:
  2876   000E6C  5012               	movf	fputc@fp^0,w,c
  2877   000E6E  1013               	iorwf	(fputc@fp+1)^0,w,c
  2878   000E70  A4D8               	btfss	status,2,c
  2879   000E72  EF3D  F007         	goto	u851
  2880   000E76  EF3F  F007         	goto	u850
  2881   000E7A                     u851:
  2882   000E7A  EF44  F007         	goto	l1687
  2883   000E7E                     u850:
  2884   000E7E                     l1685:
  2885   000E7E  5010               	movf	fputc@c^0,w,c
  2886   000E80  ECA1  F008         	call	_putch
  2887   000E84  EF91  F007         	goto	l1029
  2888   000E88                     l1687:
  2889   000E88  EE20 F009          	lfsr	2,9
  2890   000E8C  5012               	movf	fputc@fp^0,w,c
  2891   000E8E  26D9               	addwf	fsr2l,f,c
  2892   000E90  5013               	movf	(fputc@fp+1)^0,w,c
  2893   000E92  22DA               	addwfc	fsr2h,f,c
  2894   000E94  50DE               	movf	postinc2,w,c
  2895   000E96  10DE               	iorwf	postinc2,w,c
  2896   000E98  B4D8               	btfsc	status,2,c
  2897   000E9A  EF51  F007         	goto	u861
  2898   000E9E  EF53  F007         	goto	u860
  2899   000EA2                     u861:
  2900   000EA2  EF6E  F007         	goto	l1691
  2901   000EA6                     u860:
  2902   000EA6  EE20 F009          	lfsr	2,9
  2903   000EAA  5012               	movf	fputc@fp^0,w,c
  2904   000EAC  26D9               	addwf	fsr2l,f,c
  2905   000EAE  5013               	movf	(fputc@fp+1)^0,w,c
  2906   000EB0  22DA               	addwfc	fsr2h,f,c
  2907   000EB2  EE10 F002          	lfsr	1,2
  2908   000EB6  5012               	movf	fputc@fp^0,w,c
  2909   000EB8  26E1               	addwf	fsr1l,f,c
  2910   000EBA  5013               	movf	(fputc@fp+1)^0,w,c
  2911   000EBC  22E2               	addwfc	fsr1h,f,c
  2912   000EBE  50DE               	movf	postinc2,w,c
  2913   000EC0  5CE6               	subwf	postinc1,w,c
  2914   000EC2  50E6               	movf	postinc1,w,c
  2915   000EC4  0A80               	xorlw	128
  2916   000EC6  6E18               	movwf	(??_fputc+4)^0,c
  2917   000EC8  50DE               	movf	postinc2,w,c
  2918   000ECA  0A80               	xorlw	128
  2919   000ECC  5818               	subwfb	(??_fputc+4)^0,w,c
  2920   000ECE  B0D8               	btfsc	status,0,c
  2921   000ED0  EF6C  F007         	goto	u871
  2922   000ED4  EF6E  F007         	goto	u870
  2923   000ED8                     u871:
  2924   000ED8  EF91  F007         	goto	l1029
  2925   000EDC                     u870:
  2926   000EDC                     l1691:
  2927   000EDC  EE20 F002          	lfsr	2,2
  2928   000EE0  5012               	movf	fputc@fp^0,w,c
  2929   000EE2  26D9               	addwf	fsr2l,f,c
  2930   000EE4  5013               	movf	(fputc@fp+1)^0,w,c
  2931   000EE6  22DA               	addwfc	fsr2h,f,c
  2932   000EE8  CFDE F014          	movff	postinc2,??_fputc
  2933   000EEC  CFDD F015          	movff	postdec2,??_fputc+1
  2934   000EF0  C012  FFD9         	movff	fputc@fp,fsr2l
  2935   000EF4  C013  FFDA         	movff	fputc@fp+1,fsr2h
  2936   000EF8  CFDE F016          	movff	postinc2,??_fputc+2
  2937   000EFC  CFDD F017          	movff	postdec2,??_fputc+3
  2938   000F00  5014               	movf	??_fputc^0,w,c
  2939   000F02  2416               	addwf	(??_fputc+2)^0,w,c
  2940   000F04  6ED9               	movwf	fsr2l,c
  2941   000F06  5015               	movf	(??_fputc+1)^0,w,c
  2942   000F08  2017               	addwfc	(??_fputc+3)^0,w,c
  2943   000F0A  6EDA               	movwf	fsr2h,c
  2944   000F0C  C010  FFDF         	movff	fputc@c,indf2
  2945   000F10  EE20 F002          	lfsr	2,2
  2946   000F14  5012               	movf	fputc@fp^0,w,c
  2947   000F16  26D9               	addwf	fsr2l,f,c
  2948   000F18  5013               	movf	(fputc@fp+1)^0,w,c
  2949   000F1A  22DA               	addwfc	fsr2h,f,c
  2950   000F1C  2ADE               	incf	postinc2,f,c
  2951   000F1E  0E00               	movlw	0
  2952   000F20  22DD               	addwfc	postdec2,f,c
  2953   000F22                     l1029:
  2954   000F22  0012               	return		;funcret
  2955   000F24                     __end_of_fputc:
  2956                           	callstack 0
  2957                           
  2958 ;; *************** function _putch *****************
  2959 ;; Defined at:
  2960 ;;		line 77 in file "uart.c"
  2961 ;; Parameters:    Size  Location     Type
  2962 ;;  data            1    wreg     unsigned char 
  2963 ;; Auto vars:     Size  Location     Type
  2964 ;;  data            1   14[COMRAM] unsigned char 
  2965 ;; Return value:  Size  Location     Type
  2966 ;;                  1    wreg      void 
  2967 ;; Registers used:
  2968 ;;		wreg, status,2, status,0
  2969 ;; Tracked objects:
  2970 ;;		On entry : 0/0
  2971 ;;		On exit  : 0/0
  2972 ;;		Unchanged: 0/0
  2973 ;; Data sizes:     COMRAM   BANK0   BANK1   BANK2   BANK3   BANK4   BANK5
  2974 ;;      Params:         0       0       0       0       0       0       0
  2975 ;;      Locals:         1       0       0       0       0       0       0
  2976 ;;      Temps:          0       0       0       0       0       0       0
  2977 ;;      Totals:         1       0       0       0       0       0       0
  2978 ;;Total ram usage:        1 bytes
  2979 ;; Hardware stack levels used: 1
  2980 ;; Hardware stack levels required when called: 4
  2981 ;; This function calls:
  2982 ;;		Nothing
  2983 ;; This function is called by:
  2984 ;;		_fputc
  2985 ;; This function uses a non-reentrant model
  2986 ;;
  2987                           
  2988                           	psect	text10
  2989   001142                     __ptext10:
  2990                           	callstack 0
  2991   001142                     _putch:
  2992                           	callstack 22
  2993                           
  2994                           ;incstack = 0
  2995                           ;putch@data stored from wreg
  2996   001142  6E0F               	movwf	putch@data^0,c
  2997   001144                     
  2998                           ;uart.c: 78:     if (data == '\n' || data == '\r') {
  2999   001144  0E0A               	movlw	10
  3000   001146  180F               	xorwf	putch@data^0,w,c
  3001   001148  B4D8               	btfsc	status,2,c
  3002   00114A  EFA9  F008         	goto	u11
  3003   00114E  EFAB  F008         	goto	u10
  3004   001152                     u11:
  3005   001152  EFB4  F008         	goto	l247
  3006   001156                     u10:
  3007   001156  0E0D               	movlw	13
  3008   001158  180F               	xorwf	putch@data^0,w,c
  3009   00115A  A4D8               	btfss	status,2,c
  3010   00115C  EFB2  F008         	goto	u21
  3011   001160  EFB4  F008         	goto	u20
  3012   001164                     u21:
  3013   001164  EFC8  F008         	goto	l254
  3014   001168                     u20:
  3015   001168                     l247:
  3016   001168  A2AC               	btfss	172,1,c	;volatile
  3017   00116A  EFB9  F008         	goto	u31
  3018   00116E  EFBB  F008         	goto	u30
  3019   001172                     u31:
  3020   001172  EFB4  F008         	goto	l247
  3021   001176                     u30:
  3022   001176                     
  3023                           ;uart.c: 80:         TXREG = '\r';
  3024   001176  0E0D               	movlw	13
  3025   001178  6EAD               	movwf	173,c	;volatile
  3026   00117A                     l250:
  3027   00117A  A2AC               	btfss	172,1,c	;volatile
  3028   00117C  EFC2  F008         	goto	u41
  3029   001180  EFC4  F008         	goto	u40
  3030   001184                     u41:
  3031   001184  EFBD  F008         	goto	l250
  3032   001188                     u40:
  3033   001188                     
  3034                           ;uart.c: 82:         TXREG = '\n';
  3035   001188  0E0A               	movlw	10
  3036   00118A  6EAD               	movwf	173,c	;volatile
  3037                           
  3038                           ;uart.c: 83:     } else {
  3039   00118C  EFD1  F008         	goto	l257
  3040   001190                     l254:
  3041   001190  A2AC               	btfss	172,1,c	;volatile
  3042   001192  EFCD  F008         	goto	u51
  3043   001196  EFCF  F008         	goto	u50
  3044   00119A                     u51:
  3045   00119A  EFC8  F008         	goto	l254
  3046   00119E                     u50:
  3047   00119E                     
  3048                           ;uart.c: 85:         TXREG = data;
  3049   00119E  C00F  FFAD         	movff	putch@data,4013	;volatile
  3050   0011A2                     l257:
  3051   0011A2  0012               	return		;funcret
  3052   0011A4                     __end_of_putch:
  3053                           	callstack 0
  3054                           
  3055 ;; *************** function _abs *****************
  3056 ;; Defined at:
  3057 ;;		line 1 in file "C:\Program Files\Microchip\xc8\v3.00\pic\sources\c99\common\abs.c"
  3058 ;; Parameters:    Size  Location     Type
  3059 ;;  a               2   24[COMRAM] int 
  3060 ;; Auto vars:     Size  Location     Type
  3061 ;;		None
  3062 ;; Return value:  Size  Location     Type
  3063 ;;                  2   24[COMRAM] int 
  3064 ;; Registers used:
  3065 ;;		wreg, status,2, status,0
  3066 ;; Tracked objects:
  3067 ;;		On entry : 0/0
  3068 ;;		On exit  : 0/0
  3069 ;;		Unchanged: 0/0
  3070 ;; Data sizes:     COMRAM   BANK0   BANK1   BANK2   BANK3   BANK4   BANK5
  3071 ;;      Params:         2       0       0       0       0       0       0
  3072 ;;      Locals:         0       0       0       0       0       0       0
  3073 ;;      Temps:          2       0       0       0       0       0       0
  3074 ;;      Totals:         4       0       0       0       0       0       0
  3075 ;;Total ram usage:        4 bytes
  3076 ;; Hardware stack levels used: 1
  3077 ;; Hardware stack levels required when called: 4
  3078 ;; This function calls:
  3079 ;;		Nothing
  3080 ;; This function is called by:
  3081 ;;		_vfpfcnvrt
  3082 ;; This function uses a non-reentrant model
  3083 ;;
  3084                           
  3085                           	psect	text11
  3086   00122A                     __ptext11:
  3087                           	callstack 0
  3088   00122A                     _abs:
  3089                           	callstack 23
  3090   00122A  BE1A               	btfsc	(abs@a+1)^0,7,c
  3091   00122C  EF1A  F009         	goto	u881
  3092   001230  EF1C  F009         	goto	u880
  3093   001234                     u881:
  3094   001234  EF22  F009         	goto	l1014
  3095   001238                     u880:
  3096   001238  C019  F019         	movff	abs@a,?_abs
  3097   00123C  C01A  F01A         	movff	abs@a+1,?_abs+1
  3098   001240  EF2E  F009         	goto	l1017
  3099   001244                     l1014:
  3100   001244  C019  F01B         	movff	abs@a,??_abs
  3101   001248  C01A  F01C         	movff	abs@a+1,??_abs+1
  3102   00124C  1E1B               	comf	??_abs^0,f,c
  3103   00124E  1E1C               	comf	(??_abs+1)^0,f,c
  3104   001250  4A1B               	infsnz	??_abs^0,f,c
  3105   001252  2A1C               	incf	(??_abs+1)^0,f,c
  3106   001254  C01B  F019         	movff	??_abs,?_abs
  3107   001258  C01C  F01A         	movff	??_abs+1,?_abs+1
  3108   00125C                     l1017:
  3109   00125C  0012               	return		;funcret
  3110   00125E                     __end_of_abs:
  3111                           	callstack 0
  3112                           
  3113 ;; *************** function ___llmod *****************
  3114 ;; Defined at:
  3115 ;;		line 7 in file "C:\Program Files\Microchip\xc8\v3.00\pic\sources\c99\common\llmod.c"
  3116 ;; Parameters:    Size  Location     Type
  3117 ;;  dividend        4   14[COMRAM] unsigned long 
  3118 ;;  divisor         4   18[COMRAM] unsigned long 
  3119 ;; Auto vars:     Size  Location     Type
  3120 ;;  counter         1   22[COMRAM] unsigned char 
  3121 ;; Return value:  Size  Location     Type
  3122 ;;                  4   14[COMRAM] unsigned long 
  3123 ;; Registers used:
  3124 ;;		wreg, status,2, status,0
  3125 ;; Tracked objects:
  3126 ;;		On entry : 0/0
  3127 ;;		On exit  : 0/0
  3128 ;;		Unchanged: 0/0
  3129 ;; Data sizes:     COMRAM   BANK0   BANK1   BANK2   BANK3   BANK4   BANK5
  3130 ;;      Params:         8       0       0       0       0       0       0
  3131 ;;      Locals:         1       0       0       0       0       0       0
  3132 ;;      Temps:          0       0       0       0       0       0       0
  3133 ;;      Totals:         9       0       0       0       0       0       0
  3134 ;;Total ram usage:        9 bytes
  3135 ;; Hardware stack levels used: 1
  3136 ;; Hardware stack levels required when called: 4
  3137 ;; This function calls:
  3138 ;;		Nothing
  3139 ;; This function is called by:
  3140 ;;		_vfpfcnvrt
  3141 ;; This function uses a non-reentrant model
  3142 ;;
  3143                           
  3144                           	psect	text12
  3145   000FC8                     __ptext12:
  3146                           	callstack 0
  3147   000FC8                     ___llmod:
  3148                           	callstack 23
  3149   000FC8  5013               	movf	___llmod@divisor^0,w,c
  3150   000FCA  1014               	iorwf	(___llmod@divisor+1)^0,w,c
  3151   000FCC  1015               	iorwf	(___llmod@divisor+2)^0,w,c
  3152   000FCE  1016               	iorwf	(___llmod@divisor+3)^0,w,c
  3153   000FD0  B4D8               	btfsc	status,2,c
  3154   000FD2  EFED  F007         	goto	u811
  3155   000FD6  EFEF  F007         	goto	u810
  3156   000FDA                     u811:
  3157   000FDA  EF1F  F008         	goto	l680
  3158   000FDE                     u810:
  3159   000FDE  0E01               	movlw	1
  3160   000FE0  6E17               	movwf	___llmod@counter^0,c
  3161   000FE2  EFF9  F007         	goto	l1671
  3162   000FE6                     l1669:
  3163   000FE6  90D8               	bcf	status,0,c
  3164   000FE8  3613               	rlcf	___llmod@divisor^0,f,c
  3165   000FEA  3614               	rlcf	(___llmod@divisor+1)^0,f,c
  3166   000FEC  3615               	rlcf	(___llmod@divisor+2)^0,f,c
  3167   000FEE  3616               	rlcf	(___llmod@divisor+3)^0,f,c
  3168   000FF0  2A17               	incf	___llmod@counter^0,f,c
  3169   000FF2                     l1671:
  3170   000FF2  AE16               	btfss	(___llmod@divisor+3)^0,7,c
  3171   000FF4  EFFE  F007         	goto	u821
  3172   000FF8  EF00  F008         	goto	u820
  3173   000FFC                     u821:
  3174   000FFC  EFF3  F007         	goto	l1669
  3175   001000                     u820:
  3176   001000                     l1673:
  3177   001000  5013               	movf	___llmod@divisor^0,w,c
  3178   001002  5C0F               	subwf	___llmod@dividend^0,w,c
  3179   001004  5014               	movf	(___llmod@divisor+1)^0,w,c
  3180   001006  5810               	subwfb	(___llmod@dividend+1)^0,w,c
  3181   001008  5015               	movf	(___llmod@divisor+2)^0,w,c
  3182   00100A  5811               	subwfb	(___llmod@dividend+2)^0,w,c
  3183   00100C  5016               	movf	(___llmod@divisor+3)^0,w,c
  3184   00100E  5812               	subwfb	(___llmod@dividend+3)^0,w,c
  3185   001010  A0D8               	btfss	status,0,c
  3186   001012  EF0D  F008         	goto	u831
  3187   001016  EF0F  F008         	goto	u830
  3188   00101A                     u831:
  3189   00101A  EF17  F008         	goto	l1677
  3190   00101E                     u830:
  3191   00101E  5013               	movf	___llmod@divisor^0,w,c
  3192   001020  5E0F               	subwf	___llmod@dividend^0,f,c
  3193   001022  5014               	movf	(___llmod@divisor+1)^0,w,c
  3194   001024  5A10               	subwfb	(___llmod@dividend+1)^0,f,c
  3195   001026  5015               	movf	(___llmod@divisor+2)^0,w,c
  3196   001028  5A11               	subwfb	(___llmod@dividend+2)^0,f,c
  3197   00102A  5016               	movf	(___llmod@divisor+3)^0,w,c
  3198   00102C  5A12               	subwfb	(___llmod@dividend+3)^0,f,c
  3199   00102E                     l1677:
  3200   00102E  90D8               	bcf	status,0,c
  3201   001030  3216               	rrcf	(___llmod@divisor+3)^0,f,c
  3202   001032  3215               	rrcf	(___llmod@divisor+2)^0,f,c
  3203   001034  3214               	rrcf	(___llmod@divisor+1)^0,f,c
  3204   001036  3213               	rrcf	___llmod@divisor^0,f,c
  3205   001038  2E17               	decfsz	___llmod@counter^0,f,c
  3206   00103A  EF00  F008         	goto	l1673
  3207   00103E                     l680:
  3208   00103E  C00F  F00F         	movff	___llmod@dividend,?___llmod
  3209   001042  C010  F010         	movff	___llmod@dividend+1,?___llmod+1
  3210   001046  C011  F011         	movff	___llmod@dividend+2,?___llmod+2
  3211   00104A  C012  F012         	movff	___llmod@dividend+3,?___llmod+3
  3212   00104E  0012               	return		;funcret
  3213   001050                     __end_of___llmod:
  3214                           	callstack 0
  3215                           
  3216 ;; *************** function ___lldiv *****************
  3217 ;; Defined at:
  3218 ;;		line 7 in file "C:\Program Files\Microchip\xc8\v3.00\pic\sources\c99\common\__lldiv.c"
  3219 ;; Parameters:    Size  Location     Type
  3220 ;;  dividend        4   14[COMRAM] unsigned long 
  3221 ;;  divisor         4   18[COMRAM] unsigned long 
  3222 ;; Auto vars:     Size  Location     Type
  3223 ;;  quotient        4   22[COMRAM] unsigned long 
  3224 ;;  counter         1   26[COMRAM] unsigned char 
  3225 ;; Return value:  Size  Location     Type
  3226 ;;                  4   14[COMRAM] unsigned long 
  3227 ;; Registers used:
  3228 ;;		wreg, status,2, status,0
  3229 ;; Tracked objects:
  3230 ;;		On entry : 0/0
  3231 ;;		On exit  : 0/0
  3232 ;;		Unchanged: 0/0
  3233 ;; Data sizes:     COMRAM   BANK0   BANK1   BANK2   BANK3   BANK4   BANK5
  3234 ;;      Params:         8       0       0       0       0       0       0
  3235 ;;      Locals:         5       0       0       0       0       0       0
  3236 ;;      Temps:          0       0       0       0       0       0       0
  3237 ;;      Totals:        13       0       0       0       0       0       0
  3238 ;;Total ram usage:       13 bytes
  3239 ;; Hardware stack levels used: 1
  3240 ;; Hardware stack levels required when called: 4
  3241 ;; This function calls:
  3242 ;;		Nothing
  3243 ;; This function is called by:
  3244 ;;		_vfpfcnvrt
  3245 ;; This function uses a non-reentrant model
  3246 ;;
  3247                           
  3248                           	psect	text13
  3249   000F24                     __ptext13:
  3250                           	callstack 0
  3251   000F24                     ___lldiv:
  3252                           	callstack 23
  3253   000F24  0E00               	movlw	0
  3254   000F26  6E17               	movwf	___lldiv@quotient^0,c
  3255   000F28  0E00               	movlw	0
  3256   000F2A  6E18               	movwf	(___lldiv@quotient+1)^0,c
  3257   000F2C  0E00               	movlw	0
  3258   000F2E  6E19               	movwf	(___lldiv@quotient+2)^0,c
  3259   000F30  0E00               	movlw	0
  3260   000F32  6E1A               	movwf	(___lldiv@quotient+3)^0,c
  3261   000F34  5013               	movf	___lldiv@divisor^0,w,c
  3262   000F36  1014               	iorwf	(___lldiv@divisor+1)^0,w,c
  3263   000F38  1015               	iorwf	(___lldiv@divisor+2)^0,w,c
  3264   000F3A  1016               	iorwf	(___lldiv@divisor+3)^0,w,c
  3265   000F3C  B4D8               	btfsc	status,2,c
  3266   000F3E  EFA3  F007         	goto	u661
  3267   000F42  EFA5  F007         	goto	u660
  3268   000F46                     u661:
  3269   000F46  EFDB  F007         	goto	l287
  3270   000F4A                     u660:
  3271   000F4A  0E01               	movlw	1
  3272   000F4C  6E1B               	movwf	___lldiv@counter^0,c
  3273   000F4E  EFAF  F007         	goto	l1571
  3274   000F52                     l1569:
  3275   000F52  90D8               	bcf	status,0,c
  3276   000F54  3613               	rlcf	___lldiv@divisor^0,f,c
  3277   000F56  3614               	rlcf	(___lldiv@divisor+1)^0,f,c
  3278   000F58  3615               	rlcf	(___lldiv@divisor+2)^0,f,c
  3279   000F5A  3616               	rlcf	(___lldiv@divisor+3)^0,f,c
  3280   000F5C  2A1B               	incf	___lldiv@counter^0,f,c
  3281   000F5E                     l1571:
  3282   000F5E  AE16               	btfss	(___lldiv@divisor+3)^0,7,c
  3283   000F60  EFB4  F007         	goto	u671
  3284   000F64  EFB6  F007         	goto	u670
  3285   000F68                     u671:
  3286   000F68  EFA9  F007         	goto	l1569
  3287   000F6C                     u670:
  3288   000F6C                     l1573:
  3289   000F6C  90D8               	bcf	status,0,c
  3290   000F6E  3617               	rlcf	___lldiv@quotient^0,f,c
  3291   000F70  3618               	rlcf	(___lldiv@quotient+1)^0,f,c
  3292   000F72  3619               	rlcf	(___lldiv@quotient+2)^0,f,c
  3293   000F74  361A               	rlcf	(___lldiv@quotient+3)^0,f,c
  3294   000F76  5013               	movf	___lldiv@divisor^0,w,c
  3295   000F78  5C0F               	subwf	___lldiv@dividend^0,w,c
  3296   000F7A  5014               	movf	(___lldiv@divisor+1)^0,w,c
  3297   000F7C  5810               	subwfb	(___lldiv@dividend+1)^0,w,c
  3298   000F7E  5015               	movf	(___lldiv@divisor+2)^0,w,c
  3299   000F80  5811               	subwfb	(___lldiv@dividend+2)^0,w,c
  3300   000F82  5016               	movf	(___lldiv@divisor+3)^0,w,c
  3301   000F84  5812               	subwfb	(___lldiv@dividend+3)^0,w,c
  3302   000F86  A0D8               	btfss	status,0,c
  3303   000F88  EFC8  F007         	goto	u681
  3304   000F8C  EFCA  F007         	goto	u680
  3305   000F90                     u681:
  3306   000F90  EFD3  F007         	goto	l1581
  3307   000F94                     u680:
  3308   000F94  5013               	movf	___lldiv@divisor^0,w,c
  3309   000F96  5E0F               	subwf	___lldiv@dividend^0,f,c
  3310   000F98  5014               	movf	(___lldiv@divisor+1)^0,w,c
  3311   000F9A  5A10               	subwfb	(___lldiv@dividend+1)^0,f,c
  3312   000F9C  5015               	movf	(___lldiv@divisor+2)^0,w,c
  3313   000F9E  5A11               	subwfb	(___lldiv@dividend+2)^0,f,c
  3314   000FA0  5016               	movf	(___lldiv@divisor+3)^0,w,c
  3315   000FA2  5A12               	subwfb	(___lldiv@dividend+3)^0,f,c
  3316   000FA4  8017               	bsf	___lldiv@quotient^0,0,c
  3317   000FA6                     l1581:
  3318   000FA6  90D8               	bcf	status,0,c
  3319   000FA8  3216               	rrcf	(___lldiv@divisor+3)^0,f,c
  3320   000FAA  3215               	rrcf	(___lldiv@divisor+2)^0,f,c
  3321   000FAC  3214               	rrcf	(___lldiv@divisor+1)^0,f,c
  3322   000FAE  3213               	rrcf	___lldiv@divisor^0,f,c
  3323   000FB0  2E1B               	decfsz	___lldiv@counter^0,f,c
  3324   000FB2  EFB6  F007         	goto	l1573
  3325   000FB6                     l287:
  3326   000FB6  C017  F00F         	movff	___lldiv@quotient,?___lldiv
  3327   000FBA  C018  F010         	movff	___lldiv@quotient+1,?___lldiv+1
  3328   000FBE  C019  F011         	movff	___lldiv@quotient+2,?___lldiv+2
  3329   000FC2  C01A  F012         	movff	___lldiv@quotient+3,?___lldiv+3
  3330   000FC6  0012               	return		;funcret
  3331   000FC8                     __end_of___lldiv:
  3332                           	callstack 0
  3333                           
  3334 ;; *************** function ___almod *****************
  3335 ;; Defined at:
  3336 ;;		line 7 in file "C:\Program Files\Microchip\xc8\v3.00\pic\sources\c99\common\almod.c"
  3337 ;; Parameters:    Size  Location     Type
  3338 ;;  dividend        4   14[COMRAM] long 
  3339 ;;  divisor         4   18[COMRAM] long 
  3340 ;; Auto vars:     Size  Location     Type
  3341 ;;  sign            1   23[COMRAM] unsigned char 
  3342 ;;  counter         1   22[COMRAM] unsigned char 
  3343 ;; Return value:  Size  Location     Type
  3344 ;;                  4   14[COMRAM] long 
  3345 ;; Registers used:
  3346 ;;		wreg, status,2, status,0
  3347 ;; Tracked objects:
  3348 ;;		On entry : 0/0
  3349 ;;		On exit  : 0/0
  3350 ;;		Unchanged: 0/0
  3351 ;; Data sizes:     COMRAM   BANK0   BANK1   BANK2   BANK3   BANK4   BANK5
  3352 ;;      Params:         8       0       0       0       0       0       0
  3353 ;;      Locals:         2       0       0       0       0       0       0
  3354 ;;      Temps:          0       0       0       0       0       0       0
  3355 ;;      Totals:        10       0       0       0       0       0       0
  3356 ;;Total ram usage:       10 bytes
  3357 ;; Hardware stack levels used: 1
  3358 ;; Hardware stack levels required when called: 4
  3359 ;; This function calls:
  3360 ;;		Nothing
  3361 ;; This function is called by:
  3362 ;;		_vfpfcnvrt
  3363 ;; This function uses a non-reentrant model
  3364 ;;
  3365                           
  3366                           	psect	text14
  3367   000C92                     __ptext14:
  3368                           	callstack 0
  3369   000C92                     ___almod:
  3370                           	callstack 23
  3371   000C92  6A18               	clrf	___almod@sign^0,c
  3372   000C94  BE12               	btfsc	(___almod@dividend+3)^0,7,c
  3373   000C96  EF51  F006         	goto	u750
  3374   000C9A  EF4F  F006         	goto	u751
  3375   000C9E                     u751:
  3376   000C9E  EF5B  F006         	goto	l1637
  3377   000CA2                     u750:
  3378   000CA2  1E12               	comf	(___almod@dividend+3)^0,f,c
  3379   000CA4  1E11               	comf	(___almod@dividend+2)^0,f,c
  3380   000CA6  1E10               	comf	(___almod@dividend+1)^0,f,c
  3381   000CA8  6C0F               	negf	___almod@dividend^0,c
  3382   000CAA  0E00               	movlw	0
  3383   000CAC  2210               	addwfc	(___almod@dividend+1)^0,f,c
  3384   000CAE  2211               	addwfc	(___almod@dividend+2)^0,f,c
  3385   000CB0  2212               	addwfc	(___almod@dividend+3)^0,f,c
  3386   000CB2  0E01               	movlw	1
  3387   000CB4  6E18               	movwf	___almod@sign^0,c
  3388   000CB6                     l1637:
  3389   000CB6  BE16               	btfsc	(___almod@divisor+3)^0,7,c
  3390   000CB8  EF62  F006         	goto	u760
  3391   000CBC  EF60  F006         	goto	u761
  3392   000CC0                     u761:
  3393   000CC0  EF6A  F006         	goto	l1641
  3394   000CC4                     u760:
  3395   000CC4  1E16               	comf	(___almod@divisor+3)^0,f,c
  3396   000CC6  1E15               	comf	(___almod@divisor+2)^0,f,c
  3397   000CC8  1E14               	comf	(___almod@divisor+1)^0,f,c
  3398   000CCA  6C13               	negf	___almod@divisor^0,c
  3399   000CCC  0E00               	movlw	0
  3400   000CCE  2214               	addwfc	(___almod@divisor+1)^0,f,c
  3401   000CD0  2215               	addwfc	(___almod@divisor+2)^0,f,c
  3402   000CD2  2216               	addwfc	(___almod@divisor+3)^0,f,c
  3403   000CD4                     l1641:
  3404   000CD4  5013               	movf	___almod@divisor^0,w,c
  3405   000CD6  1014               	iorwf	(___almod@divisor+1)^0,w,c
  3406   000CD8  1015               	iorwf	(___almod@divisor+2)^0,w,c
  3407   000CDA  1016               	iorwf	(___almod@divisor+3)^0,w,c
  3408   000CDC  B4D8               	btfsc	status,2,c
  3409   000CDE  EF73  F006         	goto	u771
  3410   000CE2  EF75  F006         	goto	u770
  3411   000CE6                     u771:
  3412   000CE6  EFA5  F006         	goto	l1657
  3413   000CEA                     u770:
  3414   000CEA  0E01               	movlw	1
  3415   000CEC  6E17               	movwf	___almod@counter^0,c
  3416   000CEE  EF7F  F006         	goto	l1647
  3417   000CF2                     l1645:
  3418   000CF2  90D8               	bcf	status,0,c
  3419   000CF4  3613               	rlcf	___almod@divisor^0,f,c
  3420   000CF6  3614               	rlcf	(___almod@divisor+1)^0,f,c
  3421   000CF8  3615               	rlcf	(___almod@divisor+2)^0,f,c
  3422   000CFA  3616               	rlcf	(___almod@divisor+3)^0,f,c
  3423   000CFC  2A17               	incf	___almod@counter^0,f,c
  3424   000CFE                     l1647:
  3425   000CFE  AE16               	btfss	(___almod@divisor+3)^0,7,c
  3426   000D00  EF84  F006         	goto	u781
  3427   000D04  EF86  F006         	goto	u780
  3428   000D08                     u781:
  3429   000D08  EF79  F006         	goto	l1645
  3430   000D0C                     u780:
  3431   000D0C                     l1649:
  3432   000D0C  5013               	movf	___almod@divisor^0,w,c
  3433   000D0E  5C0F               	subwf	___almod@dividend^0,w,c
  3434   000D10  5014               	movf	(___almod@divisor+1)^0,w,c
  3435   000D12  5810               	subwfb	(___almod@dividend+1)^0,w,c
  3436   000D14  5015               	movf	(___almod@divisor+2)^0,w,c
  3437   000D16  5811               	subwfb	(___almod@dividend+2)^0,w,c
  3438   000D18  5016               	movf	(___almod@divisor+3)^0,w,c
  3439   000D1A  5812               	subwfb	(___almod@dividend+3)^0,w,c
  3440   000D1C  A0D8               	btfss	status,0,c
  3441   000D1E  EF93  F006         	goto	u791
  3442   000D22  EF95  F006         	goto	u790
  3443   000D26                     u791:
  3444   000D26  EF9D  F006         	goto	l1653
  3445   000D2A                     u790:
  3446   000D2A  5013               	movf	___almod@divisor^0,w,c
  3447   000D2C  5E0F               	subwf	___almod@dividend^0,f,c
  3448   000D2E  5014               	movf	(___almod@divisor+1)^0,w,c
  3449   000D30  5A10               	subwfb	(___almod@dividend+1)^0,f,c
  3450   000D32  5015               	movf	(___almod@divisor+2)^0,w,c
  3451   000D34  5A11               	subwfb	(___almod@dividend+2)^0,f,c
  3452   000D36  5016               	movf	(___almod@divisor+3)^0,w,c
  3453   000D38  5A12               	subwfb	(___almod@dividend+3)^0,f,c
  3454   000D3A                     l1653:
  3455   000D3A  90D8               	bcf	status,0,c
  3456   000D3C  3216               	rrcf	(___almod@divisor+3)^0,f,c
  3457   000D3E  3215               	rrcf	(___almod@divisor+2)^0,f,c
  3458   000D40  3214               	rrcf	(___almod@divisor+1)^0,f,c
  3459   000D42  3213               	rrcf	___almod@divisor^0,f,c
  3460   000D44  2E17               	decfsz	___almod@counter^0,f,c
  3461   000D46  EF86  F006         	goto	l1649
  3462   000D4A                     l1657:
  3463   000D4A  5018               	movf	___almod@sign^0,w,c
  3464   000D4C  B4D8               	btfsc	status,2,c
  3465   000D4E  EFAB  F006         	goto	u801
  3466   000D52  EFAD  F006         	goto	u800
  3467   000D56                     u801:
  3468   000D56  EFB5  F006         	goto	l1661
  3469   000D5A                     u800:
  3470   000D5A  1E12               	comf	(___almod@dividend+3)^0,f,c
  3471   000D5C  1E11               	comf	(___almod@dividend+2)^0,f,c
  3472   000D5E  1E10               	comf	(___almod@dividend+1)^0,f,c
  3473   000D60  6C0F               	negf	___almod@dividend^0,c
  3474   000D62  0E00               	movlw	0
  3475   000D64  2210               	addwfc	(___almod@dividend+1)^0,f,c
  3476   000D66  2211               	addwfc	(___almod@dividend+2)^0,f,c
  3477   000D68  2212               	addwfc	(___almod@dividend+3)^0,f,c
  3478   000D6A                     l1661:
  3479   000D6A  C00F  F00F         	movff	___almod@dividend,?___almod
  3480   000D6E  C010  F010         	movff	___almod@dividend+1,?___almod+1
  3481   000D72  C011  F011         	movff	___almod@dividend+2,?___almod+2
  3482   000D76  C012  F012         	movff	___almod@dividend+3,?___almod+3
  3483   000D7A  0012               	return		;funcret
  3484   000D7C                     __end_of___almod:
  3485                           	callstack 0
  3486                           
  3487 ;; *************** function ___aldiv *****************
  3488 ;; Defined at:
  3489 ;;		line 7 in file "C:\Program Files\Microchip\xc8\v3.00\pic\sources\c99\common\aldiv.c"
  3490 ;; Parameters:    Size  Location     Type
  3491 ;;  dividend        4   14[COMRAM] long 
  3492 ;;  divisor         4   18[COMRAM] long 
  3493 ;; Auto vars:     Size  Location     Type
  3494 ;;  quotient        4   24[COMRAM] long 
  3495 ;;  sign            1   23[COMRAM] unsigned char 
  3496 ;;  counter         1   22[COMRAM] unsigned char 
  3497 ;; Return value:  Size  Location     Type
  3498 ;;                  4   14[COMRAM] long 
  3499 ;; Registers used:
  3500 ;;		wreg, status,2, status,0
  3501 ;; Tracked objects:
  3502 ;;		On entry : 0/0
  3503 ;;		On exit  : 0/0
  3504 ;;		Unchanged: 0/0
  3505 ;; Data sizes:     COMRAM   BANK0   BANK1   BANK2   BANK3   BANK4   BANK5
  3506 ;;      Params:         8       0       0       0       0       0       0
  3507 ;;      Locals:         6       0       0       0       0       0       0
  3508 ;;      Temps:          0       0       0       0       0       0       0
  3509 ;;      Totals:        14       0       0       0       0       0       0
  3510 ;;Total ram usage:       14 bytes
  3511 ;; Hardware stack levels used: 1
  3512 ;; Hardware stack levels required when called: 4
  3513 ;; This function calls:
  3514 ;;		Nothing
  3515 ;; This function is called by:
  3516 ;;		_vfpfcnvrt
  3517 ;; This function uses a non-reentrant model
  3518 ;;
  3519                           
  3520                           	psect	text15
  3521   000B88                     __ptext15:
  3522                           	callstack 0
  3523   000B88                     ___aldiv:
  3524                           	callstack 23
  3525   000B88  6A18               	clrf	___aldiv@sign^0,c
  3526   000B8A  BE16               	btfsc	(___aldiv@divisor+3)^0,7,c
  3527   000B8C  EFCC  F005         	goto	u690
  3528   000B90  EFCA  F005         	goto	u691
  3529   000B94                     u691:
  3530   000B94  EFD6  F005         	goto	l1593
  3531   000B98                     u690:
  3532   000B98  1E16               	comf	(___aldiv@divisor+3)^0,f,c
  3533   000B9A  1E15               	comf	(___aldiv@divisor+2)^0,f,c
  3534   000B9C  1E14               	comf	(___aldiv@divisor+1)^0,f,c
  3535   000B9E  6C13               	negf	___aldiv@divisor^0,c
  3536   000BA0  0E00               	movlw	0
  3537   000BA2  2214               	addwfc	(___aldiv@divisor+1)^0,f,c
  3538   000BA4  2215               	addwfc	(___aldiv@divisor+2)^0,f,c
  3539   000BA6  2216               	addwfc	(___aldiv@divisor+3)^0,f,c
  3540   000BA8  0E01               	movlw	1
  3541   000BAA  6E18               	movwf	___aldiv@sign^0,c
  3542   000BAC                     l1593:
  3543   000BAC  BE12               	btfsc	(___aldiv@dividend+3)^0,7,c
  3544   000BAE  EFDD  F005         	goto	u700
  3545   000BB2  EFDB  F005         	goto	u701
  3546   000BB6                     u701:
  3547   000BB6  EFE7  F005         	goto	l1599
  3548   000BBA                     u700:
  3549   000BBA  1E12               	comf	(___aldiv@dividend+3)^0,f,c
  3550   000BBC  1E11               	comf	(___aldiv@dividend+2)^0,f,c
  3551   000BBE  1E10               	comf	(___aldiv@dividend+1)^0,f,c
  3552   000BC0  6C0F               	negf	___aldiv@dividend^0,c
  3553   000BC2  0E00               	movlw	0
  3554   000BC4  2210               	addwfc	(___aldiv@dividend+1)^0,f,c
  3555   000BC6  2211               	addwfc	(___aldiv@dividend+2)^0,f,c
  3556   000BC8  2212               	addwfc	(___aldiv@dividend+3)^0,f,c
  3557   000BCA  0E01               	movlw	1
  3558   000BCC  1A18               	xorwf	___aldiv@sign^0,f,c
  3559   000BCE                     l1599:
  3560   000BCE  0E00               	movlw	0
  3561   000BD0  6E19               	movwf	___aldiv@quotient^0,c
  3562   000BD2  0E00               	movlw	0
  3563   000BD4  6E1A               	movwf	(___aldiv@quotient+1)^0,c
  3564   000BD6  0E00               	movlw	0
  3565   000BD8  6E1B               	movwf	(___aldiv@quotient+2)^0,c
  3566   000BDA  0E00               	movlw	0
  3567   000BDC  6E1C               	movwf	(___aldiv@quotient+3)^0,c
  3568   000BDE  5013               	movf	___aldiv@divisor^0,w,c
  3569   000BE0  1014               	iorwf	(___aldiv@divisor+1)^0,w,c
  3570   000BE2  1015               	iorwf	(___aldiv@divisor+2)^0,w,c
  3571   000BE4  1016               	iorwf	(___aldiv@divisor+3)^0,w,c
  3572   000BE6  B4D8               	btfsc	status,2,c
  3573   000BE8  EFF8  F005         	goto	u711
  3574   000BEC  EFFA  F005         	goto	u710
  3575   000BF0                     u711:
  3576   000BF0  EF30  F006         	goto	l1621
  3577   000BF4                     u710:
  3578   000BF4  0E01               	movlw	1
  3579   000BF6  6E17               	movwf	___aldiv@counter^0,c
  3580   000BF8  EF04  F006         	goto	l1607
  3581   000BFC                     l1605:
  3582   000BFC  90D8               	bcf	status,0,c
  3583   000BFE  3613               	rlcf	___aldiv@divisor^0,f,c
  3584   000C00  3614               	rlcf	(___aldiv@divisor+1)^0,f,c
  3585   000C02  3615               	rlcf	(___aldiv@divisor+2)^0,f,c
  3586   000C04  3616               	rlcf	(___aldiv@divisor+3)^0,f,c
  3587   000C06  2A17               	incf	___aldiv@counter^0,f,c
  3588   000C08                     l1607:
  3589   000C08  AE16               	btfss	(___aldiv@divisor+3)^0,7,c
  3590   000C0A  EF09  F006         	goto	u721
  3591   000C0E  EF0B  F006         	goto	u720
  3592   000C12                     u721:
  3593   000C12  EFFE  F005         	goto	l1605
  3594   000C16                     u720:
  3595   000C16                     l1609:
  3596   000C16  90D8               	bcf	status,0,c
  3597   000C18  3619               	rlcf	___aldiv@quotient^0,f,c
  3598   000C1A  361A               	rlcf	(___aldiv@quotient+1)^0,f,c
  3599   000C1C  361B               	rlcf	(___aldiv@quotient+2)^0,f,c
  3600   000C1E  361C               	rlcf	(___aldiv@quotient+3)^0,f,c
  3601   000C20  5013               	movf	___aldiv@divisor^0,w,c
  3602   000C22  5C0F               	subwf	___aldiv@dividend^0,w,c
  3603   000C24  5014               	movf	(___aldiv@divisor+1)^0,w,c
  3604   000C26  5810               	subwfb	(___aldiv@dividend+1)^0,w,c
  3605   000C28  5015               	movf	(___aldiv@divisor+2)^0,w,c
  3606   000C2A  5811               	subwfb	(___aldiv@dividend+2)^0,w,c
  3607   000C2C  5016               	movf	(___aldiv@divisor+3)^0,w,c
  3608   000C2E  5812               	subwfb	(___aldiv@dividend+3)^0,w,c
  3609   000C30  A0D8               	btfss	status,0,c
  3610   000C32  EF1D  F006         	goto	u731
  3611   000C36  EF1F  F006         	goto	u730
  3612   000C3A                     u731:
  3613   000C3A  EF28  F006         	goto	l1617
  3614   000C3E                     u730:
  3615   000C3E  5013               	movf	___aldiv@divisor^0,w,c
  3616   000C40  5E0F               	subwf	___aldiv@dividend^0,f,c
  3617   000C42  5014               	movf	(___aldiv@divisor+1)^0,w,c
  3618   000C44  5A10               	subwfb	(___aldiv@dividend+1)^0,f,c
  3619   000C46  5015               	movf	(___aldiv@divisor+2)^0,w,c
  3620   000C48  5A11               	subwfb	(___aldiv@dividend+2)^0,f,c
  3621   000C4A  5016               	movf	(___aldiv@divisor+3)^0,w,c
  3622   000C4C  5A12               	subwfb	(___aldiv@dividend+3)^0,f,c
  3623   000C4E  8019               	bsf	___aldiv@quotient^0,0,c
  3624   000C50                     l1617:
  3625   000C50  90D8               	bcf	status,0,c
  3626   000C52  3216               	rrcf	(___aldiv@divisor+3)^0,f,c
  3627   000C54  3215               	rrcf	(___aldiv@divisor+2)^0,f,c
  3628   000C56  3214               	rrcf	(___aldiv@divisor+1)^0,f,c
  3629   000C58  3213               	rrcf	___aldiv@divisor^0,f,c
  3630   000C5A  2E17               	decfsz	___aldiv@counter^0,f,c
  3631   000C5C  EF0B  F006         	goto	l1609
  3632   000C60                     l1621:
  3633   000C60  5018               	movf	___aldiv@sign^0,w,c
  3634   000C62  B4D8               	btfsc	status,2,c
  3635   000C64  EF36  F006         	goto	u741
  3636   000C68  EF38  F006         	goto	u740
  3637   000C6C                     u741:
  3638   000C6C  EF40  F006         	goto	l1625
  3639   000C70                     u740:
  3640   000C70  1E1C               	comf	(___aldiv@quotient+3)^0,f,c
  3641   000C72  1E1B               	comf	(___aldiv@quotient+2)^0,f,c
  3642   000C74  1E1A               	comf	(___aldiv@quotient+1)^0,f,c
  3643   000C76  6C19               	negf	___aldiv@quotient^0,c
  3644   000C78  0E00               	movlw	0
  3645   000C7A  221A               	addwfc	(___aldiv@quotient+1)^0,f,c
  3646   000C7C  221B               	addwfc	(___aldiv@quotient+2)^0,f,c
  3647   000C7E  221C               	addwfc	(___aldiv@quotient+3)^0,f,c
  3648   000C80                     l1625:
  3649   000C80  C019  F00F         	movff	___aldiv@quotient,?___aldiv
  3650   000C84  C01A  F010         	movff	___aldiv@quotient+1,?___aldiv+1
  3651   000C88  C01B  F011         	movff	___aldiv@quotient+2,?___aldiv+2
  3652   000C8C  C01C  F012         	movff	___aldiv@quotient+3,?___aldiv+3
  3653   000C90  0012               	return		;funcret
  3654   000C92                     __end_of___aldiv:
  3655                           	callstack 0
  3656                           
  3657 ;; *************** function _max30102_read_fifo *****************
  3658 ;; Defined at:
  3659 ;;		line 62 in file "max30102.c"
  3660 ;; Parameters:    Size  Location     Type
  3661 ;;  pun_red_led     1   17[COMRAM] PTR unsigned long 
  3662 ;;		 -> main@red_val(4), 
  3663 ;;  pun_ir_led      1   18[COMRAM] PTR unsigned long 
  3664 ;;		 -> main@ir_val(4), 
  3665 ;; Auto vars:     Size  Location     Type
  3666 ;;  ir              4   28[COMRAM] unsigned long 
  3667 ;;  red             4   24[COMRAM] unsigned long 
  3668 ;; Return value:  Size  Location     Type
  3669 ;;                  1    wreg      void 
  3670 ;; Registers used:
  3671 ;;		wreg, fsr2l, fsr2h, status,2, status,0, cstack
  3672 ;; Tracked objects:
  3673 ;;		On entry : 0/0
  3674 ;;		On exit  : 0/0
  3675 ;;		Unchanged: 0/0
  3676 ;; Data sizes:     COMRAM   BANK0   BANK1   BANK2   BANK3   BANK4   BANK5
  3677 ;;      Params:         2       0       0       0       0       0       0
  3678 ;;      Locals:         8       0       0       0       0       0       0
  3679 ;;      Temps:          5       0       0       0       0       0       0
  3680 ;;      Totals:        15       0       0       0       0       0       0
  3681 ;;Total ram usage:       15 bytes
  3682 ;; Hardware stack levels used: 1
  3683 ;; Hardware stack levels required when called: 6
  3684 ;; This function calls:
  3685 ;;		_i2c_read
  3686 ;;		_i2c_rep_start
  3687 ;;		_i2c_start
  3688 ;;		_i2c_stop
  3689 ;;		_i2c_write
  3690 ;; This function is called by:
  3691 ;;		_main
  3692 ;; This function uses a non-reentrant model
  3693 ;;
  3694                           
  3695                           	psect	text16
  3696   000A48                     __ptext16:
  3697                           	callstack 0
  3698   000A48                     _max30102_read_fifo:
  3699                           	callstack 24
  3700   000A48                     
  3701                           ;max30102.c: 63:     uint32_t red, ir;;max30102.c: 65:     i2c_start();
  3702   000A48  EC27  F00A         	call	_i2c_start	;wreg free
  3703                           
  3704                           ;max30102.c: 66:     i2c_write(0xAE);
  3705   000A4C  0EAE               	movlw	174
  3706   000A4E  EC59  F009         	call	_i2c_write
  3707                           
  3708                           ;max30102.c: 67:     i2c_write(0x07);
  3709   000A52  0E07               	movlw	7
  3710   000A54  EC59  F009         	call	_i2c_write
  3711                           
  3712                           ;max30102.c: 68:     i2c_rep_start();
  3713   000A58  EC2B  F00A         	call	_i2c_rep_start	;wreg free
  3714                           
  3715                           ;max30102.c: 69:     i2c_write(0xAF);
  3716   000A5C  0EAF               	movlw	175
  3717   000A5E  EC59  F009         	call	_i2c_write
  3718                           
  3719                           ;max30102.c: 71:     red = ((uint32_t)i2c_read(1)) << 16;
  3720   000A62  0E01               	movlw	1
  3721   000A64  EC6D  F009         	call	_i2c_read
  3722   000A68  6E14               	movwf	??_max30102_read_fifo^0,c
  3723   000A6A  C014  F015         	movff	??_max30102_read_fifo,??_max30102_read_fifo+1
  3724   000A6E  6A16               	clrf	(??_max30102_read_fifo+2)^0,c
  3725   000A70  6A17               	clrf	(??_max30102_read_fifo+3)^0,c
  3726   000A72  6A18               	clrf	(??_max30102_read_fifo+4)^0,c
  3727   000A74  C016  F018         	movff	??_max30102_read_fifo+2,??_max30102_read_fifo+4
  3728   000A78  C015  F017         	movff	??_max30102_read_fifo+1,??_max30102_read_fifo+3
  3729   000A7C  6A16               	clrf	(??_max30102_read_fifo+2)^0,c
  3730   000A7E  6A15               	clrf	(??_max30102_read_fifo+1)^0,c
  3731   000A80  C015  F019         	movff	??_max30102_read_fifo+1,max30102_read_fifo@red
  3732   000A84  C016  F01A         	movff	??_max30102_read_fifo+2,max30102_read_fifo@red+1
  3733   000A88  C017  F01B         	movff	??_max30102_read_fifo+3,max30102_read_fifo@red+2
  3734   000A8C  C018  F01C         	movff	??_max30102_read_fifo+4,max30102_read_fifo@red+3
  3735                           
  3736                           ;max30102.c: 72:     red |= ((uint32_t)i2c_read(1)) << 8;
  3737   000A90  0E01               	movlw	1
  3738   000A92  EC6D  F009         	call	_i2c_read
  3739   000A96  6E14               	movwf	??_max30102_read_fifo^0,c
  3740   000A98  C014  F015         	movff	??_max30102_read_fifo,??_max30102_read_fifo+1
  3741   000A9C  6A16               	clrf	(??_max30102_read_fifo+2)^0,c
  3742   000A9E  6A17               	clrf	(??_max30102_read_fifo+3)^0,c
  3743   000AA0  6A18               	clrf	(??_max30102_read_fifo+4)^0,c
  3744   000AA2  C017  F018         	movff	??_max30102_read_fifo+3,??_max30102_read_fifo+4
  3745   000AA6  C016  F017         	movff	??_max30102_read_fifo+2,??_max30102_read_fifo+3
  3746   000AAA  C015  F016         	movff	??_max30102_read_fifo+1,??_max30102_read_fifo+2
  3747   000AAE  6A15               	clrf	(??_max30102_read_fifo+1)^0,c
  3748   000AB0  5015               	movf	(??_max30102_read_fifo+1)^0,w,c
  3749   000AB2  1219               	iorwf	max30102_read_fifo@red^0,f,c
  3750   000AB4  5016               	movf	(??_max30102_read_fifo+2)^0,w,c
  3751   000AB6  121A               	iorwf	(max30102_read_fifo@red+1)^0,f,c
  3752   000AB8  5017               	movf	(??_max30102_read_fifo+3)^0,w,c
  3753   000ABA  121B               	iorwf	(max30102_read_fifo@red+2)^0,f,c
  3754   000ABC  5018               	movf	(??_max30102_read_fifo+4)^0,w,c
  3755   000ABE  121C               	iorwf	(max30102_read_fifo@red+3)^0,f,c
  3756                           
  3757                           ;max30102.c: 73:     red |= i2c_read(1);
  3758   000AC0  0E01               	movlw	1
  3759   000AC2  EC6D  F009         	call	_i2c_read
  3760   000AC6  6E14               	movwf	??_max30102_read_fifo^0,c
  3761   000AC8  5014               	movf	??_max30102_read_fifo^0,w,c
  3762   000ACA  1219               	iorwf	max30102_read_fifo@red^0,f,c
  3763                           
  3764                           ;max30102.c: 75:     ir = ((uint32_t)i2c_read(1)) << 16;
  3765   000ACC  0E01               	movlw	1
  3766   000ACE  EC6D  F009         	call	_i2c_read
  3767   000AD2  6E14               	movwf	??_max30102_read_fifo^0,c
  3768   000AD4  C014  F015         	movff	??_max30102_read_fifo,??_max30102_read_fifo+1
  3769   000AD8  6A16               	clrf	(??_max30102_read_fifo+2)^0,c
  3770   000ADA  6A17               	clrf	(??_max30102_read_fifo+3)^0,c
  3771   000ADC  6A18               	clrf	(??_max30102_read_fifo+4)^0,c
  3772   000ADE  C016  F018         	movff	??_max30102_read_fifo+2,??_max30102_read_fifo+4
  3773   000AE2  C015  F017         	movff	??_max30102_read_fifo+1,??_max30102_read_fifo+3
  3774   000AE6  6A16               	clrf	(??_max30102_read_fifo+2)^0,c
  3775   000AE8  6A15               	clrf	(??_max30102_read_fifo+1)^0,c
  3776   000AEA  C015  F01D         	movff	??_max30102_read_fifo+1,max30102_read_fifo@ir
  3777   000AEE  C016  F01E         	movff	??_max30102_read_fifo+2,max30102_read_fifo@ir+1
  3778   000AF2  C017  F01F         	movff	??_max30102_read_fifo+3,max30102_read_fifo@ir+2
  3779   000AF6  C018  F020         	movff	??_max30102_read_fifo+4,max30102_read_fifo@ir+3
  3780                           
  3781                           ;max30102.c: 76:     ir |= ((uint32_t)i2c_read(1)) << 8;
  3782   000AFA  0E01               	movlw	1
  3783   000AFC  EC6D  F009         	call	_i2c_read
  3784   000B00  6E14               	movwf	??_max30102_read_fifo^0,c
  3785   000B02  C014  F015         	movff	??_max30102_read_fifo,??_max30102_read_fifo+1
  3786   000B06  6A16               	clrf	(??_max30102_read_fifo+2)^0,c
  3787   000B08  6A17               	clrf	(??_max30102_read_fifo+3)^0,c
  3788   000B0A  6A18               	clrf	(??_max30102_read_fifo+4)^0,c
  3789   000B0C  C017  F018         	movff	??_max30102_read_fifo+3,??_max30102_read_fifo+4
  3790   000B10  C016  F017         	movff	??_max30102_read_fifo+2,??_max30102_read_fifo+3
  3791   000B14  C015  F016         	movff	??_max30102_read_fifo+1,??_max30102_read_fifo+2
  3792   000B18  6A15               	clrf	(??_max30102_read_fifo+1)^0,c
  3793   000B1A  5015               	movf	(??_max30102_read_fifo+1)^0,w,c
  3794   000B1C  121D               	iorwf	max30102_read_fifo@ir^0,f,c
  3795   000B1E  5016               	movf	(??_max30102_read_fifo+2)^0,w,c
  3796   000B20  121E               	iorwf	(max30102_read_fifo@ir+1)^0,f,c
  3797   000B22  5017               	movf	(??_max30102_read_fifo+3)^0,w,c
  3798   000B24  121F               	iorwf	(max30102_read_fifo@ir+2)^0,f,c
  3799   000B26  5018               	movf	(??_max30102_read_fifo+4)^0,w,c
  3800   000B28  1220               	iorwf	(max30102_read_fifo@ir+3)^0,f,c
  3801                           
  3802                           ;max30102.c: 77:     ir |= i2c_read(0);
  3803   000B2A  0E00               	movlw	0
  3804   000B2C  EC6D  F009         	call	_i2c_read
  3805   000B30  6E14               	movwf	??_max30102_read_fifo^0,c
  3806   000B32  5014               	movf	??_max30102_read_fifo^0,w,c
  3807   000B34  121D               	iorwf	max30102_read_fifo@ir^0,f,c
  3808                           
  3809                           ;max30102.c: 79:     i2c_stop();
  3810   000B36  EC23  F00A         	call	_i2c_stop	;wreg free
  3811   000B3A                     
  3812                           ;max30102.c: 81:     red &= 0x3FFFF;
  3813   000B3A  0EFF               	movlw	255
  3814   000B3C  1619               	andwf	max30102_read_fifo@red^0,f,c
  3815   000B3E  0EFF               	movlw	255
  3816   000B40  161A               	andwf	(max30102_read_fifo@red+1)^0,f,c
  3817   000B42  0E03               	movlw	3
  3818   000B44  161B               	andwf	(max30102_read_fifo@red+2)^0,f,c
  3819   000B46  0E00               	movlw	0
  3820   000B48  161C               	andwf	(max30102_read_fifo@red+3)^0,f,c
  3821   000B4A                     
  3822                           ;max30102.c: 82:     ir &= 0x3FFFF;
  3823   000B4A  0EFF               	movlw	255
  3824   000B4C  161D               	andwf	max30102_read_fifo@ir^0,f,c
  3825   000B4E  0EFF               	movlw	255
  3826   000B50  161E               	andwf	(max30102_read_fifo@ir+1)^0,f,c
  3827   000B52  0E03               	movlw	3
  3828   000B54  161F               	andwf	(max30102_read_fifo@ir+2)^0,f,c
  3829   000B56  0E00               	movlw	0
  3830   000B58  1620               	andwf	(max30102_read_fifo@ir+3)^0,f,c
  3831   000B5A                     
  3832                           ;max30102.c: 84:     *pun_red_led = red;
  3833   000B5A  5012               	movf	max30102_read_fifo@pun_red_led^0,w,c
  3834   000B5C  6ED9               	movwf	fsr2l,c
  3835   000B5E  6ADA               	clrf	fsr2h,c
  3836   000B60  C019  FFDE         	movff	max30102_read_fifo@red,postinc2
  3837   000B64  C01A  FFDE         	movff	max30102_read_fifo@red+1,postinc2
  3838   000B68  C01B  FFDE         	movff	max30102_read_fifo@red+2,postinc2
  3839   000B6C  C01C  FFDE         	movff	max30102_read_fifo@red+3,postinc2
  3840   000B70                     
  3841                           ;max30102.c: 85:     *pun_ir_led = ir;
  3842   000B70  5013               	movf	max30102_read_fifo@pun_ir_led^0,w,c
  3843   000B72  6ED9               	movwf	fsr2l,c
  3844   000B74  6ADA               	clrf	fsr2h,c
  3845   000B76  C01D  FFDE         	movff	max30102_read_fifo@ir,postinc2
  3846   000B7A  C01E  FFDE         	movff	max30102_read_fifo@ir+1,postinc2
  3847   000B7E  C01F  FFDE         	movff	max30102_read_fifo@ir+2,postinc2
  3848   000B82  C020  FFDE         	movff	max30102_read_fifo@ir+3,postinc2
  3849   000B86  0012               	return		;funcret
  3850   000B88                     __end_of_max30102_read_fifo:
  3851                           	callstack 0
  3852                           
  3853 ;; *************** function _max30102_initialize *****************
  3854 ;; Defined at:
  3855 ;;		line 25 in file "max30102.c"
  3856 ;; Parameters:    Size  Location     Type
  3857 ;;		None
  3858 ;; Auto vars:     Size  Location     Type
  3859 ;;  part_id         1   19[COMRAM] unsigned char 
  3860 ;; Return value:  Size  Location     Type
  3861 ;;                  1    wreg      _Bool 
  3862 ;; Registers used:
  3863 ;;		wreg, status,2, status,0, cstack
  3864 ;; Tracked objects:
  3865 ;;		On entry : 0/0
  3866 ;;		On exit  : 0/0
  3867 ;;		Unchanged: 0/0
  3868 ;; Data sizes:     COMRAM   BANK0   BANK1   BANK2   BANK3   BANK4   BANK5
  3869 ;;      Params:         0       0       0       0       0       0       0
  3870 ;;      Locals:         1       0       0       0       0       0       0
  3871 ;;      Temps:          0       0       0       0       0       0       0
  3872 ;;      Totals:         1       0       0       0       0       0       0
  3873 ;;Total ram usage:        1 bytes
  3874 ;; Hardware stack levels used: 1
  3875 ;; Hardware stack levels required when called: 7
  3876 ;; This function calls:
  3877 ;;		_max30102_read_reg
  3878 ;;		_max30102_write_reg
  3879 ;; This function is called by:
  3880 ;;		_main
  3881 ;; This function uses a non-reentrant model
  3882 ;;
  3883                           
  3884                           	psect	text17
  3885   001050                     __ptext17:
  3886                           	callstack 0
  3887   001050                     _max30102_initialize:
  3888                           	callstack 23
  3889   001050                     
  3890                           ;max30102.c: 27:     uint8_t part_id = max30102_read_reg(0xFF);
  3891   001050  0EFF               	movlw	255
  3892   001052  EC2F  F009         	call	_max30102_read_reg
  3893   001056  6E14               	movwf	max30102_initialize@part_id^0,c
  3894   001058                     
  3895                           ;max30102.c: 28:     if (part_id != 0x15) {
  3896   001058  0E15               	movlw	21
  3897   00105A  1814               	xorwf	max30102_initialize@part_id^0,w,c
  3898   00105C  B4D8               	btfsc	status,2,c
  3899   00105E  EF33  F008         	goto	u1061
  3900   001062  EF35  F008         	goto	u1060
  3901   001066                     u1061:
  3902   001066  EF38  F008         	goto	l1839
  3903   00106A                     u1060:
  3904   00106A                     
  3905                           ;max30102.c: 29:         return 0;
  3906   00106A  0E00               	movlw	0
  3907   00106C  EF66  F008         	goto	l192
  3908   001070                     l1839:
  3909                           
  3910                           ;max30102.c: 33:     max30102_write_reg(0x09, 0x40);
  3911   001070  0E40               	movlw	64
  3912   001072  6E11               	movwf	max30102_write_reg@value^0,c
  3913   001074  0E09               	movlw	9
  3914   001076  ECDD  F009         	call	_max30102_write_reg
  3915                           
  3916                           ;max30102.c: 37:     max30102_write_reg(0x04, 0x00);
  3917   00107A  0E00               	movlw	0
  3918   00107C  6E11               	movwf	max30102_write_reg@value^0,c
  3919   00107E  0E04               	movlw	4
  3920   001080  ECDD  F009         	call	_max30102_write_reg
  3921                           
  3922                           ;max30102.c: 38:     max30102_write_reg(0x05, 0x00);
  3923   001084  0E00               	movlw	0
  3924   001086  6E11               	movwf	max30102_write_reg@value^0,c
  3925   001088  0E05               	movlw	5
  3926   00108A  ECDD  F009         	call	_max30102_write_reg
  3927                           
  3928                           ;max30102.c: 39:     max30102_write_reg(0x06, 0x00);
  3929   00108E  0E00               	movlw	0
  3930   001090  6E11               	movwf	max30102_write_reg@value^0,c
  3931   001092  0E06               	movlw	6
  3932   001094  ECDD  F009         	call	_max30102_write_reg
  3933                           
  3934                           ;max30102.c: 40:     max30102_write_reg(0x08, 0x10);
  3935   001098  0E10               	movlw	16
  3936   00109A  6E11               	movwf	max30102_write_reg@value^0,c
  3937   00109C  0E08               	movlw	8
  3938   00109E  ECDD  F009         	call	_max30102_write_reg
  3939                           
  3940                           ;max30102.c: 44:     max30102_write_reg(0x0A, 0x47);
  3941   0010A2  0E47               	movlw	71
  3942   0010A4  6E11               	movwf	max30102_write_reg@value^0,c
  3943   0010A6  0E0A               	movlw	10
  3944   0010A8  ECDD  F009         	call	_max30102_write_reg
  3945                           
  3946                           ;max30102.c: 47:     max30102_write_reg(0x0C, 0x24);
  3947   0010AC  0E24               	movlw	36
  3948   0010AE  6E11               	movwf	max30102_write_reg@value^0,c
  3949   0010B0  0E0C               	movlw	12
  3950   0010B2  ECDD  F009         	call	_max30102_write_reg
  3951                           
  3952                           ;max30102.c: 48:     max30102_write_reg(0x0D, 0x24);
  3953   0010B6  0E24               	movlw	36
  3954   0010B8  6E11               	movwf	max30102_write_reg@value^0,c
  3955   0010BA  0E0D               	movlw	13
  3956   0010BC  ECDD  F009         	call	_max30102_write_reg
  3957                           
  3958                           ;max30102.c: 51:     max30102_write_reg(0x09, 0x03);
  3959   0010C0  0E03               	movlw	3
  3960   0010C2  6E11               	movwf	max30102_write_reg@value^0,c
  3961   0010C4  0E09               	movlw	9
  3962   0010C6  ECDD  F009         	call	_max30102_write_reg
  3963   0010CA                     
  3964                           ;max30102.c: 53:     return 1;
  3965   0010CA  0E01               	movlw	1
  3966   0010CC                     l192:
  3967   0010CC  0012               	return		;funcret
  3968   0010CE                     __end_of_max30102_initialize:
  3969                           	callstack 0
  3970                           
  3971 ;; *************** function _max30102_write_reg *****************
  3972 ;; Defined at:
  3973 ;;		line 5 in file "max30102.c"
  3974 ;; Parameters:    Size  Location     Type
  3975 ;;  reg             1    wreg     unsigned char 
  3976 ;;  value           1   16[COMRAM] unsigned char 
  3977 ;; Auto vars:     Size  Location     Type
  3978 ;;  reg             1   17[COMRAM] unsigned char 
  3979 ;; Return value:  Size  Location     Type
  3980 ;;                  1    wreg      void 
  3981 ;; Registers used:
  3982 ;;		wreg, status,2, status,0, cstack
  3983 ;; Tracked objects:
  3984 ;;		On entry : 0/0
  3985 ;;		On exit  : 0/0
  3986 ;;		Unchanged: 0/0
  3987 ;; Data sizes:     COMRAM   BANK0   BANK1   BANK2   BANK3   BANK4   BANK5
  3988 ;;      Params:         1       0       0       0       0       0       0
  3989 ;;      Locals:         1       0       0       0       0       0       0
  3990 ;;      Temps:          0       0       0       0       0       0       0
  3991 ;;      Totals:         2       0       0       0       0       0       0
  3992 ;;Total ram usage:        2 bytes
  3993 ;; Hardware stack levels used: 1
  3994 ;; Hardware stack levels required when called: 6
  3995 ;; This function calls:
  3996 ;;		_i2c_start
  3997 ;;		_i2c_stop
  3998 ;;		_i2c_write
  3999 ;; This function is called by:
  4000 ;;		_max30102_initialize
  4001 ;; This function uses a non-reentrant model
  4002 ;;
  4003                           
  4004                           	psect	text18
  4005   0013BA                     __ptext18:
  4006                           	callstack 0
  4007   0013BA                     _max30102_write_reg:
  4008                           	callstack 23
  4009                           
  4010                           ;incstack = 0
  4011                           ;max30102_write_reg@reg stored from wreg
  4012   0013BA  6E12               	movwf	max30102_write_reg@reg^0,c
  4013   0013BC                     
  4014                           ;max30102.c: 6:     i2c_start();
  4015   0013BC  EC27  F00A         	call	_i2c_start	;wreg free
  4016                           
  4017                           ;max30102.c: 7:     i2c_write(0xAE);
  4018   0013C0  0EAE               	movlw	174
  4019   0013C2  EC59  F009         	call	_i2c_write
  4020                           
  4021                           ;max30102.c: 8:     i2c_write(reg);
  4022   0013C6  5012               	movf	max30102_write_reg@reg^0,w,c
  4023   0013C8  EC59  F009         	call	_i2c_write
  4024                           
  4025                           ;max30102.c: 9:     i2c_write(value);
  4026   0013CC  5011               	movf	max30102_write_reg@value^0,w,c
  4027   0013CE  EC59  F009         	call	_i2c_write
  4028                           
  4029                           ;max30102.c: 10:     i2c_stop();
  4030   0013D2  EC23  F00A         	call	_i2c_stop	;wreg free
  4031   0013D6  0012               	return		;funcret
  4032   0013D8                     __end_of_max30102_write_reg:
  4033                           	callstack 0
  4034                           
  4035 ;; *************** function _max30102_available *****************
  4036 ;; Defined at:
  4037 ;;		line 56 in file "max30102.c"
  4038 ;; Parameters:    Size  Location     Type
  4039 ;;		None
  4040 ;; Auto vars:     Size  Location     Type
  4041 ;;  rd              1   20[COMRAM] unsigned char 
  4042 ;;  wr              1   19[COMRAM] unsigned char 
  4043 ;; Return value:  Size  Location     Type
  4044 ;;                  1    wreg      unsigned char 
  4045 ;; Registers used:
  4046 ;;		wreg, status,2, status,0, cstack
  4047 ;; Tracked objects:
  4048 ;;		On entry : 0/0
  4049 ;;		On exit  : 0/0
  4050 ;;		Unchanged: 0/0
  4051 ;; Data sizes:     COMRAM   BANK0   BANK1   BANK2   BANK3   BANK4   BANK5
  4052 ;;      Params:         0       0       0       0       0       0       0
  4053 ;;      Locals:         2       0       0       0       0       0       0
  4054 ;;      Temps:          0       0       0       0       0       0       0
  4055 ;;      Totals:         2       0       0       0       0       0       0
  4056 ;;Total ram usage:        2 bytes
  4057 ;; Hardware stack levels used: 1
  4058 ;; Hardware stack levels required when called: 7
  4059 ;; This function calls:
  4060 ;;		_max30102_read_reg
  4061 ;; This function is called by:
  4062 ;;		_main
  4063 ;; This function uses a non-reentrant model
  4064 ;;
  4065                           
  4066                           	psect	text19
  4067   00140A                     __ptext19:
  4068                           	callstack 0
  4069   00140A                     _max30102_available:
  4070                           	callstack 23
  4071   00140A                     
  4072                           ;max30102.c: 57:     uint8_t wr = max30102_read_reg(0x04);
  4073   00140A  0E04               	movlw	4
  4074   00140C  EC2F  F009         	call	_max30102_read_reg
  4075   001410  6E14               	movwf	max30102_available@wr^0,c
  4076                           
  4077                           ;max30102.c: 58:     uint8_t rd = max30102_read_reg(0x06);
  4078   001412  0E06               	movlw	6
  4079   001414  EC2F  F009         	call	_max30102_read_reg
  4080   001418  6E15               	movwf	max30102_available@rd^0,c
  4081   00141A                     
  4082                           ;max30102.c: 59:     return (wr - rd) & 0x1F;
  4083   00141A  5015               	movf	max30102_available@rd^0,w,c
  4084   00141C  5C14               	subwf	max30102_available@wr^0,w,c
  4085   00141E  0B1F               	andlw	31
  4086   001420  0012               	return		;funcret
  4087   001422                     __end_of_max30102_available:
  4088                           	callstack 0
  4089                           
  4090 ;; *************** function _max30102_read_reg *****************
  4091 ;; Defined at:
  4092 ;;		line 13 in file "max30102.c"
  4093 ;; Parameters:    Size  Location     Type
  4094 ;;  reg             1    wreg     unsigned char 
  4095 ;; Auto vars:     Size  Location     Type
  4096 ;;  reg             1   17[COMRAM] unsigned char 
  4097 ;;  val             1   18[COMRAM] unsigned char 
  4098 ;; Return value:  Size  Location     Type
  4099 ;;                  1    wreg      unsigned char 
  4100 ;; Registers used:
  4101 ;;		wreg, status,2, status,0, cstack
  4102 ;; Tracked objects:
  4103 ;;		On entry : 0/0
  4104 ;;		On exit  : 0/0
  4105 ;;		Unchanged: 0/0
  4106 ;; Data sizes:     COMRAM   BANK0   BANK1   BANK2   BANK3   BANK4   BANK5
  4107 ;;      Params:         0       0       0       0       0       0       0
  4108 ;;      Locals:         2       0       0       0       0       0       0
  4109 ;;      Temps:          0       0       0       0       0       0       0
  4110 ;;      Totals:         2       0       0       0       0       0       0
  4111 ;;Total ram usage:        2 bytes
  4112 ;; Hardware stack levels used: 1
  4113 ;; Hardware stack levels required when called: 6
  4114 ;; This function calls:
  4115 ;;		_i2c_read
  4116 ;;		_i2c_rep_start
  4117 ;;		_i2c_start
  4118 ;;		_i2c_stop
  4119 ;;		_i2c_write
  4120 ;; This function is called by:
  4121 ;;		_max30102_initialize
  4122 ;;		_max30102_available
  4123 ;; This function uses a non-reentrant model
  4124 ;;
  4125                           
  4126                           	psect	text20
  4127   00125E                     __ptext20:
  4128                           	callstack 0
  4129   00125E                     _max30102_read_reg:
  4130                           	callstack 23
  4131                           
  4132                           ;incstack = 0
  4133                           ;max30102_read_reg@reg stored from wreg
  4134   00125E  6E12               	movwf	max30102_read_reg@reg^0,c
  4135   001260                     
  4136                           ;max30102.c: 14:     uint8_t val;;max30102.c: 15:     i2c_start();
  4137   001260  EC27  F00A         	call	_i2c_start	;wreg free
  4138                           
  4139                           ;max30102.c: 16:     i2c_write(0xAE);
  4140   001264  0EAE               	movlw	174
  4141   001266  EC59  F009         	call	_i2c_write
  4142                           
  4143                           ;max30102.c: 17:     i2c_write(reg);
  4144   00126A  5012               	movf	max30102_read_reg@reg^0,w,c
  4145   00126C  EC59  F009         	call	_i2c_write
  4146                           
  4147                           ;max30102.c: 18:     i2c_rep_start();
  4148   001270  EC2B  F00A         	call	_i2c_rep_start	;wreg free
  4149                           
  4150                           ;max30102.c: 19:     i2c_write(0xAF);
  4151   001274  0EAF               	movlw	175
  4152   001276  EC59  F009         	call	_i2c_write
  4153                           
  4154                           ;max30102.c: 20:     val = i2c_read(0);
  4155   00127A  0E00               	movlw	0
  4156   00127C  EC6D  F009         	call	_i2c_read
  4157   001280  6E13               	movwf	max30102_read_reg@val^0,c
  4158                           
  4159                           ;max30102.c: 21:     i2c_stop();
  4160   001282  EC23  F00A         	call	_i2c_stop	;wreg free
  4161   001286                     
  4162                           ;max30102.c: 22:     return val;
  4163   001286  5013               	movf	max30102_read_reg@val^0,w,c
  4164   001288  0012               	return		;funcret
  4165   00128A                     __end_of_max30102_read_reg:
  4166                           	callstack 0
  4167                           
  4168 ;; *************** function _i2c_write *****************
  4169 ;; Defined at:
  4170 ;;		line 39 in file "i2c.c"
  4171 ;; Parameters:    Size  Location     Type
  4172 ;;  i2c_data        1    wreg     unsigned char 
  4173 ;; Auto vars:     Size  Location     Type
  4174 ;;  i2c_data        1   15[COMRAM] unsigned char 
  4175 ;; Return value:  Size  Location     Type
  4176 ;;                  1    wreg      void 
  4177 ;; Registers used:
  4178 ;;		wreg, status,2, status,0, cstack
  4179 ;; Tracked objects:
  4180 ;;		On entry : 0/0
  4181 ;;		On exit  : 0/0
  4182 ;;		Unchanged: 0/0
  4183 ;; Data sizes:     COMRAM   BANK0   BANK1   BANK2   BANK3   BANK4   BANK5
  4184 ;;      Params:         0       0       0       0       0       0       0
  4185 ;;      Locals:         1       0       0       0       0       0       0
  4186 ;;      Temps:          0       0       0       0       0       0       0
  4187 ;;      Totals:         1       0       0       0       0       0       0
  4188 ;;Total ram usage:        1 bytes
  4189 ;; Hardware stack levels used: 1
  4190 ;; Hardware stack levels required when called: 5
  4191 ;; This function calls:
  4192 ;;		_i2c_is_idle
  4193 ;; This function is called by:
  4194 ;;		_max30102_write_reg
  4195 ;;		_max30102_read_reg
  4196 ;;		_max30102_read_fifo
  4197 ;; This function uses a non-reentrant model
  4198 ;;
  4199                           
  4200                           	psect	text21
  4201   0012B2                     __ptext21:
  4202                           	callstack 0
  4203   0012B2                     _i2c_write:
  4204                           	callstack 24
  4205                           
  4206                           ;incstack = 0
  4207                           ;i2c_write@i2c_data stored from wreg
  4208   0012B2  6E10               	movwf	i2c_write@i2c_data^0,c
  4209   0012B4                     
  4210                           ;i2c.c: 39: void i2c_write(uint8_t i2c_data);i2c.c: 40: {;i2c.c: 41:     i2c_is_idle();
  4211   0012B4  ECA7  F009         	call	_i2c_is_idle	;wreg free
  4212   0012B8                     
  4213                           ;i2c.c: 42:     SSPBUF = i2c_data;
  4214   0012B8  C010  FFC9         	movff	i2c_write@i2c_data,4041	;volatile
  4215   0012BC                     l63:
  4216   0012BC  B0C7               	btfsc	199,0,c	;volatile
  4217   0012BE  EF63  F009         	goto	u311
  4218   0012C2  EF65  F009         	goto	u310
  4219   0012C6                     u311:
  4220   0012C6  EF5E  F009         	goto	l63
  4221   0012CA                     u310:
  4222   0012CA                     l66:
  4223   0012CA  BCC5               	btfsc	197,6,c	;volatile
  4224   0012CC  EF6A  F009         	goto	u321
  4225   0012D0  EF6C  F009         	goto	u320
  4226   0012D4                     u321:
  4227   0012D4  EF65  F009         	goto	l66
  4228   0012D8                     u320:
  4229   0012D8  0012               	return		;funcret
  4230   0012DA                     __end_of_i2c_write:
  4231                           	callstack 0
  4232                           
  4233 ;; *************** function _i2c_stop *****************
  4234 ;; Defined at:
  4235 ;;		line 33 in file "i2c.c"
  4236 ;; Parameters:    Size  Location     Type
  4237 ;;		None
  4238 ;; Auto vars:     Size  Location     Type
  4239 ;;		None
  4240 ;; Return value:  Size  Location     Type
  4241 ;;                  1    wreg      void 
  4242 ;; Registers used:
  4243 ;;		wreg, status,2, status,0, cstack
  4244 ;; Tracked objects:
  4245 ;;		On entry : 0/0
  4246 ;;		On exit  : 0/0
  4247 ;;		Unchanged: 0/0
  4248 ;; Data sizes:     COMRAM   BANK0   BANK1   BANK2   BANK3   BANK4   BANK5
  4249 ;;      Params:         0       0       0       0       0       0       0
  4250 ;;      Locals:         0       0       0       0       0       0       0
  4251 ;;      Temps:          0       0       0       0       0       0       0
  4252 ;;      Totals:         0       0       0       0       0       0       0
  4253 ;;Total ram usage:        0 bytes
  4254 ;; Hardware stack levels used: 1
  4255 ;; Hardware stack levels required when called: 5
  4256 ;; This function calls:
  4257 ;;		_i2c_is_idle
  4258 ;; This function is called by:
  4259 ;;		_max30102_write_reg
  4260 ;;		_max30102_read_reg
  4261 ;;		_max30102_read_fifo
  4262 ;; This function uses a non-reentrant model
  4263 ;;
  4264                           
  4265                           	psect	text22
  4266   001446                     __ptext22:
  4267                           	callstack 0
  4268   001446                     _i2c_stop:
  4269                           	callstack 24
  4270   001446                     
  4271                           ;i2c.c: 35:     i2c_is_idle();
  4272   001446  ECA7  F009         	call	_i2c_is_idle	;wreg free
  4273   00144A                     
  4274                           ;i2c.c: 36:     SSPCON2bits.PEN = 1;
  4275   00144A  84C5               	bsf	197,2,c	;volatile
  4276   00144C  0012               	return		;funcret
  4277   00144E                     __end_of_i2c_stop:
  4278                           	callstack 0
  4279                           
  4280 ;; *************** function _i2c_start *****************
  4281 ;; Defined at:
  4282 ;;		line 21 in file "i2c.c"
  4283 ;; Parameters:    Size  Location     Type
  4284 ;;		None
  4285 ;; Auto vars:     Size  Location     Type
  4286 ;;		None
  4287 ;; Return value:  Size  Location     Type
  4288 ;;                  1    wreg      void 
  4289 ;; Registers used:
  4290 ;;		wreg, status,2, status,0, cstack
  4291 ;; Tracked objects:
  4292 ;;		On entry : 0/0
  4293 ;;		On exit  : 0/0
  4294 ;;		Unchanged: 0/0
  4295 ;; Data sizes:     COMRAM   BANK0   BANK1   BANK2   BANK3   BANK4   BANK5
  4296 ;;      Params:         0       0       0       0       0       0       0
  4297 ;;      Locals:         0       0       0       0       0       0       0
  4298 ;;      Temps:          0       0       0       0       0       0       0
  4299 ;;      Totals:         0       0       0       0       0       0       0
  4300 ;;Total ram usage:        0 bytes
  4301 ;; Hardware stack levels used: 1
  4302 ;; Hardware stack levels required when called: 5
  4303 ;; This function calls:
  4304 ;;		_i2c_is_idle
  4305 ;; This function is called by:
  4306 ;;		_max30102_write_reg
  4307 ;;		_max30102_read_reg
  4308 ;;		_max30102_read_fifo
  4309 ;; This function uses a non-reentrant model
  4310 ;;
  4311                           
  4312                           	psect	text23
  4313   00144E                     __ptext23:
  4314                           	callstack 0
  4315   00144E                     _i2c_start:
  4316                           	callstack 24
  4317   00144E                     
  4318                           ;i2c.c: 23:     i2c_is_idle();
  4319   00144E  ECA7  F009         	call	_i2c_is_idle	;wreg free
  4320   001452                     
  4321                           ;i2c.c: 24:     SSPCON2bits.SEN = 1;
  4322   001452  80C5               	bsf	197,0,c	;volatile
  4323   001454  0012               	return		;funcret
  4324   001456                     __end_of_i2c_start:
  4325                           	callstack 0
  4326                           
  4327 ;; *************** function _i2c_rep_start *****************
  4328 ;; Defined at:
  4329 ;;		line 27 in file "i2c.c"
  4330 ;; Parameters:    Size  Location     Type
  4331 ;;		None
  4332 ;; Auto vars:     Size  Location     Type
  4333 ;;		None
  4334 ;; Return value:  Size  Location     Type
  4335 ;;                  1    wreg      void 
  4336 ;; Registers used:
  4337 ;;		wreg, status,2, status,0, cstack
  4338 ;; Tracked objects:
  4339 ;;		On entry : 0/0
  4340 ;;		On exit  : 0/0
  4341 ;;		Unchanged: 0/0
  4342 ;; Data sizes:     COMRAM   BANK0   BANK1   BANK2   BANK3   BANK4   BANK5
  4343 ;;      Params:         0       0       0       0       0       0       0
  4344 ;;      Locals:         0       0       0       0       0       0       0
  4345 ;;      Temps:          0       0       0       0       0       0       0
  4346 ;;      Totals:         0       0       0       0       0       0       0
  4347 ;;Total ram usage:        0 bytes
  4348 ;; Hardware stack levels used: 1
  4349 ;; Hardware stack levels required when called: 5
  4350 ;; This function calls:
  4351 ;;		_i2c_is_idle
  4352 ;; This function is called by:
  4353 ;;		_max30102_read_reg
  4354 ;;		_max30102_read_fifo
  4355 ;; This function uses a non-reentrant model
  4356 ;;
  4357                           
  4358                           	psect	text24
  4359   001456                     __ptext24:
  4360                           	callstack 0
  4361   001456                     _i2c_rep_start:
  4362                           	callstack 24
  4363   001456                     
  4364                           ;i2c.c: 29:     i2c_is_idle();
  4365   001456  ECA7  F009         	call	_i2c_is_idle	;wreg free
  4366   00145A                     
  4367                           ;i2c.c: 30:     SSPCON2bits.RSEN = 1;
  4368   00145A  82C5               	bsf	197,1,c	;volatile
  4369   00145C  0012               	return		;funcret
  4370   00145E                     __end_of_i2c_rep_start:
  4371                           	callstack 0
  4372                           
  4373 ;; *************** function _i2c_read *****************
  4374 ;; Defined at:
  4375 ;;		line 47 in file "i2c.c"
  4376 ;; Parameters:    Size  Location     Type
  4377 ;;  ack             1    wreg     unsigned char 
  4378 ;; Auto vars:     Size  Location     Type
  4379 ;;  ack             1   15[COMRAM] unsigned char 
  4380 ;;  recieve         1   16[COMRAM] unsigned char 
  4381 ;; Return value:  Size  Location     Type
  4382 ;;                  1    wreg      unsigned char 
  4383 ;; Registers used:
  4384 ;;		wreg, status,2, status,0, cstack
  4385 ;; Tracked objects:
  4386 ;;		On entry : 0/0
  4387 ;;		On exit  : 0/0
  4388 ;;		Unchanged: 0/0
  4389 ;; Data sizes:     COMRAM   BANK0   BANK1   BANK2   BANK3   BANK4   BANK5
  4390 ;;      Params:         0       0       0       0       0       0       0
  4391 ;;      Locals:         2       0       0       0       0       0       0
  4392 ;;      Temps:          0       0       0       0       0       0       0
  4393 ;;      Totals:         2       0       0       0       0       0       0
  4394 ;;Total ram usage:        2 bytes
  4395 ;; Hardware stack levels used: 1
  4396 ;; Hardware stack levels required when called: 5
  4397 ;; This function calls:
  4398 ;;		_i2c_is_idle
  4399 ;; This function is called by:
  4400 ;;		_max30102_read_reg
  4401 ;;		_max30102_read_fifo
  4402 ;; This function uses a non-reentrant model
  4403 ;;
  4404                           
  4405                           	psect	text25
  4406   0012DA                     __ptext25:
  4407                           	callstack 0
  4408   0012DA                     _i2c_read:
  4409                           	callstack 24
  4410                           
  4411                           ;incstack = 0
  4412                           ;i2c_read@ack stored from wreg
  4413   0012DA  6E10               	movwf	i2c_read@ack^0,c
  4414   0012DC                     
  4415                           ;i2c.c: 50:     i2c_is_idle();
  4416   0012DC  ECA7  F009         	call	_i2c_is_idle	;wreg free
  4417   0012E0                     
  4418                           ;i2c.c: 51:     SSPCON2bits.RCEN = 1;
  4419   0012E0  86C5               	bsf	197,3,c	;volatile
  4420   0012E2                     l72:
  4421   0012E2  A0C7               	btfss	199,0,c	;volatile
  4422   0012E4  EF76  F009         	goto	u331
  4423   0012E8  EF78  F009         	goto	u330
  4424   0012EC                     u331:
  4425   0012EC  EF71  F009         	goto	l72
  4426   0012F0                     u330:
  4427   0012F0                     
  4428                           ;i2c.c: 53:     recieve = SSPBUF;
  4429   0012F0  CFC9 F011          	movff	4041,i2c_read@recieve	;volatile
  4430                           
  4431                           ;i2c.c: 54:     SSPCON2bits.ACKEN = ack;
  4432   0012F4  B010               	btfsc	i2c_read@ack^0,0,c
  4433   0012F6  D002               	bra	u345
  4434   0012F8  98C5               	bcf	197,4,c	;volatile
  4435   0012FA  D001               	bra	u346
  4436   0012FC                     u345:
  4437   0012FC  88C5               	bsf	197,4,c	;volatile
  4438   0012FE                     u346:
  4439   0012FE                     
  4440                           ;i2c.c: 55:     return recieve;
  4441   0012FE  5011               	movf	i2c_read@recieve^0,w,c
  4442   001300  0012               	return		;funcret
  4443   001302                     __end_of_i2c_read:
  4444                           	callstack 0
  4445                           
  4446 ;; *************** function _i2c_is_idle *****************
  4447 ;; Defined at:
  4448 ;;		line 16 in file "i2c.c"
  4449 ;; Parameters:    Size  Location     Type
  4450 ;;		None
  4451 ;; Auto vars:     Size  Location     Type
  4452 ;;		None
  4453 ;; Return value:  Size  Location     Type
  4454 ;;                  1    wreg      void 
  4455 ;; Registers used:
  4456 ;;		wreg, status,2, status,0
  4457 ;; Tracked objects:
  4458 ;;		On entry : 0/0
  4459 ;;		On exit  : 0/0
  4460 ;;		Unchanged: 0/0
  4461 ;; Data sizes:     COMRAM   BANK0   BANK1   BANK2   BANK3   BANK4   BANK5
  4462 ;;      Params:         0       0       0       0       0       0       0
  4463 ;;      Locals:         0       0       0       0       0       0       0
  4464 ;;      Temps:          1       0       0       0       0       0       0
  4465 ;;      Totals:         1       0       0       0       0       0       0
  4466 ;;Total ram usage:        1 bytes
  4467 ;; Hardware stack levels used: 1
  4468 ;; Hardware stack levels required when called: 4
  4469 ;; This function calls:
  4470 ;;		Nothing
  4471 ;; This function is called by:
  4472 ;;		_i2c_start
  4473 ;;		_i2c_rep_start
  4474 ;;		_i2c_stop
  4475 ;;		_i2c_write
  4476 ;;		_i2c_read
  4477 ;; This function uses a non-reentrant model
  4478 ;;
  4479                           
  4480                           	psect	text26
  4481   00134E                     __ptext26:
  4482                           	callstack 0
  4483   00134E                     _i2c_is_idle:
  4484                           	callstack 24
  4485   00134E                     l1055:
  4486   00134E  CFC5 F00F          	movff	4037,??_i2c_is_idle	;volatile
  4487   001352  0E1F               	movlw	31
  4488   001354  160F               	andwf	??_i2c_is_idle^0,f,c
  4489   001356  A4D8               	btfss	status,2,c
  4490   001358  EFB0  F009         	goto	u61
  4491   00135C  EFB2  F009         	goto	u60
  4492   001360                     u61:
  4493   001360  EFA7  F009         	goto	l1055
  4494   001364                     u60:
  4495   001364  B4C7               	btfsc	199,2,c	;volatile
  4496   001366  EFB7  F009         	goto	u71
  4497   00136A  EFB9  F009         	goto	u70
  4498   00136E                     u71:
  4499   00136E  EFA7  F009         	goto	l1055
  4500   001372                     u70:
  4501   001372  0012               	return		;funcret
  4502   001374                     __end_of_i2c_is_idle:
  4503                           	callstack 0
  4504                           
  4505 ;; *************** function _adc_start_conversion *****************
  4506 ;; Defined at:
  4507 ;;		line 18 in file "adc.c"
  4508 ;; Parameters:    Size  Location     Type
  4509 ;;		None
  4510 ;; Auto vars:     Size  Location     Type
  4511 ;;		None
  4512 ;; Return value:  Size  Location     Type
  4513 ;;                  1    wreg      void 
  4514 ;; Registers used:
  4515 ;;		None
  4516 ;; Tracked objects:
  4517 ;;		On entry : 0/0
  4518 ;;		On exit  : 0/0
  4519 ;;		Unchanged: 0/0
  4520 ;; Data sizes:     COMRAM   BANK0   BANK1   BANK2   BANK3   BANK4   BANK5
  4521 ;;      Params:         0       0       0       0       0       0       0
  4522 ;;      Locals:         0       0       0       0       0       0       0
  4523 ;;      Temps:          0       0       0       0       0       0       0
  4524 ;;      Totals:         0       0       0       0       0       0       0
  4525 ;;Total ram usage:        0 bytes
  4526 ;; Hardware stack levels used: 1
  4527 ;; Hardware stack levels required when called: 4
  4528 ;; This function calls:
  4529 ;;		Nothing
  4530 ;; This function is called by:
  4531 ;;		_main
  4532 ;; This function uses a non-reentrant model
  4533 ;;
  4534                           
  4535                           	psect	text27
  4536   001422                     __ptext27:
  4537                           	callstack 0
  4538   001422                     _adc_start_conversion:
  4539                           	callstack 26
  4540   001422                     
  4541                           ;adc.c: 19:     if (ADCON0bits.GO == 0) {
  4542   001422  B2C2               	btfsc	194,1,c	;volatile
  4543   001424  EF16  F00A         	goto	u501
  4544   001428  EF18  F00A         	goto	u500
  4545   00142C                     u501:
  4546   00142C  EF19  F00A         	goto	l21
  4547   001430                     u500:
  4548   001430                     
  4549                           ;adc.c: 20:         ADCON0bits.GO = 1;
  4550   001430  82C2               	bsf	194,1,c	;volatile
  4551   001432                     l21:
  4552   001432  0012               	return		;funcret
  4553   001434                     __end_of_adc_start_conversion:
  4554                           	callstack 0
  4555                           
  4556 ;; *************** function _Lo_ISR *****************
  4557 ;; Defined at:
  4558 ;;		line 46 in file "main.c"
  4559 ;; Parameters:    Size  Location     Type
  4560 ;;		None
  4561 ;; Auto vars:     Size  Location     Type
  4562 ;;  value           2   12[COMRAM] int 
  4563 ;; Return value:  Size  Location     Type
  4564 ;;                  1    wreg      void 
  4565 ;; Registers used:
  4566 ;;		wreg, status,2, status,0, cstack
  4567 ;; Tracked objects:
  4568 ;;		On entry : 0/0
  4569 ;;		On exit  : 0/0
  4570 ;;		Unchanged: 0/0
  4571 ;; Data sizes:     COMRAM   BANK0   BANK1   BANK2   BANK3   BANK4   BANK5
  4572 ;;      Params:         0       0       0       0       0       0       0
  4573 ;;      Locals:         2       0       0       0       0       0       0
  4574 ;;      Temps:          5       0       0       0       0       0       0
  4575 ;;      Totals:         7       0       0       0       0       0       0
  4576 ;;Total ram usage:        7 bytes
  4577 ;; Hardware stack levels used: 1
  4578 ;; Hardware stack levels required when called: 3
  4579 ;; This function calls:
  4580 ;;		_variable_register_changed
  4581 ;; This function is called by:
  4582 ;;		Interrupt level 1
  4583 ;; This function uses a non-reentrant model
  4584 ;;
  4585                           
  4586                           	psect	intcodelo
  4587   000018                     __pintcodelo:
  4588                           	callstack 0
  4589   000018                     _Lo_ISR:
  4590                           	callstack 22
  4591                           
  4592                           ;incstack = 0
  4593   000018  806E               	bsf	int$flags,0,c	;set compiler interrupt flag (level 1)
  4594   00001A  CFD8 F00A          	movff	status,??_Lo_ISR+2
  4595   00001E  CFE8 F00B          	movff	wreg,??_Lo_ISR+3
  4596   000022  CFE0 F00C          	movff	bsr,??_Lo_ISR+4
  4597   000026                     
  4598                           ;main.c: 47:     if (PIR1bits.ADIF) {
  4599   000026  AC9E               	btfss	158,6,c	;volatile
  4600   000028  EF18  F000         	goto	i1u112_21
  4601   00002C  EF1A  F000         	goto	i1u112_20
  4602   000030                     i1u112_21:
  4603   000030  EF31  F000         	goto	i1l146
  4604   000034                     i1u112_20:
  4605   000034                     
  4606                           ;main.c: 48:         int value = (ADRESH << 8) + ADRESL;
  4607   000034  50C4               	movf	196,w,c	;volatile
  4608   000036  6E09               	movwf	(??_Lo_ISR+1)^0,c
  4609   000038  6A08               	clrf	??_Lo_ISR^0,c
  4610   00003A  50C3               	movf	195,w,c	;volatile
  4611   00003C  2408               	addwf	??_Lo_ISR^0,w,c
  4612   00003E  6E0D               	movwf	Lo_ISR@value^0,c
  4613   000040  0E00               	movlw	0
  4614   000042  2009               	addwfc	(??_Lo_ISR+1)^0,w,c
  4615   000044  6E0E               	movwf	(Lo_ISR@value+1)^0,c
  4616   000046                     
  4617                           ;main.c: 49:         variable_register_changed(value);
  4618   000046  C00D  F006         	movff	Lo_ISR@value,variable_register_changed@value
  4619   00004A  C00E  F007         	movff	Lo_ISR@value+1,variable_register_changed@value+1
  4620   00004E  EC1A  F00A         	call	_variable_register_changed	;wreg free
  4621   000052                     
  4622                           ;main.c: 50:         PIR1bits.ADIF = 0;
  4623   000052  9C9E               	bcf	158,6,c	;volatile
  4624   000054                     
  4625                           ;main.c: 51:         _delay((unsigned long)((5)*(8000000/4000.0)));
  4626   000054  0E0D               	movlw	13
  4627   000056  6E08               	movwf	??_Lo_ISR^0,c
  4628   000058  0EFC               	movlw	252
  4629   00005A                     i1u119_27:
  4630   00005A  2EE8               	decfsz	wreg,f,c
  4631   00005C  D7FE               	bra	i1u119_27
  4632   00005E  2E08               	decfsz	??_Lo_ISR^0,f,c
  4633   000060  D7FC               	bra	i1u119_27
  4634   000062                     i1l146:
  4635   000062  C00C  FFE0         	movff	??_Lo_ISR+4,bsr
  4636   000066  C00B  FFE8         	movff	??_Lo_ISR+3,wreg
  4637   00006A  C00A  FFD8         	movff	??_Lo_ISR+2,status
  4638   00006E  906E               	bcf	int$flags,0,c	;clear compiler interrupt flag (level 1)
  4639   000070  0010               	retfie	
  4640   000072                     __end_of_Lo_ISR:
  4641                           	callstack 0
  4642                           
  4643 ;; *************** function _variable_register_changed *****************
  4644 ;; Defined at:
  4645 ;;		line 87 in file "main.c"
  4646 ;; Parameters:    Size  Location     Type
  4647 ;;  value           2    5[COMRAM] int 
  4648 ;; Auto vars:     Size  Location     Type
  4649 ;;		None
  4650 ;; Return value:  Size  Location     Type
  4651 ;;                  1    wreg      void 
  4652 ;; Registers used:
  4653 ;;		None
  4654 ;; Tracked objects:
  4655 ;;		On entry : 0/0
  4656 ;;		On exit  : 0/0
  4657 ;;		Unchanged: 0/0
  4658 ;; Data sizes:     COMRAM   BANK0   BANK1   BANK2   BANK3   BANK4   BANK5
  4659 ;;      Params:         2       0       0       0       0       0       0
  4660 ;;      Locals:         0       0       0       0       0       0       0
  4661 ;;      Temps:          0       0       0       0       0       0       0
  4662 ;;      Totals:         2       0       0       0       0       0       0
  4663 ;;Total ram usage:        2 bytes
  4664 ;; Hardware stack levels used: 1
  4665 ;; Hardware stack levels required when called: 2
  4666 ;; This function calls:
  4667 ;;		Nothing
  4668 ;; This function is called by:
  4669 ;;		_Lo_ISR
  4670 ;; This function uses a non-reentrant model
  4671 ;;
  4672                           
  4673                           	psect	text29
  4674   001434                     __ptext29:
  4675                           	callstack 0
  4676   001434                     _variable_register_changed:
  4677                           	callstack 22
  4678   001434                     
  4679                           ;main.c: 96:     alcohol = value;
  4680   001434  C006  F06A         	movff	variable_register_changed@value,_alcohol	;volatile
  4681   001438  C007  F06B         	movff	variable_register_changed@value+1,_alcohol+1	;volatile
  4682   00143C  0012               	return		;funcret
  4683   00143E                     __end_of_variable_register_changed:
  4684                           	callstack 0
  4685                           
  4686 ;; *************** function _H_ISR *****************
  4687 ;; Defined at:
  4688 ;;		line 20 in file "main.c"
  4689 ;; Parameters:    Size  Location     Type
  4690 ;;		None
  4691 ;; Auto vars:     Size  Location     Type
  4692 ;;		None
  4693 ;; Return value:  Size  Location     Type
  4694 ;;                  1    wreg      void 
  4695 ;; Registers used:
  4696 ;;		wreg, fsr2l, fsr2h, status,2, status,0, cstack
  4697 ;; Tracked objects:
  4698 ;;		On entry : 0/0
  4699 ;;		On exit  : 0/0
  4700 ;;		Unchanged: 0/0
  4701 ;; Data sizes:     COMRAM   BANK0   BANK1   BANK2   BANK3   BANK4   BANK5
  4702 ;;      Params:         0       0       0       0       0       0       0
  4703 ;;      Locals:         0       0       0       0       0       0       0
  4704 ;;      Temps:          3       0       0       0       0       0       0
  4705 ;;      Totals:         3       0       0       0       0       0       0
  4706 ;;Total ram usage:        3 bytes
  4707 ;; Hardware stack levels used: 1
  4708 ;; Hardware stack levels required when called: 1
  4709 ;; This function calls:
  4710 ;;		_button_pressed
  4711 ;;		_uart_read
  4712 ;; This function is called by:
  4713 ;;		Interrupt level 2
  4714 ;; This function uses a non-reentrant model
  4715 ;;
  4716                           
  4717                           	psect	intcode
  4718   000008                     __pintcode:
  4719                           	callstack 0
  4720   000008                     _H_ISR:
  4721                           	callstack 22
  4722                           
  4723                           ;incstack = 0
  4724   000008  826E               	bsf	int$flags,1,c	;set compiler interrupt flag (level 2)
  4725   00000A  ED67  F008         	call	int_func,f	;refresh shadow registers
  4726                           
  4727                           	psect	intcode_body
  4728   0010CE                     __pintcode_body:
  4729                           	callstack 22
  4730   0010CE                     int_func:
  4731                           	callstack 22
  4732   0010CE  0006               	pop		; remove dummy address from shadow register refresh
  4733   0010D0  CFD9 F004          	movff	fsr2l,??_H_ISR+1
  4734   0010D4  CFDA F005          	movff	fsr2h,??_H_ISR+2
  4735   0010D8                     
  4736                           ;main.c: 22:     if (INTCONbits.INT0IF) {
  4737   0010D8  A2F2               	btfss	242,1,c	;volatile
  4738   0010DA  EF71  F008         	goto	i2u108_41
  4739   0010DE  EF73  F008         	goto	i2u108_40
  4740   0010E2                     i2u108_41:
  4741   0010E2  EF88  F008         	goto	i2l1885
  4742   0010E6                     i2u108_40:
  4743   0010E6                     
  4744                           ;main.c: 23:         INTCONbits.INT0IE = 0;
  4745   0010E6  98F2               	bcf	242,4,c	;volatile
  4746   0010E8                     
  4747                           ;main.c: 24:         _delay((unsigned long)((20)*(8000000/4000.0)));
  4748   0010E8  0E34               	movlw	52
  4749   0010EA  6E03               	movwf	??_H_ISR^0,c
  4750   0010EC  0EF2               	movlw	242
  4751   0010EE                     i2u120_47:
  4752   0010EE  2EE8               	decfsz	wreg,f,c
  4753   0010F0  D7FE               	bra	i2u120_47
  4754   0010F2  2E03               	decfsz	??_H_ISR^0,f,c
  4755   0010F4  D7FC               	bra	i2u120_47
  4756   0010F6                     
  4757                           ;main.c: 26:         if(PORTBbits.RB0 == 1){
  4758   0010F6  A081               	btfss	129,0,c	;volatile
  4759   0010F8  EF80  F008         	goto	i2u109_41
  4760   0010FC  EF82  F008         	goto	i2u109_40
  4761   001100                     i2u109_41:
  4762   001100  EF84  F008         	goto	i2l1879
  4763   001104                     i2u109_40:
  4764   001104                     
  4765                           ;main.c: 27:             button_pressed();
  4766   001104  ECBA  F009         	call	_button_pressed	;wreg free
  4767   001108                     i2l1879:
  4768                           
  4769                           ;main.c: 30:         btn_interr = 1;
  4770   001108  0E01               	movlw	1
  4771   00110A  6E6D               	movwf	_btn_interr^0,c	;volatile
  4772   00110C                     
  4773                           ;main.c: 31:         INTCONbits.INT0IF = 0;
  4774   00110C  92F2               	bcf	242,1,c	;volatile
  4775   00110E                     
  4776                           ;main.c: 32:         INTCONbits.INT0IE = 1;
  4777   00110E  88F2               	bsf	242,4,c	;volatile
  4778   001110                     i2l1885:
  4779                           
  4780                           ;main.c: 35:     if (RCIF) {
  4781   001110  AA9E               	btfss	3998,5,c	;volatile
  4782   001112  EF8D  F008         	goto	i2u110_41
  4783   001116  EF8F  F008         	goto	i2u110_40
  4784   00111A                     i2u110_41:
  4785   00111A  EF9B  F008         	goto	i2l140
  4786   00111E                     i2u110_40:
  4787   00111E                     
  4788                           ;main.c: 36:         if (RCSTAbits.OERR) {
  4789   00111E  A2AB               	btfss	171,1,c	;volatile
  4790   001120  EF94  F008         	goto	i2u111_41
  4791   001124  EF96  F008         	goto	i2u111_40
  4792   001128                     i2u111_41:
  4793   001128  EF99  F008         	goto	i2l1891
  4794   00112C                     i2u111_40:
  4795   00112C                     
  4796                           ;main.c: 37:             CREN = 0;
  4797   00112C  98AB               	bcf	4011,4,c	;volatile
  4798                           
  4799                           ;main.c: 38:             __nop();
  4800   00112E  0000               	nop	
  4801                           
  4802                           ;main.c: 39:             CREN = 1;
  4803   001130  88AB               	bsf	4011,4,c	;volatile
  4804   001132                     i2l1891:
  4805                           
  4806                           ;main.c: 42:         uart_read();
  4807   001132  ECD2  F008         	call	_uart_read	;wreg free
  4808   001136                     i2l140:
  4809   001136  C005  FFDA         	movff	??_H_ISR+2,fsr2h
  4810   00113A  C004  FFD9         	movff	??_H_ISR+1,fsr2l
  4811   00113E  926E               	bcf	int$flags,1,c	;clear compiler interrupt flag (level 2)
  4812   001140  0011               	retfie		f
  4813   001142                     __end_of_H_ISR:
  4814                           	callstack 0
  4815                           
  4816 ;; *************** function _uart_read *****************
  4817 ;; Defined at:
  4818 ;;		line 58 in file "uart.c"
  4819 ;; Parameters:    Size  Location     Type
  4820 ;;		None
  4821 ;; Auto vars:     Size  Location     Type
  4822 ;;  data            1    1[COMRAM] unsigned char 
  4823 ;; Return value:  Size  Location     Type
  4824 ;;                  1    wreg      void 
  4825 ;; Registers used:
  4826 ;;		wreg, fsr2l, fsr2h, status,2, status,0
  4827 ;; Tracked objects:
  4828 ;;		On entry : 0/0
  4829 ;;		On exit  : 0/0
  4830 ;;		Unchanged: 0/0
  4831 ;; Data sizes:     COMRAM   BANK0   BANK1   BANK2   BANK3   BANK4   BANK5
  4832 ;;      Params:         0       0       0       0       0       0       0
  4833 ;;      Locals:         1       0       0       0       0       0       0
  4834 ;;      Temps:          1       0       0       0       0       0       0
  4835 ;;      Totals:         2       0       0       0       0       0       0
  4836 ;;Total ram usage:        2 bytes
  4837 ;; Hardware stack levels used: 1
  4838 ;; This function calls:
  4839 ;;		Nothing
  4840 ;; This function is called by:
  4841 ;;		_H_ISR
  4842 ;; This function uses a non-reentrant model
  4843 ;;
  4844                           
  4845                           	psect	text31
  4846   0011A4                     __ptext31:
  4847                           	callstack 0
  4848   0011A4                     _uart_read:
  4849                           	callstack 22
  4850   0011A4                     
  4851                           ;uart.c: 59:     char data = RCREG;
  4852   0011A4  CFAE F002          	movff	4014,uart_read@data	;volatile
  4853   0011A8                     
  4854                           ;uart.c: 60:     if (!(((unsigned char)((data)-0x20)) < 0x5f) && data != '\r') return;
  4855   0011A8  C002  F001         	movff	uart_read@data,??_uart_read
  4856   0011AC  0EE0               	movlw	224
  4857   0011AE  2601               	addwf	??_uart_read^0,f,c
  4858   0011B0  0E5E               	movlw	94
  4859   0011B2  6401               	cpfsgt	??_uart_read^0,c
  4860   0011B4  EFDE  F008         	goto	i2u104_41
  4861   0011B8  EFE0  F008         	goto	i2u104_40
  4862   0011BC                     i2u104_41:
  4863   0011BC  EFEB  F008         	goto	i2l1819
  4864   0011C0                     i2u104_40:
  4865   0011C0  0E0D               	movlw	13
  4866   0011C2  1802               	xorwf	uart_read@data^0,w,c
  4867   0011C4  B4D8               	btfsc	status,2,c
  4868   0011C6  EFE7  F008         	goto	i2u105_41
  4869   0011CA  EFE9  F008         	goto	i2u105_40
  4870   0011CE                     i2u105_41:
  4871   0011CE  EFEB  F008         	goto	i2l1819
  4872   0011D2                     i2u105_40:
  4873   0011D2  EFF3  F008         	goto	i2l236
  4874   0011D6                     i2l1819:
  4875                           
  4876                           ;uart.c: 61:     uart_buffer[uart_buffer_size++] = data;
  4877   0011D6  5066               	movf	_uart_buffer_size^0,w,c
  4878   0011D8  0F80               	addlw	low _uart_buffer
  4879   0011DA  6ED9               	movwf	fsr2l,c
  4880   0011DC  6ADA               	clrf	fsr2h,c
  4881   0011DE  C002  FFDF         	movff	uart_read@data,indf2
  4882   0011E2  4A66               	infsnz	_uart_buffer_size^0,f,c
  4883   0011E4  2A67               	incf	(_uart_buffer_size+1)^0,f,c
  4884   0011E6                     i2l236:
  4885   0011E6  0012               	return		;funcret
  4886   0011E8                     __end_of_uart_read:
  4887                           	callstack 0
  4888                           
  4889 ;; *************** function _button_pressed *****************
  4890 ;; Defined at:
  4891 ;;		line 77 in file "main.c"
  4892 ;; Parameters:    Size  Location     Type
  4893 ;;		None
  4894 ;; Auto vars:     Size  Location     Type
  4895 ;;		None
  4896 ;; Return value:  Size  Location     Type
  4897 ;;                  1    wreg      void 
  4898 ;; Registers used:
  4899 ;;		wreg, status,2, status,0
  4900 ;; Tracked objects:
  4901 ;;		On entry : 0/0
  4902 ;;		On exit  : 0/0
  4903 ;;		Unchanged: 0/0
  4904 ;; Data sizes:     COMRAM   BANK0   BANK1   BANK2   BANK3   BANK4   BANK5
  4905 ;;      Params:         0       0       0       0       0       0       0
  4906 ;;      Locals:         0       0       0       0       0       0       0
  4907 ;;      Temps:          0       0       0       0       0       0       0
  4908 ;;      Totals:         0       0       0       0       0       0       0
  4909 ;;Total ram usage:        0 bytes
  4910 ;; Hardware stack levels used: 1
  4911 ;; This function calls:
  4912 ;;		Nothing
  4913 ;; This function is called by:
  4914 ;;		_H_ISR
  4915 ;; This function uses a non-reentrant model
  4916 ;;
  4917                           
  4918                           	psect	text32
  4919   001374                     __ptext32:
  4920                           	callstack 0
  4921   001374                     _button_pressed:
  4922                           	callstack 22
  4923   001374                     
  4924                           ;main.c: 83:     mode = !mode;
  4925   001374  5068               	movf	_mode^0,w,c	;volatile
  4926   001376  1069               	iorwf	(_mode+1)^0,w,c	;volatile
  4927   001378  B4D8               	btfsc	status,2,c
  4928   00137A  EFC1  F009         	goto	i2u51_41
  4929   00137E  EFC4  F009         	goto	i2u51_40
  4930   001382                     i2u51_41:
  4931   001382  0E01               	movlw	1
  4932   001384  EFC5  F009         	goto	i2u52_40
  4933   001388                     i2u51_40:
  4934   001388  0E00               	movlw	0
  4935   00138A                     i2u52_40:
  4936   00138A  6E68               	movwf	_mode^0,c	;volatile
  4937   00138C  6A69               	clrf	(_mode+1)^0,c	;volatile
  4938   00138E                     
  4939                           ;main.c: 84:     alcohol = 0;
  4940   00138E  0E00               	movlw	0
  4941   001390  6E6B               	movwf	(_alcohol+1)^0,c	;volatile
  4942   001392  0E00               	movlw	0
  4943   001394  6E6A               	movwf	_alcohol^0,c	;volatile
  4944   001396  0012               	return		;funcret
  4945   001398                     __end_of_button_pressed:
  4946                           	callstack 0
  4947                           
  4948                           	psect	rparam
  4949   000001                     ___rparam_used  equ	1
  4950   000000                     ___param_bank   equ	0
  4951   000000                     __Lparam        equ	__Lrparam
  4952   000000                     __Hparam        equ	__Hrparam
  4953                           
  4954                           	psect	temp
  4955   00006E                     btemp:
  4956                           	callstack 0
  4957   00006E                     	ds	1
  4958   00006E                     int$flags       set	btemp
  4959   00006F                     wtemp8          set	btemp+1
  4960   00006F                     ttemp5          set	btemp+1
  4961   000072                     ttemp6          set	btemp+4
  4962   000076                     ttemp7          set	btemp+8
  4963                           
  4964                           	psect	idloc
  4965                           
  4966                           ;Config register IDLOC0 @ 0x200000
  4967                           ;	unspecified, using default values
  4968   200000                     	org	2097152
  4969   200000  FF                 	db	255
  4970                           
  4971                           ;Config register IDLOC1 @ 0x200001
  4972                           ;	unspecified, using default values
  4973   200001                     	org	2097153
  4974   200001  FF                 	db	255
  4975                           
  4976                           ;Config register IDLOC2 @ 0x200002
  4977                           ;	unspecified, using default values
  4978   200002                     	org	2097154
  4979   200002  FF                 	db	255
  4980                           
  4981                           ;Config register IDLOC3 @ 0x200003
  4982                           ;	unspecified, using default values
  4983   200003                     	org	2097155
  4984   200003  FF                 	db	255
  4985                           
  4986                           ;Config register IDLOC4 @ 0x200004
  4987                           ;	unspecified, using default values
  4988   200004                     	org	2097156
  4989   200004  FF                 	db	255
  4990                           
  4991                           ;Config register IDLOC5 @ 0x200005
  4992                           ;	unspecified, using default values
  4993   200005                     	org	2097157
  4994   200005  FF                 	db	255
  4995                           
  4996                           ;Config register IDLOC6 @ 0x200006
  4997                           ;	unspecified, using default values
  4998   200006                     	org	2097158
  4999   200006  FF                 	db	255
  5000                           
  5001                           ;Config register IDLOC7 @ 0x200007
  5002                           ;	unspecified, using default values
  5003   200007                     	org	2097159
  5004   200007  FF                 	db	255
  5005                           
  5006                           	psect	config
  5007                           
  5008                           ; Padding undefined space
  5009   300000                     	org	3145728
  5010   300000  FF                 	db	255
  5011                           
  5012                           ;Config register CONFIG1H @ 0x300001
  5013                           ;	Oscillator Selection bits
  5014                           ;	OSC = INTIO67, Internal oscillator block, port function on RA6 and RA7
  5015                           ;	Fail-Safe Clock Monitor Enable bit
  5016                           ;	FCMEN = OFF, Fail-Safe Clock Monitor disabled
  5017                           ;	Internal/External Oscillator Switchover bit
  5018                           ;	IESO = ON, Oscillator Switchover mode enabled
  5019   300001                     	org	3145729
  5020   300001  88                 	db	136
  5021                           
  5022                           ;Config register CONFIG2L @ 0x300002
  5023                           ;	Power-up Timer Enable bit
  5024                           ;	PWRT = OFF, PWRT disabled
  5025                           ;	Brown-out Reset Enable bits
  5026                           ;	BOREN = SBORDIS, Brown-out Reset enabled in hardware only (SBOREN is disabled)
  5027                           ;	Brown Out Reset Voltage bits
  5028                           ;	BORV = 3, Minimum setting
  5029   300002                     	org	3145730
  5030   300002  1F                 	db	31
  5031                           
  5032                           ;Config register CONFIG2H @ 0x300003
  5033                           ;	Watchdog Timer Enable bit
  5034                           ;	WDT = OFF, WDT disabled (control is placed on the SWDTEN bit)
  5035                           ;	Watchdog Timer Postscale Select bits
  5036                           ;	WDTPS = 1, 1:1
  5037   300003                     	org	3145731
  5038   300003  00                 	db	0
  5039                           
  5040                           ; Padding undefined space
  5041   300004                     	org	3145732
  5042   300004  FF                 	db	255
  5043                           
  5044                           ;Config register CONFIG3H @ 0x300005
  5045                           ;	CCP2 MUX bit
  5046                           ;	CCP2MX = PORTC, CCP2 input/output is multiplexed with RC1
  5047                           ;	PORTB A/D Enable bit
  5048                           ;	PBADEN = ON, PORTB<4:0> pins are configured as analog input channels on Reset
  5049                           ;	Low-Power Timer1 Oscillator Enable bit
  5050                           ;	LPT1OSC = OFF, Timer1 configured for higher power operation
  5051                           ;	MCLR Pin Enable bit
  5052                           ;	MCLRE = ON, MCLR pin enabled; RE3 input pin disabled
  5053   300005                     	org	3145733
  5054   300005  83                 	db	131
  5055                           
  5056                           ;Config register CONFIG4L @ 0x300006
  5057                           ;	Stack Full/Underflow Reset Enable bit
  5058                           ;	STVREN = ON, Stack full/underflow will cause Reset
  5059                           ;	Single-Supply ICSP Enable bit
  5060                           ;	LVP = OFF, Single-Supply ICSP disabled
  5061                           ;	Extended Instruction Set Enable bit
  5062                           ;	XINST = OFF, Instruction set extension and Indexed Addressing mode disabled (Legacy mo
      +                          de)
  5063                           ;	Background Debugger Enable bit
  5064                           ;	DEBUG = 0x1, unprogrammed default
  5065   300006                     	org	3145734
  5066   300006  81                 	db	129
  5067                           
  5068                           ; Padding undefined space
  5069   300007                     	org	3145735
  5070   300007  FF                 	db	255
  5071                           
  5072                           ;Config register CONFIG5L @ 0x300008
  5073                           ;	Code Protection bit
  5074                           ;	CP0 = OFF, Block 0 (000800-001FFFh) not code-protected
  5075                           ;	Code Protection bit
  5076                           ;	CP1 = OFF, Block 1 (002000-003FFFh) not code-protected
  5077                           ;	Code Protection bit
  5078                           ;	CP2 = OFF, Block 2 (004000-005FFFh) not code-protected
  5079                           ;	Code Protection bit
  5080                           ;	CP3 = OFF, Block 3 (006000-007FFFh) not code-protected
  5081   300008                     	org	3145736
  5082   300008  0F                 	db	15
  5083                           
  5084                           ;Config register CONFIG5H @ 0x300009
  5085                           ;	Boot Block Code Protection bit
  5086                           ;	CPB = OFF, Boot block (000000-0007FFh) not code-protected
  5087                           ;	Data EEPROM Code Protection bit
  5088                           ;	CPD = OFF, Data EEPROM not code-protected
  5089   300009                     	org	3145737
  5090   300009  C0                 	db	192
  5091                           
  5092                           ;Config register CONFIG6L @ 0x30000A
  5093                           ;	Write Protection bit
  5094                           ;	WRT0 = OFF, Block 0 (000800-001FFFh) not write-protected
  5095                           ;	Write Protection bit
  5096                           ;	WRT1 = OFF, Block 1 (002000-003FFFh) not write-protected
  5097                           ;	Write Protection bit
  5098                           ;	WRT2 = OFF, Block 2 (004000-005FFFh) not write-protected
  5099                           ;	Write Protection bit
  5100                           ;	WRT3 = OFF, Block 3 (006000-007FFFh) not write-protected
  5101   30000A                     	org	3145738
  5102   30000A  0F                 	db	15
  5103                           
  5104                           ;Config register CONFIG6H @ 0x30000B
  5105                           ;	Configuration Register Write Protection bit
  5106                           ;	WRTC = OFF, Configuration registers (300000-3000FFh) not write-protected
  5107                           ;	Boot Block Write Protection bit
  5108                           ;	WRTB = OFF, Boot block (000000-0007FFh) not write-protected
  5109                           ;	Data EEPROM Write Protection bit
  5110                           ;	WRTD = OFF, Data EEPROM not write-protected
  5111   30000B                     	org	3145739
  5112   30000B  E0                 	db	224
  5113                           
  5114                           ;Config register CONFIG7L @ 0x30000C
  5115                           ;	Table Read Protection bit
  5116                           ;	EBTR0 = OFF, Block 0 (000800-001FFFh) not protected from table reads executed in other
      +                           blocks
  5117                           ;	Table Read Protection bit
  5118                           ;	EBTR1 = OFF, Block 1 (002000-003FFFh) not protected from table reads executed in other
      +                           blocks
  5119                           ;	Table Read Protection bit
  5120                           ;	EBTR2 = OFF, Block 2 (004000-005FFFh) not protected from table reads executed in other
      +                           blocks
  5121                           ;	Table Read Protection bit
  5122                           ;	EBTR3 = OFF, Block 3 (006000-007FFFh) not protected from table reads executed in other
      +                           blocks
  5123   30000C                     	org	3145740
  5124   30000C  0F                 	db	15
  5125                           
  5126                           ;Config register CONFIG7H @ 0x30000D
  5127                           ;	Boot Block Table Read Protection bit
  5128                           ;	EBTRB = OFF, Boot block (000000-0007FFh) not protected from table reads executed in ot
      +                          her blocks
  5129   30000D                     	org	3145741
  5130   30000D  40                 	db	64
  5131                           tosu	equ	0xFFF
  5132                           tosh	equ	0xFFE
  5133                           tosl	equ	0xFFD
  5134                           stkptr	equ	0xFFC
  5135                           pclatu	equ	0xFFB
  5136                           pclath	equ	0xFFA
  5137                           pcl	equ	0xFF9
  5138                           tblptru	equ	0xFF8
  5139                           tblptrh	equ	0xFF7
  5140                           tblptrl	equ	0xFF6
  5141                           tablat	equ	0xFF5
  5142                           prodh	equ	0xFF4
  5143                           prodl	equ	0xFF3
  5144                           indf0	equ	0xFEF
  5145                           postinc0	equ	0xFEE
  5146                           postdec0	equ	0xFED
  5147                           preinc0	equ	0xFEC
  5148                           plusw0	equ	0xFEB
  5149                           fsr0h	equ	0xFEA
  5150                           fsr0l	equ	0xFE9
  5151                           wreg	equ	0xFE8
  5152                           indf1	equ	0xFE7
  5153                           postinc1	equ	0xFE6
  5154                           postdec1	equ	0xFE5
  5155                           preinc1	equ	0xFE4
  5156                           plusw1	equ	0xFE3
  5157                           fsr1h	equ	0xFE2
  5158                           fsr1l	equ	0xFE1
  5159                           bsr	equ	0xFE0
  5160                           indf2	equ	0xFDF
  5161                           postinc2	equ	0xFDE
  5162                           postdec2	equ	0xFDD
  5163                           preinc2	equ	0xFDC
  5164                           plusw2	equ	0xFDB
  5165                           fsr2h	equ	0xFDA
  5166                           fsr2l	equ	0xFD9
  5167                           status	equ	0xFD8

Data Sizes:
    Strings     77
    Constant    0
    Data        0
    BSS         144
    Persistent  0
    Stack       0

Auto Spaces:
    Space          Size  Autos    Used
    COMRAM          126     65     109
    BANK0           128      0     100
    BANK1           256      0       0
    BANK2           256      0       0
    BANK3           256      0       0
    BANK4           256      0       0
    BANK5           244      0       0

Pointer List with Targets:

    fputc@fp	PTR struct _IO_FILE size(2) Largest target is 0
		 -> NULL(NULL[0]), 

    fputc@fp$.$buffer	PTR unsigned char  size(2) Largest target is 0

    fputc@fp$.$source	PTR const unsigned char  size(2) Largest target is 0

    max30102_read_fifo@pun_ir_led	PTR unsigned long  size(1) Largest target is 4
		 -> main@ir_val(COMRAM[4]), 

    max30102_read_fifo@pun_red_led	PTR unsigned long  size(1) Largest target is 4
		 -> main@red_val(COMRAM[4]), 

    printf@ap	PTR void [1] size(1) Largest target is 2
		 -> ?_printf(COMRAM[2]), 

    printf@fmt	PTR const unsigned char  size(1) Largest target is 24
		 -> STR_1(CODE[8]), STR_2(CODE[24]), STR_3(CODE[19]), STR_4(CODE[18]), 
		 -> STR_5(CODE[8]), 

    S1810$buffer	PTR unsigned char  size(2) Largest target is 0

    S1810$source	PTR const unsigned char  size(2) Largest target is 0

    sp__strcpy	PTR unsigned char  size(2) Largest target is 0

    vfpfcnvrt@ap	PTR PTR void  size(1) Largest target is 1
		 -> printf@ap(COMRAM[1]), 

    vfpfcnvrt@cp	PTR unsigned char  size(1) Largest target is 24
		 -> STR_1(CODE[8]), STR_2(CODE[24]), STR_3(CODE[19]), STR_4(CODE[18]), 
		 -> STR_5(CODE[8]), 

    vfpfcnvrt@fmt	PTR PTR unsigned char  size(1) Largest target is 1
		 -> vfprintf@cfmt(COMRAM[1]), 

    vfpfcnvrt@fp	PTR struct _IO_FILE size(2) Largest target is 0
		 -> NULL(NULL[0]), 

    vfprintf@ap	PTR PTR void  size(1) Largest target is 1
		 -> printf@ap(COMRAM[1]), 

    vfprintf@cfmt	PTR unsigned char  size(1) Largest target is 24
		 -> STR_1(CODE[8]), STR_2(CODE[24]), STR_3(CODE[19]), STR_4(CODE[18]), 
		 -> STR_5(CODE[8]), 

    vfprintf@fmt	PTR const unsigned char  size(1) Largest target is 24
		 -> STR_1(CODE[8]), STR_2(CODE[24]), STR_3(CODE[19]), STR_4(CODE[18]), 
		 -> STR_5(CODE[8]), 

    vfprintf@fp	PTR struct _IO_FILE size(2) Largest target is 0
		 -> NULL(NULL[0]), 


Critical Paths under _main in COMRAM

    _main->_printf
    _printf->_vfprintf
    _vfprintf->_vfpfcnvrt
    _vfpfcnvrt->___aldiv
    _vfpfcnvrt->_abs
    _fputc->_putch
    _abs->___almod
    _max30102_read_fifo->_i2c_read
    _max30102_initialize->_max30102_read_reg
    _max30102_write_reg->_i2c_write
    _max30102_available->_max30102_read_reg
    _max30102_read_reg->_i2c_read
    _i2c_write->_i2c_is_idle
    _i2c_stop->_i2c_is_idle
    _i2c_start->_i2c_is_idle
    _i2c_rep_start->_i2c_is_idle
    _i2c_read->_i2c_is_idle

Critical Paths under _Lo_ISR in COMRAM

    _Lo_ISR->_variable_register_changed

Critical Paths under _H_ISR in COMRAM

    _H_ISR->_uart_read

Critical Paths under _main in BANK0

    None.

Critical Paths under _Lo_ISR in BANK0

    None.

Critical Paths under _H_ISR in BANK0

    None.

Critical Paths under _main in BANK1

    None.

Critical Paths under _Lo_ISR in BANK1

    None.

Critical Paths under _H_ISR in BANK1

    None.

Critical Paths under _main in BANK2

    None.

Critical Paths under _Lo_ISR in BANK2

    None.

Critical Paths under _H_ISR in BANK2

    None.

Critical Paths under _main in BANK3

    None.

Critical Paths under _Lo_ISR in BANK3

    None.

Critical Paths under _H_ISR in BANK3

    None.

Critical Paths under _main in BANK4

    None.

Critical Paths under _Lo_ISR in BANK4

    None.

Critical Paths under _H_ISR in BANK4

    None.

Critical Paths under _main in BANK5

    None.

Critical Paths under _Lo_ISR in BANK5

    None.

Critical Paths under _H_ISR in BANK5

    None.

Call Graph Tables:

 ---------------------------------------------------------------------------------
 (Depth) Function   	        Calls       Base Space   Used Autos Params    Refs
 ---------------------------------------------------------------------------------
 (0) _main                                                11    11      0    2943
                                             54 COMRAM    11    11      0
               _adc_start_conversion
                 _max30102_available
                _max30102_initialize
                 _max30102_read_fifo
                             _printf
                  _system_initialize
 ---------------------------------------------------------------------------------
 (1) _system_initialize                                    0     0      0       0
                     _adc_initialize
                  _button_initialize
                     _i2c_initialize
                    _uart_initialize
 ---------------------------------------------------------------------------------
 (2) _uart_initialize                                      0     0      0       0
 ---------------------------------------------------------------------------------
 (2) _i2c_initialize                                       0     0      0       0
 ---------------------------------------------------------------------------------
 (2) _button_initialize                                    0     0      0       0
 ---------------------------------------------------------------------------------
 (2) _adc_initialize                                       0     0      0       0
 ---------------------------------------------------------------------------------
 (1) _printf                                              10     3      7    2426
                                             46 COMRAM     8     1      7
                           _vfprintf
 ---------------------------------------------------------------------------------
 (2) _vfprintf                                             5     1      4    2361
                                             41 COMRAM     5     1      4
                          _vfpfcnvrt
 ---------------------------------------------------------------------------------
 (3) _vfpfcnvrt                                           13     9      4    2234
                                             28 COMRAM    13     9      4
                            ___aldiv
                            ___almod
                            ___lldiv
                            ___llmod
                                _abs
                              _fputc
 ---------------------------------------------------------------------------------
 (4) _fputc                                                9     5      4     277
                                             15 COMRAM     9     5      4
                              _putch
 ---------------------------------------------------------------------------------
 (5) _putch                                                1     1      0      45
                                             14 COMRAM     1     1      0
 ---------------------------------------------------------------------------------
 (4) _abs                                                  4     2      2      67
                                             24 COMRAM     4     2      2
                            ___almod (ARG)
 ---------------------------------------------------------------------------------
 (4) ___llmod                                              9     1      8     161
                                             14 COMRAM     9     1      8
 ---------------------------------------------------------------------------------
 (4) ___lldiv                                             13     5      8     164
                                             14 COMRAM    13     5      8
 ---------------------------------------------------------------------------------
 (4) ___almod                                             10     2      8     298
                                             14 COMRAM    10     2      8
 ---------------------------------------------------------------------------------
 (4) ___aldiv                                             14     6      8     302
                                             14 COMRAM    14     6      8
 ---------------------------------------------------------------------------------
 (1) _max30102_read_fifo                                  15    13      2     143
                                             17 COMRAM    15    13      2
                           _i2c_read
                      _i2c_rep_start
                          _i2c_start
                           _i2c_stop
                          _i2c_write
 ---------------------------------------------------------------------------------
 (1) _max30102_initialize                                  1     1      0     173
                                             19 COMRAM     1     1      0
                  _max30102_read_reg
                 _max30102_write_reg
 ---------------------------------------------------------------------------------
 (2) _max30102_write_reg                                   2     1      1      75
                                             16 COMRAM     2     1      1
                          _i2c_start
                           _i2c_stop
                          _i2c_write
 ---------------------------------------------------------------------------------
 (1) _max30102_available                                   2     2      0     105
                                             19 COMRAM     2     2      0
                  _max30102_read_reg
 ---------------------------------------------------------------------------------
 (2) _max30102_read_reg                                    2     2      0      75
                                             17 COMRAM     2     2      0
                           _i2c_read
                      _i2c_rep_start
                          _i2c_start
                           _i2c_stop
                          _i2c_write
 ---------------------------------------------------------------------------------
 (2) _i2c_write                                            1     1      0      15
                                             15 COMRAM     1     1      0
                        _i2c_is_idle
 ---------------------------------------------------------------------------------
 (2) _i2c_stop                                             0     0      0       0
                        _i2c_is_idle
 ---------------------------------------------------------------------------------
 (2) _i2c_start                                            0     0      0       0
                        _i2c_is_idle
 ---------------------------------------------------------------------------------
 (2) _i2c_rep_start                                        0     0      0       0
                        _i2c_is_idle
 ---------------------------------------------------------------------------------
 (2) _i2c_read                                             2     2      0      30
                                             15 COMRAM     2     2      0
                        _i2c_is_idle
 ---------------------------------------------------------------------------------
 (3) _i2c_is_idle                                          1     1      0       0
                                             14 COMRAM     1     1      0
 ---------------------------------------------------------------------------------
 (1) _adc_start_conversion                                 0     0      0       0
 ---------------------------------------------------------------------------------
 Estimated maximum stack depth 5
 ---------------------------------------------------------------------------------
 (Depth) Function   	        Calls       Base Space   Used Autos Params    Refs
 ---------------------------------------------------------------------------------
 (6) _Lo_ISR                                               7     7      0      46
                                              7 COMRAM     7     7      0
          _variable_register_changed
 ---------------------------------------------------------------------------------
 (7) _variable_register_changed                            2     0      2      23
                                              5 COMRAM     2     0      2
 ---------------------------------------------------------------------------------
 Estimated maximum stack depth 7
 ---------------------------------------------------------------------------------
 (Depth) Function   	        Calls       Base Space   Used Autos Params    Refs
 ---------------------------------------------------------------------------------
 (8) _H_ISR                                                3     3      0      67
                                              2 COMRAM     3     3      0
                     _button_pressed
                          _uart_read
 ---------------------------------------------------------------------------------
 (9) _uart_read                                            2     2      0      67
                                              0 COMRAM     2     2      0
 ---------------------------------------------------------------------------------
 (9) _button_pressed                                       0     0      0       0
 ---------------------------------------------------------------------------------
 Estimated maximum stack depth 9
 ---------------------------------------------------------------------------------

 Call Graph Graphs:

 _main (ROOT)
   _adc_start_conversion
   _max30102_available
     _max30102_read_reg
       _i2c_read
         _i2c_is_idle
       _i2c_rep_start
         _i2c_is_idle
       _i2c_start
         _i2c_is_idle
       _i2c_stop
         _i2c_is_idle
       _i2c_write
         _i2c_is_idle
   _max30102_initialize
     _max30102_read_reg
     _max30102_write_reg
       _i2c_start
       _i2c_stop
       _i2c_write
   _max30102_read_fifo
     _i2c_read
     _i2c_rep_start
     _i2c_start
     _i2c_stop
     _i2c_write
   _printf
     _vfprintf
       _vfpfcnvrt
         ___aldiv
         ___almod
         ___lldiv
         ___llmod
         _abs
           ___almod (ARG)
         _fputc
           _putch
   _system_initialize
     _adc_initialize
     _button_initialize
     _i2c_initialize
     _uart_initialize

 _Lo_ISR (ROOT)
   _variable_register_changed

 _H_ISR (ROOT)
   _button_pressed
   _uart_read

Address spaces:
Name               Size   Autos  Total    Usage
BIGRAM            1523      0       0      0.0%
BITBANK4           256      0       0      0.0%
BANK4              256      0       0      0.0%
BITBANK3           256      0       0      0.0%
BANK3              256      0       0      0.0%
BITBANK2           256      0       0      0.0%
BANK2              256      0       0      0.0%
BITBANK1           256      0       0      0.0%
BANK1              256      0       0      0.0%
BITBANK5           244      0       0      0.0%
BANK5              244      0       0      0.0%
BITBANK0           128      0       0      0.0%
BANK0              128      0     100     78.1%
BITCOMRAM          126      0       0      0.0%
COMRAM             126     65     109     86.5%
BITBIGSFR_1h        38      0       0      0.0%
BITBIGSFRh          26      0       0      0.0%
BITBIGSFR_1llh      12      0       0      0.0%
BITBIGSFR_5h        10      0       0      0.0%
BITBIGSFR_2          6      0       0      0.0%
BITBIGSFR_4          3      0       0      0.0%
BITBIGSFR_3          3      0       0      0.0%
BITBIGSFR_5l         2      0       0      0.0%
BITBIGSFR_1lh        1      0       0      0.0%
BITBIGSFRl           1      0       0      0.0%
STACK                0      0       0      0.0%
DATA                 0      0     209      0.0%


Microchip Technology PIC18 Macro Assembler V3.00 build 20241204225717 
Symbol Table                                                                                   Sun Dec 14 18:03:38 2025

                      _SSPSTATbits 0FC7                                 l21 1432  
                               l17 134C                                 l51 1372  
                               l60 144C                                 l28 1444  
                               l45 1408                                 l54 1454  
                               l63 12BC                                 l72 12E2  
                               l57 145C                                 l74 12F0  
                               l66 12CA                                 l75 1300  
                               l69 12D8                                 u10 1156  
                               u11 1152                                 u20 1168  
                               u21 1164                                 u30 1176  
                               u31 1172                                 u40 1188  
                               u41 1184                                 u50 119E  
                               u51 119A                                 u60 1364  
                               u61 1360                                 u70 1372  
                               u71 136E                                 bsr 0FE0  
                              l250 117A                                l162 0DD0  
                              l227 13B8                                l163 0DD0  
                              l149 12B0                                l254 1190  
                              l247 1168                                l192 10CC  
                              l352 0D7A                                l256 119E  
                              l185 13D6                                l257 11A2  
                              l195 1420                                l339 0C90  
                              l188 1288                                l198 0B86  
                              l294 0FC6                                l287 0FB6  
                              l680 103E                                l687 104E  
                              l938 13F0                                l971 06B4  
                              l987 0A46                                u310 12CA  
                              u311 12C6                                u320 12D8  
                              u321 12D4                                u330 12F0  
                              u331 12EC                                u500 1430  
                              u501 142C                                u345 12FC  
                              u346 12FE                                u700 0BBA  
                              u701 0BB6                                u710 0BF4  
                              u711 0BF0                                u720 0C16  
                              u800 0D5A                                u721 0C12  
                              u801 0D56                                u730 0C3E  
                              u810 0FDE                                u731 0C3A  
                              u811 0FDA                                u740 0C70  
                              u660 0F4A                                u820 1000  
                              u900 06FC                                u741 0C6C  
                              u661 0F46                                u821 0FFC  
                              u901 06F8                                u750 0CA2  
                              u670 0F6C                                u830 101E  
                              u910 0718                                u751 0C9E  
                              u671 0F68                                u831 101A  
                              u911 0714                                u760 0CC4  
                              u680 0F94                                u840 0E6C  
                              u920 079A                                u761 0CC0  
                              u681 0F90                                u841 0E68  
                              u921 0794                                u690 0B98  
                              u770 0CEA                                u850 0E7E  
                              u930 079C                                u691 0B94  
                              u771 0CE6                                u851 0E7A  
                              u780 0D0C                                u860 0EA6  
                              u940 0828                                u781 0D08  
                              u861 0EA2                                u941 0824  
                              u790 0D2A                                u870 0EDC  
                              u950 0838                                u791 0D26  
                              u871 0ED8                                u951 0834  
                              u880 1238                                u960 0848  
                              u881 1234                                u961 0844  
                              u970 0858                                u890 0672  
                              u971 0854                                u891 066E  
                              u980 089C                                u981 0898  
                              u990 08BC                                u991 08B8  
                              _abs 122A                                wreg 0FE8  
                 ??_button_pressed 0001                               l1010 1228  
                             l1014 1244                               l1201 145A  
                             l1017 125C                               l1211 12DC  
                             l1203 1446                               l1051 1188  
                             ?_abs 0019                               l1053 134E  
                             l1213 12DC                               l1205 144A  
                             l1045 1144                               l1029 0F22  
                             l1055 134E                               l1215 12E0  
                             l1207 12B4                               l1047 1156  
                             l1057 1364                               l1217 12FE  
                             l1209 12B8                               l1049 1176  
                             l1321 1328                               l1331 1344  
                             l1323 132A                               l1411 128A  
                             l1333 1346                               l1325 132E  
                             l1341 1442                               l1421 12A6  
                             l1413 1296                               l1335 1348  
                             l1327 1330                               l1343 13F2  
                             l1351 13A2                               l1423 12A8  
                             l1415 129A                               l1601 0BDE  
                             l1337 134A                               l1329 1342  
                             l1345 13FA                               l1361 13AE  
                             l1353 13A6                               l1425 12AA  
                             l1417 129E                               l1195 144E  
                             l1451 140A                               l1611 0C20  
                             l1603 0BF4                               l1339 143E  
                             l1347 1406                               l1363 13B0  
                             l1355 13A8                               l1427 12AC  
                             l1419 12A2                               l1197 1452  
                             l1373 1260                               l1453 141A  
                             l1613 0C3E                               l1605 0BFC  
                             l1621 0C60                               l1701 0672  
                             l1365 13B2                               l1357 13AA  
                             l1349 1398                               l1429 12AE  
                             l1391 1430                               l1199 1456  
                             l1375 1286                               l1623 0C70  
                             l1615 0C4E                               l1607 0C08  
                             l1631 0C94                               l1711 06A6  
                             l1703 067A                               l1367 13B4  
                             l1359 13AC                               l1625 0C80  
                             l1617 0C50                               l1609 0C16  
                             l1641 0CD4                               l1633 0CA2  
                             l1721 06FC                               l1713 06AC  
                             l1705 0686                               l1801 11E8  
                             l1369 13B6                               l1619 0C5A  
                             l1651 0D2A                               l1643 0CEA  
                             l1635 0CB2                               l1571 0F5E  
                             l1563 0F24                               l1731 077C  
                             l1723 071C                               l1707 068A  
                             l1803 11F0                               l1389 1422  
                             l1661 0D6A                               l1653 0D3A  
                             l1645 0CF2                               l1637 0CB6  
                             l1629 0C92                               l1581 0FA6  
                             l1573 0F6C                               l1565 0F34  
                             l1741 0812                               l1733 0786  
                             l1725 0742                               l1717 06BA  
                             l1709 0694                               l1805 1204  
                             l1831 1050                               l1591 0BA8  
                             l1655 0D44                               l1647 0CFE  
                             l1639 0CC4                               l1583 0FB0  
                             l1575 0F76                               l1567 0F4A  
                             l1671 0FF2                               l1751 086A  
                             l1743 0828                               l1735 078A  
                             l1719 06E0                               l1807 1220  
                             l1911 0D90                               l1841 10CA  
                             l1833 1058                               l1593 0BAC  
                             l1585 0B88                               l1649 0D0C  
                             l1657 0D4A                               l1577 0F94  
                             l1569 0F52                               l1673 1000  
                             l1665 0FC8                               l1681 0E5A  
                             l1761 08E8                               l1753 0888  
                             l1745 0838                               l1737 079E  
                             l1729 0766                               l1825 13D8  
                             l1921 0DF4                               l1913 0DA8  
                             l1905 0D7C                               l1835 106A  
                             l1851 0B5A                               l1595 0BBA  
                             l1587 0B8A                               l1659 0D5A  
                             l1579 0FA4                               l1675 101E  
                             l1667 0FDE                               l1691 0EDC  
                             l1683 0E6C                               l1771 0934  
                             l1747 0848                               l1755 088A  
                             l1739 07DE                               l1827 13DC  
                             l1931 0E3C                               l1923 0DFE  
                             l1915 0DBC                               l1907 0D80  
                             l1853 0B70                               l1845 0A48  
                             l1597 0BCA                               l1589 0B98  
                             l1677 102E                               l1669 0FE6  
                             l1685 0E7E                               l1781 09E4  
                             l1773 0968                               l1765 090C  
                             l1749 0858                               l1757 08A0  
                             l1933 0E4E                               l1925 0E0A  
                             l1917 0DC8                               l1909 0D88  
                             l1839 1070                               l1847 0B3A  
                             l1599 0BCE                               l1679 1038  
                             l1695 122A                               l1687 0E88  
                             l1783 09E6                               l1775 099C  
                             l1767 0922                               l1759 08C0  
                             l1927 0E2A                               l1919 0DD4  
                             l1849 0B4A                               l1697 1238  
                             l1689 0EA6                               l1777 09B2  
                             l1769 0930                               l1793 0A20  
                             l1929 0E2C                               l1779 09C6  
                             l1787 09FC                               l1699 0650  
                             l1789 0A14                               l1799 13BC  
                             STR_1 0646                               STR_2 0601  
                             STR_3 0619                               STR_4 062C  
                             STR_5 063E                               u1000 09B2  
                             _CREN 7D5C                               u1001 09AE  
                             u1010 09C2                               u1011 09BE  
                             u1020 09F8                               u1021 09F4  
                             u1030 1220                               u1031 121C  
                             u1130 0DBC                               u1131 0DB8  
                             u1060 106A                               u1140 0E3C  
                             u1061 1066                               u1141 0E38  
                             u1150 0E4E                               u1151 0E4A  
                             u1187 0D9A                               _RCIF 7CF5  
                      main@red_val 0039                               abs@a 0019  
                             _dbuf 0042                        main@samples 003D  
                             _main 0D7C                               _mode 0068  
                             _prec 0064                               fsr1h 0FE2  
                             fsr2h 0FDA                               indf2 0FDF  
                             fsr1l 0FE1                               fsr2l 0FD9  
                             btemp 006E               _adc_start_conversion 1422  
                    ??_i2c_is_idle 000F                               start 0072  
                     ___param_bank 0000                      _i2c_rep_start 1456  
       ?_variable_register_changed 0006                              ??_abs 001B  
                  __end_of___aldiv 0C92                    __end_of___almod 0D7C  
                            ?_main 0001                    __end_of___lldiv 0FC8  
                      i2c_read@ack 0010                    __end_of___llmod 1050  
                            i1l146 0062                              i1l155 143C  
                            i2l140 1136                              i2l152 1396  
                            i2l236 11E6                              _RCREG 0FAE  
                     vfpfcnvrt@fmt 001F                              _H_ISR 0008  
                            _SPBRG 0FAF                              _TRISB 0F93  
                            _TXREG 0FAD                  ??_uart_initialize 000F  
                   _i2c_initialize 13F2                              _flags 006C  
                            _fputc 0E5A                              _width 0062  
                            _putch 1142                              tablat 0FF5  
                            ttemp5 006F                              ttemp6 0072  
                            ttemp7 0076                              status 0FD8  
                            wtemp8 006F              ?_adc_start_conversion 0001  
                  __initialization 1302                     ?_i2c_rep_start 0001  
                     __end_of_main 0E5A                   __end_of_i2c_read 1302  
              __end_of_i2c_is_idle 1374                   __end_of_i2c_stop 144E  
                           ??_main 0037              max30102_read_fifo@red 0019  
                    __activetblptr 0002                             ?_H_ISR 0001  
           __end_of_i2c_initialize 140A                  _button_initialize 143E  
                           ?_fputc 0010                   ___llmod@dividend 000F  
                           _ADRESH 0FC4                             _ADRESL 0FC3  
                           ?_putch 0001                 ?_button_initialize 0001  
                           i1l1901 0054                             i1l1823 1434  
                           i1l1893 0026                             i1l1895 0034  
                           i1l1897 0046                             i1l1899 0052  
                           i2l1393 1374                             i2l1395 138E  
                           i2l1811 11A4                             i2l1821 11E2  
                           i2l1813 11A8                             i2l1815 11C0  
                           i2l1819 11D6                             i2l1871 10E6  
                           i2l1881 110C                             i2l1873 10E8  
                           i2l1891 1132                             i2l1883 110E  
                           i2l1875 10F6                             i2l1877 1104  
                           i2l1885 1110                             i2l1869 10D8  
                           i2l1887 111E                             i2l1879 1108  
                           i2l1889 112C                      vfpfcnvrt@done 0023  
                           _SSPADD 0FC8                             _SSPBUF 0FC9  
                           _Lo_ISR 0018                ??_button_initialize 000F  
                     vfprintf@cfmt 002E                          ??___aldiv 0017  
                        ??___almod 0017                          ??___lldiv 0017  
                        ??___llmod 0017                             clear_0 1308  
                           clear_1 1314                             isa$std 0001  
                           _printf 13D8              max30102_write_reg@reg 0012  
                           fputc@c 0010          __end_of_button_initialize 1446  
                  ?_i2c_initialize 0001                       __mediumconst 0600  
                           tblptrh 0FF7                             tblptrl 0FF6  
                           tblptru 0FF8                   __end_of_vfprintf 122A  
           ??_adc_start_conversion 000F                         __accesstop 0080  
          __end_of__initialization 131A                      ___rparam_used 0001  
                  ??_i2c_rep_start 0010                        _i2c_is_idle 134E  
                    __end_of_H_ISR 1142                     __pcstackCOMRAM 0001  
                    __end_of_fputc 0F24                      __end_of_putch 11A4  
                __end_of_i2c_start 1456                  __end_of_i2c_write 12DA  
                          ??_H_ISR 0003      max30102_read_fifo@pun_red_led 0012  
                          ??_fputc 0014                            ??_putch 000F  
                       __pbssBANK0 0080                          ?_i2c_read 0001  
                        ?_i2c_stop 0001                            ?_Lo_ISR 0001  
             max30102_available@rd 0015               max30102_available@wr 0014  
      ??_variable_register_changed 0008                    _uart_initialize 1398  
                          ?_printf 002F                            i2u51_40 1388  
                          i2u51_41 1382                            i2u52_40 138A  
                          _SSPCON2 0FC5                         _btn_interr 006D  
                       ??_i2c_read 0010                         ??_i2c_stop 0010  
                          __Hparam 0000                            __Lparam 0000  
                          ___aldiv 0B88                     _adc_initialize 1328  
                          ___almod 0C92                            ___lldiv 0F24  
                          ___llmod 0FC8                          ?_vfprintf 002A  
                     __psmallconst 0600                            __pcinit 1302  
                          _alcohol 006A                            __ramtop 0600  
                          __ptext0 0D7C                            __ptext1 128A  
                          __ptext2 1398                            __ptext3 13F2  
                          __ptext4 143E                            __ptext5 1328  
                          __ptext6 13D8                            __ptext7 11E8  
                          __ptext8 0650                            __ptext9 0E5A  
       __end_of_max30102_available 1422                   ___aldiv@dividend 000F  
                  i2c_read@recieve 0011          _variable_register_changed 1434  
                   __pintcode_body 10CE               end_of_initialization 131A  
                          fputc@fp 0012                      __Lmediumconst 0000  
                          int_func 10CE         __end_of_max30102_read_fifo 0B88  
                __end_of_uart_read 11E8                    ___lldiv@divisor 0013  
                  ___lldiv@counter 001B             __end_of_adc_initialize 134E  
          __end_of_uart_initialize 13BA                  __end_of_vfpfcnvrt 0A48  
                        _RCSTAbits 0FAB                   ___aldiv@quotient 0019  
                          postdec2 0FDD                            postinc0 0FEE  
                          postinc1 0FE6                            postinc2 0FDE  
                 vfpfcnvrt@convarg 0025                         ??_vfprintf 002E  
                 ??_i2c_initialize 000F                          _PORTBbits 0F81  
                        _TRISAbits 0F92                          _TRISCbits 0F94  
              _max30102_initialize 1050                          _TXSTAbits 0FAC  
                       main@ir_val 003E         __end_of_max30102_write_reg 13D8  
                     ?_i2c_is_idle 0001                    ?_adc_initialize 0001  
                   __end_of_Lo_ISR 0072               ?_max30102_initialize 0001  
                      vfpfcnvrt@ap 0020                        vfpfcnvrt@cp 0024  
                      vfpfcnvrt@fp 001D                        _BAUDCONbits 0FB8  
                   __end_of_printf 13F2                start_initialization 1302  
                      __end_of_abs 125E                          _i2c_start 144E  
                        _i2c_write 12B2               max30102_read_fifo@ir 001D  
             max30102_read_reg@reg 0012               max30102_read_reg@val 0013  
                  ___llmod@divisor 0013                    ___llmod@counter 0017  
                         ??_Lo_ISR 0008                   _uart_buffer_size 0066  
            ??_max30102_initialize 0014                   ?_uart_initialize 0001  
            __end_of_i2c_rep_start 145E                        vfprintf@fmt 002C  
                         ??_printf 0036                        __pbssCOMRAM 0042  
                       ?_i2c_start 0001                         ?_i2c_write 0001  
                   _button_pressed 1374                          __pintcode 0008  
                         ?___aldiv 000F                           ?___almod 000F  
                         ?___lldiv 000F                           ?___llmod 000F  
                      __pintcodelo 0018                   ___almod@dividend 000F  
                      __smallconst 0600             __end_of_button_pressed 1398  
                  ___aldiv@divisor 0013                    ___aldiv@counter 0017  
               _max30102_available 140A                           _IPR1bits 0F9F  
                         _PIE1bits 0F9D                           i1u112_20 0034  
                         i1u112_21 0030                           i1u119_27 005A  
                         i2u110_40 111E                           i2u110_41 111A  
                         i2u111_40 112C                           i2u111_41 1128  
                         i2u104_40 11C0                           i2u104_41 11BC  
                         i2u120_47 10EE                           i2u105_40 11D2  
                         i2u105_41 11CE                           i2u108_40 10E6  
                         i2u108_41 10E2                           i2u109_40 1104  
                         i2u109_41 1100                           _PIR1bits 0F9E  
__end_of_variable_register_changed 143E                ?_max30102_available 0001  
                         _RCONbits 0FD0                          _uart_read 11A4  
                        _vfpfcnvrt 0650                 _max30102_read_fifo 0A48  
                       _ADCON0bits 0FC2                         _ADCON1bits 0FC1  
                       _ADCON2bits 0FC0                ?_max30102_read_fifo 0012  
             ??_max30102_available 0014                        ??_i2c_start 0010  
                      ??_i2c_write 0010                  _system_initialize 128A  
                       vfpfcnvrt@c 0029                 ?_system_initialize 0001  
                  ?_button_pressed 0001                           _i2c_read 12DA  
                 ??_adc_initialize 000F                           _i2c_stop 1446  
              ??_system_initialize 000F                           __Hrparam 0000  
             ??_max30102_read_fifo 0014                         vfprintf@ap 002D  
                         __Lrparam 0000                         vfprintf@fp 002A  
                       ?_uart_read 0001                         ?_vfpfcnvrt 001D  
               _max30102_write_reg 13BA          __end_of_system_initialize 12B2  
              ?_max30102_write_reg 0011                           __ptext10 1142  
                         __ptext11 122A                           __ptext20 125E  
                         __ptext12 0FC8                           __ptext21 12B2  
                         __ptext13 0F24                           __ptext22 1446  
                         __ptext14 0C92                           __ptext31 11A4  
                         __ptext23 144E                           __ptext15 0B88  
                         __ptext32 1374                           __ptext24 1456  
                         __ptext16 0A48                           __ptext25 12DA  
                         __ptext17 1050                           __ptext26 134E  
                         __ptext18 13BA                           __ptext27 1422  
                         __ptext19 140A                           __ptext29 1434  
                  ___almod@divisor 0013                    ___almod@counter 0017  
     max30102_read_fifo@pun_ir_led 0013     variable_register_changed@value 0006  
             ??_max30102_write_reg 0012                           isa$xinst 0000  
                         int$flags 006E                  _max30102_read_reg 125E  
                         _vfprintf 11E8                          printf@fmt 002F  
               ?_max30102_read_reg 0001            max30102_write_reg@value 0011  
     __end_of_adc_start_conversion 1434                  i2c_write@i2c_data 0010  
                        putch@data 000F                         _INTCONbits 0FF2  
              ??_max30102_read_reg 0012                           intlevel1 0000  
                         intlevel2 0000        __end_of_max30102_initialize 10CE  
                      Lo_ISR@value 000D                   ___lldiv@dividend 000F  
                       _OSCCONbits 0FD3                      uart_read@data 0002  
        __end_of_max30102_read_reg 128A                        ??_uart_read 0001  
       max30102_initialize@part_id 0014                           printf@ap 0036  
                      ??_vfpfcnvrt 0021                        _uart_buffer 0080  
                 ___lldiv@quotient 0017                       ___aldiv@sign 0018  
                      _SSPCON1bits 0FC6                        _SSPCON2bits 0FC5  
                     ___almod@sign 0018  
